{
 "array_types" :
 [
  {
   "alignment" : 4,
   "linker_set_key" : "_ZTIA0_i",
   "name" : "int[0]",
   "referenced_type" : "_ZTIi",
   "source_file" : "system/core/libcutils/include/cutils/native_handle.h"
  },
  {
   "alignment" : 4,
   "linker_set_key" : "_ZTIA10_N7android8hardware12renderscript4V1_019AllocationUsageTypeE",
   "name" : "android::hardware::renderscript::V1_0::AllocationUsageType[10]",
   "referenced_type" : "_ZTIN7android8hardware12renderscript4V1_019AllocationUsageTypeE",
   "size" : 40,
   "source_file" : "external/libcxx/include/array"
  },
  {
   "alignment" : 1,
   "linker_set_key" : "_ZTIA10_c",
   "name" : "char[10]",
   "referenced_type" : "_ZTIc",
   "size" : 10,
   "source_file" : "external/libcxx/include/type_traits"
  },
  {
   "alignment" : 4,
   "linker_set_key" : "_ZTIA10_i",
   "name" : "int[10]",
   "referenced_type" : "_ZTIi",
   "size" : 40,
   "source_file" : "bionic/libc/include/bits/pthread_types.h"
  },
  {
   "alignment" : 2,
   "linker_set_key" : "_ZTIA11_Ds",
   "name" : "char16_t[11]",
   "referenced_type" : "_ZTIDs",
   "size" : 22,
   "source_file" : "external/libcxx/include/string"
  },
  {
   "alignment" : 1,
   "linker_set_key" : "_ZTIA11_c",
   "name" : "char[11]",
   "referenced_type" : "_ZTIc",
   "size" : 11,
   "source_file" : "external/libcxx/include/type_traits"
  },
  {
   "alignment" : 1,
   "linker_set_key" : "_ZTIA120_c",
   "name" : "char[120]",
   "referenced_type" : "_ZTIc",
   "size" : 120,
   "source_file" : "bionic/libc/include/sys/ucontext.h"
  },
  {
   "alignment" : 1,
   "linker_set_key" : "_ZTIA12_c",
   "name" : "char[12]",
   "referenced_type" : "_ZTIc",
   "size" : 12,
   "source_file" : "external/libcxx/include/type_traits"
  },
  {
   "alignment" : 4,
   "linker_set_key" : "_ZTIA12_i",
   "name" : "int[12]",
   "referenced_type" : "_ZTIi",
   "size" : 48,
   "source_file" : "bionic/libc/include/bits/pthread_types.h"
  },
  {
   "alignment" : 1,
   "linker_set_key" : "_ZTIA13_c",
   "name" : "char[13]",
   "referenced_type" : "_ZTIc",
   "size" : 13,
   "source_file" : "external/libcxx/include/type_traits"
  },
  {
   "alignment" : 4,
   "linker_set_key" : "_ZTIA14_N7android8hardware12renderscript4V1_017ScriptIntrinsicIDE",
   "name" : "android::hardware::renderscript::V1_0::ScriptIntrinsicID[14]",
   "referenced_type" : "_ZTIN7android8hardware12renderscript4V1_017ScriptIntrinsicIDE",
   "size" : 56,
   "source_file" : "external/libcxx/include/array"
  },
  {
   "alignment" : 8,
   "linker_set_key" : "_ZTIA14_NSt3__112basic_stringIcNS_11char_traitsIcEENS_9allocatorIcEEEE",
   "name" : "std::basic_string<char>[14]",
   "referenced_type" : "_ZTINSt3__112basic_stringIcNS_11char_traitsIcEENS_9allocatorIcEEEE",
   "size" : 336,
   "source_file" : "external/libcxx/include/locale"
  },
  {
   "alignment" : 8,
   "linker_set_key" : "_ZTIA14_NSt3__112basic_stringIwNS_11char_traitsIwEENS_9allocatorIwEEEE",
   "name" : "std::basic_string<wchar_t>[14]",
   "referenced_type" : "_ZTINSt3__112basic_stringIwNS_11char_traitsIwEENS_9allocatorIwEEEE",
   "size" : 336,
   "source_file" : "external/libcxx/include/locale"
  },
  {
   "alignment" : 1,
   "linker_set_key" : "_ZTIA14_c",
   "name" : "char[14]",
   "referenced_type" : "_ZTIc",
   "size" : 14,
   "source_file" : "external/libcxx/include/type_traits"
  },
  {
   "alignment" : 4,
   "linker_set_key" : "_ZTIA14_i",
   "name" : "int[14]",
   "referenced_type" : "_ZTIi",
   "size" : 56,
   "source_file" : "bionic/libc/include/bits/pthread_types.h"
  },
  {
   "alignment" : 1,
   "linker_set_key" : "_ZTIA15_c",
   "name" : "char[15]",
   "referenced_type" : "_ZTIc",
   "size" : 15,
   "source_file" : "external/libcxx/include/type_traits"
  },
  {
   "alignment" : 1,
   "linker_set_key" : "_ZTIA16_c",
   "name" : "char[16]",
   "referenced_type" : "_ZTIc",
   "size" : 16,
   "source_file" : "bionic/libc/include/bits/pthread_types.h"
  },
  {
   "alignment" : 4,
   "linker_set_key" : "_ZTIA16_f",
   "name" : "float[16]",
   "referenced_type" : "_ZTIf",
   "size" : 64,
   "source_file" : "frameworks/rs/rsDefines.h"
  },
  {
   "alignment" : 8,
   "linker_set_key" : "_ZTIA16_m",
   "name" : "unsigned long[16]",
   "referenced_type" : "_ZTIm",
   "size" : 128,
   "source_file" : "bionic/libc/kernel/uapi/linux/posix_types.h"
  },
  {
   "alignment" : 1,
   "linker_set_key" : "_ZTIA17_c",
   "name" : "char[17]",
   "referenced_type" : "_ZTIc",
   "size" : 17,
   "source_file" : "frameworks/rs/rsDefines.h"
  },
  {
   "alignment" : 1,
   "linker_set_key" : "_ZTIA18_c",
   "name" : "char[18]",
   "referenced_type" : "_ZTIc",
   "size" : 18,
   "source_file" : "external/libcxx/include/type_traits"
  },
  {
   "alignment" : 1,
   "linker_set_key" : "_ZTIA19_c",
   "name" : "char[19]",
   "referenced_type" : "_ZTIc",
   "size" : 19,
   "source_file" : "frameworks/rs/rsDefines.h"
  },
  {
   "alignment" : 8,
   "linker_set_key" : "_ZTIA1_m",
   "name" : "unsigned long[1]",
   "referenced_type" : "_ZTIm",
   "size" : 8,
   "source_file" : "bionic/libc/kernel/uapi/asm-generic/signal.h"
  },
  {
   "alignment" : 1,
   "linker_set_key" : "_ZTIA21_c",
   "name" : "char[21]",
   "referenced_type" : "_ZTIc",
   "size" : 21,
   "source_file" : "frameworks/rs/rsDefines.h"
  },
  {
   "alignment" : 1,
   "linker_set_key" : "_ZTIA22_c",
   "name" : "char[22]",
   "referenced_type" : "_ZTIc",
   "size" : 22,
   "source_file" : "frameworks/rs/rsDefines.h"
  },
  {
   "alignment" : 1,
   "linker_set_key" : "_ZTIA23_Du",
   "name" : "char8_t[23]",
   "referenced_type" : "_ZTIDu",
   "size" : 23,
   "source_file" : "external/libcxx/include/string"
  },
  {
   "alignment" : 1,
   "linker_set_key" : "_ZTIA23_c",
   "name" : "char[23]",
   "referenced_type" : "_ZTIc",
   "size" : 23,
   "source_file" : "external/libcxx/include/type_traits"
  },
  {
   "alignment" : 8,
   "linker_set_key" : "_ZTIA24_NSt3__112basic_stringIcNS_11char_traitsIcEENS_9allocatorIcEEEE",
   "name" : "std::basic_string<char>[24]",
   "referenced_type" : "_ZTINSt3__112basic_stringIcNS_11char_traitsIcEENS_9allocatorIcEEEE",
   "size" : 576,
   "source_file" : "external/libcxx/include/locale"
  },
  {
   "alignment" : 8,
   "linker_set_key" : "_ZTIA24_NSt3__112basic_stringIwNS_11char_traitsIwEENS_9allocatorIwEEEE",
   "name" : "std::basic_string<wchar_t>[24]",
   "referenced_type" : "_ZTINSt3__112basic_stringIwNS_11char_traitsIwEENS_9allocatorIwEEEE",
   "size" : 576,
   "source_file" : "external/libcxx/include/locale"
  },
  {
   "alignment" : 1,
   "linker_set_key" : "_ZTIA256_c",
   "name" : "char[256]",
   "referenced_type" : "_ZTIc",
   "size" : 256,
   "source_file" : "bionic/libc/include/dirent.h"
  },
  {
   "alignment" : 8,
   "linker_set_key" : "_ZTIA2_NSt3__112basic_stringIcNS_11char_traitsIcEENS_9allocatorIcEEEE",
   "name" : "std::basic_string<char>[2]",
   "referenced_type" : "_ZTINSt3__112basic_stringIcNS_11char_traitsIcEENS_9allocatorIcEEEE",
   "size" : 48,
   "source_file" : "external/libcxx/include/locale"
  },
  {
   "alignment" : 8,
   "linker_set_key" : "_ZTIA2_NSt3__112basic_stringIwNS_11char_traitsIwEENS_9allocatorIwEEEE",
   "name" : "std::basic_string<wchar_t>[2]",
   "referenced_type" : "_ZTINSt3__112basic_stringIwNS_11char_traitsIwEENS_9allocatorIwEEEE",
   "size" : 48,
   "source_file" : "external/libcxx/include/locale"
  },
  {
   "alignment" : 1,
   "linker_set_key" : "_ZTIA2_c",
   "name" : "char[2]",
   "referenced_type" : "_ZTIc",
   "size" : 2,
   "source_file" : "external/libcxx/include/type_traits"
  },
  {
   "alignment" : 4,
   "linker_set_key" : "_ZTIA2_i",
   "name" : "int[2]",
   "referenced_type" : "_ZTIi",
   "size" : 8,
   "source_file" : "bionic/libc/kernel/uapi/asm-generic/posix_types.h"
  },
  {
   "alignment" : 2,
   "linker_set_key" : "_ZTIA2_t",
   "name" : "unsigned short[2]",
   "referenced_type" : "_ZTIt",
   "size" : 4,
   "source_file" : "bionic/libc/kernel/uapi/asm-arm64/asm/sigcontext.h"
  },
  {
   "alignment" : 4,
   "linker_set_key" : "_ZTIA31_N7android8hardware12renderscript4V1_08DataTypeE",
   "name" : "android::hardware::renderscript::V1_0::DataType[31]",
   "referenced_type" : "_ZTIN7android8hardware12renderscript4V1_08DataTypeE",
   "size" : 124,
   "source_file" : "external/libcxx/include/array"
  },
  {
   "alignment" : 8,
   "linker_set_key" : "_ZTIA31_m",
   "name" : "unsigned long[31]",
   "referenced_type" : "_ZTIm",
   "size" : 248,
   "source_file" : "bionic/libc/include/sys/user.h"
  },
  {
   "alignment" : 8,
   "linker_set_key" : "_ZTIA31_y",
   "name" : "unsigned long long[31]",
   "referenced_type" : "_ZTIy",
   "size" : 248,
   "source_file" : "bionic/libc/kernel/uapi/asm-arm64/asm/sigcontext.h"
  },
  {
   "alignment" : 1,
   "linker_set_key" : "_ZTIA32_h",
   "name" : "unsigned char[32]",
   "referenced_type" : "_ZTIh",
   "size" : 32,
   "source_file" : "external/libcxx/include/type_traits"
  },
  {
   "alignment" : 4,
   "linker_set_key" : "_ZTIA32_i",
   "name" : "int[32]",
   "referenced_type" : "_ZTIi",
   "size" : 128,
   "source_file" : "bionic/libc/kernel/uapi/asm-generic/siginfo.h"
  },
  {
   "alignment" : 16,
   "linker_set_key" : "_ZTIA32_o",
   "name" : "unsigned __int128[32]",
   "referenced_type" : "_ZTIo",
   "size" : 512,
   "source_file" : "bionic/libc/kernel/uapi/asm-arm64/asm/sigcontext.h"
  },
  {
   "alignment" : 1,
   "linker_set_key" : "_ZTIA33_c",
   "name" : "char[33]",
   "referenced_type" : "_ZTIc",
   "size" : 33,
   "source_file" : "external/libcxx/include/locale"
  },
  {
   "alignment" : 4,
   "linker_set_key" : "_ZTIA3_N7android4hidl4base4V1_09DebugInfo12ArchitectureE",
   "name" : "android::hidl::base::V1_0::DebugInfo::Architecture[3]",
   "referenced_type" : "_ZTIN7android4hidl4base4V1_09DebugInfo12ArchitectureE",
   "size" : 12,
   "source_file" : "external/libcxx/include/array"
  },
  {
   "alignment" : 4,
   "linker_set_key" : "_ZTIA3_N7android8hardware12renderscript4V1_011ContextTypeE",
   "name" : "android::hardware::renderscript::V1_0::ContextType[3]",
   "referenced_type" : "_ZTIN7android8hardware12renderscript4V1_011ContextTypeE",
   "size" : 12,
   "source_file" : "external/libcxx/include/array"
  },
  {
   "alignment" : 4,
   "linker_set_key" : "_ZTIA3_N7android8hardware12renderscript4V1_023AllocationMipmapControlE",
   "name" : "android::hardware::renderscript::V1_0::AllocationMipmapControl[3]",
   "referenced_type" : "_ZTIN7android8hardware12renderscript4V1_023AllocationMipmapControlE",
   "size" : 12,
   "source_file" : "external/libcxx/include/array"
  },
  {
   "alignment" : 1,
   "linker_set_key" : "_ZTIA3_c",
   "name" : "char[3]",
   "referenced_type" : "_ZTIc",
   "size" : 3,
   "source_file" : "external/libcxx/include/type_traits"
  },
  {
   "alignment" : 1,
   "linker_set_key" : "_ZTIA3_h",
   "name" : "unsigned char[3]",
   "referenced_type" : "_ZTIh",
   "size" : 3,
   "source_file" : "system/libhidl/base/include/hidl/HidlSupport.h"
  },
  {
   "alignment" : 4,
   "linker_set_key" : "_ZTIA3_j",
   "name" : "unsigned int[3]",
   "referenced_type" : "_ZTIj",
   "size" : 12,
   "source_file" : "bionic/libc/kernel/uapi/asm-arm64/asm/sigcontext.h"
  },
  {
   "alignment" : 8,
   "linker_set_key" : "_ZTIA3_m",
   "name" : "unsigned long[3]",
   "referenced_type" : "_ZTIm",
   "size" : 24,
   "source_file" : "external/libcxx/include/string"
  },
  {
   "alignment" : 2,
   "linker_set_key" : "_ZTIA3_t",
   "name" : "unsigned short[3]",
   "referenced_type" : "_ZTIt",
   "size" : 6,
   "source_file" : "bionic/libc/kernel/uapi/asm-arm64/asm/sigcontext.h"
  },
  {
   "alignment" : 1,
   "linker_set_key" : "_ZTIA4096_h",
   "name" : "unsigned char[4096]",
   "referenced_type" : "_ZTIh",
   "size" : 4096,
   "source_file" : "bionic/libc/kernel/uapi/asm-arm64/asm/sigcontext.h"
  },
  {
   "alignment" : 4,
   "linker_set_key" : "_ZTIA4_N7android8hardware12renderscript4V1_012ContextFlagsE",
   "name" : "android::hardware::renderscript::V1_0::ContextFlags[4]",
   "referenced_type" : "_ZTIN7android8hardware12renderscript4V1_012ContextFlagsE",
   "size" : 16,
   "source_file" : "external/libcxx/include/array"
  },
  {
   "alignment" : 4,
   "linker_set_key" : "_ZTIA4_N7android8hardware12renderscript4V1_016ThreadPrioritiesE",
   "name" : "android::hardware::renderscript::V1_0::ThreadPriorities[4]",
   "referenced_type" : "_ZTIN7android8hardware12renderscript4V1_016ThreadPrioritiesE",
   "size" : 16,
   "source_file" : "external/libcxx/include/array"
  },
  {
   "alignment" : 4,
   "linker_set_key" : "_ZTIA4_N7android8hardware12renderscript4V1_09YuvFormatE",
   "name" : "android::hardware::renderscript::V1_0::YuvFormat[4]",
   "referenced_type" : "_ZTIN7android8hardware12renderscript4V1_09YuvFormatE",
   "size" : 16,
   "source_file" : "external/libcxx/include/array"
  },
  {
   "alignment" : 1,
   "linker_set_key" : "_ZTIA4_c",
   "name" : "char[4]",
   "referenced_type" : "_ZTIc",
   "size" : 4,
   "source_file" : "external/libcxx/include/type_traits"
  },
  {
   "alignment" : 8,
   "linker_set_key" : "_ZTIA4_d",
   "name" : "double[4]",
   "referenced_type" : "_ZTId",
   "size" : 32,
   "source_file" : "external/libcxx/include/type_traits"
  },
  {
   "alignment" : 4,
   "linker_set_key" : "_ZTIA4_f",
   "name" : "float[4]",
   "referenced_type" : "_ZTIf",
   "size" : 16,
   "source_file" : "frameworks/rs/rsDefines.h"
  },
  {
   "alignment" : 1,
   "linker_set_key" : "_ZTIA4_h",
   "name" : "unsigned char[4]",
   "referenced_type" : "_ZTIh",
   "size" : 4,
   "source_file" : "bionic/libc/include/bits/mbstate_t.h"
  },
  {
   "alignment" : 8,
   "linker_set_key" : "_ZTIA4_l",
   "name" : "long[4]",
   "referenced_type" : "_ZTIl",
   "size" : 32,
   "source_file" : "bionic/libc/include/bits/pthread_types.h"
  },
  {
   "alignment" : 4,
   "linker_set_key" : "_ZTIA5_Di",
   "name" : "char32_t[5]",
   "referenced_type" : "_ZTIDi",
   "size" : 20,
   "source_file" : "external/libcxx/include/string"
  },
  {
   "alignment" : 1,
   "linker_set_key" : "_ZTIA5_c",
   "name" : "char[5]",
   "referenced_type" : "_ZTIc",
   "size" : 5,
   "source_file" : "frameworks/rs/rsDefines.h"
  },
  {
   "alignment" : 4,
   "linker_set_key" : "_ZTIA5_w",
   "name" : "wchar_t[5]",
   "referenced_type" : "_ZTIw",
   "size" : 20,
   "source_file" : "external/libcxx/include/string"
  },
  {
   "alignment" : 8,
   "linker_set_key" : "_ZTIA65_PKc",
   "name" : "const char *[65]",
   "referenced_type" : "_ZTIPKc",
   "size" : 520,
   "source_file" : "bionic/libc/include/signal.h"
  },
  {
   "alignment" : 4,
   "linker_set_key" : "_ZTIA6_N7android8hardware12renderscript4V1_015ForEachStrategyE",
   "name" : "android::hardware::renderscript::V1_0::ForEachStrategy[6]",
   "referenced_type" : "_ZTIN7android8hardware12renderscript4V1_015ForEachStrategyE",
   "size" : 24,
   "source_file" : "external/libcxx/include/array"
  },
  {
   "alignment" : 4,
   "linker_set_key" : "_ZTIA6_N7android8hardware12renderscript4V1_019MessageToClientTypeE",
   "name" : "android::hardware::renderscript::V1_0::MessageToClientType[6]",
   "referenced_type" : "_ZTIN7android8hardware12renderscript4V1_019MessageToClientTypeE",
   "size" : 24,
   "source_file" : "external/libcxx/include/array"
  },
  {
   "alignment" : 4,
   "linker_set_key" : "_ZTIA6_N7android8hardware12renderscript4V1_021AllocationCubemapFaceE",
   "name" : "android::hardware::renderscript::V1_0::AllocationCubemapFace[6]",
   "referenced_type" : "_ZTIN7android8hardware12renderscript4V1_021AllocationCubemapFaceE",
   "size" : 24,
   "source_file" : "external/libcxx/include/array"
  },
  {
   "alignment" : 1,
   "linker_set_key" : "_ZTIA6_c",
   "name" : "char[6]",
   "referenced_type" : "_ZTIc",
   "size" : 6,
   "source_file" : "external/libcxx/include/type_traits"
  },
  {
   "alignment" : 1,
   "linker_set_key" : "_ZTIA7_c",
   "name" : "char[7]",
   "referenced_type" : "_ZTIc",
   "size" : 7,
   "source_file" : "external/libcxx/include/type_traits"
  },
  {
   "alignment" : 1,
   "linker_set_key" : "_ZTIA7_h",
   "name" : "unsigned char[7]",
   "referenced_type" : "_ZTIh",
   "size" : 7,
   "source_file" : "system/libhidl/base/include/hidl/HidlSupport.h"
  },
  {
   "alignment" : 4,
   "linker_set_key" : "_ZTIA8_N7android8hardware12renderscript4V1_012SamplerValueE",
   "name" : "android::hardware::renderscript::V1_0::SamplerValue[8]",
   "referenced_type" : "_ZTIN7android8hardware12renderscript4V1_012SamplerValueE",
   "size" : 32,
   "source_file" : "external/libcxx/include/array"
  },
  {
   "alignment" : 1,
   "linker_set_key" : "_ZTIA8_c",
   "name" : "char[8]",
   "referenced_type" : "_ZTIc",
   "size" : 8,
   "source_file" : "external/libcxx/include/type_traits"
  },
  {
   "alignment" : 4,
   "linker_set_key" : "_ZTIA9_N7android8hardware12renderscript4V1_023MetadataSignatureBitvalE",
   "name" : "android::hardware::renderscript::V1_0::MetadataSignatureBitval[9]",
   "referenced_type" : "_ZTIN7android8hardware12renderscript4V1_023MetadataSignatureBitvalE",
   "size" : 36,
   "source_file" : "external/libcxx/include/array"
  },
  {
   "alignment" : 4,
   "linker_set_key" : "_ZTIA9_N7android8hardware12renderscript4V1_08DataKindE",
   "name" : "android::hardware::renderscript::V1_0::DataKind[9]",
   "referenced_type" : "_ZTIN7android8hardware12renderscript4V1_08DataKindE",
   "size" : 36,
   "source_file" : "external/libcxx/include/array"
  },
  {
   "alignment" : 1,
   "linker_set_key" : "_ZTIA9_c",
   "name" : "char[9]",
   "referenced_type" : "_ZTIc",
   "size" : 9,
   "source_file" : "frameworks/rs/rsDefines.h"
  },
  {
   "alignment" : 4,
   "linker_set_key" : "_ZTIA9_f",
   "name" : "float[9]",
   "referenced_type" : "_ZTIf",
   "size" : 36,
   "source_file" : "frameworks/rs/rsDefines.h"
  },
  {
   "is_of_unknown_bound" : true,
   "linker_set_key" : "_ZTIA_Pc",
   "name" : "char *[]",
   "referenced_type" : "_ZTIPc",
   "source_file" : "bionic/libc/include/time.h"
  }
 ],
 "builtin_types" :
 [
  {
   "alignment" : 4,
   "is_integral" : true,
   "is_unsigned" : true,
   "linker_set_key" : "_ZTIDi",
   "name" : "char32_t",
   "size" : 4
  },
  {
   "alignment" : 8,
   "linker_set_key" : "_ZTIDn",
   "name" : "std::nullptr_t",
   "size" : 8
  },
  {
   "alignment" : 2,
   "is_integral" : true,
   "is_unsigned" : true,
   "linker_set_key" : "_ZTIDs",
   "name" : "char16_t",
   "size" : 2
  },
  {
   "alignment" : 1,
   "is_integral" : true,
   "is_unsigned" : true,
   "linker_set_key" : "_ZTIDu",
   "name" : "char8_t",
   "size" : 1
  },
  {
   "alignment" : 1,
   "is_integral" : true,
   "linker_set_key" : "_ZTIa",
   "name" : "signed char",
   "size" : 1
  },
  {
   "alignment" : 1,
   "is_integral" : true,
   "is_unsigned" : true,
   "linker_set_key" : "_ZTIb",
   "name" : "bool",
   "size" : 1
  },
  {
   "alignment" : 1,
   "is_integral" : true,
   "is_unsigned" : true,
   "linker_set_key" : "_ZTIc",
   "name" : "char",
   "size" : 1
  },
  {
   "alignment" : 8,
   "linker_set_key" : "_ZTId",
   "name" : "double",
   "size" : 8
  },
  {
   "alignment" : 16,
   "linker_set_key" : "_ZTIe",
   "name" : "long double",
   "size" : 16
  },
  {
   "alignment" : 4,
   "linker_set_key" : "_ZTIf",
   "name" : "float",
   "size" : 4
  },
  {
   "alignment" : 1,
   "is_integral" : true,
   "is_unsigned" : true,
   "linker_set_key" : "_ZTIh",
   "name" : "unsigned char",
   "size" : 1
  },
  {
   "alignment" : 4,
   "is_integral" : true,
   "linker_set_key" : "_ZTIi",
   "name" : "int",
   "size" : 4
  },
  {
   "alignment" : 4,
   "is_integral" : true,
   "is_unsigned" : true,
   "linker_set_key" : "_ZTIj",
   "name" : "unsigned int",
   "size" : 4
  },
  {
   "alignment" : 8,
   "is_integral" : true,
   "linker_set_key" : "_ZTIl",
   "name" : "long",
   "size" : 8
  },
  {
   "alignment" : 8,
   "is_integral" : true,
   "is_unsigned" : true,
   "linker_set_key" : "_ZTIm",
   "name" : "unsigned long",
   "size" : 8
  },
  {
   "alignment" : 16,
   "is_integral" : true,
   "linker_set_key" : "_ZTIn",
   "name" : "__int128",
   "size" : 16
  },
  {
   "alignment" : 16,
   "is_integral" : true,
   "is_unsigned" : true,
   "linker_set_key" : "_ZTIo",
   "name" : "unsigned __int128",
   "size" : 16
  },
  {
   "alignment" : 2,
   "is_integral" : true,
   "linker_set_key" : "_ZTIs",
   "name" : "short",
   "size" : 2
  },
  {
   "alignment" : 2,
   "is_integral" : true,
   "is_unsigned" : true,
   "linker_set_key" : "_ZTIt",
   "name" : "unsigned short",
   "size" : 2
  },
  {
   "linker_set_key" : "_ZTIv",
   "name" : "void"
  },
  {
   "alignment" : 4,
   "is_integral" : true,
   "is_unsigned" : true,
   "linker_set_key" : "_ZTIw",
   "name" : "wchar_t",
   "size" : 4
  },
  {
   "alignment" : 8,
   "is_integral" : true,
   "linker_set_key" : "_ZTIx",
   "name" : "long long",
   "size" : 8
  },
  {
   "alignment" : 8,
   "is_integral" : true,
   "is_unsigned" : true,
   "linker_set_key" : "_ZTIy",
   "name" : "unsigned long long",
   "size" : 8
  }
 ],
 "elf_functions" :
 [
  {
   "name" : "rsAllocation1DData"
  },
  {
   "name" : "rsAllocation1DElementData"
  },
  {
   "name" : "rsAllocation1DRead"
  },
  {
   "name" : "rsAllocation2DData"
  },
  {
   "name" : "rsAllocation2DRead"
  },
  {
   "name" : "rsAllocation3DData"
  },
  {
   "name" : "rsAllocation3DRead"
  },
  {
   "name" : "rsAllocationAdapterCreate"
  },
  {
   "name" : "rsAllocationAdapterOffset"
  },
  {
   "name" : "rsAllocationCopy2DRange"
  },
  {
   "name" : "rsAllocationCopy3DRange"
  },
  {
   "name" : "rsAllocationCopyToBitmap"
  },
  {
   "name" : "rsAllocationCreateFromBitmap"
  },
  {
   "name" : "rsAllocationCreateTyped"
  },
  {
   "name" : "rsAllocationCubeCreateFromBitmap"
  },
  {
   "name" : "rsAllocationElementData"
  },
  {
   "name" : "rsAllocationElementRead"
  },
  {
   "name" : "rsAllocationGenerateMipmaps"
  },
  {
   "name" : "rsAllocationGetPointer"
  },
  {
   "name" : "rsAllocationGetSurface"
  },
  {
   "name" : "rsAllocationIoReceive"
  },
  {
   "name" : "rsAllocationIoSend"
  },
  {
   "name" : "rsAllocationRead"
  },
  {
   "name" : "rsAllocationResize1D"
  },
  {
   "name" : "rsAllocationSetSurface"
  },
  {
   "name" : "rsAllocationSetupBufferQueue"
  },
  {
   "name" : "rsAllocationShareBufferQueue"
  },
  {
   "name" : "rsAllocationSyncAll"
  },
  {
   "name" : "rsAssignName"
  },
  {
   "name" : "rsClosureCreate"
  },
  {
   "name" : "rsClosureSetArg"
  },
  {
   "name" : "rsClosureSetGlobal"
  },
  {
   "name" : "rsContextBindProgramFragment"
  },
  {
   "name" : "rsContextBindProgramRaster"
  },
  {
   "name" : "rsContextBindProgramStore"
  },
  {
   "name" : "rsContextBindProgramVertex"
  },
  {
   "name" : "rsContextBindRootScript"
  },
  {
   "name" : "rsContextCreate"
  },
  {
   "name" : "rsContextCreateGL"
  },
  {
   "name" : "rsContextDeinitToClient"
  },
  {
   "name" : "rsContextDestroy"
  },
  {
   "name" : "rsContextDestroyWorker"
  },
  {
   "name" : "rsContextDump"
  },
  {
   "name" : "rsContextFinish"
  },
  {
   "name" : "rsContextGetMessage"
  },
  {
   "name" : "rsContextInitToClient"
  },
  {
   "name" : "rsContextPause"
  },
  {
   "name" : "rsContextPeekMessage"
  },
  {
   "name" : "rsContextResume"
  },
  {
   "name" : "rsContextSendMessage"
  },
  {
   "name" : "rsContextSetCacheDir"
  },
  {
   "name" : "rsContextSetPriority"
  },
  {
   "name" : "rsContextSetSurface"
  },
  {
   "name" : "rsDebugGetHighLevelContext"
  },
  {
   "name" : "rsDeviceCreate"
  },
  {
   "name" : "rsDeviceDestroy"
  },
  {
   "name" : "rsDeviceSetConfig"
  },
  {
   "name" : "rsElementCreate"
  },
  {
   "name" : "rsElementCreate2"
  },
  {
   "name" : "rsFontCreateFromFile"
  },
  {
   "name" : "rsFontCreateFromMemory"
  },
  {
   "name" : "rsInvokeClosureCreate"
  },
  {
   "name" : "rsMeshCreate"
  },
  {
   "name" : "rsObjDestroy"
  },
  {
   "name" : "rsProgramBindConstants"
  },
  {
   "name" : "rsProgramBindSampler"
  },
  {
   "name" : "rsProgramBindTexture"
  },
  {
   "name" : "rsProgramFragmentCreate"
  },
  {
   "name" : "rsProgramRasterCreate"
  },
  {
   "name" : "rsProgramStoreCreate"
  },
  {
   "name" : "rsProgramVertexCreate"
  },
  {
   "name" : "rsSamplerCreate"
  },
  {
   "name" : "rsScriptBindAllocation"
  },
  {
   "name" : "rsScriptCCreate"
  },
  {
   "name" : "rsScriptFieldIDCreate"
  },
  {
   "name" : "rsScriptForEach"
  },
  {
   "name" : "rsScriptForEachMulti"
  },
  {
   "name" : "rsScriptGetVarV"
  },
  {
   "name" : "rsScriptGroup2Create"
  },
  {
   "name" : "rsScriptGroupCreate"
  },
  {
   "name" : "rsScriptGroupExecute"
  },
  {
   "name" : "rsScriptGroupSetInput"
  },
  {
   "name" : "rsScriptGroupSetOutput"
  },
  {
   "name" : "rsScriptIntrinsicCreate"
  },
  {
   "name" : "rsScriptInvoke"
  },
  {
   "name" : "rsScriptInvokeIDCreate"
  },
  {
   "name" : "rsScriptInvokeV"
  },
  {
   "name" : "rsScriptKernelIDCreate"
  },
  {
   "name" : "rsScriptReduce"
  },
  {
   "name" : "rsScriptSetTimeZone"
  },
  {
   "name" : "rsScriptSetVarD"
  },
  {
   "name" : "rsScriptSetVarF"
  },
  {
   "name" : "rsScriptSetVarI"
  },
  {
   "name" : "rsScriptSetVarJ"
  },
  {
   "name" : "rsScriptSetVarObj"
  },
  {
   "name" : "rsScriptSetVarV"
  },
  {
   "name" : "rsScriptSetVarVE"
  },
  {
   "name" : "rsTypeCreate"
  },
  {
   "name" : "rsTypeCreate2"
  },
  {
   "name" : "rsaAllocationGetType"
  },
  {
   "name" : "rsaContextSetNativeLibDir"
  },
  {
   "name" : "rsaElementGetNativeData"
  },
  {
   "name" : "rsaElementGetSubElements"
  },
  {
   "name" : "rsaFileA3DCreateFromAsset"
  },
  {
   "name" : "rsaFileA3DCreateFromFile"
  },
  {
   "name" : "rsaFileA3DCreateFromMemory"
  },
  {
   "name" : "rsaFileA3DGetEntryByIndex"
  },
  {
   "name" : "rsaFileA3DGetIndexEntries"
  },
  {
   "name" : "rsaFileA3DGetNumIndexEntries"
  },
  {
   "name" : "rsaGetName"
  },
  {
   "name" : "rsaMeshGetIndexCount"
  },
  {
   "name" : "rsaMeshGetIndices"
  },
  {
   "name" : "rsaMeshGetVertexBufferCount"
  },
  {
   "name" : "rsaMeshGetVertices"
  },
  {
   "name" : "rsaTypeGetNativeData"
  }
 ],
 "elf_objects" :
 [
  {
   "name" : "gDebuggerPresent"
  }
 ],
 "enum_types" :
 [
  {
   "alignment" : 4,
   "enum_fields" :
   [
    {
     "enum_field_value" : 131,
     "name" : "RsBlasNonUnit"
    },
    {
     "enum_field_value" : 132,
     "name" : "RsBlasUnit"
    }
   ],
   "linker_set_key" : "_ZTI10RsBlasDiag",
   "name" : "RsBlasDiag",
   "size" : 4,
   "source_file" : "frameworks/rs/rsDefines.h",
   "underlying_type" : "_ZTIj"
  },
  {
   "alignment" : 4,
   "enum_fields" :
   [
    {
     "enum_field_value" : 141,
     "name" : "RsBlasLeft"
    },
    {
     "enum_field_value" : 142,
     "name" : "RsBlasRight"
    }
   ],
   "linker_set_key" : "_ZTI10RsBlasSide",
   "name" : "RsBlasSide",
   "size" : 4,
   "source_file" : "frameworks/rs/rsDefines.h",
   "underlying_type" : "_ZTIj"
  },
  {
   "alignment" : 4,
   "enum_fields" :
   [
    {
     "enum_field_value" : 121,
     "name" : "RsBlasUpper"
    },
    {
     "enum_field_value" : 122,
     "name" : "RsBlasLower"
    }
   ],
   "linker_set_key" : "_ZTI10RsBlasUplo",
   "name" : "RsBlasUplo",
   "size" : 4,
   "source_file" : "frameworks/rs/rsDefines.h",
   "underlying_type" : "_ZTIj"
  },
  {
   "alignment" : 4,
   "enum_fields" :
   [
    {
     "enum_field_value" : 0,
     "name" : "RS_CULL_BACK"
    },
    {
     "enum_field_value" : 1,
     "name" : "RS_CULL_FRONT"
    },
    {
     "enum_field_value" : 2,
     "name" : "RS_CULL_NONE"
    },
    {
     "enum_field_value" : 100,
     "name" : "RS_CULL_INVALID"
    }
   ],
   "linker_set_key" : "_ZTI10RsCullMode",
   "name" : "RsCullMode",
   "size" : 4,
   "source_file" : "frameworks/rs/rsInternalDefines.h",
   "underlying_type" : "_ZTIj"
  },
  {
   "alignment" : 4,
   "enum_fields" :
   [
    {
     "enum_field_value" : 0,
     "name" : "RS_KIND_USER"
    },
    {
     "enum_field_value" : 7,
     "name" : "RS_KIND_PIXEL_L"
    },
    {
     "enum_field_value" : 8,
     "name" : "RS_KIND_PIXEL_A"
    },
    {
     "enum_field_value" : 9,
     "name" : "RS_KIND_PIXEL_LA"
    },
    {
     "enum_field_value" : 10,
     "name" : "RS_KIND_PIXEL_RGB"
    },
    {
     "enum_field_value" : 11,
     "name" : "RS_KIND_PIXEL_RGBA"
    },
    {
     "enum_field_value" : 12,
     "name" : "RS_KIND_PIXEL_DEPTH"
    },
    {
     "enum_field_value" : 13,
     "name" : "RS_KIND_PIXEL_YUV"
    },
    {
     "enum_field_value" : 100,
     "name" : "RS_KIND_INVALID"
    }
   ],
   "linker_set_key" : "_ZTI10RsDataKind",
   "name" : "RsDataKind",
   "size" : 4,
   "source_file" : "frameworks/rs/rsDefines.h",
   "underlying_type" : "_ZTIj"
  },
  {
   "alignment" : 4,
   "enum_fields" :
   [
    {
     "enum_field_value" : 0,
     "name" : "RS_TYPE_NONE"
    },
    {
     "enum_field_value" : 1,
     "name" : "RS_TYPE_FLOAT_16"
    },
    {
     "enum_field_value" : 2,
     "name" : "RS_TYPE_FLOAT_32"
    },
    {
     "enum_field_value" : 3,
     "name" : "RS_TYPE_FLOAT_64"
    },
    {
     "enum_field_value" : 4,
     "name" : "RS_TYPE_SIGNED_8"
    },
    {
     "enum_field_value" : 5,
     "name" : "RS_TYPE_SIGNED_16"
    },
    {
     "enum_field_value" : 6,
     "name" : "RS_TYPE_SIGNED_32"
    },
    {
     "enum_field_value" : 7,
     "name" : "RS_TYPE_SIGNED_64"
    },
    {
     "enum_field_value" : 8,
     "name" : "RS_TYPE_UNSIGNED_8"
    },
    {
     "enum_field_value" : 9,
     "name" : "RS_TYPE_UNSIGNED_16"
    },
    {
     "enum_field_value" : 10,
     "name" : "RS_TYPE_UNSIGNED_32"
    },
    {
     "enum_field_value" : 11,
     "name" : "RS_TYPE_UNSIGNED_64"
    },
    {
     "enum_field_value" : 12,
     "name" : "RS_TYPE_BOOLEAN"
    },
    {
     "enum_field_value" : 13,
     "name" : "RS_TYPE_UNSIGNED_5_6_5"
    },
    {
     "enum_field_value" : 14,
     "name" : "RS_TYPE_UNSIGNED_5_5_5_1"
    },
    {
     "enum_field_value" : 15,
     "name" : "RS_TYPE_UNSIGNED_4_4_4_4"
    },
    {
     "enum_field_value" : 16,
     "name" : "RS_TYPE_MATRIX_4X4"
    },
    {
     "enum_field_value" : 17,
     "name" : "RS_TYPE_MATRIX_3X3"
    },
    {
     "enum_field_value" : 18,
     "name" : "RS_TYPE_MATRIX_2X2"
    },
    {
     "enum_field_value" : 1000,
     "name" : "RS_TYPE_ELEMENT"
    },
    {
     "enum_field_value" : 1001,
     "name" : "RS_TYPE_TYPE"
    },
    {
     "enum_field_value" : 1002,
     "name" : "RS_TYPE_ALLOCATION"
    },
    {
     "enum_field_value" : 1003,
     "name" : "RS_TYPE_SAMPLER"
    },
    {
     "enum_field_value" : 1004,
     "name" : "RS_TYPE_SCRIPT"
    },
    {
     "enum_field_value" : 1005,
     "name" : "RS_TYPE_MESH"
    },
    {
     "enum_field_value" : 1006,
     "name" : "RS_TYPE_PROGRAM_FRAGMENT"
    },
    {
     "enum_field_value" : 1007,
     "name" : "RS_TYPE_PROGRAM_VERTEX"
    },
    {
     "enum_field_value" : 1008,
     "name" : "RS_TYPE_PROGRAM_RASTER"
    },
    {
     "enum_field_value" : 1009,
     "name" : "RS_TYPE_PROGRAM_STORE"
    },
    {
     "enum_field_value" : 1010,
     "name" : "RS_TYPE_FONT"
    },
    {
     "enum_field_value" : 10000,
     "name" : "RS_TYPE_INVALID"
    }
   ],
   "linker_set_key" : "_ZTI10RsDataType",
   "name" : "RsDataType",
   "size" : 4,
   "source_file" : "frameworks/rs/rsDefines.h",
   "underlying_type" : "_ZTIj"
  },
  {
   "alignment" : 4,
   "enum_fields" :
   [
    {
     "enum_field_value" : 0,
     "name" : "RS_DEPTH_FUNC_ALWAYS"
    },
    {
     "enum_field_value" : 1,
     "name" : "RS_DEPTH_FUNC_LESS"
    },
    {
     "enum_field_value" : 2,
     "name" : "RS_DEPTH_FUNC_LEQUAL"
    },
    {
     "enum_field_value" : 3,
     "name" : "RS_DEPTH_FUNC_GREATER"
    },
    {
     "enum_field_value" : 4,
     "name" : "RS_DEPTH_FUNC_GEQUAL"
    },
    {
     "enum_field_value" : 5,
     "name" : "RS_DEPTH_FUNC_EQUAL"
    },
    {
     "enum_field_value" : 6,
     "name" : "RS_DEPTH_FUNC_NOTEQUAL"
    }
   ],
   "linker_set_key" : "_ZTI11RsDepthFunc",
   "name" : "RsDepthFunc",
   "size" : 4,
   "source_file" : "frameworks/rs/rsInternalDefines.h",
   "underlying_type" : "_ZTIj"
  },
  {
   "alignment" : 4,
   "enum_fields" :
   [
    {
     "enum_field_value" : 0,
     "name" : "RS_DIMENSION_X"
    },
    {
     "enum_field_value" : 1,
     "name" : "RS_DIMENSION_Y"
    },
    {
     "enum_field_value" : 2,
     "name" : "RS_DIMENSION_Z"
    },
    {
     "enum_field_value" : 3,
     "name" : "RS_DIMENSION_LOD"
    },
    {
     "enum_field_value" : 4,
     "name" : "RS_DIMENSION_FACE"
    },
    {
     "enum_field_value" : 100,
     "name" : "RS_DIMENSION_ARRAY_0"
    },
    {
     "enum_field_value" : 101,
     "name" : "RS_DIMENSION_ARRAY_1"
    },
    {
     "enum_field_value" : 102,
     "name" : "RS_DIMENSION_ARRAY_2"
    },
    {
     "enum_field_value" : 103,
     "name" : "RS_DIMENSION_ARRAY_3"
    },
    {
     "enum_field_value" : 103,
     "name" : "RS_DIMENSION_MAX"
    }
   ],
   "linker_set_key" : "_ZTI11RsDimension",
   "name" : "RsDimension",
   "size" : 4,
   "source_file" : "frameworks/rs/rsDefines.h",
   "underlying_type" : "_ZTIj"
  },
  {
   "alignment" : 4,
   "enum_fields" :
   [
    {
     "enum_field_value" : 0,
     "name" : "RS_PRIMITIVE_POINT"
    },
    {
     "enum_field_value" : 1,
     "name" : "RS_PRIMITIVE_LINE"
    },
    {
     "enum_field_value" : 2,
     "name" : "RS_PRIMITIVE_LINE_STRIP"
    },
    {
     "enum_field_value" : 3,
     "name" : "RS_PRIMITIVE_TRIANGLE"
    },
    {
     "enum_field_value" : 4,
     "name" : "RS_PRIMITIVE_TRIANGLE_STRIP"
    },
    {
     "enum_field_value" : 5,
     "name" : "RS_PRIMITIVE_TRIANGLE_FAN"
    },
    {
     "enum_field_value" : 100,
     "name" : "RS_PRIMITIVE_INVALID"
    }
   ],
   "linker_set_key" : "_ZTI11RsPrimitive",
   "name" : "RsPrimitive",
   "size" : 4,
   "source_file" : "frameworks/rs/rsInternalDefines.h",
   "underlying_type" : "_ZTIj"
  },
  {
   "alignment" : 4,
   "enum_fields" :
   [
    {
     "enum_field_value" : 0,
     "name" : "RS_YUV_NONE"
    },
    {
     "enum_field_value" : 842094169,
     "name" : "RS_YUV_YV12"
    },
    {
     "enum_field_value" : 17,
     "name" : "RS_YUV_NV21"
    },
    {
     "enum_field_value" : 35,
     "name" : "RS_YUV_420_888"
    }
   ],
   "linker_set_key" : "_ZTI11RsYuvFormat",
   "name" : "RsYuvFormat",
   "size" : 4,
   "source_file" : "frameworks/rs/rsDefines.h",
   "underlying_type" : "_ZTIj"
  },
  {
   "alignment" : 4,
   "enum_fields" :
   [
    {
     "enum_field_value" : 0,
     "name" : "RS_A3D_CLASS_ID_UNKNOWN"
    },
    {
     "enum_field_value" : 1,
     "name" : "RS_A3D_CLASS_ID_MESH"
    },
    {
     "enum_field_value" : 2,
     "name" : "RS_A3D_CLASS_ID_TYPE"
    },
    {
     "enum_field_value" : 3,
     "name" : "RS_A3D_CLASS_ID_ELEMENT"
    },
    {
     "enum_field_value" : 4,
     "name" : "RS_A3D_CLASS_ID_ALLOCATION"
    },
    {
     "enum_field_value" : 5,
     "name" : "RS_A3D_CLASS_ID_PROGRAM_VERTEX"
    },
    {
     "enum_field_value" : 6,
     "name" : "RS_A3D_CLASS_ID_PROGRAM_RASTER"
    },
    {
     "enum_field_value" : 7,
     "name" : "RS_A3D_CLASS_ID_PROGRAM_FRAGMENT"
    },
    {
     "enum_field_value" : 8,
     "name" : "RS_A3D_CLASS_ID_PROGRAM_STORE"
    },
    {
     "enum_field_value" : 9,
     "name" : "RS_A3D_CLASS_ID_SAMPLER"
    },
    {
     "enum_field_value" : 10,
     "name" : "RS_A3D_CLASS_ID_ANIMATION"
    },
    {
     "enum_field_value" : 11,
     "name" : "RS_A3D_CLASS_ID_ADAPTER_1D"
    },
    {
     "enum_field_value" : 12,
     "name" : "RS_A3D_CLASS_ID_ADAPTER_2D"
    },
    {
     "enum_field_value" : 13,
     "name" : "RS_A3D_CLASS_ID_SCRIPT_C"
    },
    {
     "enum_field_value" : 14,
     "name" : "RS_A3D_CLASS_ID_SCRIPT_KERNEL_ID"
    },
    {
     "enum_field_value" : 15,
     "name" : "RS_A3D_CLASS_ID_SCRIPT_FIELD_ID"
    },
    {
     "enum_field_value" : 16,
     "name" : "RS_A3D_CLASS_ID_SCRIPT_METHOD_ID"
    },
    {
     "enum_field_value" : 17,
     "name" : "RS_A3D_CLASS_ID_SCRIPT_GROUP"
    },
    {
     "enum_field_value" : 18,
     "name" : "RS_A3D_CLASS_ID_CLOSURE"
    },
    {
     "enum_field_value" : 19,
     "name" : "RS_A3D_CLASS_ID_SCRIPT_GROUP2"
    },
    {
     "enum_field_value" : 20,
     "name" : "RS_A3D_CLASS_ID_SCRIPT_INVOKE_ID"
    }
   ],
   "linker_set_key" : "_ZTI12RsA3DClassID",
   "name" : "RsA3DClassID",
   "size" : 4,
   "source_file" : "frameworks/rs/rsInternalDefines.h",
   "underlying_type" : "_ZTIj"
  },
  {
   "alignment" : 4,
   "enum_fields" :
   [
    {
     "enum_field_value" : 0,
     "name" : "RS_TEX_ENV_MODE_NONE"
    },
    {
     "enum_field_value" : 1,
     "name" : "RS_TEX_ENV_MODE_REPLACE"
    },
    {
     "enum_field_value" : 2,
     "name" : "RS_TEX_ENV_MODE_MODULATE"
    },
    {
     "enum_field_value" : 3,
     "name" : "RS_TEX_ENV_MODE_DECAL"
    }
   ],
   "linker_set_key" : "_ZTI12RsTexEnvMode",
   "name" : "RsTexEnvMode",
   "size" : 4,
   "source_file" : "frameworks/rs/rsInternalDefines.h",
   "underlying_type" : "_ZTIj"
  },
  {
   "alignment" : 4,
   "enum_fields" :
   [
    {
     "enum_field_value" : 0,
     "name" : "RS_CONTEXT_TYPE_NORMAL"
    },
    {
     "enum_field_value" : 1,
     "name" : "RS_CONTEXT_TYPE_DEBUG"
    },
    {
     "enum_field_value" : 2,
     "name" : "RS_CONTEXT_TYPE_PROFILE"
    }
   ],
   "linker_set_key" : "_ZTI13RsContextType",
   "name" : "RsContextType",
   "size" : 4,
   "source_file" : "frameworks/rs/rsDefines.h",
   "underlying_type" : "_ZTIj"
  },
  {
   "alignment" : 4,
   "enum_fields" :
   [
    {
     "enum_field_value" : 0,
     "name" : "RS_DEVICE_PARAM_FORCE_SOFTWARE_GL"
    },
    {
     "enum_field_value" : 1,
     "name" : "RS_DEVICE_PARAM_COUNT"
    }
   ],
   "linker_set_key" : "_ZTI13RsDeviceParam",
   "name" : "RsDeviceParam",
   "size" : 4,
   "source_file" : "frameworks/rs/rsDefines.h",
   "underlying_type" : "_ZTIj"
  },
  {
   "alignment" : 4,
   "enum_fields" :
   [
    {
     "enum_field_value" : 0,
     "name" : "RsBlas_nop"
    },
    {
     "enum_field_value" : 1,
     "name" : "RsBlas_sdsdot"
    },
    {
     "enum_field_value" : 2,
     "name" : "RsBlas_dsdot"
    },
    {
     "enum_field_value" : 3,
     "name" : "RsBlas_sdot"
    },
    {
     "enum_field_value" : 4,
     "name" : "RsBlas_ddot"
    },
    {
     "enum_field_value" : 5,
     "name" : "RsBlas_cdotu_sub"
    },
    {
     "enum_field_value" : 6,
     "name" : "RsBlas_cdotc_sub"
    },
    {
     "enum_field_value" : 7,
     "name" : "RsBlas_zdotu_sub"
    },
    {
     "enum_field_value" : 8,
     "name" : "RsBlas_zdotc_sub"
    },
    {
     "enum_field_value" : 9,
     "name" : "RsBlas_snrm2"
    },
    {
     "enum_field_value" : 10,
     "name" : "RsBlas_sasum"
    },
    {
     "enum_field_value" : 11,
     "name" : "RsBlas_dnrm2"
    },
    {
     "enum_field_value" : 12,
     "name" : "RsBlas_dasum"
    },
    {
     "enum_field_value" : 13,
     "name" : "RsBlas_scnrm2"
    },
    {
     "enum_field_value" : 14,
     "name" : "RsBlas_scasum"
    },
    {
     "enum_field_value" : 15,
     "name" : "RsBlas_dznrm2"
    },
    {
     "enum_field_value" : 16,
     "name" : "RsBlas_dzasum"
    },
    {
     "enum_field_value" : 17,
     "name" : "RsBlas_isamax"
    },
    {
     "enum_field_value" : 18,
     "name" : "RsBlas_idamax"
    },
    {
     "enum_field_value" : 19,
     "name" : "RsBlas_icamax"
    },
    {
     "enum_field_value" : 20,
     "name" : "RsBlas_izamax"
    },
    {
     "enum_field_value" : 21,
     "name" : "RsBlas_sswap"
    },
    {
     "enum_field_value" : 22,
     "name" : "RsBlas_scopy"
    },
    {
     "enum_field_value" : 23,
     "name" : "RsBlas_saxpy"
    },
    {
     "enum_field_value" : 24,
     "name" : "RsBlas_dswap"
    },
    {
     "enum_field_value" : 25,
     "name" : "RsBlas_dcopy"
    },
    {
     "enum_field_value" : 26,
     "name" : "RsBlas_daxpy"
    },
    {
     "enum_field_value" : 27,
     "name" : "RsBlas_cswap"
    },
    {
     "enum_field_value" : 28,
     "name" : "RsBlas_ccopy"
    },
    {
     "enum_field_value" : 29,
     "name" : "RsBlas_caxpy"
    },
    {
     "enum_field_value" : 30,
     "name" : "RsBlas_zswap"
    },
    {
     "enum_field_value" : 31,
     "name" : "RsBlas_zcopy"
    },
    {
     "enum_field_value" : 32,
     "name" : "RsBlas_zaxpy"
    },
    {
     "enum_field_value" : 33,
     "name" : "RsBlas_srotg"
    },
    {
     "enum_field_value" : 34,
     "name" : "RsBlas_srotmg"
    },
    {
     "enum_field_value" : 35,
     "name" : "RsBlas_srot"
    },
    {
     "enum_field_value" : 36,
     "name" : "RsBlas_srotm"
    },
    {
     "enum_field_value" : 37,
     "name" : "RsBlas_drotg"
    },
    {
     "enum_field_value" : 38,
     "name" : "RsBlas_drotmg"
    },
    {
     "enum_field_value" : 39,
     "name" : "RsBlas_drot"
    },
    {
     "enum_field_value" : 40,
     "name" : "RsBlas_drotm"
    },
    {
     "enum_field_value" : 41,
     "name" : "RsBlas_sscal"
    },
    {
     "enum_field_value" : 42,
     "name" : "RsBlas_dscal"
    },
    {
     "enum_field_value" : 43,
     "name" : "RsBlas_cscal"
    },
    {
     "enum_field_value" : 44,
     "name" : "RsBlas_zscal"
    },
    {
     "enum_field_value" : 45,
     "name" : "RsBlas_csscal"
    },
    {
     "enum_field_value" : 46,
     "name" : "RsBlas_zdscal"
    },
    {
     "enum_field_value" : 47,
     "name" : "RsBlas_sgemv"
    },
    {
     "enum_field_value" : 48,
     "name" : "RsBlas_sgbmv"
    },
    {
     "enum_field_value" : 49,
     "name" : "RsBlas_strmv"
    },
    {
     "enum_field_value" : 50,
     "name" : "RsBlas_stbmv"
    },
    {
     "enum_field_value" : 51,
     "name" : "RsBlas_stpmv"
    },
    {
     "enum_field_value" : 52,
     "name" : "RsBlas_strsv"
    },
    {
     "enum_field_value" : 53,
     "name" : "RsBlas_stbsv"
    },
    {
     "enum_field_value" : 54,
     "name" : "RsBlas_stpsv"
    },
    {
     "enum_field_value" : 55,
     "name" : "RsBlas_dgemv"
    },
    {
     "enum_field_value" : 56,
     "name" : "RsBlas_dgbmv"
    },
    {
     "enum_field_value" : 57,
     "name" : "RsBlas_dtrmv"
    },
    {
     "enum_field_value" : 58,
     "name" : "RsBlas_dtbmv"
    },
    {
     "enum_field_value" : 59,
     "name" : "RsBlas_dtpmv"
    },
    {
     "enum_field_value" : 60,
     "name" : "RsBlas_dtrsv"
    },
    {
     "enum_field_value" : 61,
     "name" : "RsBlas_dtbsv"
    },
    {
     "enum_field_value" : 62,
     "name" : "RsBlas_dtpsv"
    },
    {
     "enum_field_value" : 63,
     "name" : "RsBlas_cgemv"
    },
    {
     "enum_field_value" : 64,
     "name" : "RsBlas_cgbmv"
    },
    {
     "enum_field_value" : 65,
     "name" : "RsBlas_ctrmv"
    },
    {
     "enum_field_value" : 66,
     "name" : "RsBlas_ctbmv"
    },
    {
     "enum_field_value" : 67,
     "name" : "RsBlas_ctpmv"
    },
    {
     "enum_field_value" : 68,
     "name" : "RsBlas_ctrsv"
    },
    {
     "enum_field_value" : 69,
     "name" : "RsBlas_ctbsv"
    },
    {
     "enum_field_value" : 70,
     "name" : "RsBlas_ctpsv"
    },
    {
     "enum_field_value" : 71,
     "name" : "RsBlas_zgemv"
    },
    {
     "enum_field_value" : 72,
     "name" : "RsBlas_zgbmv"
    },
    {
     "enum_field_value" : 73,
     "name" : "RsBlas_ztrmv"
    },
    {
     "enum_field_value" : 74,
     "name" : "RsBlas_ztbmv"
    },
    {
     "enum_field_value" : 75,
     "name" : "RsBlas_ztpmv"
    },
    {
     "enum_field_value" : 76,
     "name" : "RsBlas_ztrsv"
    },
    {
     "enum_field_value" : 77,
     "name" : "RsBlas_ztbsv"
    },
    {
     "enum_field_value" : 78,
     "name" : "RsBlas_ztpsv"
    },
    {
     "enum_field_value" : 79,
     "name" : "RsBlas_ssymv"
    },
    {
     "enum_field_value" : 80,
     "name" : "RsBlas_ssbmv"
    },
    {
     "enum_field_value" : 81,
     "name" : "RsBlas_sspmv"
    },
    {
     "enum_field_value" : 82,
     "name" : "RsBlas_sger"
    },
    {
     "enum_field_value" : 83,
     "name" : "RsBlas_ssyr"
    },
    {
     "enum_field_value" : 84,
     "name" : "RsBlas_sspr"
    },
    {
     "enum_field_value" : 85,
     "name" : "RsBlas_ssyr2"
    },
    {
     "enum_field_value" : 86,
     "name" : "RsBlas_sspr2"
    },
    {
     "enum_field_value" : 87,
     "name" : "RsBlas_dsymv"
    },
    {
     "enum_field_value" : 88,
     "name" : "RsBlas_dsbmv"
    },
    {
     "enum_field_value" : 89,
     "name" : "RsBlas_dspmv"
    },
    {
     "enum_field_value" : 90,
     "name" : "RsBlas_dger"
    },
    {
     "enum_field_value" : 91,
     "name" : "RsBlas_dsyr"
    },
    {
     "enum_field_value" : 92,
     "name" : "RsBlas_dspr"
    },
    {
     "enum_field_value" : 93,
     "name" : "RsBlas_dsyr2"
    },
    {
     "enum_field_value" : 94,
     "name" : "RsBlas_dspr2"
    },
    {
     "enum_field_value" : 95,
     "name" : "RsBlas_chemv"
    },
    {
     "enum_field_value" : 96,
     "name" : "RsBlas_chbmv"
    },
    {
     "enum_field_value" : 97,
     "name" : "RsBlas_chpmv"
    },
    {
     "enum_field_value" : 98,
     "name" : "RsBlas_cgeru"
    },
    {
     "enum_field_value" : 99,
     "name" : "RsBlas_cgerc"
    },
    {
     "enum_field_value" : 100,
     "name" : "RsBlas_cher"
    },
    {
     "enum_field_value" : 101,
     "name" : "RsBlas_chpr"
    },
    {
     "enum_field_value" : 102,
     "name" : "RsBlas_cher2"
    },
    {
     "enum_field_value" : 103,
     "name" : "RsBlas_chpr2"
    },
    {
     "enum_field_value" : 104,
     "name" : "RsBlas_zhemv"
    },
    {
     "enum_field_value" : 105,
     "name" : "RsBlas_zhbmv"
    },
    {
     "enum_field_value" : 106,
     "name" : "RsBlas_zhpmv"
    },
    {
     "enum_field_value" : 107,
     "name" : "RsBlas_zgeru"
    },
    {
     "enum_field_value" : 108,
     "name" : "RsBlas_zgerc"
    },
    {
     "enum_field_value" : 109,
     "name" : "RsBlas_zher"
    },
    {
     "enum_field_value" : 110,
     "name" : "RsBlas_zhpr"
    },
    {
     "enum_field_value" : 111,
     "name" : "RsBlas_zher2"
    },
    {
     "enum_field_value" : 112,
     "name" : "RsBlas_zhpr2"
    },
    {
     "enum_field_value" : 113,
     "name" : "RsBlas_sgemm"
    },
    {
     "enum_field_value" : 114,
     "name" : "RsBlas_ssymm"
    },
    {
     "enum_field_value" : 115,
     "name" : "RsBlas_ssyrk"
    },
    {
     "enum_field_value" : 116,
     "name" : "RsBlas_ssyr2k"
    },
    {
     "enum_field_value" : 117,
     "name" : "RsBlas_strmm"
    },
    {
     "enum_field_value" : 118,
     "name" : "RsBlas_strsm"
    },
    {
     "enum_field_value" : 119,
     "name" : "RsBlas_dgemm"
    },
    {
     "enum_field_value" : 120,
     "name" : "RsBlas_dsymm"
    },
    {
     "enum_field_value" : 121,
     "name" : "RsBlas_dsyrk"
    },
    {
     "enum_field_value" : 122,
     "name" : "RsBlas_dsyr2k"
    },
    {
     "enum_field_value" : 123,
     "name" : "RsBlas_dtrmm"
    },
    {
     "enum_field_value" : 124,
     "name" : "RsBlas_dtrsm"
    },
    {
     "enum_field_value" : 125,
     "name" : "RsBlas_cgemm"
    },
    {
     "enum_field_value" : 126,
     "name" : "RsBlas_csymm"
    },
    {
     "enum_field_value" : 127,
     "name" : "RsBlas_csyrk"
    },
    {
     "enum_field_value" : 128,
     "name" : "RsBlas_csyr2k"
    },
    {
     "enum_field_value" : 129,
     "name" : "RsBlas_ctrmm"
    },
    {
     "enum_field_value" : 130,
     "name" : "RsBlas_ctrsm"
    },
    {
     "enum_field_value" : 131,
     "name" : "RsBlas_zgemm"
    },
    {
     "enum_field_value" : 132,
     "name" : "RsBlas_zsymm"
    },
    {
     "enum_field_value" : 133,
     "name" : "RsBlas_zsyrk"
    },
    {
     "enum_field_value" : 134,
     "name" : "RsBlas_zsyr2k"
    },
    {
     "enum_field_value" : 135,
     "name" : "RsBlas_ztrmm"
    },
    {
     "enum_field_value" : 136,
     "name" : "RsBlas_ztrsm"
    },
    {
     "enum_field_value" : 137,
     "name" : "RsBlas_chemm"
    },
    {
     "enum_field_value" : 138,
     "name" : "RsBlas_cherk"
    },
    {
     "enum_field_value" : 139,
     "name" : "RsBlas_cher2k"
    },
    {
     "enum_field_value" : 140,
     "name" : "RsBlas_zhemm"
    },
    {
     "enum_field_value" : 141,
     "name" : "RsBlas_zherk"
    },
    {
     "enum_field_value" : 142,
     "name" : "RsBlas_zher2k"
    },
    {
     "enum_field_value" : 1000,
     "name" : "RsBlas_bnnm"
    }
   ],
   "linker_set_key" : "_ZTI14RsBlasFunction",
   "name" : "RsBlasFunction",
   "size" : 4,
   "source_file" : "frameworks/rs/rsDefines.h",
   "underlying_type" : "_ZTIj"
  },
  {
   "alignment" : 4,
   "enum_fields" :
   [
    {
     "enum_field_value" : 0,
     "name" : "RS_BLEND_DST_ZERO"
    },
    {
     "enum_field_value" : 1,
     "name" : "RS_BLEND_DST_ONE"
    },
    {
     "enum_field_value" : 2,
     "name" : "RS_BLEND_DST_SRC_COLOR"
    },
    {
     "enum_field_value" : 3,
     "name" : "RS_BLEND_DST_ONE_MINUS_SRC_COLOR"
    },
    {
     "enum_field_value" : 4,
     "name" : "RS_BLEND_DST_SRC_ALPHA"
    },
    {
     "enum_field_value" : 5,
     "name" : "RS_BLEND_DST_ONE_MINUS_SRC_ALPHA"
    },
    {
     "enum_field_value" : 6,
     "name" : "RS_BLEND_DST_DST_ALPHA"
    },
    {
     "enum_field_value" : 7,
     "name" : "RS_BLEND_DST_ONE_MINUS_DST_ALPHA"
    },
    {
     "enum_field_value" : 100,
     "name" : "RS_BLEND_DST_INVALID"
    }
   ],
   "linker_set_key" : "_ZTI14RsBlendDstFunc",
   "name" : "RsBlendDstFunc",
   "size" : 4,
   "source_file" : "frameworks/rs/rsInternalDefines.h",
   "underlying_type" : "_ZTIj"
  },
  {
   "alignment" : 4,
   "enum_fields" :
   [
    {
     "enum_field_value" : 0,
     "name" : "RS_BLEND_SRC_ZERO"
    },
    {
     "enum_field_value" : 1,
     "name" : "RS_BLEND_SRC_ONE"
    },
    {
     "enum_field_value" : 2,
     "name" : "RS_BLEND_SRC_DST_COLOR"
    },
    {
     "enum_field_value" : 3,
     "name" : "RS_BLEND_SRC_ONE_MINUS_DST_COLOR"
    },
    {
     "enum_field_value" : 4,
     "name" : "RS_BLEND_SRC_SRC_ALPHA"
    },
    {
     "enum_field_value" : 5,
     "name" : "RS_BLEND_SRC_ONE_MINUS_SRC_ALPHA"
    },
    {
     "enum_field_value" : 6,
     "name" : "RS_BLEND_SRC_DST_ALPHA"
    },
    {
     "enum_field_value" : 7,
     "name" : "RS_BLEND_SRC_ONE_MINUS_DST_ALPHA"
    },
    {
     "enum_field_value" : 8,
     "name" : "RS_BLEND_SRC_SRC_ALPHA_SATURATE"
    },
    {
     "enum_field_value" : 100,
     "name" : "RS_BLEND_SRC_INVALID"
    }
   ],
   "linker_set_key" : "_ZTI14RsBlendSrcFunc",
   "name" : "RsBlendSrcFunc",
   "size" : 4,
   "source_file" : "frameworks/rs/rsInternalDefines.h",
   "underlying_type" : "_ZTIj"
  },
  {
   "alignment" : 4,
   "enum_fields" :
   [
    {
     "enum_field_value" : 1,
     "name" : "RS_CONTEXT_SYNCHRONOUS"
    },
    {
     "enum_field_value" : 2,
     "name" : "RS_CONTEXT_LOW_LATENCY"
    },
    {
     "enum_field_value" : 4,
     "name" : "RS_CONTEXT_LOW_POWER"
    },
    {
     "enum_field_value" : 8,
     "name" : "RS_CONTEXT_WAIT_FOR_ATTACH"
    }
   ],
   "linker_set_key" : "_ZTI14RsContextFlags",
   "name" : "RsContextFlags",
   "size" : 4,
   "source_file" : "frameworks/rs/rsDefines.h",
   "underlying_type" : "_ZTIj"
  },
  {
   "alignment" : 4,
   "enum_fields" :
   [
    {
     "enum_field_value" : 0,
     "name" : "RS_PROGRAM_PARAM_INPUT"
    },
    {
     "enum_field_value" : 1,
     "name" : "RS_PROGRAM_PARAM_OUTPUT"
    },
    {
     "enum_field_value" : 2,
     "name" : "RS_PROGRAM_PARAM_CONSTANT"
    },
    {
     "enum_field_value" : 3,
     "name" : "RS_PROGRAM_PARAM_TEXTURE_TYPE"
    }
   ],
   "linker_set_key" : "_ZTI14RsProgramParam",
   "name" : "RsProgramParam",
   "size" : 4,
   "source_file" : "frameworks/rs/rsInternalDefines.h",
   "underlying_type" : "_ZTIj"
  },
  {
   "alignment" : 4,
   "enum_fields" :
   [
    {
     "enum_field_value" : 0,
     "name" : "RS_SAMPLER_MIN_FILTER"
    },
    {
     "enum_field_value" : 1,
     "name" : "RS_SAMPLER_MAG_FILTER"
    },
    {
     "enum_field_value" : 2,
     "name" : "RS_SAMPLER_WRAP_S"
    },
    {
     "enum_field_value" : 3,
     "name" : "RS_SAMPLER_WRAP_T"
    },
    {
     "enum_field_value" : 4,
     "name" : "RS_SAMPLER_WRAP_R"
    },
    {
     "enum_field_value" : 5,
     "name" : "RS_SAMPLER_ANISO"
    }
   ],
   "linker_set_key" : "_ZTI14RsSamplerParam",
   "name" : "RsSamplerParam",
   "size" : 4,
   "source_file" : "frameworks/rs/rsDefines.h",
   "underlying_type" : "_ZTIj"
  },
  {
   "alignment" : 4,
   "enum_fields" :
   [
    {
     "enum_field_value" : 0,
     "name" : "RS_SAMPLER_NEAREST"
    },
    {
     "enum_field_value" : 1,
     "name" : "RS_SAMPLER_LINEAR"
    },
    {
     "enum_field_value" : 2,
     "name" : "RS_SAMPLER_LINEAR_MIP_LINEAR"
    },
    {
     "enum_field_value" : 3,
     "name" : "RS_SAMPLER_WRAP"
    },
    {
     "enum_field_value" : 4,
     "name" : "RS_SAMPLER_CLAMP"
    },
    {
     "enum_field_value" : 5,
     "name" : "RS_SAMPLER_LINEAR_MIP_NEAREST"
    },
    {
     "enum_field_value" : 6,
     "name" : "RS_SAMPLER_MIRRORED_REPEAT"
    },
    {
     "enum_field_value" : 100,
     "name" : "RS_SAMPLER_INVALID"
    }
   ],
   "linker_set_key" : "_ZTI14RsSamplerValue",
   "name" : "RsSamplerValue",
   "size" : 4,
   "source_file" : "frameworks/rs/rsDefines.h",
   "underlying_type" : "_ZTIj"
  },
  {
   "alignment" : 4,
   "enum_fields" :
   [
    {
     "enum_field_value" : 0,
     "name" : "JNIInvalidRefType"
    },
    {
     "enum_field_value" : 1,
     "name" : "JNILocalRefType"
    },
    {
     "enum_field_value" : 2,
     "name" : "JNIGlobalRefType"
    },
    {
     "enum_field_value" : 3,
     "name" : "JNIWeakGlobalRefType"
    }
   ],
   "linker_set_key" : "_ZTI14jobjectRefType",
   "name" : "jobjectRefType",
   "size" : 4,
   "source_file" : "libnativehelper/include_jni/jni.h",
   "underlying_type" : "_ZTIj"
  },
  {
   "alignment" : 4,
   "enum_fields" :
   [
    {
     "enum_field_value" : 0,
     "name" : "RS_ANIMATION_EDGE_UNDEFINED"
    },
    {
     "enum_field_value" : 1,
     "name" : "RS_ANIMATION_EDGE_CONSTANT"
    },
    {
     "enum_field_value" : 2,
     "name" : "RS_ANIMATION_EDGE_GRADIENT"
    },
    {
     "enum_field_value" : 3,
     "name" : "RS_ANIMATION_EDGE_CYCLE"
    },
    {
     "enum_field_value" : 4,
     "name" : "RS_ANIMATION_EDGE_OSCILLATE"
    },
    {
     "enum_field_value" : 5,
     "name" : "RS_ANIMATION_EDGE_CYLE_RELATIVE"
    }
   ],
   "linker_set_key" : "_ZTI15RsAnimationEdge",
   "name" : "RsAnimationEdge",
   "size" : 4,
   "source_file" : "frameworks/rs/rsInternalDefines.h",
   "underlying_type" : "_ZTIj"
  },
  {
   "alignment" : 4,
   "enum_fields" :
   [
    {
     "enum_field_value" : 111,
     "name" : "RsBlasNoTrans"
    },
    {
     "enum_field_value" : 112,
     "name" : "RsBlasTrans"
    },
    {
     "enum_field_value" : 113,
     "name" : "RsBlasConjTrans"
    }
   ],
   "linker_set_key" : "_ZTI15RsBlasTranspose",
   "name" : "RsBlasTranspose",
   "size" : 4,
   "source_file" : "frameworks/rs/rsDefines.h",
   "underlying_type" : "_ZTIj"
  },
  {
   "alignment" : 4,
   "enum_fields" :
   [
    {
     "enum_field_value" : 0,
     "name" : "RS_PATH_PRIMITIVE_QUADRATIC_BEZIER"
    },
    {
     "enum_field_value" : 1,
     "name" : "RS_PATH_PRIMITIVE_CUBIC_BEZIER"
    }
   ],
   "linker_set_key" : "_ZTI15RsPathPrimitive",
   "name" : "RsPathPrimitive",
   "size" : 4,
   "source_file" : "frameworks/rs/rsInternalDefines.h",
   "underlying_type" : "_ZTIj"
  },
  {
   "alignment" : 4,
   "enum_fields" :
   [
    {
     "enum_field_value" : 0,
     "name" : "RS_TEXTURE_2D"
    },
    {
     "enum_field_value" : 1,
     "name" : "RS_TEXTURE_CUBE"
    }
   ],
   "linker_set_key" : "_ZTI15RsTextureTarget",
   "name" : "RsTextureTarget",
   "size" : 4,
   "source_file" : "frameworks/rs/rsInternalDefines.h",
   "underlying_type" : "_ZTIj"
  },
  {
   "alignment" : 4,
   "enum_fields" :
   [
    {
     "enum_field_value" : 0,
     "name" : "M_HEAP_TAGGING_LEVEL_NONE"
    },
    {
     "enum_field_value" : 1,
     "name" : "M_HEAP_TAGGING_LEVEL_TBI"
    },
    {
     "enum_field_value" : 2,
     "name" : "M_HEAP_TAGGING_LEVEL_ASYNC"
    },
    {
     "enum_field_value" : 3,
     "name" : "M_HEAP_TAGGING_LEVEL_SYNC"
    }
   ],
   "linker_set_key" : "_ZTI16HeapTaggingLevel",
   "name" : "HeapTaggingLevel",
   "size" : 4,
   "source_file" : "bionic/libc/include/malloc.h",
   "underlying_type" : "_ZTIj"
  },
  {
   "alignment" : 4,
   "enum_fields" :
   [
    {
     "enum_field_value" : 65535,
     "name" : "RS_GLOBAL_TYPE"
    },
    {
     "enum_field_value" : 65536,
     "name" : "RS_GLOBAL_CONSTANT"
    },
    {
     "enum_field_value" : 131072,
     "name" : "RS_GLOBAL_STATIC"
    },
    {
     "enum_field_value" : 262144,
     "name" : "RS_GLOBAL_POINTER"
    }
   ],
   "linker_set_key" : "_ZTI16RsGlobalProperty",
   "name" : "RsGlobalProperty",
   "size" : 4,
   "source_file" : "frameworks/rs/rsDefines.h",
   "underlying_type" : "_ZTIj"
  },
  {
   "alignment" : 4,
   "enum_fields" :
   [
    {
     "enum_field_value" : 0,
     "name" : "RS_FOR_EACH_STRATEGY_SERIAL"
    },
    {
     "enum_field_value" : 1,
     "name" : "RS_FOR_EACH_STRATEGY_DONT_CARE"
    },
    {
     "enum_field_value" : 2,
     "name" : "RS_FOR_EACH_STRATEGY_DST_LINEAR"
    },
    {
     "enum_field_value" : 3,
     "name" : "RS_FOR_EACH_STRATEGY_TILE_SMALL"
    },
    {
     "enum_field_value" : 4,
     "name" : "RS_FOR_EACH_STRATEGY_TILE_MEDIUM"
    },
    {
     "enum_field_value" : 5,
     "name" : "RS_FOR_EACH_STRATEGY_TILE_LARGE"
    }
   ],
   "linker_set_key" : "_ZTI17RsForEachStrategy",
   "name" : "RsForEachStrategy",
   "size" : 4,
   "source_file" : "frameworks/rs/rsDefines.h",
   "underlying_type" : "_ZTIj"
  },
  {
   "alignment" : 4,
   "enum_fields" :
   [
    {
     "enum_field_value" : 15,
     "name" : "RS_THREAD_PRIORITY_LOW"
    },
    {
     "enum_field_value" : -8,
     "name" : "RS_THREAD_PRIORITY_NORMAL_GRAPHICS"
    },
    {
     "enum_field_value" : -1,
     "name" : "RS_THREAD_PRIORITY_NORMAL"
    },
    {
     "enum_field_value" : -4,
     "name" : "RS_THREAD_PRIORITY_LOW_LATENCY"
    }
   ],
   "linker_set_key" : "_ZTI18RsThreadPriorities",
   "name" : "RsThreadPriorities",
   "size" : 4,
   "source_file" : "frameworks/rs/rsInternalDefines.h",
   "underlying_type" : "_ZTIi"
  },
  {
   "alignment" : 4,
   "enum_fields" :
   [
    {
     "enum_field_value" : 10,
     "name" : "EVENT_TYPE_LIST_STOP"
    },
    {
     "enum_field_value" : 63,
     "name" : "EVENT_TYPE_UNKNOWN"
    },
    {
     "enum_field_value" : 0,
     "name" : "EVENT_TYPE_INT"
    },
    {
     "enum_field_value" : 1,
     "name" : "EVENT_TYPE_LONG"
    },
    {
     "enum_field_value" : 2,
     "name" : "EVENT_TYPE_STRING"
    },
    {
     "enum_field_value" : 3,
     "name" : "EVENT_TYPE_LIST"
    },
    {
     "enum_field_value" : 4,
     "name" : "EVENT_TYPE_FLOAT"
    }
   ],
   "linker_set_key" : "_ZTI19AndroidEventLogType",
   "name" : "AndroidEventLogType",
   "size" : 4,
   "source_file" : "system/logging/liblog/include/log/log.h",
   "underlying_type" : "_ZTIj"
  },
  {
   "alignment" : 4,
   "enum_fields" :
   [
    {
     "enum_field_value" : 0,
     "name" : "RS_SCRIPT_INTRINSIC_ID_UNDEFINED"
    },
    {
     "enum_field_value" : 1,
     "name" : "RS_SCRIPT_INTRINSIC_ID_CONVOLVE_3x3"
    },
    {
     "enum_field_value" : 2,
     "name" : "RS_SCRIPT_INTRINSIC_ID_COLOR_MATRIX"
    },
    {
     "enum_field_value" : 3,
     "name" : "RS_SCRIPT_INTRINSIC_ID_LUT"
    },
    {
     "enum_field_value" : 4,
     "name" : "RS_SCRIPT_INTRINSIC_ID_CONVOLVE_5x5"
    },
    {
     "enum_field_value" : 5,
     "name" : "RS_SCRIPT_INTRINSIC_ID_BLUR"
    },
    {
     "enum_field_value" : 6,
     "name" : "RS_SCRIPT_INTRINSIC_ID_YUV_TO_RGB"
    },
    {
     "enum_field_value" : 7,
     "name" : "RS_SCRIPT_INTRINSIC_ID_BLEND"
    },
    {
     "enum_field_value" : 8,
     "name" : "RS_SCRIPT_INTRINSIC_ID_3DLUT"
    },
    {
     "enum_field_value" : 9,
     "name" : "RS_SCRIPT_INTRINSIC_ID_HISTOGRAM"
    },
    {
     "enum_field_value" : 12,
     "name" : "RS_SCRIPT_INTRINSIC_ID_RESIZE"
    },
    {
     "enum_field_value" : 13,
     "name" : "RS_SCRIPT_INTRINSIC_ID_BLAS"
    },
    {
     "enum_field_value" : 14,
     "name" : "RS_SCRIPT_INTRINSIC_ID_EXTBLAS"
    },
    {
     "enum_field_value" : 268435456,
     "name" : "RS_SCRIPT_INTRINSIC_ID_OEM_START"
    }
   ],
   "linker_set_key" : "_ZTI19RsScriptIntrinsicID",
   "name" : "RsScriptIntrinsicID",
   "size" : 4,
   "source_file" : "frameworks/rs/rsInternalDefines.h",
   "underlying_type" : "_ZTIj"
  },
  {
   "alignment" : 4,
   "enum_fields" :
   [
    {
     "enum_field_value" : 0,
     "name" : "ANDROID_LOG_UNKNOWN"
    },
    {
     "enum_field_value" : 1,
     "name" : "ANDROID_LOG_DEFAULT"
    },
    {
     "enum_field_value" : 2,
     "name" : "ANDROID_LOG_VERBOSE"
    },
    {
     "enum_field_value" : 3,
     "name" : "ANDROID_LOG_DEBUG"
    },
    {
     "enum_field_value" : 4,
     "name" : "ANDROID_LOG_INFO"
    },
    {
     "enum_field_value" : 5,
     "name" : "ANDROID_LOG_WARN"
    },
    {
     "enum_field_value" : 6,
     "name" : "ANDROID_LOG_ERROR"
    },
    {
     "enum_field_value" : 7,
     "name" : "ANDROID_LOG_FATAL"
    },
    {
     "enum_field_value" : 8,
     "name" : "ANDROID_LOG_SILENT"
    }
   ],
   "linker_set_key" : "_ZTI19android_LogPriority",
   "name" : "android_LogPriority",
   "size" : 4,
   "source_file" : "system/logging/liblog/include/android/log.h",
   "underlying_type" : "_ZTIj"
  },
  {
   "alignment" : 4,
   "enum_fields" :
   [
    {
     "enum_field_value" : 1,
     "name" : "RS_ALLOCATION_USAGE_SCRIPT"
    },
    {
     "enum_field_value" : 2,
     "name" : "RS_ALLOCATION_USAGE_GRAPHICS_TEXTURE"
    },
    {
     "enum_field_value" : 4,
     "name" : "RS_ALLOCATION_USAGE_GRAPHICS_VERTEX"
    },
    {
     "enum_field_value" : 8,
     "name" : "RS_ALLOCATION_USAGE_GRAPHICS_CONSTANTS"
    },
    {
     "enum_field_value" : 16,
     "name" : "RS_ALLOCATION_USAGE_GRAPHICS_RENDER_TARGET"
    },
    {
     "enum_field_value" : 32,
     "name" : "RS_ALLOCATION_USAGE_IO_INPUT"
    },
    {
     "enum_field_value" : 64,
     "name" : "RS_ALLOCATION_USAGE_IO_OUTPUT"
    },
    {
     "enum_field_value" : 128,
     "name" : "RS_ALLOCATION_USAGE_SHARED"
    },
    {
     "enum_field_value" : 4096,
     "name" : "RS_ALLOCATION_USAGE_INCREMENTAL_SUPPORT"
    },
    {
     "enum_field_value" : 32768,
     "name" : "RS_ALLOCATION_USAGE_OEM"
    },
    {
     "enum_field_value" : 33023,
     "name" : "RS_ALLOCATION_USAGE_ALL"
    }
   ],
   "linker_set_key" : "_ZTI21RsAllocationUsageType",
   "name" : "RsAllocationUsageType",
   "size" : 4,
   "source_file" : "frameworks/rs/rsDefines.h",
   "underlying_type" : "_ZTIj"
  },
  {
   "alignment" : 4,
   "enum_fields" :
   [
    {
     "enum_field_value" : 0,
     "name" : "RS_MESSAGE_TO_CLIENT_NONE"
    },
    {
     "enum_field_value" : 1,
     "name" : "RS_MESSAGE_TO_CLIENT_EXCEPTION"
    },
    {
     "enum_field_value" : 2,
     "name" : "RS_MESSAGE_TO_CLIENT_RESIZE"
    },
    {
     "enum_field_value" : 3,
     "name" : "RS_MESSAGE_TO_CLIENT_ERROR"
    },
    {
     "enum_field_value" : 4,
     "name" : "RS_MESSAGE_TO_CLIENT_USER"
    },
    {
     "enum_field_value" : 5,
     "name" : "RS_MESSAGE_TO_CLIENT_NEW_BUFFER"
    }
   ],
   "linker_set_key" : "_ZTI21RsMessageToClientType",
   "name" : "RsMessageToClientType",
   "size" : 4,
   "source_file" : "frameworks/rs/rsInternalDefines.h",
   "underlying_type" : "_ZTIj"
  },
  {
   "alignment" : 4,
   "enum_fields" :
   [
    {
     "enum_field_value" : 0,
     "name" : "PTHREAD_MUTEX_NORMAL"
    },
    {
     "enum_field_value" : 1,
     "name" : "PTHREAD_MUTEX_RECURSIVE"
    },
    {
     "enum_field_value" : 2,
     "name" : "PTHREAD_MUTEX_ERRORCHECK"
    },
    {
     "enum_field_value" : 2,
     "name" : "PTHREAD_MUTEX_ERRORCHECK_NP"
    },
    {
     "enum_field_value" : 1,
     "name" : "PTHREAD_MUTEX_RECURSIVE_NP"
    },
    {
     "enum_field_value" : 0,
     "name" : "PTHREAD_MUTEX_DEFAULT"
    }
   ],
   "linker_set_key" : "_ZTI22$PTHREAD_MUTEX_DEFAULT",
   "name" : "(unnamed)",
   "size" : 4,
   "source_file" : "bionic/libc/include/pthread.h",
   "underlying_type" : "_ZTIj"
  },
  {
   "alignment" : 4,
   "enum_fields" :
   [
    {
     "enum_field_value" : 0,
     "name" : "RS_ALLOCATION_CUBEMAP_FACE_POSITIVE_X"
    },
    {
     "enum_field_value" : 1,
     "name" : "RS_ALLOCATION_CUBEMAP_FACE_NEGATIVE_X"
    },
    {
     "enum_field_value" : 2,
     "name" : "RS_ALLOCATION_CUBEMAP_FACE_POSITIVE_Y"
    },
    {
     "enum_field_value" : 3,
     "name" : "RS_ALLOCATION_CUBEMAP_FACE_NEGATIVE_Y"
    },
    {
     "enum_field_value" : 4,
     "name" : "RS_ALLOCATION_CUBEMAP_FACE_POSITIVE_Z"
    },
    {
     "enum_field_value" : 5,
     "name" : "RS_ALLOCATION_CUBEMAP_FACE_NEGATIVE_Z"
    }
   ],
   "linker_set_key" : "_ZTI23RsAllocationCubemapFace",
   "name" : "RsAllocationCubemapFace",
   "size" : 4,
   "source_file" : "frameworks/rs/rsDefines.h",
   "underlying_type" : "_ZTIj"
  },
  {
   "alignment" : 4,
   "enum_fields" :
   [
    {
     "enum_field_value" : 0,
     "name" : "RS_ANIMATION_INTERPOLATION_STEP"
    },
    {
     "enum_field_value" : 1,
     "name" : "RS_ANIMATION_INTERPOLATION_LINEAR"
    },
    {
     "enum_field_value" : 2,
     "name" : "RS_ANIMATION_INTERPOLATION_BEZIER"
    },
    {
     "enum_field_value" : 3,
     "name" : "RS_ANIMATION_INTERPOLATION_CARDINAL"
    },
    {
     "enum_field_value" : 4,
     "name" : "RS_ANIMATION_INTERPOLATION_HERMITE"
    },
    {
     "enum_field_value" : 5,
     "name" : "RS_ANIMATION_INTERPOLATION_BSPLINE"
    }
   ],
   "linker_set_key" : "_ZTI24RsAnimationInterpolation",
   "name" : "RsAnimationInterpolation",
   "size" : 4,
   "source_file" : "frameworks/rs/rsInternalDefines.h",
   "underlying_type" : "_ZTIj"
  },
  {
   "alignment" : 4,
   "enum_fields" :
   [
    {
     "enum_field_value" : 0,
     "name" : "RS_ALLOCATION_MIPMAP_NONE"
    },
    {
     "enum_field_value" : 1,
     "name" : "RS_ALLOCATION_MIPMAP_FULL"
    },
    {
     "enum_field_value" : 2,
     "name" : "RS_ALLOCATION_MIPMAP_ON_SYNC_TO_TEXTURE"
    }
   ],
   "linker_set_key" : "_ZTI25RsAllocationMipmapControl",
   "name" : "RsAllocationMipmapControl",
   "size" : 4,
   "source_file" : "frameworks/rs/rsDefines.h",
   "underlying_type" : "_ZTIj"
  },
  {
   "alignment" : 4,
   "enum_fields" :
   [
    {
     "enum_field_value" : 0,
     "name" : "PTHREAD_RWLOCK_PREFER_READER_NP"
    },
    {
     "enum_field_value" : 1,
     "name" : "PTHREAD_RWLOCK_PREFER_WRITER_NONRECURSIVE_NP"
    }
   ],
   "linker_set_key" : "_ZTI32$PTHREAD_RWLOCK_PREFER_READER_NP",
   "name" : "(unnamed)",
   "size" : 4,
   "source_file" : "bionic/libc/include/pthread.h",
   "underlying_type" : "_ZTIj"
  },
  {
   "alignment" : 8,
   "enum_fields" :
   [
    {
     "enum_field_value" : 18446744073709551615,
     "name" : "BIONIC_MULTIBYTE_RESULT_ILLEGAL_SEQUENCE"
    },
    {
     "enum_field_value" : 18446744073709551614,
     "name" : "BIONIC_MULTIBYTE_RESULT_INCOMPLETE_SEQUENCE"
    },
    {
     "enum_field_value" : 18446744073709551613,
     "name" : "BIONIC_MULTIBYTE_RESULT_NO_BYTES_CONSUMED"
    }
   ],
   "linker_set_key" : "_ZTI41$BIONIC_MULTIBYTE_RESULT_ILLEGAL_SEQUENCE",
   "name" : "(unnamed)",
   "size" : 8,
   "source_file" : "bionic/libc/include/bits/bionic_multibyte_result.h",
   "underlying_type" : "_ZTIm"
  },
  {
   "alignment" : 4,
   "enum_fields" :
   [
    {
     "enum_field_value" : 0,
     "name" : "LOG_ID_MIN"
    },
    {
     "enum_field_value" : 0,
     "name" : "LOG_ID_MAIN"
    },
    {
     "enum_field_value" : 1,
     "name" : "LOG_ID_RADIO"
    },
    {
     "enum_field_value" : 2,
     "name" : "LOG_ID_EVENTS"
    },
    {
     "enum_field_value" : 3,
     "name" : "LOG_ID_SYSTEM"
    },
    {
     "enum_field_value" : 4,
     "name" : "LOG_ID_CRASH"
    },
    {
     "enum_field_value" : 5,
     "name" : "LOG_ID_STATS"
    },
    {
     "enum_field_value" : 6,
     "name" : "LOG_ID_SECURITY"
    },
    {
     "enum_field_value" : 7,
     "name" : "LOG_ID_KERNEL"
    },
    {
     "enum_field_value" : 8,
     "name" : "LOG_ID_MAX"
    },
    {
     "enum_field_value" : 2147483647,
     "name" : "LOG_ID_DEFAULT"
    }
   ],
   "linker_set_key" : "_ZTI6log_id",
   "name" : "log_id",
   "size" : 4,
   "source_file" : "system/logging/liblog/include/android/log.h",
   "underlying_type" : "_ZTIj"
  },
  {
   "alignment" : 4,
   "enum_fields" :
   [
    {
     "enum_field_value" : 0,
     "name" : "RS_ERROR_NONE"
    },
    {
     "enum_field_value" : 1,
     "name" : "RS_ERROR_BAD_SHADER"
    },
    {
     "enum_field_value" : 2,
     "name" : "RS_ERROR_BAD_SCRIPT"
    },
    {
     "enum_field_value" : 3,
     "name" : "RS_ERROR_BAD_VALUE"
    },
    {
     "enum_field_value" : 4,
     "name" : "RS_ERROR_OUT_OF_MEMORY"
    },
    {
     "enum_field_value" : 5,
     "name" : "RS_ERROR_DRIVER"
    },
    {
     "enum_field_value" : 2048,
     "name" : "RS_ERROR_FATAL_DEBUG"
    },
    {
     "enum_field_value" : 4096,
     "name" : "RS_ERROR_FATAL_UNKNOWN"
    },
    {
     "enum_field_value" : 4097,
     "name" : "RS_ERROR_FATAL_DRIVER"
    },
    {
     "enum_field_value" : 4098,
     "name" : "RS_ERROR_FATAL_PROGRAM_LINK"
    }
   ],
   "linker_set_key" : "_ZTI7RsError",
   "name" : "RsError",
   "size" : 4,
   "source_file" : "frameworks/rs/rsDefines.h",
   "underlying_type" : "_ZTIj"
  },
  {
   "alignment" : 4,
   "enum_fields" :
   [
    {
     "enum_field_value" : 0,
     "name" : "android::OK"
    },
    {
     "enum_field_value" : 0,
     "name" : "android::NO_ERROR"
    },
    {
     "enum_field_value" : -2147483648,
     "name" : "android::UNKNOWN_ERROR"
    },
    {
     "enum_field_value" : -12,
     "name" : "android::NO_MEMORY"
    },
    {
     "enum_field_value" : -38,
     "name" : "android::INVALID_OPERATION"
    },
    {
     "enum_field_value" : -22,
     "name" : "android::BAD_VALUE"
    },
    {
     "enum_field_value" : -2147483647,
     "name" : "android::BAD_TYPE"
    },
    {
     "enum_field_value" : -2,
     "name" : "android::NAME_NOT_FOUND"
    },
    {
     "enum_field_value" : -1,
     "name" : "android::PERMISSION_DENIED"
    },
    {
     "enum_field_value" : -19,
     "name" : "android::NO_INIT"
    },
    {
     "enum_field_value" : -17,
     "name" : "android::ALREADY_EXISTS"
    },
    {
     "enum_field_value" : -32,
     "name" : "android::DEAD_OBJECT"
    },
    {
     "enum_field_value" : -2147483646,
     "name" : "android::FAILED_TRANSACTION"
    },
    {
     "enum_field_value" : -75,
     "name" : "android::BAD_INDEX"
    },
    {
     "enum_field_value" : -61,
     "name" : "android::NOT_ENOUGH_DATA"
    },
    {
     "enum_field_value" : -11,
     "name" : "android::WOULD_BLOCK"
    },
    {
     "enum_field_value" : -110,
     "name" : "android::TIMED_OUT"
    },
    {
     "enum_field_value" : -74,
     "name" : "android::UNKNOWN_TRANSACTION"
    },
    {
     "enum_field_value" : -2147483641,
     "name" : "android::FDS_NOT_ALLOWED"
    },
    {
     "enum_field_value" : -2147483640,
     "name" : "android::UNEXPECTED_NULL"
    }
   ],
   "linker_set_key" : "_ZTIN7android15$ALREADY_EXISTSE",
   "name" : "android::(unnamed)",
   "size" : 4,
   "source_file" : "system/core/libutils/include/utils/Errors.h",
   "underlying_type" : "_ZTIi"
  },
  {
   "alignment" : 4,
   "enum_fields" :
   [
    {
     "enum_field_value" : 1,
     "name" : "android::trait_trivial_copy<bool>::value"
    }
   ],
   "linker_set_key" : "_ZTIN7android18trait_trivial_copyIbE6$valueE",
   "name" : "android::trait_trivial_copy<bool>::(unnamed)",
   "size" : 4,
   "source_file" : "system/core/libutils/include/utils/TypeHelpers.h",
   "underlying_type" : "_ZTIj"
  },
  {
   "alignment" : 4,
   "enum_fields" :
   [
    {
     "enum_field_value" : 1,
     "name" : "android::trait_trivial_copy<char>::value"
    }
   ],
   "linker_set_key" : "_ZTIN7android18trait_trivial_copyIcE6$valueE",
   "name" : "android::trait_trivial_copy<char>::(unnamed)",
   "size" : 4,
   "source_file" : "system/core/libutils/include/utils/TypeHelpers.h",
   "underlying_type" : "_ZTIj"
  },
  {
   "alignment" : 4,
   "enum_fields" :
   [
    {
     "enum_field_value" : 1,
     "name" : "android::trait_trivial_copy<double>::value"
    }
   ],
   "linker_set_key" : "_ZTIN7android18trait_trivial_copyIdE6$valueE",
   "name" : "android::trait_trivial_copy<double>::(unnamed)",
   "size" : 4,
   "source_file" : "system/core/libutils/include/utils/TypeHelpers.h",
   "underlying_type" : "_ZTIj"
  },
  {
   "alignment" : 4,
   "enum_fields" :
   [
    {
     "enum_field_value" : 1,
     "name" : "android::trait_trivial_copy<float>::value"
    }
   ],
   "linker_set_key" : "_ZTIN7android18trait_trivial_copyIfE6$valueE",
   "name" : "android::trait_trivial_copy<float>::(unnamed)",
   "size" : 4,
   "source_file" : "system/core/libutils/include/utils/TypeHelpers.h",
   "underlying_type" : "_ZTIj"
  },
  {
   "alignment" : 4,
   "enum_fields" :
   [
    {
     "enum_field_value" : 1,
     "name" : "android::trait_trivial_copy<unsigned char>::value"
    }
   ],
   "linker_set_key" : "_ZTIN7android18trait_trivial_copyIhE6$valueE",
   "name" : "android::trait_trivial_copy<unsigned char>::(unnamed)",
   "size" : 4,
   "source_file" : "system/core/libutils/include/utils/TypeHelpers.h",
   "underlying_type" : "_ZTIj"
  },
  {
   "alignment" : 4,
   "enum_fields" :
   [
    {
     "enum_field_value" : 1,
     "name" : "android::trait_trivial_copy<int>::value"
    }
   ],
   "linker_set_key" : "_ZTIN7android18trait_trivial_copyIiE6$valueE",
   "name" : "android::trait_trivial_copy<int>::(unnamed)",
   "size" : 4,
   "source_file" : "system/core/libutils/include/utils/TypeHelpers.h",
   "underlying_type" : "_ZTIj"
  },
  {
   "alignment" : 4,
   "enum_fields" :
   [
    {
     "enum_field_value" : 1,
     "name" : "android::trait_trivial_copy<unsigned int>::value"
    }
   ],
   "linker_set_key" : "_ZTIN7android18trait_trivial_copyIjE6$valueE",
   "name" : "android::trait_trivial_copy<unsigned int>::(unnamed)",
   "size" : 4,
   "source_file" : "system/core/libutils/include/utils/TypeHelpers.h",
   "underlying_type" : "_ZTIj"
  },
  {
   "alignment" : 4,
   "enum_fields" :
   [
    {
     "enum_field_value" : 1,
     "name" : "android::trait_trivial_copy<long>::value"
    }
   ],
   "linker_set_key" : "_ZTIN7android18trait_trivial_copyIlE6$valueE",
   "name" : "android::trait_trivial_copy<long>::(unnamed)",
   "size" : 4,
   "source_file" : "system/core/libutils/include/utils/TypeHelpers.h",
   "underlying_type" : "_ZTIj"
  },
  {
   "alignment" : 4,
   "enum_fields" :
   [
    {
     "enum_field_value" : 1,
     "name" : "android::trait_trivial_copy<unsigned long>::value"
    }
   ],
   "linker_set_key" : "_ZTIN7android18trait_trivial_copyImE6$valueE",
   "name" : "android::trait_trivial_copy<unsigned long>::(unnamed)",
   "size" : 4,
   "source_file" : "system/core/libutils/include/utils/TypeHelpers.h",
   "underlying_type" : "_ZTIj"
  },
  {
   "alignment" : 4,
   "enum_fields" :
   [
    {
     "enum_field_value" : 1,
     "name" : "android::trait_trivial_copy<short>::value"
    }
   ],
   "linker_set_key" : "_ZTIN7android18trait_trivial_copyIsE6$valueE",
   "name" : "android::trait_trivial_copy<short>::(unnamed)",
   "size" : 4,
   "source_file" : "system/core/libutils/include/utils/TypeHelpers.h",
   "underlying_type" : "_ZTIj"
  },
  {
   "alignment" : 4,
   "enum_fields" :
   [
    {
     "enum_field_value" : 1,
     "name" : "android::trait_trivial_copy<unsigned short>::value"
    }
   ],
   "linker_set_key" : "_ZTIN7android18trait_trivial_copyItE6$valueE",
   "name" : "android::trait_trivial_copy<unsigned short>::(unnamed)",
   "size" : 4,
   "source_file" : "system/core/libutils/include/utils/TypeHelpers.h",
   "underlying_type" : "_ZTIj"
  },
  {
   "alignment" : 4,
   "enum_fields" :
   [
    {
     "enum_field_value" : 1,
     "name" : "android::trait_trivial_copy<void>::value"
    }
   ],
   "linker_set_key" : "_ZTIN7android18trait_trivial_copyIvE6$valueE",
   "name" : "android::trait_trivial_copy<void>::(unnamed)",
   "size" : 4,
   "source_file" : "system/core/libutils/include/utils/TypeHelpers.h",
   "underlying_type" : "_ZTIj"
  },
  {
   "alignment" : 4,
   "enum_fields" :
   [
    {
     "enum_field_value" : 1,
     "name" : "android::trait_trivial_copy<long long>::value"
    }
   ],
   "linker_set_key" : "_ZTIN7android18trait_trivial_copyIxE6$valueE",
   "name" : "android::trait_trivial_copy<long long>::(unnamed)",
   "size" : 4,
   "source_file" : "system/core/libutils/include/utils/TypeHelpers.h",
   "underlying_type" : "_ZTIj"
  },
  {
   "alignment" : 4,
   "enum_fields" :
   [
    {
     "enum_field_value" : 1,
     "name" : "android::trait_trivial_copy<unsigned long long>::value"
    }
   ],
   "linker_set_key" : "_ZTIN7android18trait_trivial_copyIyE6$valueE",
   "name" : "android::trait_trivial_copy<unsigned long long>::(unnamed)",
   "size" : 4,
   "source_file" : "system/core/libutils/include/utils/TypeHelpers.h",
   "underlying_type" : "_ZTIj"
  },
  {
   "alignment" : 4,
   "enum_fields" :
   [
    {
     "enum_field_value" : 1,
     "name" : "android::trait_trivial_ctor<bool>::value"
    }
   ],
   "linker_set_key" : "_ZTIN7android18trait_trivial_ctorIbE6$valueE",
   "name" : "android::trait_trivial_ctor<bool>::(unnamed)",
   "size" : 4,
   "source_file" : "system/core/libutils/include/utils/TypeHelpers.h",
   "underlying_type" : "_ZTIj"
  },
  {
   "alignment" : 4,
   "enum_fields" :
   [
    {
     "enum_field_value" : 1,
     "name" : "android::trait_trivial_ctor<char>::value"
    }
   ],
   "linker_set_key" : "_ZTIN7android18trait_trivial_ctorIcE6$valueE",
   "name" : "android::trait_trivial_ctor<char>::(unnamed)",
   "size" : 4,
   "source_file" : "system/core/libutils/include/utils/TypeHelpers.h",
   "underlying_type" : "_ZTIj"
  },
  {
   "alignment" : 4,
   "enum_fields" :
   [
    {
     "enum_field_value" : 1,
     "name" : "android::trait_trivial_ctor<double>::value"
    }
   ],
   "linker_set_key" : "_ZTIN7android18trait_trivial_ctorIdE6$valueE",
   "name" : "android::trait_trivial_ctor<double>::(unnamed)",
   "size" : 4,
   "source_file" : "system/core/libutils/include/utils/TypeHelpers.h",
   "underlying_type" : "_ZTIj"
  },
  {
   "alignment" : 4,
   "enum_fields" :
   [
    {
     "enum_field_value" : 1,
     "name" : "android::trait_trivial_ctor<float>::value"
    }
   ],
   "linker_set_key" : "_ZTIN7android18trait_trivial_ctorIfE6$valueE",
   "name" : "android::trait_trivial_ctor<float>::(unnamed)",
   "size" : 4,
   "source_file" : "system/core/libutils/include/utils/TypeHelpers.h",
   "underlying_type" : "_ZTIj"
  },
  {
   "alignment" : 4,
   "enum_fields" :
   [
    {
     "enum_field_value" : 1,
     "name" : "android::trait_trivial_ctor<unsigned char>::value"
    }
   ],
   "linker_set_key" : "_ZTIN7android18trait_trivial_ctorIhE6$valueE",
   "name" : "android::trait_trivial_ctor<unsigned char>::(unnamed)",
   "size" : 4,
   "source_file" : "system/core/libutils/include/utils/TypeHelpers.h",
   "underlying_type" : "_ZTIj"
  },
  {
   "alignment" : 4,
   "enum_fields" :
   [
    {
     "enum_field_value" : 1,
     "name" : "android::trait_trivial_ctor<int>::value"
    }
   ],
   "linker_set_key" : "_ZTIN7android18trait_trivial_ctorIiE6$valueE",
   "name" : "android::trait_trivial_ctor<int>::(unnamed)",
   "size" : 4,
   "source_file" : "system/core/libutils/include/utils/TypeHelpers.h",
   "underlying_type" : "_ZTIj"
  },
  {
   "alignment" : 4,
   "enum_fields" :
   [
    {
     "enum_field_value" : 1,
     "name" : "android::trait_trivial_ctor<unsigned int>::value"
    }
   ],
   "linker_set_key" : "_ZTIN7android18trait_trivial_ctorIjE6$valueE",
   "name" : "android::trait_trivial_ctor<unsigned int>::(unnamed)",
   "size" : 4,
   "source_file" : "system/core/libutils/include/utils/TypeHelpers.h",
   "underlying_type" : "_ZTIj"
  },
  {
   "alignment" : 4,
   "enum_fields" :
   [
    {
     "enum_field_value" : 1,
     "name" : "android::trait_trivial_ctor<long>::value"
    }
   ],
   "linker_set_key" : "_ZTIN7android18trait_trivial_ctorIlE6$valueE",
   "name" : "android::trait_trivial_ctor<long>::(unnamed)",
   "size" : 4,
   "source_file" : "system/core/libutils/include/utils/TypeHelpers.h",
   "underlying_type" : "_ZTIj"
  },
  {
   "alignment" : 4,
   "enum_fields" :
   [
    {
     "enum_field_value" : 1,
     "name" : "android::trait_trivial_ctor<unsigned long>::value"
    }
   ],
   "linker_set_key" : "_ZTIN7android18trait_trivial_ctorImE6$valueE",
   "name" : "android::trait_trivial_ctor<unsigned long>::(unnamed)",
   "size" : 4,
   "source_file" : "system/core/libutils/include/utils/TypeHelpers.h",
   "underlying_type" : "_ZTIj"
  },
  {
   "alignment" : 4,
   "enum_fields" :
   [
    {
     "enum_field_value" : 1,
     "name" : "android::trait_trivial_ctor<short>::value"
    }
   ],
   "linker_set_key" : "_ZTIN7android18trait_trivial_ctorIsE6$valueE",
   "name" : "android::trait_trivial_ctor<short>::(unnamed)",
   "size" : 4,
   "source_file" : "system/core/libutils/include/utils/TypeHelpers.h",
   "underlying_type" : "_ZTIj"
  },
  {
   "alignment" : 4,
   "enum_fields" :
   [
    {
     "enum_field_value" : 1,
     "name" : "android::trait_trivial_ctor<unsigned short>::value"
    }
   ],
   "linker_set_key" : "_ZTIN7android18trait_trivial_ctorItE6$valueE",
   "name" : "android::trait_trivial_ctor<unsigned short>::(unnamed)",
   "size" : 4,
   "source_file" : "system/core/libutils/include/utils/TypeHelpers.h",
   "underlying_type" : "_ZTIj"
  },
  {
   "alignment" : 4,
   "enum_fields" :
   [
    {
     "enum_field_value" : 1,
     "name" : "android::trait_trivial_ctor<void>::value"
    }
   ],
   "linker_set_key" : "_ZTIN7android18trait_trivial_ctorIvE6$valueE",
   "name" : "android::trait_trivial_ctor<void>::(unnamed)",
   "size" : 4,
   "source_file" : "system/core/libutils/include/utils/TypeHelpers.h",
   "underlying_type" : "_ZTIj"
  },
  {
   "alignment" : 4,
   "enum_fields" :
   [
    {
     "enum_field_value" : 1,
     "name" : "android::trait_trivial_ctor<long long>::value"
    }
   ],
   "linker_set_key" : "_ZTIN7android18trait_trivial_ctorIxE6$valueE",
   "name" : "android::trait_trivial_ctor<long long>::(unnamed)",
   "size" : 4,
   "source_file" : "system/core/libutils/include/utils/TypeHelpers.h",
   "underlying_type" : "_ZTIj"
  },
  {
   "alignment" : 4,
   "enum_fields" :
   [
    {
     "enum_field_value" : 1,
     "name" : "android::trait_trivial_ctor<unsigned long long>::value"
    }
   ],
   "linker_set_key" : "_ZTIN7android18trait_trivial_ctorIyE6$valueE",
   "name" : "android::trait_trivial_ctor<unsigned long long>::(unnamed)",
   "size" : 4,
   "source_file" : "system/core/libutils/include/utils/TypeHelpers.h",
   "underlying_type" : "_ZTIj"
  },
  {
   "alignment" : 4,
   "enum_fields" :
   [
    {
     "enum_field_value" : 1,
     "name" : "android::trait_trivial_dtor<bool>::value"
    }
   ],
   "linker_set_key" : "_ZTIN7android18trait_trivial_dtorIbE6$valueE",
   "name" : "android::trait_trivial_dtor<bool>::(unnamed)",
   "size" : 4,
   "source_file" : "system/core/libutils/include/utils/TypeHelpers.h",
   "underlying_type" : "_ZTIj"
  },
  {
   "alignment" : 4,
   "enum_fields" :
   [
    {
     "enum_field_value" : 1,
     "name" : "android::trait_trivial_dtor<char>::value"
    }
   ],
   "linker_set_key" : "_ZTIN7android18trait_trivial_dtorIcE6$valueE",
   "name" : "android::trait_trivial_dtor<char>::(unnamed)",
   "size" : 4,
   "source_file" : "system/core/libutils/include/utils/TypeHelpers.h",
   "underlying_type" : "_ZTIj"
  },
  {
   "alignment" : 4,
   "enum_fields" :
   [
    {
     "enum_field_value" : 1,
     "name" : "android::trait_trivial_dtor<double>::value"
    }
   ],
   "linker_set_key" : "_ZTIN7android18trait_trivial_dtorIdE6$valueE",
   "name" : "android::trait_trivial_dtor<double>::(unnamed)",
   "size" : 4,
   "source_file" : "system/core/libutils/include/utils/TypeHelpers.h",
   "underlying_type" : "_ZTIj"
  },
  {
   "alignment" : 4,
   "enum_fields" :
   [
    {
     "enum_field_value" : 1,
     "name" : "android::trait_trivial_dtor<float>::value"
    }
   ],
   "linker_set_key" : "_ZTIN7android18trait_trivial_dtorIfE6$valueE",
   "name" : "android::trait_trivial_dtor<float>::(unnamed)",
   "size" : 4,
   "source_file" : "system/core/libutils/include/utils/TypeHelpers.h",
   "underlying_type" : "_ZTIj"
  },
  {
   "alignment" : 4,
   "enum_fields" :
   [
    {
     "enum_field_value" : 1,
     "name" : "android::trait_trivial_dtor<unsigned char>::value"
    }
   ],
   "linker_set_key" : "_ZTIN7android18trait_trivial_dtorIhE6$valueE",
   "name" : "android::trait_trivial_dtor<unsigned char>::(unnamed)",
   "size" : 4,
   "source_file" : "system/core/libutils/include/utils/TypeHelpers.h",
   "underlying_type" : "_ZTIj"
  },
  {
   "alignment" : 4,
   "enum_fields" :
   [
    {
     "enum_field_value" : 1,
     "name" : "android::trait_trivial_dtor<int>::value"
    }
   ],
   "linker_set_key" : "_ZTIN7android18trait_trivial_dtorIiE6$valueE",
   "name" : "android::trait_trivial_dtor<int>::(unnamed)",
   "size" : 4,
   "source_file" : "system/core/libutils/include/utils/TypeHelpers.h",
   "underlying_type" : "_ZTIj"
  },
  {
   "alignment" : 4,
   "enum_fields" :
   [
    {
     "enum_field_value" : 1,
     "name" : "android::trait_trivial_dtor<unsigned int>::value"
    }
   ],
   "linker_set_key" : "_ZTIN7android18trait_trivial_dtorIjE6$valueE",
   "name" : "android::trait_trivial_dtor<unsigned int>::(unnamed)",
   "size" : 4,
   "source_file" : "system/core/libutils/include/utils/TypeHelpers.h",
   "underlying_type" : "_ZTIj"
  },
  {
   "alignment" : 4,
   "enum_fields" :
   [
    {
     "enum_field_value" : 1,
     "name" : "android::trait_trivial_dtor<long>::value"
    }
   ],
   "linker_set_key" : "_ZTIN7android18trait_trivial_dtorIlE6$valueE",
   "name" : "android::trait_trivial_dtor<long>::(unnamed)",
   "size" : 4,
   "source_file" : "system/core/libutils/include/utils/TypeHelpers.h",
   "underlying_type" : "_ZTIj"
  },
  {
   "alignment" : 4,
   "enum_fields" :
   [
    {
     "enum_field_value" : 1,
     "name" : "android::trait_trivial_dtor<unsigned long>::value"
    }
   ],
   "linker_set_key" : "_ZTIN7android18trait_trivial_dtorImE6$valueE",
   "name" : "android::trait_trivial_dtor<unsigned long>::(unnamed)",
   "size" : 4,
   "source_file" : "system/core/libutils/include/utils/TypeHelpers.h",
   "underlying_type" : "_ZTIj"
  },
  {
   "alignment" : 4,
   "enum_fields" :
   [
    {
     "enum_field_value" : 1,
     "name" : "android::trait_trivial_dtor<short>::value"
    }
   ],
   "linker_set_key" : "_ZTIN7android18trait_trivial_dtorIsE6$valueE",
   "name" : "android::trait_trivial_dtor<short>::(unnamed)",
   "size" : 4,
   "source_file" : "system/core/libutils/include/utils/TypeHelpers.h",
   "underlying_type" : "_ZTIj"
  },
  {
   "alignment" : 4,
   "enum_fields" :
   [
    {
     "enum_field_value" : 1,
     "name" : "android::trait_trivial_dtor<unsigned short>::value"
    }
   ],
   "linker_set_key" : "_ZTIN7android18trait_trivial_dtorItE6$valueE",
   "name" : "android::trait_trivial_dtor<unsigned short>::(unnamed)",
   "size" : 4,
   "source_file" : "system/core/libutils/include/utils/TypeHelpers.h",
   "underlying_type" : "_ZTIj"
  },
  {
   "alignment" : 4,
   "enum_fields" :
   [
    {
     "enum_field_value" : 1,
     "name" : "android::trait_trivial_dtor<void>::value"
    }
   ],
   "linker_set_key" : "_ZTIN7android18trait_trivial_dtorIvE6$valueE",
   "name" : "android::trait_trivial_dtor<void>::(unnamed)",
   "size" : 4,
   "source_file" : "system/core/libutils/include/utils/TypeHelpers.h",
   "underlying_type" : "_ZTIj"
  },
  {
   "alignment" : 4,
   "enum_fields" :
   [
    {
     "enum_field_value" : 1,
     "name" : "android::trait_trivial_dtor<long long>::value"
    }
   ],
   "linker_set_key" : "_ZTIN7android18trait_trivial_dtorIxE6$valueE",
   "name" : "android::trait_trivial_dtor<long long>::(unnamed)",
   "size" : 4,
   "source_file" : "system/core/libutils/include/utils/TypeHelpers.h",
   "underlying_type" : "_ZTIj"
  },
  {
   "alignment" : 4,
   "enum_fields" :
   [
    {
     "enum_field_value" : 1,
     "name" : "android::trait_trivial_dtor<unsigned long long>::value"
    }
   ],
   "linker_set_key" : "_ZTIN7android18trait_trivial_dtorIyE6$valueE",
   "name" : "android::trait_trivial_dtor<unsigned long long>::(unnamed)",
   "size" : 4,
   "source_file" : "system/core/libutils/include/utils/TypeHelpers.h",
   "underlying_type" : "_ZTIj"
  },
  {
   "alignment" : 4,
   "enum_fields" :
   [
    {
     "enum_field_value" : 1,
     "name" : "android::trait_trivial_move<bool>::value"
    }
   ],
   "linker_set_key" : "_ZTIN7android18trait_trivial_moveIbE6$valueE",
   "name" : "android::trait_trivial_move<bool>::(unnamed)",
   "size" : 4,
   "source_file" : "system/core/libutils/include/utils/TypeHelpers.h",
   "underlying_type" : "_ZTIj"
  },
  {
   "alignment" : 4,
   "enum_fields" :
   [
    {
     "enum_field_value" : 1,
     "name" : "android::trait_trivial_move<char>::value"
    }
   ],
   "linker_set_key" : "_ZTIN7android18trait_trivial_moveIcE6$valueE",
   "name" : "android::trait_trivial_move<char>::(unnamed)",
   "size" : 4,
   "source_file" : "system/core/libutils/include/utils/TypeHelpers.h",
   "underlying_type" : "_ZTIj"
  },
  {
   "alignment" : 4,
   "enum_fields" :
   [
    {
     "enum_field_value" : 1,
     "name" : "android::trait_trivial_move<double>::value"
    }
   ],
   "linker_set_key" : "_ZTIN7android18trait_trivial_moveIdE6$valueE",
   "name" : "android::trait_trivial_move<double>::(unnamed)",
   "size" : 4,
   "source_file" : "system/core/libutils/include/utils/TypeHelpers.h",
   "underlying_type" : "_ZTIj"
  },
  {
   "alignment" : 4,
   "enum_fields" :
   [
    {
     "enum_field_value" : 1,
     "name" : "android::trait_trivial_move<float>::value"
    }
   ],
   "linker_set_key" : "_ZTIN7android18trait_trivial_moveIfE6$valueE",
   "name" : "android::trait_trivial_move<float>::(unnamed)",
   "size" : 4,
   "source_file" : "system/core/libutils/include/utils/TypeHelpers.h",
   "underlying_type" : "_ZTIj"
  },
  {
   "alignment" : 4,
   "enum_fields" :
   [
    {
     "enum_field_value" : 1,
     "name" : "android::trait_trivial_move<unsigned char>::value"
    }
   ],
   "linker_set_key" : "_ZTIN7android18trait_trivial_moveIhE6$valueE",
   "name" : "android::trait_trivial_move<unsigned char>::(unnamed)",
   "size" : 4,
   "source_file" : "system/core/libutils/include/utils/TypeHelpers.h",
   "underlying_type" : "_ZTIj"
  },
  {
   "alignment" : 4,
   "enum_fields" :
   [
    {
     "enum_field_value" : 1,
     "name" : "android::trait_trivial_move<int>::value"
    }
   ],
   "linker_set_key" : "_ZTIN7android18trait_trivial_moveIiE6$valueE",
   "name" : "android::trait_trivial_move<int>::(unnamed)",
   "size" : 4,
   "source_file" : "system/core/libutils/include/utils/TypeHelpers.h",
   "underlying_type" : "_ZTIj"
  },
  {
   "alignment" : 4,
   "enum_fields" :
   [
    {
     "enum_field_value" : 1,
     "name" : "android::trait_trivial_move<unsigned int>::value"
    }
   ],
   "linker_set_key" : "_ZTIN7android18trait_trivial_moveIjE6$valueE",
   "name" : "android::trait_trivial_move<unsigned int>::(unnamed)",
   "size" : 4,
   "source_file" : "system/core/libutils/include/utils/TypeHelpers.h",
   "underlying_type" : "_ZTIj"
  },
  {
   "alignment" : 4,
   "enum_fields" :
   [
    {
     "enum_field_value" : 1,
     "name" : "android::trait_trivial_move<long>::value"
    }
   ],
   "linker_set_key" : "_ZTIN7android18trait_trivial_moveIlE6$valueE",
   "name" : "android::trait_trivial_move<long>::(unnamed)",
   "size" : 4,
   "source_file" : "system/core/libutils/include/utils/TypeHelpers.h",
   "underlying_type" : "_ZTIj"
  },
  {
   "alignment" : 4,
   "enum_fields" :
   [
    {
     "enum_field_value" : 1,
     "name" : "android::trait_trivial_move<unsigned long>::value"
    }
   ],
   "linker_set_key" : "_ZTIN7android18trait_trivial_moveImE6$valueE",
   "name" : "android::trait_trivial_move<unsigned long>::(unnamed)",
   "size" : 4,
   "source_file" : "system/core/libutils/include/utils/TypeHelpers.h",
   "underlying_type" : "_ZTIj"
  },
  {
   "alignment" : 4,
   "enum_fields" :
   [
    {
     "enum_field_value" : 1,
     "name" : "android::trait_trivial_move<short>::value"
    }
   ],
   "linker_set_key" : "_ZTIN7android18trait_trivial_moveIsE6$valueE",
   "name" : "android::trait_trivial_move<short>::(unnamed)",
   "size" : 4,
   "source_file" : "system/core/libutils/include/utils/TypeHelpers.h",
   "underlying_type" : "_ZTIj"
  },
  {
   "alignment" : 4,
   "enum_fields" :
   [
    {
     "enum_field_value" : 1,
     "name" : "android::trait_trivial_move<unsigned short>::value"
    }
   ],
   "linker_set_key" : "_ZTIN7android18trait_trivial_moveItE6$valueE",
   "name" : "android::trait_trivial_move<unsigned short>::(unnamed)",
   "size" : 4,
   "source_file" : "system/core/libutils/include/utils/TypeHelpers.h",
   "underlying_type" : "_ZTIj"
  },
  {
   "alignment" : 4,
   "enum_fields" :
   [
    {
     "enum_field_value" : 1,
     "name" : "android::trait_trivial_move<void>::value"
    }
   ],
   "linker_set_key" : "_ZTIN7android18trait_trivial_moveIvE6$valueE",
   "name" : "android::trait_trivial_move<void>::(unnamed)",
   "size" : 4,
   "source_file" : "system/core/libutils/include/utils/TypeHelpers.h",
   "underlying_type" : "_ZTIj"
  },
  {
   "alignment" : 4,
   "enum_fields" :
   [
    {
     "enum_field_value" : 1,
     "name" : "android::trait_trivial_move<long long>::value"
    }
   ],
   "linker_set_key" : "_ZTIN7android18trait_trivial_moveIxE6$valueE",
   "name" : "android::trait_trivial_move<long long>::(unnamed)",
   "size" : 4,
   "source_file" : "system/core/libutils/include/utils/TypeHelpers.h",
   "underlying_type" : "_ZTIj"
  },
  {
   "alignment" : 4,
   "enum_fields" :
   [
    {
     "enum_field_value" : 1,
     "name" : "android::trait_trivial_move<unsigned long long>::value"
    }
   ],
   "linker_set_key" : "_ZTIN7android18trait_trivial_moveIyE6$valueE",
   "name" : "android::trait_trivial_move<unsigned long long>::(unnamed)",
   "size" : 4,
   "source_file" : "system/core/libutils/include/utils/TypeHelpers.h",
   "underlying_type" : "_ZTIj"
  },
  {
   "alignment" : 4,
   "enum_fields" :
   [
    {
     "enum_field_value" : 0,
     "name" : "android::hidl::base::V1_0::DebugInfo::Architecture::UNKNOWN"
    },
    {
     "enum_field_value" : 1,
     "name" : "android::hidl::base::V1_0::DebugInfo::Architecture::IS_64BIT"
    },
    {
     "enum_field_value" : 2,
     "name" : "android::hidl::base::V1_0::DebugInfo::Architecture::IS_32BIT"
    }
   ],
   "linker_set_key" : "_ZTIN7android4hidl4base4V1_09DebugInfo12ArchitectureE",
   "name" : "android::hidl::base::V1_0::DebugInfo::Architecture",
   "size" : 4,
   "source_file" : "out/soong/.intermediates/system/libhidl/transport/base/1.0/android.hidl.base@1.0_genc++_headers/gen/android/hidl/base/1.0/types.h",
   "underlying_type" : "_ZTIi"
  },
  {
   "access" : "protected",
   "alignment" : 4,
   "enum_fields" :
   [
    {
     "enum_field_value" : 1,
     "name" : "android::RefBase::FIRST_INC_STRONG"
    }
   ],
   "linker_set_key" : "_ZTIN7android7RefBase17$FIRST_INC_STRONGE",
   "name" : "android::RefBase::(unnamed)",
   "size" : 4,
   "source_file" : "system/core/libutils/include/utils/RefBase.h",
   "underlying_type" : "_ZTIj"
  },
  {
   "access" : "protected",
   "alignment" : 4,
   "enum_fields" :
   [
    {
     "enum_field_value" : 0,
     "name" : "android::RefBase::OBJECT_LIFETIME_STRONG"
    },
    {
     "enum_field_value" : 1,
     "name" : "android::RefBase::OBJECT_LIFETIME_WEAK"
    },
    {
     "enum_field_value" : 1,
     "name" : "android::RefBase::OBJECT_LIFETIME_MASK"
    }
   ],
   "linker_set_key" : "_ZTIN7android7RefBase21$OBJECT_LIFETIME_MASKE",
   "name" : "android::RefBase::(unnamed)",
   "size" : 4,
   "source_file" : "system/core/libutils/include/utils/RefBase.h",
   "underlying_type" : "_ZTIj"
  },
  {
   "alignment" : 4,
   "enum_fields" :
   [
    {
     "enum_field_value" : 0,
     "name" : "android::hardware::renderscript::V1_0::ContextType::NORMAL"
    },
    {
     "enum_field_value" : 1,
     "name" : "android::hardware::renderscript::V1_0::ContextType::DEBUG"
    },
    {
     "enum_field_value" : 2,
     "name" : "android::hardware::renderscript::V1_0::ContextType::PROFILE"
    }
   ],
   "linker_set_key" : "_ZTIN7android8hardware12renderscript4V1_011ContextTypeE",
   "name" : "android::hardware::renderscript::V1_0::ContextType",
   "size" : 4,
   "source_file" : "out/soong/.intermediates/hardware/interfaces/renderscript/1.0/android.hardware.renderscript@1.0_genc++_headers/gen/android/hardware/renderscript/1.0/types.h",
   "underlying_type" : "_ZTIi"
  },
  {
   "alignment" : 4,
   "enum_fields" :
   [
    {
     "enum_field_value" : 1,
     "name" : "android::hardware::renderscript::V1_0::ContextFlags::SYNCHRONOUS"
    },
    {
     "enum_field_value" : 2,
     "name" : "android::hardware::renderscript::V1_0::ContextFlags::LOW_LATENCY"
    },
    {
     "enum_field_value" : 4,
     "name" : "android::hardware::renderscript::V1_0::ContextFlags::LOW_POWER"
    },
    {
     "enum_field_value" : 8,
     "name" : "android::hardware::renderscript::V1_0::ContextFlags::WAIT_FOR_ATTACH"
    }
   ],
   "linker_set_key" : "_ZTIN7android8hardware12renderscript4V1_012ContextFlagsE",
   "name" : "android::hardware::renderscript::V1_0::ContextFlags",
   "size" : 4,
   "source_file" : "out/soong/.intermediates/hardware/interfaces/renderscript/1.0/android.hardware.renderscript@1.0_genc++_headers/gen/android/hardware/renderscript/1.0/types.h",
   "underlying_type" : "_ZTIi"
  },
  {
   "alignment" : 4,
   "enum_fields" :
   [
    {
     "enum_field_value" : 0,
     "name" : "android::hardware::renderscript::V1_0::SamplerValue::NEAREST"
    },
    {
     "enum_field_value" : 1,
     "name" : "android::hardware::renderscript::V1_0::SamplerValue::LINEAR"
    },
    {
     "enum_field_value" : 2,
     "name" : "android::hardware::renderscript::V1_0::SamplerValue::LINEAR_MIP_LINEAR"
    },
    {
     "enum_field_value" : 3,
     "name" : "android::hardware::renderscript::V1_0::SamplerValue::WRAP"
    },
    {
     "enum_field_value" : 4,
     "name" : "android::hardware::renderscript::V1_0::SamplerValue::CLAMP"
    },
    {
     "enum_field_value" : 5,
     "name" : "android::hardware::renderscript::V1_0::SamplerValue::LINEAR_MIP_NEAREST"
    },
    {
     "enum_field_value" : 6,
     "name" : "android::hardware::renderscript::V1_0::SamplerValue::MIRRORED_REPEAT"
    },
    {
     "enum_field_value" : 100,
     "name" : "android::hardware::renderscript::V1_0::SamplerValue::INVALID"
    }
   ],
   "linker_set_key" : "_ZTIN7android8hardware12renderscript4V1_012SamplerValueE",
   "name" : "android::hardware::renderscript::V1_0::SamplerValue",
   "size" : 4,
   "source_file" : "out/soong/.intermediates/hardware/interfaces/renderscript/1.0/android.hardware.renderscript@1.0_genc++_headers/gen/android/hardware/renderscript/1.0/types.h",
   "underlying_type" : "_ZTIi"
  },
  {
   "alignment" : 4,
   "enum_fields" :
   [
    {
     "enum_field_value" : 0,
     "name" : "android::hardware::renderscript::V1_0::ForEachStrategy::SERIAL"
    },
    {
     "enum_field_value" : 1,
     "name" : "android::hardware::renderscript::V1_0::ForEachStrategy::DONT_CARE"
    },
    {
     "enum_field_value" : 2,
     "name" : "android::hardware::renderscript::V1_0::ForEachStrategy::DST_LINEAR"
    },
    {
     "enum_field_value" : 3,
     "name" : "android::hardware::renderscript::V1_0::ForEachStrategy::TILE_SMALL"
    },
    {
     "enum_field_value" : 4,
     "name" : "android::hardware::renderscript::V1_0::ForEachStrategy::TILE_MEDIUM"
    },
    {
     "enum_field_value" : 5,
     "name" : "android::hardware::renderscript::V1_0::ForEachStrategy::TILE_LARGE"
    }
   ],
   "linker_set_key" : "_ZTIN7android8hardware12renderscript4V1_015ForEachStrategyE",
   "name" : "android::hardware::renderscript::V1_0::ForEachStrategy",
   "size" : 4,
   "source_file" : "out/soong/.intermediates/hardware/interfaces/renderscript/1.0/android.hardware.renderscript@1.0_genc++_headers/gen/android/hardware/renderscript/1.0/types.h",
   "underlying_type" : "_ZTIi"
  },
  {
   "alignment" : 4,
   "enum_fields" :
   [
    {
     "enum_field_value" : 15,
     "name" : "android::hardware::renderscript::V1_0::ThreadPriorities::LOW"
    },
    {
     "enum_field_value" : -8,
     "name" : "android::hardware::renderscript::V1_0::ThreadPriorities::NORMAL_GRAPHICS"
    },
    {
     "enum_field_value" : -1,
     "name" : "android::hardware::renderscript::V1_0::ThreadPriorities::NORMAL"
    },
    {
     "enum_field_value" : -4,
     "name" : "android::hardware::renderscript::V1_0::ThreadPriorities::LOW_LATENCY"
    }
   ],
   "linker_set_key" : "_ZTIN7android8hardware12renderscript4V1_016ThreadPrioritiesE",
   "name" : "android::hardware::renderscript::V1_0::ThreadPriorities",
   "size" : 4,
   "source_file" : "out/soong/.intermediates/hardware/interfaces/renderscript/1.0/android.hardware.renderscript@1.0_genc++_headers/gen/android/hardware/renderscript/1.0/types.h",
   "underlying_type" : "_ZTIi"
  },
  {
   "alignment" : 4,
   "enum_fields" :
   [
    {
     "enum_field_value" : 0,
     "name" : "android::hardware::renderscript::V1_0::ScriptIntrinsicID::ID_UNDEFINED"
    },
    {
     "enum_field_value" : 1,
     "name" : "android::hardware::renderscript::V1_0::ScriptIntrinsicID::ID_CONVOLVE_3X3"
    },
    {
     "enum_field_value" : 2,
     "name" : "android::hardware::renderscript::V1_0::ScriptIntrinsicID::ID_COLOR_MATRIX"
    },
    {
     "enum_field_value" : 3,
     "name" : "android::hardware::renderscript::V1_0::ScriptIntrinsicID::ID_LUT"
    },
    {
     "enum_field_value" : 4,
     "name" : "android::hardware::renderscript::V1_0::ScriptIntrinsicID::ID_CONVOLVE_5X5"
    },
    {
     "enum_field_value" : 5,
     "name" : "android::hardware::renderscript::V1_0::ScriptIntrinsicID::ID_BLUR"
    },
    {
     "enum_field_value" : 6,
     "name" : "android::hardware::renderscript::V1_0::ScriptIntrinsicID::ID_YUV_TO_RGB"
    },
    {
     "enum_field_value" : 7,
     "name" : "android::hardware::renderscript::V1_0::ScriptIntrinsicID::ID_BLEND"
    },
    {
     "enum_field_value" : 8,
     "name" : "android::hardware::renderscript::V1_0::ScriptIntrinsicID::ID_3DLUT"
    },
    {
     "enum_field_value" : 9,
     "name" : "android::hardware::renderscript::V1_0::ScriptIntrinsicID::ID_HISTOGRAM"
    },
    {
     "enum_field_value" : 12,
     "name" : "android::hardware::renderscript::V1_0::ScriptIntrinsicID::ID_RESIZE"
    },
    {
     "enum_field_value" : 13,
     "name" : "android::hardware::renderscript::V1_0::ScriptIntrinsicID::ID_BLAS"
    },
    {
     "enum_field_value" : 14,
     "name" : "android::hardware::renderscript::V1_0::ScriptIntrinsicID::ID_EXTBLAS"
    },
    {
     "enum_field_value" : 268435456,
     "name" : "android::hardware::renderscript::V1_0::ScriptIntrinsicID::ID_OEM_START"
    }
   ],
   "linker_set_key" : "_ZTIN7android8hardware12renderscript4V1_017ScriptIntrinsicIDE",
   "name" : "android::hardware::renderscript::V1_0::ScriptIntrinsicID",
   "size" : 4,
   "source_file" : "out/soong/.intermediates/hardware/interfaces/renderscript/1.0/android.hardware.renderscript@1.0_genc++_headers/gen/android/hardware/renderscript/1.0/types.h",
   "underlying_type" : "_ZTIi"
  },
  {
   "alignment" : 4,
   "enum_fields" :
   [
    {
     "enum_field_value" : 1,
     "name" : "android::hardware::renderscript::V1_0::AllocationUsageType::SCRIPT"
    },
    {
     "enum_field_value" : 2,
     "name" : "android::hardware::renderscript::V1_0::AllocationUsageType::GRAPHICS_TEXTURE"
    },
    {
     "enum_field_value" : 4,
     "name" : "android::hardware::renderscript::V1_0::AllocationUsageType::GRAPHICS_VERTEX"
    },
    {
     "enum_field_value" : 8,
     "name" : "android::hardware::renderscript::V1_0::AllocationUsageType::GRAPHICS_CONSTANTS"
    },
    {
     "enum_field_value" : 16,
     "name" : "android::hardware::renderscript::V1_0::AllocationUsageType::GRAPHICS_RENDER_TARGET"
    },
    {
     "enum_field_value" : 32,
     "name" : "android::hardware::renderscript::V1_0::AllocationUsageType::IO_INPUT"
    },
    {
     "enum_field_value" : 64,
     "name" : "android::hardware::renderscript::V1_0::AllocationUsageType::IO_OUTPUT"
    },
    {
     "enum_field_value" : 128,
     "name" : "android::hardware::renderscript::V1_0::AllocationUsageType::SHARED"
    },
    {
     "enum_field_value" : 32768,
     "name" : "android::hardware::renderscript::V1_0::AllocationUsageType::OEM"
    },
    {
     "enum_field_value" : 33023,
     "name" : "android::hardware::renderscript::V1_0::AllocationUsageType::ALL"
    }
   ],
   "linker_set_key" : "_ZTIN7android8hardware12renderscript4V1_019AllocationUsageTypeE",
   "name" : "android::hardware::renderscript::V1_0::AllocationUsageType",
   "size" : 4,
   "source_file" : "out/soong/.intermediates/hardware/interfaces/renderscript/1.0/android.hardware.renderscript@1.0_genc++_headers/gen/android/hardware/renderscript/1.0/types.h",
   "underlying_type" : "_ZTIi"
  },
  {
   "alignment" : 4,
   "enum_fields" :
   [
    {
     "enum_field_value" : 0,
     "name" : "android::hardware::renderscript::V1_0::MessageToClientType::NONE"
    },
    {
     "enum_field_value" : 1,
     "name" : "android::hardware::renderscript::V1_0::MessageToClientType::EXCEPTION"
    },
    {
     "enum_field_value" : 2,
     "name" : "android::hardware::renderscript::V1_0::MessageToClientType::RESIZE"
    },
    {
     "enum_field_value" : 3,
     "name" : "android::hardware::renderscript::V1_0::MessageToClientType::ERROR"
    },
    {
     "enum_field_value" : 4,
     "name" : "android::hardware::renderscript::V1_0::MessageToClientType::USER"
    },
    {
     "enum_field_value" : 5,
     "name" : "android::hardware::renderscript::V1_0::MessageToClientType::NEW_BUFFER"
    }
   ],
   "linker_set_key" : "_ZTIN7android8hardware12renderscript4V1_019MessageToClientTypeE",
   "name" : "android::hardware::renderscript::V1_0::MessageToClientType",
   "size" : 4,
   "source_file" : "out/soong/.intermediates/hardware/interfaces/renderscript/1.0/android.hardware.renderscript@1.0_genc++_headers/gen/android/hardware/renderscript/1.0/types.h",
   "underlying_type" : "_ZTIi"
  },
  {
   "alignment" : 4,
   "enum_fields" :
   [
    {
     "enum_field_value" : 0,
     "name" : "android::hardware::renderscript::V1_0::AllocationCubemapFace::POSITIVE_X"
    },
    {
     "enum_field_value" : 1,
     "name" : "android::hardware::renderscript::V1_0::AllocationCubemapFace::NEGATIVE_X"
    },
    {
     "enum_field_value" : 2,
     "name" : "android::hardware::renderscript::V1_0::AllocationCubemapFace::POSITIVE_Y"
    },
    {
     "enum_field_value" : 3,
     "name" : "android::hardware::renderscript::V1_0::AllocationCubemapFace::NEGATIVE_Y"
    },
    {
     "enum_field_value" : 4,
     "name" : "android::hardware::renderscript::V1_0::AllocationCubemapFace::POSITIVE_Z"
    },
    {
     "enum_field_value" : 5,
     "name" : "android::hardware::renderscript::V1_0::AllocationCubemapFace::NEGATIVE_Z"
    }
   ],
   "linker_set_key" : "_ZTIN7android8hardware12renderscript4V1_021AllocationCubemapFaceE",
   "name" : "android::hardware::renderscript::V1_0::AllocationCubemapFace",
   "size" : 4,
   "source_file" : "out/soong/.intermediates/hardware/interfaces/renderscript/1.0/android.hardware.renderscript@1.0_genc++_headers/gen/android/hardware/renderscript/1.0/types.h",
   "underlying_type" : "_ZTIi"
  },
  {
   "alignment" : 4,
   "enum_fields" :
   [
    {
     "enum_field_value" : 0,
     "name" : "android::hardware::renderscript::V1_0::AllocationMipmapControl::NONE"
    },
    {
     "enum_field_value" : 1,
     "name" : "android::hardware::renderscript::V1_0::AllocationMipmapControl::FULL"
    },
    {
     "enum_field_value" : 2,
     "name" : "android::hardware::renderscript::V1_0::AllocationMipmapControl::ON_SYNC_TO_TEXTURE"
    }
   ],
   "linker_set_key" : "_ZTIN7android8hardware12renderscript4V1_023AllocationMipmapControlE",
   "name" : "android::hardware::renderscript::V1_0::AllocationMipmapControl",
   "size" : 4,
   "source_file" : "out/soong/.intermediates/hardware/interfaces/renderscript/1.0/android.hardware.renderscript@1.0_genc++_headers/gen/android/hardware/renderscript/1.0/types.h",
   "underlying_type" : "_ZTIi"
  },
  {
   "alignment" : 4,
   "enum_fields" :
   [
    {
     "enum_field_value" : 0,
     "name" : "android::hardware::renderscript::V1_0::MetadataSignatureBitval::SIG_None"
    },
    {
     "enum_field_value" : 1,
     "name" : "android::hardware::renderscript::V1_0::MetadataSignatureBitval::SIG_In"
    },
    {
     "enum_field_value" : 2,
     "name" : "android::hardware::renderscript::V1_0::MetadataSignatureBitval::SIG_Out"
    },
    {
     "enum_field_value" : 4,
     "name" : "android::hardware::renderscript::V1_0::MetadataSignatureBitval::SIG_Usr"
    },
    {
     "enum_field_value" : 8,
     "name" : "android::hardware::renderscript::V1_0::MetadataSignatureBitval::SIG_X"
    },
    {
     "enum_field_value" : 16,
     "name" : "android::hardware::renderscript::V1_0::MetadataSignatureBitval::SIG_Y"
    },
    {
     "enum_field_value" : 32,
     "name" : "android::hardware::renderscript::V1_0::MetadataSignatureBitval::SIG_Kernel"
    },
    {
     "enum_field_value" : 64,
     "name" : "android::hardware::renderscript::V1_0::MetadataSignatureBitval::SIG_Z"
    },
    {
     "enum_field_value" : 128,
     "name" : "android::hardware::renderscript::V1_0::MetadataSignatureBitval::SIG_Ctxt"
    }
   ],
   "linker_set_key" : "_ZTIN7android8hardware12renderscript4V1_023MetadataSignatureBitvalE",
   "name" : "android::hardware::renderscript::V1_0::MetadataSignatureBitval",
   "size" : 4,
   "source_file" : "out/soong/.intermediates/hardware/interfaces/renderscript/1.0/android.hardware.renderscript@1.0_genc++_headers/gen/android/hardware/renderscript/1.0/types.h",
   "underlying_type" : "_ZTIi"
  },
  {
   "alignment" : 4,
   "enum_fields" :
   [
    {
     "enum_field_value" : 0,
     "name" : "android::hardware::renderscript::V1_0::DataKind::USER"
    },
    {
     "enum_field_value" : 7,
     "name" : "android::hardware::renderscript::V1_0::DataKind::PIXEL_L"
    },
    {
     "enum_field_value" : 8,
     "name" : "android::hardware::renderscript::V1_0::DataKind::PIXEL_A"
    },
    {
     "enum_field_value" : 9,
     "name" : "android::hardware::renderscript::V1_0::DataKind::PIXEL_LA"
    },
    {
     "enum_field_value" : 10,
     "name" : "android::hardware::renderscript::V1_0::DataKind::PIXEL_RGB"
    },
    {
     "enum_field_value" : 11,
     "name" : "android::hardware::renderscript::V1_0::DataKind::PIXEL_RGBA"
    },
    {
     "enum_field_value" : 12,
     "name" : "android::hardware::renderscript::V1_0::DataKind::PIXEL_DEPTH"
    },
    {
     "enum_field_value" : 13,
     "name" : "android::hardware::renderscript::V1_0::DataKind::PIXEL_YUV"
    },
    {
     "enum_field_value" : 100,
     "name" : "android::hardware::renderscript::V1_0::DataKind::INVALID"
    }
   ],
   "linker_set_key" : "_ZTIN7android8hardware12renderscript4V1_08DataKindE",
   "name" : "android::hardware::renderscript::V1_0::DataKind",
   "size" : 4,
   "source_file" : "out/soong/.intermediates/hardware/interfaces/renderscript/1.0/android.hardware.renderscript@1.0_genc++_headers/gen/android/hardware/renderscript/1.0/types.h",
   "underlying_type" : "_ZTIi"
  },
  {
   "alignment" : 4,
   "enum_fields" :
   [
    {
     "enum_field_value" : 0,
     "name" : "android::hardware::renderscript::V1_0::DataType::NONE"
    },
    {
     "enum_field_value" : 1,
     "name" : "android::hardware::renderscript::V1_0::DataType::FLOAT_16"
    },
    {
     "enum_field_value" : 2,
     "name" : "android::hardware::renderscript::V1_0::DataType::FLOAT_32"
    },
    {
     "enum_field_value" : 3,
     "name" : "android::hardware::renderscript::V1_0::DataType::FLOAT_64"
    },
    {
     "enum_field_value" : 4,
     "name" : "android::hardware::renderscript::V1_0::DataType::SIGNED_8"
    },
    {
     "enum_field_value" : 5,
     "name" : "android::hardware::renderscript::V1_0::DataType::SIGNED_16"
    },
    {
     "enum_field_value" : 6,
     "name" : "android::hardware::renderscript::V1_0::DataType::SIGNED_32"
    },
    {
     "enum_field_value" : 7,
     "name" : "android::hardware::renderscript::V1_0::DataType::SIGNED_64"
    },
    {
     "enum_field_value" : 8,
     "name" : "android::hardware::renderscript::V1_0::DataType::UNSIGNED_8"
    },
    {
     "enum_field_value" : 9,
     "name" : "android::hardware::renderscript::V1_0::DataType::UNSIGNED_16"
    },
    {
     "enum_field_value" : 10,
     "name" : "android::hardware::renderscript::V1_0::DataType::UNSIGNED_32"
    },
    {
     "enum_field_value" : 11,
     "name" : "android::hardware::renderscript::V1_0::DataType::UNSIGNED_64"
    },
    {
     "enum_field_value" : 12,
     "name" : "android::hardware::renderscript::V1_0::DataType::BOOLEAN"
    },
    {
     "enum_field_value" : 13,
     "name" : "android::hardware::renderscript::V1_0::DataType::UNSIGNED_5_6_5"
    },
    {
     "enum_field_value" : 14,
     "name" : "android::hardware::renderscript::V1_0::DataType::UNSIGNED_5_5_5_1"
    },
    {
     "enum_field_value" : 15,
     "name" : "android::hardware::renderscript::V1_0::DataType::UNSIGNED_4_4_4_4"
    },
    {
     "enum_field_value" : 16,
     "name" : "android::hardware::renderscript::V1_0::DataType::MATRIX_4X4"
    },
    {
     "enum_field_value" : 17,
     "name" : "android::hardware::renderscript::V1_0::DataType::MATRIX_3X3"
    },
    {
     "enum_field_value" : 18,
     "name" : "android::hardware::renderscript::V1_0::DataType::MATRIX_2X2"
    },
    {
     "enum_field_value" : 1000,
     "name" : "android::hardware::renderscript::V1_0::DataType::ELEMENT"
    },
    {
     "enum_field_value" : 1001,
     "name" : "android::hardware::renderscript::V1_0::DataType::TYPE"
    },
    {
     "enum_field_value" : 1002,
     "name" : "android::hardware::renderscript::V1_0::DataType::ALLOCATION"
    },
    {
     "enum_field_value" : 1003,
     "name" : "android::hardware::renderscript::V1_0::DataType::SAMPLER"
    },
    {
     "enum_field_value" : 1004,
     "name" : "android::hardware::renderscript::V1_0::DataType::SCRIPT"
    },
    {
     "enum_field_value" : 1005,
     "name" : "android::hardware::renderscript::V1_0::DataType::MESH"
    },
    {
     "enum_field_value" : 1006,
     "name" : "android::hardware::renderscript::V1_0::DataType::PROGRAM_FRAGMENT"
    },
    {
     "enum_field_value" : 1007,
     "name" : "android::hardware::renderscript::V1_0::DataType::PROGRAM_VERTEX"
    },
    {
     "enum_field_value" : 1008,
     "name" : "android::hardware::renderscript::V1_0::DataType::PROGRAM_RASTER"
    },
    {
     "enum_field_value" : 1009,
     "name" : "android::hardware::renderscript::V1_0::DataType::PROGRAM_STORE"
    },
    {
     "enum_field_value" : 1010,
     "name" : "android::hardware::renderscript::V1_0::DataType::FONT"
    },
    {
     "enum_field_value" : 10000,
     "name" : "android::hardware::renderscript::V1_0::DataType::INVALID"
    }
   ],
   "linker_set_key" : "_ZTIN7android8hardware12renderscript4V1_08DataTypeE",
   "name" : "android::hardware::renderscript::V1_0::DataType",
   "size" : 4,
   "source_file" : "out/soong/.intermediates/hardware/interfaces/renderscript/1.0/android.hardware.renderscript@1.0_genc++_headers/gen/android/hardware/renderscript/1.0/types.h",
   "underlying_type" : "_ZTIi"
  },
  {
   "alignment" : 4,
   "enum_fields" :
   [
    {
     "enum_field_value" : 0,
     "name" : "android::hardware::renderscript::V1_0::YuvFormat::YUV_NONE"
    },
    {
     "enum_field_value" : 842094169,
     "name" : "android::hardware::renderscript::V1_0::YuvFormat::YUV_YV12"
    },
    {
     "enum_field_value" : 17,
     "name" : "android::hardware::renderscript::V1_0::YuvFormat::YUV_NV21"
    },
    {
     "enum_field_value" : 35,
     "name" : "android::hardware::renderscript::V1_0::YuvFormat::YUV_420_888"
    }
   ],
   "linker_set_key" : "_ZTIN7android8hardware12renderscript4V1_09YuvFormatE",
   "name" : "android::hardware::renderscript::V1_0::YuvFormat",
   "size" : 4,
   "source_file" : "out/soong/.intermediates/hardware/interfaces/renderscript/1.0/android.hardware.renderscript@1.0_genc++_headers/gen/android/hardware/renderscript/1.0/types.h",
   "underlying_type" : "_ZTIi"
  },
  {
   "alignment" : 4,
   "enum_fields" :
   [
    {
     "enum_field_value" : 0,
     "name" : "android::hardware::HidlReturnRestriction::NONE"
    },
    {
     "enum_field_value" : 1,
     "name" : "android::hardware::HidlReturnRestriction::ERROR_IF_UNCHECKED"
    },
    {
     "enum_field_value" : 2,
     "name" : "android::hardware::HidlReturnRestriction::FATAL_IF_UNCHECKED"
    }
   ],
   "linker_set_key" : "_ZTIN7android8hardware21HidlReturnRestrictionE",
   "name" : "android::hardware::HidlReturnRestriction",
   "size" : 4,
   "source_file" : "system/libhidl/base/include/hidl/Status.h",
   "underlying_type" : "_ZTIi"
  },
  {
   "alignment" : 4,
   "enum_fields" :
   [
    {
     "enum_field_value" : 0,
     "name" : "android::hardware::Status::EX_NONE"
    },
    {
     "enum_field_value" : -1,
     "name" : "android::hardware::Status::EX_SECURITY"
    },
    {
     "enum_field_value" : -2,
     "name" : "android::hardware::Status::EX_BAD_PARCELABLE"
    },
    {
     "enum_field_value" : -3,
     "name" : "android::hardware::Status::EX_ILLEGAL_ARGUMENT"
    },
    {
     "enum_field_value" : -4,
     "name" : "android::hardware::Status::EX_NULL_POINTER"
    },
    {
     "enum_field_value" : -5,
     "name" : "android::hardware::Status::EX_ILLEGAL_STATE"
    },
    {
     "enum_field_value" : -6,
     "name" : "android::hardware::Status::EX_NETWORK_MAIN_THREAD"
    },
    {
     "enum_field_value" : -7,
     "name" : "android::hardware::Status::EX_UNSUPPORTED_OPERATION"
    },
    {
     "enum_field_value" : -128,
     "name" : "android::hardware::Status::EX_HAS_REPLY_HEADER"
    },
    {
     "enum_field_value" : -129,
     "name" : "android::hardware::Status::EX_TRANSACTION_FAILED"
    }
   ],
   "linker_set_key" : "_ZTIN7android8hardware6Status9ExceptionE",
   "name" : "android::hardware::Status::Exception",
   "size" : 4,
   "source_file" : "system/libhidl/base/include/hidl/Status.h",
   "underlying_type" : "_ZTIi"
  },
  {
   "alignment" : 4,
   "enum_fields" :
   [
    {
     "enum_field_value" : 0,
     "name" : "android::hardware::details::READPTRPOS"
    },
    {
     "enum_field_value" : 1,
     "name" : "android::hardware::details::WRITEPTRPOS"
    },
    {
     "enum_field_value" : 2,
     "name" : "android::hardware::details::DATAPTRPOS"
    },
    {
     "enum_field_value" : 3,
     "name" : "android::hardware::details::EVFLAGWORDPOS"
    }
   ],
   "linker_set_key" : "_ZTIN7android8hardware7details11GrantorTypeE",
   "name" : "android::hardware::details::GrantorType",
   "size" : 4,
   "source_file" : "system/libfmq/base/fmq/MQDescriptorBase.h",
   "underlying_type" : "_ZTIi"
  },
  {
   "alignment" : 4,
   "enum_fields" :
   [
    {
     "enum_field_value" : 0,
     "name" : "android::hardware::details::HidlInstrumentor::SERVER_API_ENTRY"
    },
    {
     "enum_field_value" : 1,
     "name" : "android::hardware::details::HidlInstrumentor::SERVER_API_EXIT"
    },
    {
     "enum_field_value" : 2,
     "name" : "android::hardware::details::HidlInstrumentor::CLIENT_API_ENTRY"
    },
    {
     "enum_field_value" : 3,
     "name" : "android::hardware::details::HidlInstrumentor::CLIENT_API_EXIT"
    },
    {
     "enum_field_value" : 4,
     "name" : "android::hardware::details::HidlInstrumentor::SYNC_CALLBACK_ENTRY"
    },
    {
     "enum_field_value" : 5,
     "name" : "android::hardware::details::HidlInstrumentor::SYNC_CALLBACK_EXIT"
    },
    {
     "enum_field_value" : 6,
     "name" : "android::hardware::details::HidlInstrumentor::ASYNC_CALLBACK_ENTRY"
    },
    {
     "enum_field_value" : 7,
     "name" : "android::hardware::details::HidlInstrumentor::ASYNC_CALLBACK_EXIT"
    },
    {
     "enum_field_value" : 8,
     "name" : "android::hardware::details::HidlInstrumentor::PASSTHROUGH_ENTRY"
    },
    {
     "enum_field_value" : 9,
     "name" : "android::hardware::details::HidlInstrumentor::PASSTHROUGH_EXIT"
    }
   ],
   "linker_set_key" : "_ZTIN7android8hardware7details16HidlInstrumentor20InstrumentationEventE",
   "name" : "android::hardware::details::HidlInstrumentor::InstrumentationEvent",
   "size" : 4,
   "source_file" : "system/libhidl/base/include/hidl/HidlInternal.h",
   "underlying_type" : "_ZTIj"
  },
  {
   "alignment" : 4,
   "enum_fields" :
   [
    {
     "enum_field_value" : 1,
     "name" : "android::hardware::kSynchronizedReadWrite"
    },
    {
     "enum_field_value" : 2,
     "name" : "android::hardware::kUnsynchronizedWrite"
    }
   ],
   "linker_set_key" : "_ZTIN7android8hardware8MQFlavorE",
   "name" : "android::hardware::MQFlavor",
   "size" : 4,
   "source_file" : "system/libfmq/base/fmq/MQDescriptorBase.h",
   "underlying_type" : "_ZTIj"
  },
  {
   "alignment" : 4,
   "enum_fields" :
   [
    {
     "enum_field_value" : 0,
     "name" : "std::money_base::none"
    },
    {
     "enum_field_value" : 1,
     "name" : "std::money_base::space"
    },
    {
     "enum_field_value" : 2,
     "name" : "std::money_base::symbol"
    },
    {
     "enum_field_value" : 3,
     "name" : "std::money_base::sign"
    },
    {
     "enum_field_value" : 4,
     "name" : "std::money_base::value"
    }
   ],
   "linker_set_key" : "_ZTINSt3__110money_base4partE",
   "name" : "std::money_base::part",
   "size" : 4,
   "source_file" : "external/libcxx/include/locale",
   "underlying_type" : "_ZTIj"
  },
  {
   "access" : "private",
   "alignment" : 4,
   "enum_fields" :
   [
    {
     "enum_field_value" : 5,
     "name" : "std::basic_string<char32_t>::__min_cap"
    }
   ],
   "linker_set_key" : "_ZTINSt3__112basic_stringIDiNS_11char_traitsIDiEENS_9allocatorIDiEEE10$__min_capE",
   "name" : "std::basic_string<char32_t, std::char_traits<char32_t>, std::allocator<char32_t>>::(unnamed)",
   "size" : 4,
   "source_file" : "external/libcxx/include/string",
   "underlying_type" : "_ZTIj"
  },
  {
   "access" : "private",
   "alignment" : 4,
   "enum_fields" :
   [
    {
     "enum_field_value" : 3,
     "name" : "std::basic_string<char32_t>::__n_words"
    }
   ],
   "linker_set_key" : "_ZTINSt3__112basic_stringIDiNS_11char_traitsIDiEENS_9allocatorIDiEEE10$__n_wordsE",
   "name" : "std::basic_string<char32_t, std::char_traits<char32_t>, std::allocator<char32_t>>::(unnamed)",
   "size" : 4,
   "source_file" : "external/libcxx/include/string",
   "underlying_type" : "_ZTIj"
  },
  {
   "access" : "private",
   "alignment" : 4,
   "enum_fields" :
   [
    {
     "enum_field_value" : 16,
     "name" : "std::basic_string<char32_t>::__alignment"
    }
   ],
   "linker_set_key" : "_ZTINSt3__112basic_stringIDiNS_11char_traitsIDiEENS_9allocatorIDiEEE12$__alignmentE",
   "name" : "std::basic_string<char32_t, std::char_traits<char32_t>, std::allocator<char32_t>>::(unnamed)",
   "size" : 4,
   "source_file" : "external/libcxx/include/string",
   "underlying_type" : "_ZTIj"
  },
  {
   "access" : "private",
   "alignment" : 4,
   "enum_fields" :
   [
    {
     "enum_field_value" : 11,
     "name" : "std::basic_string<char16_t>::__min_cap"
    }
   ],
   "linker_set_key" : "_ZTINSt3__112basic_stringIDsNS_11char_traitsIDsEENS_9allocatorIDsEEE10$__min_capE",
   "name" : "std::basic_string<char16_t, std::char_traits<char16_t>, std::allocator<char16_t>>::(unnamed)",
   "size" : 4,
   "source_file" : "external/libcxx/include/string",
   "underlying_type" : "_ZTIj"
  },
  {
   "access" : "private",
   "alignment" : 4,
   "enum_fields" :
   [
    {
     "enum_field_value" : 3,
     "name" : "std::basic_string<char16_t>::__n_words"
    }
   ],
   "linker_set_key" : "_ZTINSt3__112basic_stringIDsNS_11char_traitsIDsEENS_9allocatorIDsEEE10$__n_wordsE",
   "name" : "std::basic_string<char16_t, std::char_traits<char16_t>, std::allocator<char16_t>>::(unnamed)",
   "size" : 4,
   "source_file" : "external/libcxx/include/string",
   "underlying_type" : "_ZTIj"
  },
  {
   "access" : "private",
   "alignment" : 4,
   "enum_fields" :
   [
    {
     "enum_field_value" : 16,
     "name" : "std::basic_string<char16_t>::__alignment"
    }
   ],
   "linker_set_key" : "_ZTINSt3__112basic_stringIDsNS_11char_traitsIDsEENS_9allocatorIDsEEE12$__alignmentE",
   "name" : "std::basic_string<char16_t, std::char_traits<char16_t>, std::allocator<char16_t>>::(unnamed)",
   "size" : 4,
   "source_file" : "external/libcxx/include/string",
   "underlying_type" : "_ZTIj"
  },
  {
   "access" : "private",
   "alignment" : 4,
   "enum_fields" :
   [
    {
     "enum_field_value" : 23,
     "name" : "std::basic_string<char8_t>::__min_cap"
    }
   ],
   "linker_set_key" : "_ZTINSt3__112basic_stringIDuNS_11char_traitsIDuEENS_9allocatorIDuEEE10$__min_capE",
   "name" : "std::basic_string<char8_t, std::char_traits<char8_t>, std::allocator<char8_t>>::(unnamed)",
   "size" : 4,
   "source_file" : "external/libcxx/include/string",
   "underlying_type" : "_ZTIj"
  },
  {
   "access" : "private",
   "alignment" : 4,
   "enum_fields" :
   [
    {
     "enum_field_value" : 3,
     "name" : "std::basic_string<char8_t>::__n_words"
    }
   ],
   "linker_set_key" : "_ZTINSt3__112basic_stringIDuNS_11char_traitsIDuEENS_9allocatorIDuEEE10$__n_wordsE",
   "name" : "std::basic_string<char8_t, std::char_traits<char8_t>, std::allocator<char8_t>>::(unnamed)",
   "size" : 4,
   "source_file" : "external/libcxx/include/string",
   "underlying_type" : "_ZTIj"
  },
  {
   "access" : "private",
   "alignment" : 4,
   "enum_fields" :
   [
    {
     "enum_field_value" : 16,
     "name" : "std::basic_string<char8_t>::__alignment"
    }
   ],
   "linker_set_key" : "_ZTINSt3__112basic_stringIDuNS_11char_traitsIDuEENS_9allocatorIDuEEE12$__alignmentE",
   "name" : "std::basic_string<char8_t, std::char_traits<char8_t>, std::allocator<char8_t>>::(unnamed)",
   "size" : 4,
   "source_file" : "external/libcxx/include/string",
   "underlying_type" : "_ZTIj"
  },
  {
   "access" : "private",
   "alignment" : 4,
   "enum_fields" :
   [
    {
     "enum_field_value" : 23,
     "name" : "std::basic_string<char>::__min_cap"
    }
   ],
   "linker_set_key" : "_ZTINSt3__112basic_stringIcNS_11char_traitsIcEENS_9allocatorIcEEE10$__min_capE",
   "name" : "std::basic_string<char, std::char_traits<char>, std::allocator<char>>::(unnamed)",
   "size" : 4,
   "source_file" : "external/libcxx/include/string",
   "underlying_type" : "_ZTIj"
  },
  {
   "access" : "private",
   "alignment" : 4,
   "enum_fields" :
   [
    {
     "enum_field_value" : 3,
     "name" : "std::basic_string<char>::__n_words"
    }
   ],
   "linker_set_key" : "_ZTINSt3__112basic_stringIcNS_11char_traitsIcEENS_9allocatorIcEEE10$__n_wordsE",
   "name" : "std::basic_string<char, std::char_traits<char>, std::allocator<char>>::(unnamed)",
   "size" : 4,
   "source_file" : "external/libcxx/include/string",
   "underlying_type" : "_ZTIj"
  },
  {
   "access" : "private",
   "alignment" : 4,
   "enum_fields" :
   [
    {
     "enum_field_value" : 16,
     "name" : "std::basic_string<char>::__alignment"
    }
   ],
   "linker_set_key" : "_ZTINSt3__112basic_stringIcNS_11char_traitsIcEENS_9allocatorIcEEE12$__alignmentE",
   "name" : "std::basic_string<char, std::char_traits<char>, std::allocator<char>>::(unnamed)",
   "size" : 4,
   "source_file" : "external/libcxx/include/string",
   "underlying_type" : "_ZTIj"
  },
  {
   "access" : "private",
   "alignment" : 4,
   "enum_fields" :
   [
    {
     "enum_field_value" : 5,
     "name" : "std::basic_string<wchar_t>::__min_cap"
    }
   ],
   "linker_set_key" : "_ZTINSt3__112basic_stringIwNS_11char_traitsIwEENS_9allocatorIwEEE10$__min_capE",
   "name" : "std::basic_string<wchar_t, std::char_traits<wchar_t>, std::allocator<wchar_t>>::(unnamed)",
   "size" : 4,
   "source_file" : "external/libcxx/include/string",
   "underlying_type" : "_ZTIj"
  },
  {
   "access" : "private",
   "alignment" : 4,
   "enum_fields" :
   [
    {
     "enum_field_value" : 3,
     "name" : "std::basic_string<wchar_t>::__n_words"
    }
   ],
   "linker_set_key" : "_ZTINSt3__112basic_stringIwNS_11char_traitsIwEENS_9allocatorIwEEE10$__n_wordsE",
   "name" : "std::basic_string<wchar_t, std::char_traits<wchar_t>, std::allocator<wchar_t>>::(unnamed)",
   "size" : 4,
   "source_file" : "external/libcxx/include/string",
   "underlying_type" : "_ZTIj"
  },
  {
   "access" : "private",
   "alignment" : 4,
   "enum_fields" :
   [
    {
     "enum_field_value" : 16,
     "name" : "std::basic_string<wchar_t>::__alignment"
    }
   ],
   "linker_set_key" : "_ZTINSt3__112basic_stringIwNS_11char_traitsIwEENS_9allocatorIwEEE12$__alignmentE",
   "name" : "std::basic_string<wchar_t, std::char_traits<wchar_t>, std::allocator<wchar_t>>::(unnamed)",
   "size" : 4,
   "source_file" : "external/libcxx/include/string",
   "underlying_type" : "_ZTIj"
  },
  {
   "alignment" : 4,
   "enum_fields" :
   [
    {
     "enum_field_value" : 0,
     "name" : "std::codecvt_base::ok"
    },
    {
     "enum_field_value" : 1,
     "name" : "std::codecvt_base::partial"
    },
    {
     "enum_field_value" : 2,
     "name" : "std::codecvt_base::error"
    },
    {
     "enum_field_value" : 3,
     "name" : "std::codecvt_base::noconv"
    }
   ],
   "linker_set_key" : "_ZTINSt3__112codecvt_base6resultE",
   "name" : "std::codecvt_base::result",
   "size" : 4,
   "source_file" : "external/libcxx/include/__locale",
   "underlying_type" : "_ZTIj"
  },
  {
   "alignment" : 4,
   "enum_fields" :
   [
    {
     "enum_field_value" : 0,
     "name" : "std::memory_order_relaxed"
    },
    {
     "enum_field_value" : 1,
     "name" : "std::memory_order_consume"
    },
    {
     "enum_field_value" : 2,
     "name" : "std::memory_order_acquire"
    },
    {
     "enum_field_value" : 3,
     "name" : "std::memory_order_release"
    },
    {
     "enum_field_value" : 4,
     "name" : "std::memory_order_acq_rel"
    },
    {
     "enum_field_value" : 5,
     "name" : "std::memory_order_seq_cst"
    }
   ],
   "linker_set_key" : "_ZTINSt3__112memory_orderE",
   "name" : "std::memory_order",
   "size" : 4,
   "source_file" : "external/libcxx/include/atomic",
   "underlying_type" : "_ZTIj"
  },
  {
   "alignment" : 4,
   "enum_fields" :
   [
    {
     "enum_field_value" : 0,
     "name" : "std::pointer_safety::relaxed"
    },
    {
     "enum_field_value" : 1,
     "name" : "std::pointer_safety::preferred"
    },
    {
     "enum_field_value" : 2,
     "name" : "std::pointer_safety::strict"
    }
   ],
   "linker_set_key" : "_ZTINSt3__114pointer_safety4__lxE",
   "name" : "std::pointer_safety::__lx",
   "size" : 4,
   "source_file" : "external/libcxx/include/memory",
   "underlying_type" : "_ZTIj"
  },
  {
   "alignment" : 4,
   "enum_fields" :
   [
    {
     "enum_field_value" : -1,
     "name" : "std::round_indeterminate"
    },
    {
     "enum_field_value" : 0,
     "name" : "std::round_toward_zero"
    },
    {
     "enum_field_value" : 1,
     "name" : "std::round_to_nearest"
    },
    {
     "enum_field_value" : 2,
     "name" : "std::round_toward_infinity"
    },
    {
     "enum_field_value" : 3,
     "name" : "std::round_toward_neg_infinity"
    }
   ],
   "linker_set_key" : "_ZTINSt3__117float_round_styleE",
   "name" : "std::float_round_style",
   "size" : 4,
   "source_file" : "external/libcxx/include/limits",
   "underlying_type" : "_ZTIi"
  },
  {
   "alignment" : 4,
   "enum_fields" :
   [
    {
     "enum_field_value" : -1,
     "name" : "std::denorm_indeterminate"
    },
    {
     "enum_field_value" : 0,
     "name" : "std::denorm_absent"
    },
    {
     "enum_field_value" : 1,
     "name" : "std::denorm_present"
    }
   ],
   "linker_set_key" : "_ZTINSt3__118float_denorm_styleE",
   "name" : "std::float_denorm_style",
   "size" : 4,
   "source_file" : "external/libcxx/include/limits",
   "underlying_type" : "_ZTIi"
  },
  {
   "alignment" : 4,
   "enum_fields" :
   [
    {
     "enum_field_value" : 97,
     "name" : "std::errc::address_family_not_supported"
    },
    {
     "enum_field_value" : 98,
     "name" : "std::errc::address_in_use"
    },
    {
     "enum_field_value" : 99,
     "name" : "std::errc::address_not_available"
    },
    {
     "enum_field_value" : 106,
     "name" : "std::errc::already_connected"
    },
    {
     "enum_field_value" : 7,
     "name" : "std::errc::argument_list_too_long"
    },
    {
     "enum_field_value" : 33,
     "name" : "std::errc::argument_out_of_domain"
    },
    {
     "enum_field_value" : 14,
     "name" : "std::errc::bad_address"
    },
    {
     "enum_field_value" : 9,
     "name" : "std::errc::bad_file_descriptor"
    },
    {
     "enum_field_value" : 74,
     "name" : "std::errc::bad_message"
    },
    {
     "enum_field_value" : 32,
     "name" : "std::errc::broken_pipe"
    },
    {
     "enum_field_value" : 103,
     "name" : "std::errc::connection_aborted"
    },
    {
     "enum_field_value" : 114,
     "name" : "std::errc::connection_already_in_progress"
    },
    {
     "enum_field_value" : 111,
     "name" : "std::errc::connection_refused"
    },
    {
     "enum_field_value" : 104,
     "name" : "std::errc::connection_reset"
    },
    {
     "enum_field_value" : 18,
     "name" : "std::errc::cross_device_link"
    },
    {
     "enum_field_value" : 89,
     "name" : "std::errc::destination_address_required"
    },
    {
     "enum_field_value" : 16,
     "name" : "std::errc::device_or_resource_busy"
    },
    {
     "enum_field_value" : 39,
     "name" : "std::errc::directory_not_empty"
    },
    {
     "enum_field_value" : 8,
     "name" : "std::errc::executable_format_error"
    },
    {
     "enum_field_value" : 17,
     "name" : "std::errc::file_exists"
    },
    {
     "enum_field_value" : 27,
     "name" : "std::errc::file_too_large"
    },
    {
     "enum_field_value" : 36,
     "name" : "std::errc::filename_too_long"
    },
    {
     "enum_field_value" : 38,
     "name" : "std::errc::function_not_supported"
    },
    {
     "enum_field_value" : 113,
     "name" : "std::errc::host_unreachable"
    },
    {
     "enum_field_value" : 43,
     "name" : "std::errc::identifier_removed"
    },
    {
     "enum_field_value" : 84,
     "name" : "std::errc::illegal_byte_sequence"
    },
    {
     "enum_field_value" : 25,
     "name" : "std::errc::inappropriate_io_control_operation"
    },
    {
     "enum_field_value" : 4,
     "name" : "std::errc::interrupted"
    },
    {
     "enum_field_value" : 22,
     "name" : "std::errc::invalid_argument"
    },
    {
     "enum_field_value" : 29,
     "name" : "std::errc::invalid_seek"
    },
    {
     "enum_field_value" : 5,
     "name" : "std::errc::io_error"
    },
    {
     "enum_field_value" : 21,
     "name" : "std::errc::is_a_directory"
    },
    {
     "enum_field_value" : 90,
     "name" : "std::errc::message_size"
    },
    {
     "enum_field_value" : 100,
     "name" : "std::errc::network_down"
    },
    {
     "enum_field_value" : 102,
     "name" : "std::errc::network_reset"
    },
    {
     "enum_field_value" : 101,
     "name" : "std::errc::network_unreachable"
    },
    {
     "enum_field_value" : 105,
     "name" : "std::errc::no_buffer_space"
    },
    {
     "enum_field_value" : 10,
     "name" : "std::errc::no_child_process"
    },
    {
     "enum_field_value" : 67,
     "name" : "std::errc::no_link"
    },
    {
     "enum_field_value" : 37,
     "name" : "std::errc::no_lock_available"
    },
    {
     "enum_field_value" : 61,
     "name" : "std::errc::no_message_available"
    },
    {
     "enum_field_value" : 42,
     "name" : "std::errc::no_message"
    },
    {
     "enum_field_value" : 92,
     "name" : "std::errc::no_protocol_option"
    },
    {
     "enum_field_value" : 28,
     "name" : "std::errc::no_space_on_device"
    },
    {
     "enum_field_value" : 63,
     "name" : "std::errc::no_stream_resources"
    },
    {
     "enum_field_value" : 6,
     "name" : "std::errc::no_such_device_or_address"
    },
    {
     "enum_field_value" : 19,
     "name" : "std::errc::no_such_device"
    },
    {
     "enum_field_value" : 2,
     "name" : "std::errc::no_such_file_or_directory"
    },
    {
     "enum_field_value" : 3,
     "name" : "std::errc::no_such_process"
    },
    {
     "enum_field_value" : 20,
     "name" : "std::errc::not_a_directory"
    },
    {
     "enum_field_value" : 88,
     "name" : "std::errc::not_a_socket"
    },
    {
     "enum_field_value" : 60,
     "name" : "std::errc::not_a_stream"
    },
    {
     "enum_field_value" : 107,
     "name" : "std::errc::not_connected"
    },
    {
     "enum_field_value" : 12,
     "name" : "std::errc::not_enough_memory"
    },
    {
     "enum_field_value" : 95,
     "name" : "std::errc::not_supported"
    },
    {
     "enum_field_value" : 125,
     "name" : "std::errc::operation_canceled"
    },
    {
     "enum_field_value" : 115,
     "name" : "std::errc::operation_in_progress"
    },
    {
     "enum_field_value" : 1,
     "name" : "std::errc::operation_not_permitted"
    },
    {
     "enum_field_value" : 95,
     "name" : "std::errc::operation_not_supported"
    },
    {
     "enum_field_value" : 11,
     "name" : "std::errc::operation_would_block"
    },
    {
     "enum_field_value" : 130,
     "name" : "std::errc::owner_dead"
    },
    {
     "enum_field_value" : 13,
     "name" : "std::errc::permission_denied"
    },
    {
     "enum_field_value" : 71,
     "name" : "std::errc::protocol_error"
    },
    {
     "enum_field_value" : 93,
     "name" : "std::errc::protocol_not_supported"
    },
    {
     "enum_field_value" : 30,
     "name" : "std::errc::read_only_file_system"
    },
    {
     "enum_field_value" : 35,
     "name" : "std::errc::resource_deadlock_would_occur"
    },
    {
     "enum_field_value" : 11,
     "name" : "std::errc::resource_unavailable_try_again"
    },
    {
     "enum_field_value" : 34,
     "name" : "std::errc::result_out_of_range"
    },
    {
     "enum_field_value" : 131,
     "name" : "std::errc::state_not_recoverable"
    },
    {
     "enum_field_value" : 62,
     "name" : "std::errc::stream_timeout"
    },
    {
     "enum_field_value" : 26,
     "name" : "std::errc::text_file_busy"
    },
    {
     "enum_field_value" : 110,
     "name" : "std::errc::timed_out"
    },
    {
     "enum_field_value" : 23,
     "name" : "std::errc::too_many_files_open_in_system"
    },
    {
     "enum_field_value" : 24,
     "name" : "std::errc::too_many_files_open"
    },
    {
     "enum_field_value" : 31,
     "name" : "std::errc::too_many_links"
    },
    {
     "enum_field_value" : 40,
     "name" : "std::errc::too_many_symbolic_link_levels"
    },
    {
     "enum_field_value" : 75,
     "name" : "std::errc::value_too_large"
    },
    {
     "enum_field_value" : 91,
     "name" : "std::errc::wrong_protocol_type"
    }
   ],
   "linker_set_key" : "_ZTINSt3__14errcE",
   "name" : "std::errc",
   "size" : 4,
   "source_file" : "external/libcxx/include/__errc",
   "underlying_type" : "_ZTIi"
  },
  {
   "alignment" : 4,
   "enum_fields" :
   [
    {
     "enum_field_value" : 57005,
     "name" : "std::endian::little"
    },
    {
     "enum_field_value" : 64206,
     "name" : "std::endian::big"
    },
    {
     "enum_field_value" : 57005,
     "name" : "std::endian::native"
    }
   ],
   "linker_set_key" : "_ZTINSt3__16endianE",
   "name" : "std::endian",
   "size" : 4,
   "source_file" : "external/libcxx/include/type_traits",
   "underlying_type" : "_ZTIi"
  },
  {
   "alignment" : 4,
   "enum_fields" :
   [
    {
     "enum_field_value" : 1,
     "name" : "std::io_errc::stream"
    }
   ],
   "linker_set_key" : "_ZTINSt3__17io_errcE",
   "name" : "std::io_errc",
   "size" : 4,
   "source_file" : "external/libcxx/include/ios",
   "underlying_type" : "_ZTIi"
  },
  {
   "alignment" : 4,
   "enum_fields" :
   [
    {
     "enum_field_value" : 0,
     "name" : "std::ios_base::erase_event"
    },
    {
     "enum_field_value" : 1,
     "name" : "std::ios_base::imbue_event"
    },
    {
     "enum_field_value" : 2,
     "name" : "std::ios_base::copyfmt_event"
    }
   ],
   "linker_set_key" : "_ZTINSt3__18ios_base5eventE",
   "name" : "std::ios_base::event",
   "size" : 4,
   "source_file" : "external/libcxx/include/ios",
   "underlying_type" : "_ZTIj"
  },
  {
   "alignment" : 4,
   "enum_fields" :
   [
    {
     "enum_field_value" : 0,
     "name" : "std::ios_base::beg"
    },
    {
     "enum_field_value" : 1,
     "name" : "std::ios_base::cur"
    },
    {
     "enum_field_value" : 2,
     "name" : "std::ios_base::end"
    }
   ],
   "linker_set_key" : "_ZTINSt3__18ios_base7seekdirE",
   "name" : "std::ios_base::seekdir",
   "size" : 4,
   "source_file" : "external/libcxx/include/ios",
   "underlying_type" : "_ZTIj"
  },
  {
   "alignment" : 4,
   "enum_fields" :
   [
    {
     "enum_field_value" : 0,
     "name" : "std::cv_status::no_timeout"
    },
    {
     "enum_field_value" : 1,
     "name" : "std::cv_status::timeout"
    }
   ],
   "linker_set_key" : "_ZTINSt3__19cv_statusE",
   "name" : "std::cv_status",
   "size" : 4,
   "source_file" : "external/libcxx/include/__mutex_base",
   "underlying_type" : "_ZTIi"
  },
  {
   "alignment" : 4,
   "enum_fields" :
   [
    {
     "enum_field_value" : 0,
     "name" : "std::time_base::no_order"
    },
    {
     "enum_field_value" : 1,
     "name" : "std::time_base::dmy"
    },
    {
     "enum_field_value" : 2,
     "name" : "std::time_base::mdy"
    },
    {
     "enum_field_value" : 3,
     "name" : "std::time_base::ymd"
    },
    {
     "enum_field_value" : 4,
     "name" : "std::time_base::ydm"
    }
   ],
   "linker_set_key" : "_ZTINSt3__19time_base9dateorderE",
   "name" : "std::time_base::dateorder",
   "size" : 4,
   "source_file" : "external/libcxx/include/locale",
   "underlying_type" : "_ZTIj"
  },
  {
   "alignment" : 8,
   "linker_set_key" : "_ZTISt11align_val_t",
   "name" : "std::align_val_t",
   "size" : 8,
   "source_file" : "external/libcxx/include/new",
   "underlying_type" : "_ZTIm"
  },
  {
   "alignment" : 1,
   "linker_set_key" : "_ZTISt4byte",
   "name" : "std::byte",
   "size" : 1,
   "source_file" : "external/libcxx/include/cstddef",
   "underlying_type" : "_ZTIh"
  }
 ],
 "function_types" :
 [
  {
   "alignment" : 4,
   "linker_set_key" : "_ZTIF14jobjectRefTypeP7_JNIEnvP8_jobjectE",
   "name" : "jobjectRefType (_JNIEnv *, _jobject *)",
   "parameters" :
   [
    {
     "referenced_type" : "_ZTIP7_JNIEnv"
    },
    {
     "referenced_type" : "_ZTIP8_jobject"
    }
   ],
   "return_type" : "_ZTI14jobjectRefType",
   "source_file" : "libnativehelper/include_jni/jni.h"
  },
  {
   "alignment" : 4,
   "linker_set_key" : "_ZTIF21RsMessageToClientTypePvPmmPjmE",
   "name" : "RsMessageToClientType (void *, unsigned long *, unsigned long, unsigned int *, unsigned long)",
   "parameters" :
   [
    {
     "referenced_type" : "_ZTIPv"
    },
    {
     "referenced_type" : "_ZTIPm"
    },
    {
     "referenced_type" : "_ZTIm"
    },
    {
     "referenced_type" : "_ZTIPj"
    },
    {
     "referenced_type" : "_ZTIm"
    }
   ],
   "return_type" : "_ZTI21RsMessageToClientType",
   "source_file" : "frameworks/rs/cpp/rsDispatch.h"
  },
  {
   "alignment" : 4,
   "linker_set_key" : "_ZTIF21RsMessageToClientTypePvS0_mPmmPjmE",
   "name" : "RsMessageToClientType (void *, void *, unsigned long, unsigned long *, unsigned long, unsigned int *, unsigned long)",
   "parameters" :
   [
    {
     "referenced_type" : "_ZTIPv"
    },
    {
     "referenced_type" : "_ZTIPv"
    },
    {
     "referenced_type" : "_ZTIm"
    },
    {
     "referenced_type" : "_ZTIPm"
    },
    {
     "referenced_type" : "_ZTIm"
    },
    {
     "referenced_type" : "_ZTIPj"
    },
    {
     "referenced_type" : "_ZTIm"
    }
   ],
   "return_type" : "_ZTI21RsMessageToClientType",
   "source_file" : "frameworks/rs/cpp/rsDispatch.h"
  },
  {
   "alignment" : 4,
   "linker_set_key" : "_ZTIFP10_jintArrayP7_JNIEnviE",
   "name" : "_jintArray *(_JNIEnv *, int)",
   "parameters" :
   [
    {
     "referenced_type" : "_ZTIP7_JNIEnv"
    },
    {
     "referenced_type" : "_ZTIi"
    }
   ],
   "return_type" : "_ZTIP10_jintArray",
   "source_file" : "libnativehelper/include_jni/jni.h"
  },
  {
   "alignment" : 4,
   "linker_set_key" : "_ZTIFP10_jmethodIDP7_JNIEnvP7_jclassPKcS6_E",
   "name" : "_jmethodID *(_JNIEnv *, _jclass *, const char *, const char *)",
   "parameters" :
   [
    {
     "referenced_type" : "_ZTIP7_JNIEnv"
    },
    {
     "referenced_type" : "_ZTIP7_jclass"
    },
    {
     "referenced_type" : "_ZTIPKc"
    },
    {
     "referenced_type" : "_ZTIPKc"
    }
   ],
   "return_type" : "_ZTIP10_jmethodID",
   "source_file" : "libnativehelper/include_jni/jni.h"
  },
  {
   "alignment" : 4,
   "linker_set_key" : "_ZTIFP10_jmethodIDP7_JNIEnvP8_jobjectE",
   "name" : "_jmethodID *(_JNIEnv *, _jobject *)",
   "parameters" :
   [
    {
     "referenced_type" : "_ZTIP7_JNIEnv"
    },
    {
     "referenced_type" : "_ZTIP8_jobject"
    }
   ],
   "return_type" : "_ZTIP10_jmethodID",
   "source_file" : "libnativehelper/include_jni/jni.h"
  },
  {
   "alignment" : 4,
   "linker_set_key" : "_ZTIFP11_jbyteArrayP7_JNIEnviE",
   "name" : "_jbyteArray *(_JNIEnv *, int)",
   "parameters" :
   [
    {
     "referenced_type" : "_ZTIP7_JNIEnv"
    },
    {
     "referenced_type" : "_ZTIi"
    }
   ],
   "return_type" : "_ZTIP11_jbyteArray",
   "source_file" : "libnativehelper/include_jni/jni.h"
  },
  {
   "alignment" : 4,
   "linker_set_key" : "_ZTIFP11_jcharArrayP7_JNIEnviE",
   "name" : "_jcharArray *(_JNIEnv *, int)",
   "parameters" :
   [
    {
     "referenced_type" : "_ZTIP7_JNIEnv"
    },
    {
     "referenced_type" : "_ZTIi"
    }
   ],
   "return_type" : "_ZTIP11_jcharArray",
   "source_file" : "libnativehelper/include_jni/jni.h"
  },
  {
   "alignment" : 4,
   "linker_set_key" : "_ZTIFP11_jlongArrayP7_JNIEnviE",
   "name" : "_jlongArray *(_JNIEnv *, int)",
   "parameters" :
   [
    {
     "referenced_type" : "_ZTIP7_JNIEnv"
    },
    {
     "referenced_type" : "_ZTIi"
    }
   ],
   "return_type" : "_ZTIP11_jlongArray",
   "source_file" : "libnativehelper/include_jni/jni.h"
  },
  {
   "alignment" : 4,
   "linker_set_key" : "_ZTIFP11_jthrowableP7_JNIEnvE",
   "name" : "_jthrowable *(_JNIEnv *)",
   "parameters" :
   [
    {
     "referenced_type" : "_ZTIP7_JNIEnv"
    }
   ],
   "return_type" : "_ZTIP11_jthrowable",
   "source_file" : "libnativehelper/include_jni/jni.h"
  },
  {
   "alignment" : 4,
   "linker_set_key" : "_ZTIFP12_jfloatArrayP7_JNIEnviE",
   "name" : "_jfloatArray *(_JNIEnv *, int)",
   "parameters" :
   [
    {
     "referenced_type" : "_ZTIP7_JNIEnv"
    },
    {
     "referenced_type" : "_ZTIi"
    }
   ],
   "return_type" : "_ZTIP12_jfloatArray",
   "source_file" : "libnativehelper/include_jni/jni.h"
  },
  {
   "alignment" : 4,
   "linker_set_key" : "_ZTIFP12_jshortArrayP7_JNIEnviE",
   "name" : "_jshortArray *(_JNIEnv *, int)",
   "parameters" :
   [
    {
     "referenced_type" : "_ZTIP7_JNIEnv"
    },
    {
     "referenced_type" : "_ZTIi"
    }
   ],
   "return_type" : "_ZTIP12_jshortArray",
   "source_file" : "libnativehelper/include_jni/jni.h"
  },
  {
   "alignment" : 4,
   "linker_set_key" : "_ZTIFP13_jdoubleArrayP7_JNIEnviE",
   "name" : "_jdoubleArray *(_JNIEnv *, int)",
   "parameters" :
   [
    {
     "referenced_type" : "_ZTIP7_JNIEnv"
    },
    {
     "referenced_type" : "_ZTIi"
    }
   ],
   "return_type" : "_ZTIP13_jdoubleArray",
   "source_file" : "libnativehelper/include_jni/jni.h"
  },
  {
   "alignment" : 4,
   "linker_set_key" : "_ZTIFP13_jobjectArrayP7_JNIEnviP7_jclassP8_jobjectE",
   "name" : "_jobjectArray *(_JNIEnv *, int, _jclass *, _jobject *)",
   "parameters" :
   [
    {
     "referenced_type" : "_ZTIP7_JNIEnv"
    },
    {
     "referenced_type" : "_ZTIi"
    },
    {
     "referenced_type" : "_ZTIP7_jclass"
    },
    {
     "referenced_type" : "_ZTIP8_jobject"
    }
   ],
   "return_type" : "_ZTIP13_jobjectArray",
   "source_file" : "libnativehelper/include_jni/jni.h"
  },
  {
   "alignment" : 4,
   "linker_set_key" : "_ZTIFP14_jbooleanArrayP7_JNIEnviE",
   "name" : "_jbooleanArray *(_JNIEnv *, int)",
   "parameters" :
   [
    {
     "referenced_type" : "_ZTIP7_JNIEnv"
    },
    {
     "referenced_type" : "_ZTIi"
    }
   ],
   "return_type" : "_ZTIP14_jbooleanArray",
   "source_file" : "libnativehelper/include_jni/jni.h"
  },
  {
   "alignment" : 4,
   "linker_set_key" : "_ZTIFP7_jclassP7_JNIEnvP8_jobjectE",
   "name" : "_jclass *(_JNIEnv *, _jobject *)",
   "parameters" :
   [
    {
     "referenced_type" : "_ZTIP7_JNIEnv"
    },
    {
     "referenced_type" : "_ZTIP8_jobject"
    }
   ],
   "return_type" : "_ZTIP7_jclass",
   "source_file" : "libnativehelper/include_jni/jni.h"
  },
  {
   "alignment" : 4,
   "linker_set_key" : "_ZTIFP7_jclassP7_JNIEnvPKcE",
   "name" : "_jclass *(_JNIEnv *, const char *)",
   "parameters" :
   [
    {
     "referenced_type" : "_ZTIP7_JNIEnv"
    },
    {
     "referenced_type" : "_ZTIPKc"
    }
   ],
   "return_type" : "_ZTIP7_jclass",
   "source_file" : "libnativehelper/include_jni/jni.h"
  },
  {
   "alignment" : 4,
   "linker_set_key" : "_ZTIFP7_jclassP7_JNIEnvPKcP8_jobjectPKaiE",
   "name" : "_jclass *(_JNIEnv *, const char *, _jobject *, const signed char *, int)",
   "parameters" :
   [
    {
     "referenced_type" : "_ZTIP7_JNIEnv"
    },
    {
     "referenced_type" : "_ZTIPKc"
    },
    {
     "referenced_type" : "_ZTIP8_jobject"
    },
    {
     "referenced_type" : "_ZTIPKa"
    },
    {
     "referenced_type" : "_ZTIi"
    }
   ],
   "return_type" : "_ZTIP7_jclass",
   "source_file" : "libnativehelper/include_jni/jni.h"
  },
  {
   "alignment" : 4,
   "linker_set_key" : "_ZTIFP7_jclassP7_JNIEnvS0_E",
   "name" : "_jclass *(_JNIEnv *, _jclass *)",
   "parameters" :
   [
    {
     "referenced_type" : "_ZTIP7_JNIEnv"
    },
    {
     "referenced_type" : "_ZTIP7_jclass"
    }
   ],
   "return_type" : "_ZTIP7_jclass",
   "source_file" : "libnativehelper/include_jni/jni.h"
  },
  {
   "alignment" : 4,
   "linker_set_key" : "_ZTIFP8_jobjectP7_JNIEnvP13_jobjectArrayiE",
   "name" : "_jobject *(_JNIEnv *, _jobjectArray *, int)",
   "parameters" :
   [
    {
     "referenced_type" : "_ZTIP7_JNIEnv"
    },
    {
     "referenced_type" : "_ZTIP13_jobjectArray"
    },
    {
     "referenced_type" : "_ZTIi"
    }
   ],
   "return_type" : "_ZTIP8_jobject",
   "source_file" : "libnativehelper/include_jni/jni.h"
  },
  {
   "alignment" : 4,
   "linker_set_key" : "_ZTIFP8_jobjectP7_JNIEnvP7_jclassE",
   "name" : "_jobject *(_JNIEnv *, _jclass *)",
   "parameters" :
   [
    {
     "referenced_type" : "_ZTIP7_JNIEnv"
    },
    {
     "referenced_type" : "_ZTIP7_jclass"
    }
   ],
   "return_type" : "_ZTIP8_jobject",
   "source_file" : "libnativehelper/include_jni/jni.h"
  },
  {
   "alignment" : 4,
   "linker_set_key" : "_ZTIFP8_jobjectP7_JNIEnvP7_jclassP10_jmethodIDPK6jvalueE",
   "name" : "_jobject *(_JNIEnv *, _jclass *, _jmethodID *, const jvalue *)",
   "parameters" :
   [
    {
     "referenced_type" : "_ZTIP7_JNIEnv"
    },
    {
     "referenced_type" : "_ZTIP7_jclass"
    },
    {
     "referenced_type" : "_ZTIP10_jmethodID"
    },
    {
     "referenced_type" : "_ZTIPK6jvalue"
    }
   ],
   "return_type" : "_ZTIP8_jobject",
   "source_file" : "libnativehelper/include_jni/jni.h"
  },
  {
   "alignment" : 4,
   "linker_set_key" : "_ZTIFP8_jobjectP7_JNIEnvP7_jclassP10_jmethodIDSt9__va_listE",
   "name" : "_jobject *(_JNIEnv *, _jclass *, _jmethodID *, std::__va_list)",
   "parameters" :
   [
    {
     "referenced_type" : "_ZTIP7_JNIEnv"
    },
    {
     "referenced_type" : "_ZTIP7_jclass"
    },
    {
     "referenced_type" : "_ZTIP10_jmethodID"
    },
    {
     "referenced_type" : "_ZTISt9__va_list"
    }
   ],
   "return_type" : "_ZTIP8_jobject",
   "source_file" : "libnativehelper/include_jni/jni.h"
  },
  {
   "alignment" : 4,
   "linker_set_key" : "_ZTIFP8_jobjectP7_JNIEnvP7_jclassP10_jmethodIDhE",
   "name" : "_jobject *(_JNIEnv *, _jclass *, _jmethodID *, unsigned char)",
   "parameters" :
   [
    {
     "referenced_type" : "_ZTIP7_JNIEnv"
    },
    {
     "referenced_type" : "_ZTIP7_jclass"
    },
    {
     "referenced_type" : "_ZTIP10_jmethodID"
    },
    {
     "referenced_type" : "_ZTIh"
    }
   ],
   "return_type" : "_ZTIP8_jobject",
   "source_file" : "libnativehelper/include_jni/jni.h"
  },
  {
   "alignment" : 4,
   "linker_set_key" : "_ZTIFP8_jobjectP7_JNIEnvP7_jclassP10_jmethodIDzE",
   "name" : "_jobject *(_JNIEnv *, _jclass *, _jmethodID *, ...)",
   "parameters" :
   [
    {
     "referenced_type" : "_ZTIP7_JNIEnv"
    },
    {
     "referenced_type" : "_ZTIP7_jclass"
    },
    {
     "referenced_type" : "_ZTIP10_jmethodID"
    }
   ],
   "return_type" : "_ZTIP8_jobject",
   "source_file" : "libnativehelper/include_jni/jni.h"
  },
  {
   "alignment" : 4,
   "linker_set_key" : "_ZTIFP8_jobjectP7_JNIEnvP7_jclassP9_jfieldIDE",
   "name" : "_jobject *(_JNIEnv *, _jclass *, _jfieldID *)",
   "parameters" :
   [
    {
     "referenced_type" : "_ZTIP7_JNIEnv"
    },
    {
     "referenced_type" : "_ZTIP7_jclass"
    },
    {
     "referenced_type" : "_ZTIP9_jfieldID"
    }
   ],
   "return_type" : "_ZTIP8_jobject",
   "source_file" : "libnativehelper/include_jni/jni.h"
  },
  {
   "alignment" : 4,
   "linker_set_key" : "_ZTIFP8_jobjectP7_JNIEnvP7_jclassP9_jfieldIDhE",
   "name" : "_jobject *(_JNIEnv *, _jclass *, _jfieldID *, unsigned char)",
   "parameters" :
   [
    {
     "referenced_type" : "_ZTIP7_JNIEnv"
    },
    {
     "referenced_type" : "_ZTIP7_jclass"
    },
    {
     "referenced_type" : "_ZTIP9_jfieldID"
    },
    {
     "referenced_type" : "_ZTIh"
    }
   ],
   "return_type" : "_ZTIP8_jobject",
   "source_file" : "libnativehelper/include_jni/jni.h"
  },
  {
   "alignment" : 4,
   "linker_set_key" : "_ZTIFP8_jobjectP7_JNIEnvPvlE",
   "name" : "_jobject *(_JNIEnv *, void *, long)",
   "parameters" :
   [
    {
     "referenced_type" : "_ZTIP7_JNIEnv"
    },
    {
     "referenced_type" : "_ZTIPv"
    },
    {
     "referenced_type" : "_ZTIl"
    }
   ],
   "return_type" : "_ZTIP8_jobject",
   "source_file" : "libnativehelper/include_jni/jni.h"
  },
  {
   "alignment" : 4,
   "linker_set_key" : "_ZTIFP8_jobjectP7_JNIEnvS0_E",
   "name" : "_jobject *(_JNIEnv *, _jobject *)",
   "parameters" :
   [
    {
     "referenced_type" : "_ZTIP7_JNIEnv"
    },
    {
     "referenced_type" : "_ZTIP8_jobject"
    }
   ],
   "return_type" : "_ZTIP8_jobject",
   "source_file" : "libnativehelper/include_jni/jni.h"
  },
  {
   "alignment" : 4,
   "linker_set_key" : "_ZTIFP8_jobjectP7_JNIEnvS0_P10_jmethodIDPK6jvalueE",
   "name" : "_jobject *(_JNIEnv *, _jobject *, _jmethodID *, const jvalue *)",
   "parameters" :
   [
    {
     "referenced_type" : "_ZTIP7_JNIEnv"
    },
    {
     "referenced_type" : "_ZTIP8_jobject"
    },
    {
     "referenced_type" : "_ZTIP10_jmethodID"
    },
    {
     "referenced_type" : "_ZTIPK6jvalue"
    }
   ],
   "return_type" : "_ZTIP8_jobject",
   "source_file" : "libnativehelper/include_jni/jni.h"
  },
  {
   "alignment" : 4,
   "linker_set_key" : "_ZTIFP8_jobjectP7_JNIEnvS0_P10_jmethodIDSt9__va_listE",
   "name" : "_jobject *(_JNIEnv *, _jobject *, _jmethodID *, std::__va_list)",
   "parameters" :
   [
    {
     "referenced_type" : "_ZTIP7_JNIEnv"
    },
    {
     "referenced_type" : "_ZTIP8_jobject"
    },
    {
     "referenced_type" : "_ZTIP10_jmethodID"
    },
    {
     "referenced_type" : "_ZTISt9__va_list"
    }
   ],
   "return_type" : "_ZTIP8_jobject",
   "source_file" : "libnativehelper/include_jni/jni.h"
  },
  {
   "alignment" : 4,
   "linker_set_key" : "_ZTIFP8_jobjectP7_JNIEnvS0_P10_jmethodIDzE",
   "name" : "_jobject *(_JNIEnv *, _jobject *, _jmethodID *, ...)",
   "parameters" :
   [
    {
     "referenced_type" : "_ZTIP7_JNIEnv"
    },
    {
     "referenced_type" : "_ZTIP8_jobject"
    },
    {
     "referenced_type" : "_ZTIP10_jmethodID"
    }
   ],
   "return_type" : "_ZTIP8_jobject",
   "source_file" : "libnativehelper/include_jni/jni.h"
  },
  {
   "alignment" : 4,
   "linker_set_key" : "_ZTIFP8_jobjectP7_JNIEnvS0_P7_jclassP10_jmethodIDPK6jvalueE",
   "name" : "_jobject *(_JNIEnv *, _jobject *, _jclass *, _jmethodID *, const jvalue *)",
   "parameters" :
   [
    {
     "referenced_type" : "_ZTIP7_JNIEnv"
    },
    {
     "referenced_type" : "_ZTIP8_jobject"
    },
    {
     "referenced_type" : "_ZTIP7_jclass"
    },
    {
     "referenced_type" : "_ZTIP10_jmethodID"
    },
    {
     "referenced_type" : "_ZTIPK6jvalue"
    }
   ],
   "return_type" : "_ZTIP8_jobject",
   "source_file" : "libnativehelper/include_jni/jni.h"
  },
  {
   "alignment" : 4,
   "linker_set_key" : "_ZTIFP8_jobjectP7_JNIEnvS0_P7_jclassP10_jmethodIDSt9__va_listE",
   "name" : "_jobject *(_JNIEnv *, _jobject *, _jclass *, _jmethodID *, std::__va_list)",
   "parameters" :
   [
    {
     "referenced_type" : "_ZTIP7_JNIEnv"
    },
    {
     "referenced_type" : "_ZTIP8_jobject"
    },
    {
     "referenced_type" : "_ZTIP7_jclass"
    },
    {
     "referenced_type" : "_ZTIP10_jmethodID"
    },
    {
     "referenced_type" : "_ZTISt9__va_list"
    }
   ],
   "return_type" : "_ZTIP8_jobject",
   "source_file" : "libnativehelper/include_jni/jni.h"
  },
  {
   "alignment" : 4,
   "linker_set_key" : "_ZTIFP8_jobjectP7_JNIEnvS0_P7_jclassP10_jmethodIDzE",
   "name" : "_jobject *(_JNIEnv *, _jobject *, _jclass *, _jmethodID *, ...)",
   "parameters" :
   [
    {
     "referenced_type" : "_ZTIP7_JNIEnv"
    },
    {
     "referenced_type" : "_ZTIP8_jobject"
    },
    {
     "referenced_type" : "_ZTIP7_jclass"
    },
    {
     "referenced_type" : "_ZTIP10_jmethodID"
    }
   ],
   "return_type" : "_ZTIP8_jobject",
   "source_file" : "libnativehelper/include_jni/jni.h"
  },
  {
   "alignment" : 4,
   "linker_set_key" : "_ZTIFP8_jobjectP7_JNIEnvS0_P9_jfieldIDE",
   "name" : "_jobject *(_JNIEnv *, _jobject *, _jfieldID *)",
   "parameters" :
   [
    {
     "referenced_type" : "_ZTIP7_JNIEnv"
    },
    {
     "referenced_type" : "_ZTIP8_jobject"
    },
    {
     "referenced_type" : "_ZTIP9_jfieldID"
    }
   ],
   "return_type" : "_ZTIP8_jobject",
   "source_file" : "libnativehelper/include_jni/jni.h"
  },
  {
   "alignment" : 4,
   "linker_set_key" : "_ZTIFP8_jstringP7_JNIEnvPKcE",
   "name" : "_jstring *(_JNIEnv *, const char *)",
   "parameters" :
   [
    {
     "referenced_type" : "_ZTIP7_JNIEnv"
    },
    {
     "referenced_type" : "_ZTIPKc"
    }
   ],
   "return_type" : "_ZTIP8_jstring",
   "source_file" : "libnativehelper/include_jni/jni.h"
  },
  {
   "alignment" : 4,
   "linker_set_key" : "_ZTIFP8_jstringP7_JNIEnvPKtiE",
   "name" : "_jstring *(_JNIEnv *, const unsigned short *, int)",
   "parameters" :
   [
    {
     "referenced_type" : "_ZTIP7_JNIEnv"
    },
    {
     "referenced_type" : "_ZTIPKt"
    },
    {
     "referenced_type" : "_ZTIi"
    }
   ],
   "return_type" : "_ZTIP8_jstring",
   "source_file" : "libnativehelper/include_jni/jni.h"
  },
  {
   "alignment" : 4,
   "linker_set_key" : "_ZTIFP9_jfieldIDP7_JNIEnvP7_jclassPKcS6_E",
   "name" : "_jfieldID *(_JNIEnv *, _jclass *, const char *, const char *)",
   "parameters" :
   [
    {
     "referenced_type" : "_ZTIP7_JNIEnv"
    },
    {
     "referenced_type" : "_ZTIP7_jclass"
    },
    {
     "referenced_type" : "_ZTIPKc"
    },
    {
     "referenced_type" : "_ZTIPKc"
    }
   ],
   "return_type" : "_ZTIP9_jfieldID",
   "source_file" : "libnativehelper/include_jni/jni.h"
  },
  {
   "alignment" : 4,
   "linker_set_key" : "_ZTIFP9_jfieldIDP7_JNIEnvP8_jobjectE",
   "name" : "_jfieldID *(_JNIEnv *, _jobject *)",
   "parameters" :
   [
    {
     "referenced_type" : "_ZTIP7_JNIEnv"
    },
    {
     "referenced_type" : "_ZTIP8_jobject"
    }
   ],
   "return_type" : "_ZTIP9_jfieldID",
   "source_file" : "libnativehelper/include_jni/jni.h"
  },
  {
   "alignment" : 4,
   "linker_set_key" : "_ZTIFPKcP7_JNIEnvP8_jstringPhE",
   "name" : "const char *(_JNIEnv *, _jstring *, unsigned char *)",
   "parameters" :
   [
    {
     "referenced_type" : "_ZTIP7_JNIEnv"
    },
    {
     "referenced_type" : "_ZTIP8_jstring"
    },
    {
     "referenced_type" : "_ZTIPh"
    }
   ],
   "return_type" : "_ZTIPKc",
   "source_file" : "libnativehelper/include_jni/jni.h"
  },
  {
   "alignment" : 4,
   "linker_set_key" : "_ZTIFPKcvE",
   "name" : "const char *()",
   "return_type" : "_ZTIPKc",
   "source_file" : "frameworks/rs/rsApiStubs.cpp"
  },
  {
   "alignment" : 4,
   "linker_set_key" : "_ZTIFPKtP7_JNIEnvP8_jstringPhE",
   "name" : "const unsigned short *(_JNIEnv *, _jstring *, unsigned char *)",
   "parameters" :
   [
    {
     "referenced_type" : "_ZTIP7_JNIEnv"
    },
    {
     "referenced_type" : "_ZTIP8_jstring"
    },
    {
     "referenced_type" : "_ZTIPh"
    }
   ],
   "return_type" : "_ZTIPKt",
   "source_file" : "libnativehelper/include_jni/jni.h"
  },
  {
   "alignment" : 4,
   "linker_set_key" : "_ZTIFPKvPvS1_E",
   "name" : "const void *(void *, void *)",
   "parameters" :
   [
    {
     "referenced_type" : "_ZTIPv"
    },
    {
     "referenced_type" : "_ZTIPv"
    }
   ],
   "return_type" : "_ZTIPKv",
   "source_file" : "frameworks/rs/cpp/rsDispatch.h"
  },
  {
   "alignment" : 4,
   "linker_set_key" : "_ZTIFPaP7_JNIEnvP11_jbyteArrayPhE",
   "name" : "signed char *(_JNIEnv *, _jbyteArray *, unsigned char *)",
   "parameters" :
   [
    {
     "referenced_type" : "_ZTIP7_JNIEnv"
    },
    {
     "referenced_type" : "_ZTIP11_jbyteArray"
    },
    {
     "referenced_type" : "_ZTIPh"
    }
   ],
   "return_type" : "_ZTIPa",
   "source_file" : "libnativehelper/include_jni/jni.h"
  },
  {
   "alignment" : 4,
   "linker_set_key" : "_ZTIFPdP7_JNIEnvP13_jdoubleArrayPhE",
   "name" : "double *(_JNIEnv *, _jdoubleArray *, unsigned char *)",
   "parameters" :
   [
    {
     "referenced_type" : "_ZTIP7_JNIEnv"
    },
    {
     "referenced_type" : "_ZTIP13_jdoubleArray"
    },
    {
     "referenced_type" : "_ZTIPh"
    }
   ],
   "return_type" : "_ZTIPd",
   "source_file" : "libnativehelper/include_jni/jni.h"
  },
  {
   "alignment" : 4,
   "linker_set_key" : "_ZTIFPfP7_JNIEnvP12_jfloatArrayPhE",
   "name" : "float *(_JNIEnv *, _jfloatArray *, unsigned char *)",
   "parameters" :
   [
    {
     "referenced_type" : "_ZTIP7_JNIEnv"
    },
    {
     "referenced_type" : "_ZTIP12_jfloatArray"
    },
    {
     "referenced_type" : "_ZTIPh"
    }
   ],
   "return_type" : "_ZTIPf",
   "source_file" : "libnativehelper/include_jni/jni.h"
  },
  {
   "alignment" : 4,
   "linker_set_key" : "_ZTIFPhP7_JNIEnvP14_jbooleanArrayS_E",
   "name" : "unsigned char *(_JNIEnv *, _jbooleanArray *, unsigned char *)",
   "parameters" :
   [
    {
     "referenced_type" : "_ZTIP7_JNIEnv"
    },
    {
     "referenced_type" : "_ZTIP14_jbooleanArray"
    },
    {
     "referenced_type" : "_ZTIPh"
    }
   ],
   "return_type" : "_ZTIPh",
   "source_file" : "libnativehelper/include_jni/jni.h"
  },
  {
   "alignment" : 4,
   "linker_set_key" : "_ZTIFPiP7_JNIEnvP10_jintArrayPhE",
   "name" : "int *(_JNIEnv *, _jintArray *, unsigned char *)",
   "parameters" :
   [
    {
     "referenced_type" : "_ZTIP7_JNIEnv"
    },
    {
     "referenced_type" : "_ZTIP10_jintArray"
    },
    {
     "referenced_type" : "_ZTIPh"
    }
   ],
   "return_type" : "_ZTIPi",
   "source_file" : "libnativehelper/include_jni/jni.h"
  },
  {
   "alignment" : 4,
   "linker_set_key" : "_ZTIFPlP7_JNIEnvP11_jlongArrayPhE",
   "name" : "long *(_JNIEnv *, _jlongArray *, unsigned char *)",
   "parameters" :
   [
    {
     "referenced_type" : "_ZTIP7_JNIEnv"
    },
    {
     "referenced_type" : "_ZTIP11_jlongArray"
    },
    {
     "referenced_type" : "_ZTIPh"
    }
   ],
   "return_type" : "_ZTIPl",
   "source_file" : "libnativehelper/include_jni/jni.h"
  },
  {
   "alignment" : 4,
   "linker_set_key" : "_ZTIFPsP7_JNIEnvP12_jshortArrayPhE",
   "name" : "short *(_JNIEnv *, _jshortArray *, unsigned char *)",
   "parameters" :
   [
    {
     "referenced_type" : "_ZTIP7_JNIEnv"
    },
    {
     "referenced_type" : "_ZTIP12_jshortArray"
    },
    {
     "referenced_type" : "_ZTIPh"
    }
   ],
   "return_type" : "_ZTIPs",
   "source_file" : "libnativehelper/include_jni/jni.h"
  },
  {
   "alignment" : 4,
   "linker_set_key" : "_ZTIFPtP7_JNIEnvP11_jcharArrayPhE",
   "name" : "unsigned short *(_JNIEnv *, _jcharArray *, unsigned char *)",
   "parameters" :
   [
    {
     "referenced_type" : "_ZTIP7_JNIEnv"
    },
    {
     "referenced_type" : "_ZTIP11_jcharArray"
    },
    {
     "referenced_type" : "_ZTIPh"
    }
   ],
   "return_type" : "_ZTIPt",
   "source_file" : "libnativehelper/include_jni/jni.h"
  },
  {
   "alignment" : 4,
   "linker_set_key" : "_ZTIFPvP7_JNIEnvP7_jarrayPhE",
   "name" : "void *(_JNIEnv *, _jarray *, unsigned char *)",
   "parameters" :
   [
    {
     "referenced_type" : "_ZTIP7_JNIEnv"
    },
    {
     "referenced_type" : "_ZTIP7_jarray"
    },
    {
     "referenced_type" : "_ZTIPh"
    }
   ],
   "return_type" : "_ZTIPv",
   "source_file" : "libnativehelper/include_jni/jni.h"
  },
  {
   "alignment" : 4,
   "linker_set_key" : "_ZTIFPvP7_JNIEnvP8_jobjectE",
   "name" : "void *(_JNIEnv *, _jobject *)",
   "parameters" :
   [
    {
     "referenced_type" : "_ZTIP7_JNIEnv"
    },
    {
     "referenced_type" : "_ZTIP8_jobject"
    }
   ],
   "return_type" : "_ZTIPv",
   "source_file" : "libnativehelper/include_jni/jni.h"
  },
  {
   "alignment" : 4,
   "linker_set_key" : "_ZTIFPvPKvE",
   "name" : "void *(const void *)",
   "parameters" :
   [
    {
     "referenced_type" : "_ZTIPKv"
    }
   ],
   "return_type" : "_ZTIPv",
   "source_file" : "external/libcxx/include/functional"
  },
  {
   "alignment" : 4,
   "linker_set_key" : "_ZTIFPvS_10RsDataType10RsDataKindbjE",
   "name" : "void *(void *, RsDataType, RsDataKind, bool, unsigned int)",
   "parameters" :
   [
    {
     "referenced_type" : "_ZTIPv"
    },
    {
     "referenced_type" : "_ZTI10RsDataType"
    },
    {
     "referenced_type" : "_ZTI10RsDataKind"
    },
    {
     "referenced_type" : "_ZTIb"
    },
    {
     "referenced_type" : "_ZTIj"
    }
   ],
   "return_type" : "_ZTIPv",
   "source_file" : "frameworks/rs/cpp/rsDispatch.h"
  },
  {
   "alignment" : 4,
   "linker_set_key" : "_ZTIFPvS_14RsSamplerValueS0_S0_S0_S0_fE",
   "name" : "void *(void *, RsSamplerValue, RsSamplerValue, RsSamplerValue, RsSamplerValue, RsSamplerValue, float)",
   "parameters" :
   [
    {
     "referenced_type" : "_ZTIPv"
    },
    {
     "referenced_type" : "_ZTI14RsSamplerValue"
    },
    {
     "referenced_type" : "_ZTI14RsSamplerValue"
    },
    {
     "referenced_type" : "_ZTI14RsSamplerValue"
    },
    {
     "referenced_type" : "_ZTI14RsSamplerValue"
    },
    {
     "referenced_type" : "_ZTI14RsSamplerValue"
    },
    {
     "referenced_type" : "_ZTIf"
    }
   ],
   "return_type" : "_ZTIPv",
   "source_file" : "frameworks/rs/cpp/rsDispatch.h"
  },
  {
   "alignment" : 4,
   "linker_set_key" : "_ZTIFPvS_E",
   "name" : "void *(void *)",
   "parameters" :
   [
    {
     "referenced_type" : "_ZTIPv"
    }
   ],
   "return_type" : "_ZTIPv",
   "source_file" : "external/libcxx/include/__threading_support"
  },
  {
   "alignment" : 4,
   "linker_set_key" : "_ZTIFPvS_PKS_mPPKcmPKmPKjmE",
   "name" : "void *(void *, void *const *, unsigned long, const char **, unsigned long, const unsigned long *, const unsigned int *, unsigned long)",
   "parameters" :
   [
    {
     "referenced_type" : "_ZTIPv"
    },
    {
     "referenced_type" : "_ZTIPKPv"
    },
    {
     "referenced_type" : "_ZTIm"
    },
    {
     "referenced_type" : "_ZTIPPKc"
    },
    {
     "referenced_type" : "_ZTIm"
    },
    {
     "referenced_type" : "_ZTIPKm"
    },
    {
     "referenced_type" : "_ZTIPKj"
    },
    {
     "referenced_type" : "_ZTIm"
    }
   ],
   "return_type" : "_ZTIPv",
   "source_file" : "frameworks/rs/cpp/rsDispatch.h"
  },
  {
   "alignment" : 4,
   "linker_set_key" : "_ZTIFPvS_PKcE",
   "name" : "void *(void *, const char *)",
   "parameters" :
   [
    {
     "referenced_type" : "_ZTIPv"
    },
    {
     "referenced_type" : "_ZTIPKc"
    }
   ],
   "return_type" : "_ZTIPv",
   "source_file" : "frameworks/rs/cpp/rsDispatch.h"
  },
  {
   "alignment" : 4,
   "linker_set_key" : "_ZTIFPvS_PKcmPS1_mPKmS4_mE",
   "name" : "void *(void *, const char *, unsigned long, const char **, unsigned long, const unsigned long *, const unsigned long *, unsigned long)",
   "parameters" :
   [
    {
     "referenced_type" : "_ZTIPv"
    },
    {
     "referenced_type" : "_ZTIPKc"
    },
    {
     "referenced_type" : "_ZTIm"
    },
    {
     "referenced_type" : "_ZTIPPKc"
    },
    {
     "referenced_type" : "_ZTIm"
    },
    {
     "referenced_type" : "_ZTIPKm"
    },
    {
     "referenced_type" : "_ZTIPKm"
    },
    {
     "referenced_type" : "_ZTIm"
    }
   ],
   "return_type" : "_ZTIPv",
   "source_file" : "frameworks/rs/cpp/rsDispatch.h"
  },
  {
   "alignment" : 4,
   "linker_set_key" : "_ZTIFPvS_PKcmS1_mPS_mE",
   "name" : "void *(void *, const char *, unsigned long, const char *, unsigned long, void **, unsigned long)",
   "parameters" :
   [
    {
     "referenced_type" : "_ZTIPv"
    },
    {
     "referenced_type" : "_ZTIPKc"
    },
    {
     "referenced_type" : "_ZTIm"
    },
    {
     "referenced_type" : "_ZTIPKc"
    },
    {
     "referenced_type" : "_ZTIm"
    },
    {
     "referenced_type" : "_ZTIPPv"
    },
    {
     "referenced_type" : "_ZTIm"
    }
   ],
   "return_type" : "_ZTIPv",
   "source_file" : "frameworks/rs/cpp/rsDispatch.h"
  },
  {
   "alignment" : 4,
   "linker_set_key" : "_ZTIFPvS_PKcmS1_mS1_mE",
   "name" : "void *(void *, const char *, unsigned long, const char *, unsigned long, const char *, unsigned long)",
   "parameters" :
   [
    {
     "referenced_type" : "_ZTIPv"
    },
    {
     "referenced_type" : "_ZTIPKc"
    },
    {
     "referenced_type" : "_ZTIm"
    },
    {
     "referenced_type" : "_ZTIPKc"
    },
    {
     "referenced_type" : "_ZTIm"
    },
    {
     "referenced_type" : "_ZTIPKc"
    },
    {
     "referenced_type" : "_ZTIm"
    }
   ],
   "return_type" : "_ZTIPv",
   "source_file" : "frameworks/rs/cpp/rsDispatch.h"
  },
  {
   "alignment" : 4,
   "linker_set_key" : "_ZTIFPvS_PKcmfjE",
   "name" : "void *(void *, const char *, unsigned long, float, unsigned int)",
   "parameters" :
   [
    {
     "referenced_type" : "_ZTIPv"
    },
    {
     "referenced_type" : "_ZTIPKc"
    },
    {
     "referenced_type" : "_ZTIm"
    },
    {
     "referenced_type" : "_ZTIf"
    },
    {
     "referenced_type" : "_ZTIj"
    }
   ],
   "return_type" : "_ZTIPv",
   "source_file" : "frameworks/rs/cpp/rsDispatch.h"
  },
  {
   "alignment" : 4,
   "linker_set_key" : "_ZTIFPvS_PKcmfjPKvmE",
   "name" : "void *(void *, const char *, unsigned long, float, unsigned int, const void *, unsigned long)",
   "parameters" :
   [
    {
     "referenced_type" : "_ZTIPv"
    },
    {
     "referenced_type" : "_ZTIPKc"
    },
    {
     "referenced_type" : "_ZTIm"
    },
    {
     "referenced_type" : "_ZTIf"
    },
    {
     "referenced_type" : "_ZTIj"
    },
    {
     "referenced_type" : "_ZTIPKv"
    },
    {
     "referenced_type" : "_ZTIm"
    }
   ],
   "return_type" : "_ZTIPv",
   "source_file" : "frameworks/rs/cpp/rsDispatch.h"
  },
  {
   "alignment" : 4,
   "linker_set_key" : "_ZTIFPvS_PKvjE",
   "name" : "void *(void *, const void *, unsigned int)",
   "parameters" :
   [
    {
     "referenced_type" : "_ZTIPv"
    },
    {
     "referenced_type" : "_ZTIPKv"
    },
    {
     "referenced_type" : "_ZTIj"
    }
   ],
   "return_type" : "_ZTIPv",
   "source_file" : "frameworks/rs/cpp/rsDispatch.h"
  },
  {
   "alignment" : 4,
   "linker_set_key" : "_ZTIFPvS_PS_mS0_mPjmE",
   "name" : "void *(void *, void **, unsigned long, void **, unsigned long, unsigned int *, unsigned long)",
   "parameters" :
   [
    {
     "referenced_type" : "_ZTIPv"
    },
    {
     "referenced_type" : "_ZTIPPv"
    },
    {
     "referenced_type" : "_ZTIm"
    },
    {
     "referenced_type" : "_ZTIPPv"
    },
    {
     "referenced_type" : "_ZTIm"
    },
    {
     "referenced_type" : "_ZTIPj"
    },
    {
     "referenced_type" : "_ZTIm"
    }
   ],
   "return_type" : "_ZTIPv",
   "source_file" : "frameworks/rs/cpp/rsDispatch.h"
  },
  {
   "alignment" : 4,
   "linker_set_key" : "_ZTIFPvS_PS_mS0_mS0_mS0_mPKS_mE",
   "name" : "void *(void *, void **, unsigned long, void **, unsigned long, void **, unsigned long, void **, unsigned long, void *const *, unsigned long)",
   "parameters" :
   [
    {
     "referenced_type" : "_ZTIPv"
    },
    {
     "referenced_type" : "_ZTIPPv"
    },
    {
     "referenced_type" : "_ZTIm"
    },
    {
     "referenced_type" : "_ZTIPPv"
    },
    {
     "referenced_type" : "_ZTIm"
    },
    {
     "referenced_type" : "_ZTIPPv"
    },
    {
     "referenced_type" : "_ZTIm"
    },
    {
     "referenced_type" : "_ZTIPPv"
    },
    {
     "referenced_type" : "_ZTIm"
    },
    {
     "referenced_type" : "_ZTIPKPv"
    },
    {
     "referenced_type" : "_ZTIm"
    }
   ],
   "return_type" : "_ZTIPv",
   "source_file" : "frameworks/rs/cpp/rsDispatch.h"
  },
  {
   "alignment" : 4,
   "linker_set_key" : "_ZTIFPvS_S_25RsAllocationMipmapControlPKvmjE",
   "name" : "void *(void *, void *, RsAllocationMipmapControl, const void *, unsigned long, unsigned int)",
   "parameters" :
   [
    {
     "referenced_type" : "_ZTIPv"
    },
    {
     "referenced_type" : "_ZTIPv"
    },
    {
     "referenced_type" : "_ZTI25RsAllocationMipmapControl"
    },
    {
     "referenced_type" : "_ZTIPKv"
    },
    {
     "referenced_type" : "_ZTIm"
    },
    {
     "referenced_type" : "_ZTIj"
    }
   ],
   "return_type" : "_ZTIPv",
   "source_file" : "frameworks/rs/cpp/rsDispatch.h"
  },
  {
   "alignment" : 4,
   "linker_set_key" : "_ZTIFPvS_S_25RsAllocationMipmapControljmE",
   "name" : "void *(void *, void *, RsAllocationMipmapControl, unsigned int, unsigned long)",
   "parameters" :
   [
    {
     "referenced_type" : "_ZTIPv"
    },
    {
     "referenced_type" : "_ZTIPv"
    },
    {
     "referenced_type" : "_ZTI25RsAllocationMipmapControl"
    },
    {
     "referenced_type" : "_ZTIj"
    },
    {
     "referenced_type" : "_ZTIm"
    }
   ],
   "return_type" : "_ZTIPv",
   "source_file" : "frameworks/rs/cpp/rsDispatch.h"
  },
  {
   "alignment" : 4,
   "linker_set_key" : "_ZTIFPvS_S_25RsAllocationMipmapControljmmE",
   "name" : "void *(void *, void *, RsAllocationMipmapControl, unsigned int, unsigned long, unsigned long)",
   "parameters" :
   [
    {
     "referenced_type" : "_ZTIPv"
    },
    {
     "referenced_type" : "_ZTIPv"
    },
    {
     "referenced_type" : "_ZTI25RsAllocationMipmapControl"
    },
    {
     "referenced_type" : "_ZTIj"
    },
    {
     "referenced_type" : "_ZTIm"
    },
    {
     "referenced_type" : "_ZTIm"
    }
   ],
   "return_type" : "_ZTIPv",
   "source_file" : "frameworks/rs/cpp/rsDispatch.h"
  },
  {
   "alignment" : 4,
   "linker_set_key" : "_ZTIFPvS_S_E",
   "name" : "void *(void *, void *)",
   "parameters" :
   [
    {
     "referenced_type" : "_ZTIPv"
    },
    {
     "referenced_type" : "_ZTIPv"
    }
   ],
   "return_type" : "_ZTIPv",
   "source_file" : "frameworks/rs/cpp/rsDispatch.h"
  },
  {
   "alignment" : 4,
   "linker_set_key" : "_ZTIFPvS_S_PKvmPKS_mPKlmPKimE",
   "name" : "void *(void *, void *, const void *, unsigned long, void *const *, unsigned long, const long *, unsigned long, const int *, unsigned long)",
   "parameters" :
   [
    {
     "referenced_type" : "_ZTIPv"
    },
    {
     "referenced_type" : "_ZTIPv"
    },
    {
     "referenced_type" : "_ZTIPKv"
    },
    {
     "referenced_type" : "_ZTIm"
    },
    {
     "referenced_type" : "_ZTIPKPv"
    },
    {
     "referenced_type" : "_ZTIm"
    },
    {
     "referenced_type" : "_ZTIPKl"
    },
    {
     "referenced_type" : "_ZTIm"
    },
    {
     "referenced_type" : "_ZTIPKi"
    },
    {
     "referenced_type" : "_ZTIm"
    }
   ],
   "return_type" : "_ZTIPv",
   "source_file" : "frameworks/rs/cpp/rsDispatch.h"
  },
  {
   "alignment" : 4,
   "linker_set_key" : "_ZTIFPvS_S_S_E",
   "name" : "void *(void *, void *, void *)",
   "parameters" :
   [
    {
     "referenced_type" : "_ZTIPv"
    },
    {
     "referenced_type" : "_ZTIPv"
    },
    {
     "referenced_type" : "_ZTIPv"
    }
   ],
   "return_type" : "_ZTIPv",
   "source_file" : "frameworks/rs/cpp/rsDispatch.h"
  },
  {
   "alignment" : 4,
   "linker_set_key" : "_ZTIFPvS_S_S_PS_mPlmPimS0_mS0_mE",
   "name" : "void *(void *, void *, void *, void **, unsigned long, long *, unsigned long, int *, unsigned long, void **, unsigned long, void **, unsigned long)",
   "parameters" :
   [
    {
     "referenced_type" : "_ZTIPv"
    },
    {
     "referenced_type" : "_ZTIPv"
    },
    {
     "referenced_type" : "_ZTIPv"
    },
    {
     "referenced_type" : "_ZTIPPv"
    },
    {
     "referenced_type" : "_ZTIm"
    },
    {
     "referenced_type" : "_ZTIPl"
    },
    {
     "referenced_type" : "_ZTIm"
    },
    {
     "referenced_type" : "_ZTIPi"
    },
    {
     "referenced_type" : "_ZTIm"
    },
    {
     "referenced_type" : "_ZTIPPv"
    },
    {
     "referenced_type" : "_ZTIm"
    },
    {
     "referenced_type" : "_ZTIPPv"
    },
    {
     "referenced_type" : "_ZTIm"
    }
   ],
   "return_type" : "_ZTIPv",
   "source_file" : "frameworks/rs/cpp/rsDispatch.h"
  },
  {
   "alignment" : 4,
   "linker_set_key" : "_ZTIFPvS_S_iE",
   "name" : "void *(void *, void *, int)",
   "parameters" :
   [
    {
     "referenced_type" : "_ZTIPv"
    },
    {
     "referenced_type" : "_ZTIPv"
    },
    {
     "referenced_type" : "_ZTIi"
    }
   ],
   "return_type" : "_ZTIPv",
   "source_file" : "frameworks/rs/cpp/rsDispatch.h"
  },
  {
   "alignment" : 4,
   "linker_set_key" : "_ZTIFPvS_S_iiE",
   "name" : "void *(void *, void *, int, int)",
   "parameters" :
   [
    {
     "referenced_type" : "_ZTIPv"
    },
    {
     "referenced_type" : "_ZTIPv"
    },
    {
     "referenced_type" : "_ZTIi"
    },
    {
     "referenced_type" : "_ZTIi"
    }
   ],
   "return_type" : "_ZTIPv",
   "source_file" : "frameworks/rs/cpp/rsDispatch.h"
  },
  {
   "alignment" : 4,
   "linker_set_key" : "_ZTIFPvS_S_j23RsAllocationCubemapFacejjPmmE",
   "name" : "void *(void *, void *, unsigned int, RsAllocationCubemapFace, unsigned int, unsigned int, unsigned long *, unsigned long)",
   "parameters" :
   [
    {
     "referenced_type" : "_ZTIPv"
    },
    {
     "referenced_type" : "_ZTIPv"
    },
    {
     "referenced_type" : "_ZTIj"
    },
    {
     "referenced_type" : "_ZTI23RsAllocationCubemapFace"
    },
    {
     "referenced_type" : "_ZTIj"
    },
    {
     "referenced_type" : "_ZTIj"
    },
    {
     "referenced_type" : "_ZTIPm"
    },
    {
     "referenced_type" : "_ZTIm"
    }
   ],
   "return_type" : "_ZTIPv",
   "source_file" : "frameworks/rs/cpp/rsDispatch.h"
  },
  {
   "alignment" : 4,
   "linker_set_key" : "_ZTIFPvS_S_jjjbbjE",
   "name" : "void *(void *, void *, unsigned int, unsigned int, unsigned int, bool, bool, unsigned int)",
   "parameters" :
   [
    {
     "referenced_type" : "_ZTIPv"
    },
    {
     "referenced_type" : "_ZTIPv"
    },
    {
     "referenced_type" : "_ZTIj"
    },
    {
     "referenced_type" : "_ZTIj"
    },
    {
     "referenced_type" : "_ZTIj"
    },
    {
     "referenced_type" : "_ZTIb"
    },
    {
     "referenced_type" : "_ZTIb"
    },
    {
     "referenced_type" : "_ZTIj"
    }
   ],
   "return_type" : "_ZTIPv",
   "source_file" : "frameworks/rs/cpp/rsDispatch.h"
  },
  {
   "alignment" : 4,
   "linker_set_key" : "_ZTIFPvS_b10RsCullModeE",
   "name" : "void *(void *, bool, RsCullMode)",
   "parameters" :
   [
    {
     "referenced_type" : "_ZTIPv"
    },
    {
     "referenced_type" : "_ZTIb"
    },
    {
     "referenced_type" : "_ZTI10RsCullMode"
    }
   ],
   "return_type" : "_ZTIPv",
   "source_file" : "frameworks/rs/cpp/rsDispatch.h"
  },
  {
   "alignment" : 4,
   "linker_set_key" : "_ZTIFPvS_bbbbbb14RsBlendSrcFunc14RsBlendDstFunc11RsDepthFuncE",
   "name" : "void *(void *, bool, bool, bool, bool, bool, bool, RsBlendSrcFunc, RsBlendDstFunc, RsDepthFunc)",
   "parameters" :
   [
    {
     "referenced_type" : "_ZTIPv"
    },
    {
     "referenced_type" : "_ZTIb"
    },
    {
     "referenced_type" : "_ZTIb"
    },
    {
     "referenced_type" : "_ZTIb"
    },
    {
     "referenced_type" : "_ZTIb"
    },
    {
     "referenced_type" : "_ZTIb"
    },
    {
     "referenced_type" : "_ZTIb"
    },
    {
     "referenced_type" : "_ZTI14RsBlendSrcFunc"
    },
    {
     "referenced_type" : "_ZTI14RsBlendDstFunc"
    },
    {
     "referenced_type" : "_ZTI11RsDepthFunc"
    }
   ],
   "return_type" : "_ZTIPv",
   "source_file" : "frameworks/rs/cpp/rsDispatch.h"
  },
  {
   "alignment" : 4,
   "linker_set_key" : "_ZTIFPvS_jS_E",
   "name" : "void *(void *, unsigned int, void *)",
   "parameters" :
   [
    {
     "referenced_type" : "_ZTIPv"
    },
    {
     "referenced_type" : "_ZTIj"
    },
    {
     "referenced_type" : "_ZTIPv"
    }
   ],
   "return_type" : "_ZTIPv",
   "source_file" : "frameworks/rs/cpp/rsDispatch.h"
  },
  {
   "alignment" : 4,
   "linker_set_key" : "_ZTIFPvS_jj13RsContextTypejE",
   "name" : "void *(void *, unsigned int, unsigned int, RsContextType, unsigned int)",
   "parameters" :
   [
    {
     "referenced_type" : "_ZTIPv"
    },
    {
     "referenced_type" : "_ZTIj"
    },
    {
     "referenced_type" : "_ZTIj"
    },
    {
     "referenced_type" : "_ZTI13RsContextType"
    },
    {
     "referenced_type" : "_ZTIj"
    }
   ],
   "return_type" : "_ZTIPv",
   "source_file" : "frameworks/rs/cpp/rsDispatch.h"
  },
  {
   "alignment" : 4,
   "linker_set_key" : "_ZTIFPvS_jj13RsContextTypejPKcE",
   "name" : "void *(void *, unsigned int, unsigned int, RsContextType, unsigned int, const char *)",
   "parameters" :
   [
    {
     "referenced_type" : "_ZTIPv"
    },
    {
     "referenced_type" : "_ZTIj"
    },
    {
     "referenced_type" : "_ZTIj"
    },
    {
     "referenced_type" : "_ZTI13RsContextType"
    },
    {
     "referenced_type" : "_ZTIj"
    },
    {
     "referenced_type" : "_ZTIPKc"
    }
   ],
   "return_type" : "_ZTIPv",
   "source_file" : "frameworks/rs/cpp/rsDispatch.h"
  },
  {
   "alignment" : 4,
   "linker_set_key" : "_ZTIFPvS_jj15RsSurfaceConfigjE",
   "name" : "void *(void *, unsigned int, unsigned int, RsSurfaceConfig, unsigned int)",
   "parameters" :
   [
    {
     "referenced_type" : "_ZTIPv"
    },
    {
     "referenced_type" : "_ZTIj"
    },
    {
     "referenced_type" : "_ZTIj"
    },
    {
     "referenced_type" : "_ZTI15RsSurfaceConfig"
    },
    {
     "referenced_type" : "_ZTIj"
    }
   ],
   "return_type" : "_ZTIPv",
   "source_file" : "frameworks/rs/cpp/rsDispatch.h"
  },
  {
   "alignment" : 4,
   "linker_set_key" : "_ZTIFPvS_mPKvE",
   "name" : "void *(void *, unsigned long, const void *)",
   "parameters" :
   [
    {
     "referenced_type" : "_ZTIPv"
    },
    {
     "referenced_type" : "_ZTIm"
    },
    {
     "referenced_type" : "_ZTIPKv"
    }
   ],
   "return_type" : "_ZTIPv",
   "source_file" : "bionic/libc/include/malloc.h"
  },
  {
   "alignment" : 4,
   "linker_set_key" : "_ZTIFPvmPKvE",
   "name" : "void *(unsigned long, const void *)",
   "parameters" :
   [
    {
     "referenced_type" : "_ZTIm"
    },
    {
     "referenced_type" : "_ZTIPKv"
    }
   ],
   "return_type" : "_ZTIPv",
   "source_file" : "bionic/libc/include/malloc.h"
  },
  {
   "alignment" : 4,
   "linker_set_key" : "_ZTIFPvmmPKvE",
   "name" : "void *(unsigned long, unsigned long, const void *)",
   "parameters" :
   [
    {
     "referenced_type" : "_ZTIm"
    },
    {
     "referenced_type" : "_ZTIm"
    },
    {
     "referenced_type" : "_ZTIPKv"
    }
   ],
   "return_type" : "_ZTIPv",
   "source_file" : "bionic/libc/include/malloc.h"
  },
  {
   "alignment" : 4,
   "linker_set_key" : "_ZTIFPvvE",
   "name" : "void *()",
   "return_type" : "_ZTIPv",
   "source_file" : "frameworks/rs/cpp/rsDispatch.h"
  },
  {
   "alignment" : 4,
   "linker_set_key" : "_ZTIFRNSt3__18ios_baseES1_E",
   "name" : "std::ios_base &(std::ios_base &)",
   "parameters" :
   [
    {
     "referenced_type" : "_ZTIRNSt3__18ios_baseE"
    }
   ],
   "return_type" : "_ZTIRNSt3__18ios_baseE",
   "source_file" : "external/libcxx/include/system_error"
  },
  {
   "alignment" : 4,
   "linker_set_key" : "_ZTIFaP7_JNIEnvP7_jclassP10_jmethodIDPK6jvalueE",
   "name" : "signed char (_JNIEnv *, _jclass *, _jmethodID *, const jvalue *)",
   "parameters" :
   [
    {
     "referenced_type" : "_ZTIP7_JNIEnv"
    },
    {
     "referenced_type" : "_ZTIP7_jclass"
    },
    {
     "referenced_type" : "_ZTIP10_jmethodID"
    },
    {
     "referenced_type" : "_ZTIPK6jvalue"
    }
   ],
   "return_type" : "_ZTIa",
   "source_file" : "libnativehelper/include_jni/jni.h"
  },
  {
   "alignment" : 4,
   "linker_set_key" : "_ZTIFaP7_JNIEnvP7_jclassP10_jmethodIDSt9__va_listE",
   "name" : "signed char (_JNIEnv *, _jclass *, _jmethodID *, std::__va_list)",
   "parameters" :
   [
    {
     "referenced_type" : "_ZTIP7_JNIEnv"
    },
    {
     "referenced_type" : "_ZTIP7_jclass"
    },
    {
     "referenced_type" : "_ZTIP10_jmethodID"
    },
    {
     "referenced_type" : "_ZTISt9__va_list"
    }
   ],
   "return_type" : "_ZTIa",
   "source_file" : "libnativehelper/include_jni/jni.h"
  },
  {
   "alignment" : 4,
   "linker_set_key" : "_ZTIFaP7_JNIEnvP7_jclassP10_jmethodIDzE",
   "name" : "signed char (_JNIEnv *, _jclass *, _jmethodID *, ...)",
   "parameters" :
   [
    {
     "referenced_type" : "_ZTIP7_JNIEnv"
    },
    {
     "referenced_type" : "_ZTIP7_jclass"
    },
    {
     "referenced_type" : "_ZTIP10_jmethodID"
    }
   ],
   "return_type" : "_ZTIa",
   "source_file" : "libnativehelper/include_jni/jni.h"
  },
  {
   "alignment" : 4,
   "linker_set_key" : "_ZTIFaP7_JNIEnvP7_jclassP9_jfieldIDE",
   "name" : "signed char (_JNIEnv *, _jclass *, _jfieldID *)",
   "parameters" :
   [
    {
     "referenced_type" : "_ZTIP7_JNIEnv"
    },
    {
     "referenced_type" : "_ZTIP7_jclass"
    },
    {
     "referenced_type" : "_ZTIP9_jfieldID"
    }
   ],
   "return_type" : "_ZTIa",
   "source_file" : "libnativehelper/include_jni/jni.h"
  },
  {
   "alignment" : 4,
   "linker_set_key" : "_ZTIFaP7_JNIEnvP8_jobjectP10_jmethodIDPK6jvalueE",
   "name" : "signed char (_JNIEnv *, _jobject *, _jmethodID *, const jvalue *)",
   "parameters" :
   [
    {
     "referenced_type" : "_ZTIP7_JNIEnv"
    },
    {
     "referenced_type" : "_ZTIP8_jobject"
    },
    {
     "referenced_type" : "_ZTIP10_jmethodID"
    },
    {
     "referenced_type" : "_ZTIPK6jvalue"
    }
   ],
   "return_type" : "_ZTIa",
   "source_file" : "libnativehelper/include_jni/jni.h"
  },
  {
   "alignment" : 4,
   "linker_set_key" : "_ZTIFaP7_JNIEnvP8_jobjectP10_jmethodIDSt9__va_listE",
   "name" : "signed char (_JNIEnv *, _jobject *, _jmethodID *, std::__va_list)",
   "parameters" :
   [
    {
     "referenced_type" : "_ZTIP7_JNIEnv"
    },
    {
     "referenced_type" : "_ZTIP8_jobject"
    },
    {
     "referenced_type" : "_ZTIP10_jmethodID"
    },
    {
     "referenced_type" : "_ZTISt9__va_list"
    }
   ],
   "return_type" : "_ZTIa",
   "source_file" : "libnativehelper/include_jni/jni.h"
  },
  {
   "alignment" : 4,
   "linker_set_key" : "_ZTIFaP7_JNIEnvP8_jobjectP10_jmethodIDzE",
   "name" : "signed char (_JNIEnv *, _jobject *, _jmethodID *, ...)",
   "parameters" :
   [
    {
     "referenced_type" : "_ZTIP7_JNIEnv"
    },
    {
     "referenced_type" : "_ZTIP8_jobject"
    },
    {
     "referenced_type" : "_ZTIP10_jmethodID"
    }
   ],
   "return_type" : "_ZTIa",
   "source_file" : "libnativehelper/include_jni/jni.h"
  },
  {
   "alignment" : 4,
   "linker_set_key" : "_ZTIFaP7_JNIEnvP8_jobjectP7_jclassP10_jmethodIDPK6jvalueE",
   "name" : "signed char (_JNIEnv *, _jobject *, _jclass *, _jmethodID *, const jvalue *)",
   "parameters" :
   [
    {
     "referenced_type" : "_ZTIP7_JNIEnv"
    },
    {
     "referenced_type" : "_ZTIP8_jobject"
    },
    {
     "referenced_type" : "_ZTIP7_jclass"
    },
    {
     "referenced_type" : "_ZTIP10_jmethodID"
    },
    {
     "referenced_type" : "_ZTIPK6jvalue"
    }
   ],
   "return_type" : "_ZTIa",
   "source_file" : "libnativehelper/include_jni/jni.h"
  },
  {
   "alignment" : 4,
   "linker_set_key" : "_ZTIFaP7_JNIEnvP8_jobjectP7_jclassP10_jmethodIDSt9__va_listE",
   "name" : "signed char (_JNIEnv *, _jobject *, _jclass *, _jmethodID *, std::__va_list)",
   "parameters" :
   [
    {
     "referenced_type" : "_ZTIP7_JNIEnv"
    },
    {
     "referenced_type" : "_ZTIP8_jobject"
    },
    {
     "referenced_type" : "_ZTIP7_jclass"
    },
    {
     "referenced_type" : "_ZTIP10_jmethodID"
    },
    {
     "referenced_type" : "_ZTISt9__va_list"
    }
   ],
   "return_type" : "_ZTIa",
   "source_file" : "libnativehelper/include_jni/jni.h"
  },
  {
   "alignment" : 4,
   "linker_set_key" : "_ZTIFaP7_JNIEnvP8_jobjectP7_jclassP10_jmethodIDzE",
   "name" : "signed char (_JNIEnv *, _jobject *, _jclass *, _jmethodID *, ...)",
   "parameters" :
   [
    {
     "referenced_type" : "_ZTIP7_JNIEnv"
    },
    {
     "referenced_type" : "_ZTIP8_jobject"
    },
    {
     "referenced_type" : "_ZTIP7_jclass"
    },
    {
     "referenced_type" : "_ZTIP10_jmethodID"
    }
   ],
   "return_type" : "_ZTIa",
   "source_file" : "libnativehelper/include_jni/jni.h"
  },
  {
   "alignment" : 4,
   "linker_set_key" : "_ZTIFaP7_JNIEnvP8_jobjectP9_jfieldIDE",
   "name" : "signed char (_JNIEnv *, _jobject *, _jfieldID *)",
   "parameters" :
   [
    {
     "referenced_type" : "_ZTIP7_JNIEnv"
    },
    {
     "referenced_type" : "_ZTIP8_jobject"
    },
    {
     "referenced_type" : "_ZTIP9_jfieldID"
    }
   ],
   "return_type" : "_ZTIa",
   "source_file" : "libnativehelper/include_jni/jni.h"
  },
  {
   "alignment" : 4,
   "linker_set_key" : "_ZTIFdP7_JNIEnvP7_jclassP10_jmethodIDPK6jvalueE",
   "name" : "double (_JNIEnv *, _jclass *, _jmethodID *, const jvalue *)",
   "parameters" :
   [
    {
     "referenced_type" : "_ZTIP7_JNIEnv"
    },
    {
     "referenced_type" : "_ZTIP7_jclass"
    },
    {
     "referenced_type" : "_ZTIP10_jmethodID"
    },
    {
     "referenced_type" : "_ZTIPK6jvalue"
    }
   ],
   "return_type" : "_ZTId",
   "source_file" : "libnativehelper/include_jni/jni.h"
  },
  {
   "alignment" : 4,
   "linker_set_key" : "_ZTIFdP7_JNIEnvP7_jclassP10_jmethodIDSt9__va_listE",
   "name" : "double (_JNIEnv *, _jclass *, _jmethodID *, std::__va_list)",
   "parameters" :
   [
    {
     "referenced_type" : "_ZTIP7_JNIEnv"
    },
    {
     "referenced_type" : "_ZTIP7_jclass"
    },
    {
     "referenced_type" : "_ZTIP10_jmethodID"
    },
    {
     "referenced_type" : "_ZTISt9__va_list"
    }
   ],
   "return_type" : "_ZTId",
   "source_file" : "libnativehelper/include_jni/jni.h"
  },
  {
   "alignment" : 4,
   "linker_set_key" : "_ZTIFdP7_JNIEnvP7_jclassP10_jmethodIDzE",
   "name" : "double (_JNIEnv *, _jclass *, _jmethodID *, ...)",
   "parameters" :
   [
    {
     "referenced_type" : "_ZTIP7_JNIEnv"
    },
    {
     "referenced_type" : "_ZTIP7_jclass"
    },
    {
     "referenced_type" : "_ZTIP10_jmethodID"
    }
   ],
   "return_type" : "_ZTId",
   "source_file" : "libnativehelper/include_jni/jni.h"
  },
  {
   "alignment" : 4,
   "linker_set_key" : "_ZTIFdP7_JNIEnvP7_jclassP9_jfieldIDE",
   "name" : "double (_JNIEnv *, _jclass *, _jfieldID *)",
   "parameters" :
   [
    {
     "referenced_type" : "_ZTIP7_JNIEnv"
    },
    {
     "referenced_type" : "_ZTIP7_jclass"
    },
    {
     "referenced_type" : "_ZTIP9_jfieldID"
    }
   ],
   "return_type" : "_ZTId",
   "source_file" : "libnativehelper/include_jni/jni.h"
  },
  {
   "alignment" : 4,
   "linker_set_key" : "_ZTIFdP7_JNIEnvP8_jobjectP10_jmethodIDPK6jvalueE",
   "name" : "double (_JNIEnv *, _jobject *, _jmethodID *, const jvalue *)",
   "parameters" :
   [
    {
     "referenced_type" : "_ZTIP7_JNIEnv"
    },
    {
     "referenced_type" : "_ZTIP8_jobject"
    },
    {
     "referenced_type" : "_ZTIP10_jmethodID"
    },
    {
     "referenced_type" : "_ZTIPK6jvalue"
    }
   ],
   "return_type" : "_ZTId",
   "source_file" : "libnativehelper/include_jni/jni.h"
  },
  {
   "alignment" : 4,
   "linker_set_key" : "_ZTIFdP7_JNIEnvP8_jobjectP10_jmethodIDSt9__va_listE",
   "name" : "double (_JNIEnv *, _jobject *, _jmethodID *, std::__va_list)",
   "parameters" :
   [
    {
     "referenced_type" : "_ZTIP7_JNIEnv"
    },
    {
     "referenced_type" : "_ZTIP8_jobject"
    },
    {
     "referenced_type" : "_ZTIP10_jmethodID"
    },
    {
     "referenced_type" : "_ZTISt9__va_list"
    }
   ],
   "return_type" : "_ZTId",
   "source_file" : "libnativehelper/include_jni/jni.h"
  },
  {
   "alignment" : 4,
   "linker_set_key" : "_ZTIFdP7_JNIEnvP8_jobjectP10_jmethodIDzE",
   "name" : "double (_JNIEnv *, _jobject *, _jmethodID *, ...)",
   "parameters" :
   [
    {
     "referenced_type" : "_ZTIP7_JNIEnv"
    },
    {
     "referenced_type" : "_ZTIP8_jobject"
    },
    {
     "referenced_type" : "_ZTIP10_jmethodID"
    }
   ],
   "return_type" : "_ZTId",
   "source_file" : "libnativehelper/include_jni/jni.h"
  },
  {
   "alignment" : 4,
   "linker_set_key" : "_ZTIFdP7_JNIEnvP8_jobjectP7_jclassP10_jmethodIDPK6jvalueE",
   "name" : "double (_JNIEnv *, _jobject *, _jclass *, _jmethodID *, const jvalue *)",
   "parameters" :
   [
    {
     "referenced_type" : "_ZTIP7_JNIEnv"
    },
    {
     "referenced_type" : "_ZTIP8_jobject"
    },
    {
     "referenced_type" : "_ZTIP7_jclass"
    },
    {
     "referenced_type" : "_ZTIP10_jmethodID"
    },
    {
     "referenced_type" : "_ZTIPK6jvalue"
    }
   ],
   "return_type" : "_ZTId",
   "source_file" : "libnativehelper/include_jni/jni.h"
  },
  {
   "alignment" : 4,
   "linker_set_key" : "_ZTIFdP7_JNIEnvP8_jobjectP7_jclassP10_jmethodIDSt9__va_listE",
   "name" : "double (_JNIEnv *, _jobject *, _jclass *, _jmethodID *, std::__va_list)",
   "parameters" :
   [
    {
     "referenced_type" : "_ZTIP7_JNIEnv"
    },
    {
     "referenced_type" : "_ZTIP8_jobject"
    },
    {
     "referenced_type" : "_ZTIP7_jclass"
    },
    {
     "referenced_type" : "_ZTIP10_jmethodID"
    },
    {
     "referenced_type" : "_ZTISt9__va_list"
    }
   ],
   "return_type" : "_ZTId",
   "source_file" : "libnativehelper/include_jni/jni.h"
  },
  {
   "alignment" : 4,
   "linker_set_key" : "_ZTIFdP7_JNIEnvP8_jobjectP7_jclassP10_jmethodIDzE",
   "name" : "double (_JNIEnv *, _jobject *, _jclass *, _jmethodID *, ...)",
   "parameters" :
   [
    {
     "referenced_type" : "_ZTIP7_JNIEnv"
    },
    {
     "referenced_type" : "_ZTIP8_jobject"
    },
    {
     "referenced_type" : "_ZTIP7_jclass"
    },
    {
     "referenced_type" : "_ZTIP10_jmethodID"
    }
   ],
   "return_type" : "_ZTId",
   "source_file" : "libnativehelper/include_jni/jni.h"
  },
  {
   "alignment" : 4,
   "linker_set_key" : "_ZTIFdP7_JNIEnvP8_jobjectP9_jfieldIDE",
   "name" : "double (_JNIEnv *, _jobject *, _jfieldID *)",
   "parameters" :
   [
    {
     "referenced_type" : "_ZTIP7_JNIEnv"
    },
    {
     "referenced_type" : "_ZTIP8_jobject"
    },
    {
     "referenced_type" : "_ZTIP9_jfieldID"
    }
   ],
   "return_type" : "_ZTId",
   "source_file" : "libnativehelper/include_jni/jni.h"
  },
  {
   "alignment" : 4,
   "linker_set_key" : "_ZTIFfP7_JNIEnvP7_jclassP10_jmethodIDPK6jvalueE",
   "name" : "float (_JNIEnv *, _jclass *, _jmethodID *, const jvalue *)",
   "parameters" :
   [
    {
     "referenced_type" : "_ZTIP7_JNIEnv"
    },
    {
     "referenced_type" : "_ZTIP7_jclass"
    },
    {
     "referenced_type" : "_ZTIP10_jmethodID"
    },
    {
     "referenced_type" : "_ZTIPK6jvalue"
    }
   ],
   "return_type" : "_ZTIf",
   "source_file" : "libnativehelper/include_jni/jni.h"
  },
  {
   "alignment" : 4,
   "linker_set_key" : "_ZTIFfP7_JNIEnvP7_jclassP10_jmethodIDSt9__va_listE",
   "name" : "float (_JNIEnv *, _jclass *, _jmethodID *, std::__va_list)",
   "parameters" :
   [
    {
     "referenced_type" : "_ZTIP7_JNIEnv"
    },
    {
     "referenced_type" : "_ZTIP7_jclass"
    },
    {
     "referenced_type" : "_ZTIP10_jmethodID"
    },
    {
     "referenced_type" : "_ZTISt9__va_list"
    }
   ],
   "return_type" : "_ZTIf",
   "source_file" : "libnativehelper/include_jni/jni.h"
  },
  {
   "alignment" : 4,
   "linker_set_key" : "_ZTIFfP7_JNIEnvP7_jclassP10_jmethodIDzE",
   "name" : "float (_JNIEnv *, _jclass *, _jmethodID *, ...)",
   "parameters" :
   [
    {
     "referenced_type" : "_ZTIP7_JNIEnv"
    },
    {
     "referenced_type" : "_ZTIP7_jclass"
    },
    {
     "referenced_type" : "_ZTIP10_jmethodID"
    }
   ],
   "return_type" : "_ZTIf",
   "source_file" : "libnativehelper/include_jni/jni.h"
  },
  {
   "alignment" : 4,
   "linker_set_key" : "_ZTIFfP7_JNIEnvP7_jclassP9_jfieldIDE",
   "name" : "float (_JNIEnv *, _jclass *, _jfieldID *)",
   "parameters" :
   [
    {
     "referenced_type" : "_ZTIP7_JNIEnv"
    },
    {
     "referenced_type" : "_ZTIP7_jclass"
    },
    {
     "referenced_type" : "_ZTIP9_jfieldID"
    }
   ],
   "return_type" : "_ZTIf",
   "source_file" : "libnativehelper/include_jni/jni.h"
  },
  {
   "alignment" : 4,
   "linker_set_key" : "_ZTIFfP7_JNIEnvP8_jobjectP10_jmethodIDPK6jvalueE",
   "name" : "float (_JNIEnv *, _jobject *, _jmethodID *, const jvalue *)",
   "parameters" :
   [
    {
     "referenced_type" : "_ZTIP7_JNIEnv"
    },
    {
     "referenced_type" : "_ZTIP8_jobject"
    },
    {
     "referenced_type" : "_ZTIP10_jmethodID"
    },
    {
     "referenced_type" : "_ZTIPK6jvalue"
    }
   ],
   "return_type" : "_ZTIf",
   "source_file" : "libnativehelper/include_jni/jni.h"
  },
  {
   "alignment" : 4,
   "linker_set_key" : "_ZTIFfP7_JNIEnvP8_jobjectP10_jmethodIDSt9__va_listE",
   "name" : "float (_JNIEnv *, _jobject *, _jmethodID *, std::__va_list)",
   "parameters" :
   [
    {
     "referenced_type" : "_ZTIP7_JNIEnv"
    },
    {
     "referenced_type" : "_ZTIP8_jobject"
    },
    {
     "referenced_type" : "_ZTIP10_jmethodID"
    },
    {
     "referenced_type" : "_ZTISt9__va_list"
    }
   ],
   "return_type" : "_ZTIf",
   "source_file" : "libnativehelper/include_jni/jni.h"
  },
  {
   "alignment" : 4,
   "linker_set_key" : "_ZTIFfP7_JNIEnvP8_jobjectP10_jmethodIDzE",
   "name" : "float (_JNIEnv *, _jobject *, _jmethodID *, ...)",
   "parameters" :
   [
    {
     "referenced_type" : "_ZTIP7_JNIEnv"
    },
    {
     "referenced_type" : "_ZTIP8_jobject"
    },
    {
     "referenced_type" : "_ZTIP10_jmethodID"
    }
   ],
   "return_type" : "_ZTIf",
   "source_file" : "libnativehelper/include_jni/jni.h"
  },
  {
   "alignment" : 4,
   "linker_set_key" : "_ZTIFfP7_JNIEnvP8_jobjectP7_jclassP10_jmethodIDPK6jvalueE",
   "name" : "float (_JNIEnv *, _jobject *, _jclass *, _jmethodID *, const jvalue *)",
   "parameters" :
   [
    {
     "referenced_type" : "_ZTIP7_JNIEnv"
    },
    {
     "referenced_type" : "_ZTIP8_jobject"
    },
    {
     "referenced_type" : "_ZTIP7_jclass"
    },
    {
     "referenced_type" : "_ZTIP10_jmethodID"
    },
    {
     "referenced_type" : "_ZTIPK6jvalue"
    }
   ],
   "return_type" : "_ZTIf",
   "source_file" : "libnativehelper/include_jni/jni.h"
  },
  {
   "alignment" : 4,
   "linker_set_key" : "_ZTIFfP7_JNIEnvP8_jobjectP7_jclassP10_jmethodIDSt9__va_listE",
   "name" : "float (_JNIEnv *, _jobject *, _jclass *, _jmethodID *, std::__va_list)",
   "parameters" :
   [
    {
     "referenced_type" : "_ZTIP7_JNIEnv"
    },
    {
     "referenced_type" : "_ZTIP8_jobject"
    },
    {
     "referenced_type" : "_ZTIP7_jclass"
    },
    {
     "referenced_type" : "_ZTIP10_jmethodID"
    },
    {
     "referenced_type" : "_ZTISt9__va_list"
    }
   ],
   "return_type" : "_ZTIf",
   "source_file" : "libnativehelper/include_jni/jni.h"
  },
  {
   "alignment" : 4,
   "linker_set_key" : "_ZTIFfP7_JNIEnvP8_jobjectP7_jclassP10_jmethodIDzE",
   "name" : "float (_JNIEnv *, _jobject *, _jclass *, _jmethodID *, ...)",
   "parameters" :
   [
    {
     "referenced_type" : "_ZTIP7_JNIEnv"
    },
    {
     "referenced_type" : "_ZTIP8_jobject"
    },
    {
     "referenced_type" : "_ZTIP7_jclass"
    },
    {
     "referenced_type" : "_ZTIP10_jmethodID"
    }
   ],
   "return_type" : "_ZTIf",
   "source_file" : "libnativehelper/include_jni/jni.h"
  },
  {
   "alignment" : 4,
   "linker_set_key" : "_ZTIFfP7_JNIEnvP8_jobjectP9_jfieldIDE",
   "name" : "float (_JNIEnv *, _jobject *, _jfieldID *)",
   "parameters" :
   [
    {
     "referenced_type" : "_ZTIP7_JNIEnv"
    },
    {
     "referenced_type" : "_ZTIP8_jobject"
    },
    {
     "referenced_type" : "_ZTIP9_jfieldID"
    }
   ],
   "return_type" : "_ZTIf",
   "source_file" : "libnativehelper/include_jni/jni.h"
  },
  {
   "alignment" : 4,
   "linker_set_key" : "_ZTIFhP7_JNIEnvE",
   "name" : "unsigned char (_JNIEnv *)",
   "parameters" :
   [
    {
     "referenced_type" : "_ZTIP7_JNIEnv"
    }
   ],
   "return_type" : "_ZTIh",
   "source_file" : "libnativehelper/include_jni/jni.h"
  },
  {
   "alignment" : 4,
   "linker_set_key" : "_ZTIFhP7_JNIEnvP7_jclassP10_jmethodIDPK6jvalueE",
   "name" : "unsigned char (_JNIEnv *, _jclass *, _jmethodID *, const jvalue *)",
   "parameters" :
   [
    {
     "referenced_type" : "_ZTIP7_JNIEnv"
    },
    {
     "referenced_type" : "_ZTIP7_jclass"
    },
    {
     "referenced_type" : "_ZTIP10_jmethodID"
    },
    {
     "referenced_type" : "_ZTIPK6jvalue"
    }
   ],
   "return_type" : "_ZTIh",
   "source_file" : "libnativehelper/include_jni/jni.h"
  },
  {
   "alignment" : 4,
   "linker_set_key" : "_ZTIFhP7_JNIEnvP7_jclassP10_jmethodIDSt9__va_listE",
   "name" : "unsigned char (_JNIEnv *, _jclass *, _jmethodID *, std::__va_list)",
   "parameters" :
   [
    {
     "referenced_type" : "_ZTIP7_JNIEnv"
    },
    {
     "referenced_type" : "_ZTIP7_jclass"
    },
    {
     "referenced_type" : "_ZTIP10_jmethodID"
    },
    {
     "referenced_type" : "_ZTISt9__va_list"
    }
   ],
   "return_type" : "_ZTIh",
   "source_file" : "libnativehelper/include_jni/jni.h"
  },
  {
   "alignment" : 4,
   "linker_set_key" : "_ZTIFhP7_JNIEnvP7_jclassP10_jmethodIDzE",
   "name" : "unsigned char (_JNIEnv *, _jclass *, _jmethodID *, ...)",
   "parameters" :
   [
    {
     "referenced_type" : "_ZTIP7_JNIEnv"
    },
    {
     "referenced_type" : "_ZTIP7_jclass"
    },
    {
     "referenced_type" : "_ZTIP10_jmethodID"
    }
   ],
   "return_type" : "_ZTIh",
   "source_file" : "libnativehelper/include_jni/jni.h"
  },
  {
   "alignment" : 4,
   "linker_set_key" : "_ZTIFhP7_JNIEnvP7_jclassP9_jfieldIDE",
   "name" : "unsigned char (_JNIEnv *, _jclass *, _jfieldID *)",
   "parameters" :
   [
    {
     "referenced_type" : "_ZTIP7_JNIEnv"
    },
    {
     "referenced_type" : "_ZTIP7_jclass"
    },
    {
     "referenced_type" : "_ZTIP9_jfieldID"
    }
   ],
   "return_type" : "_ZTIh",
   "source_file" : "libnativehelper/include_jni/jni.h"
  },
  {
   "alignment" : 4,
   "linker_set_key" : "_ZTIFhP7_JNIEnvP7_jclassS2_E",
   "name" : "unsigned char (_JNIEnv *, _jclass *, _jclass *)",
   "parameters" :
   [
    {
     "referenced_type" : "_ZTIP7_JNIEnv"
    },
    {
     "referenced_type" : "_ZTIP7_jclass"
    },
    {
     "referenced_type" : "_ZTIP7_jclass"
    }
   ],
   "return_type" : "_ZTIh",
   "source_file" : "libnativehelper/include_jni/jni.h"
  },
  {
   "alignment" : 4,
   "linker_set_key" : "_ZTIFhP7_JNIEnvP8_jobjectP10_jmethodIDPK6jvalueE",
   "name" : "unsigned char (_JNIEnv *, _jobject *, _jmethodID *, const jvalue *)",
   "parameters" :
   [
    {
     "referenced_type" : "_ZTIP7_JNIEnv"
    },
    {
     "referenced_type" : "_ZTIP8_jobject"
    },
    {
     "referenced_type" : "_ZTIP10_jmethodID"
    },
    {
     "referenced_type" : "_ZTIPK6jvalue"
    }
   ],
   "return_type" : "_ZTIh",
   "source_file" : "libnativehelper/include_jni/jni.h"
  },
  {
   "alignment" : 4,
   "linker_set_key" : "_ZTIFhP7_JNIEnvP8_jobjectP10_jmethodIDSt9__va_listE",
   "name" : "unsigned char (_JNIEnv *, _jobject *, _jmethodID *, std::__va_list)",
   "parameters" :
   [
    {
     "referenced_type" : "_ZTIP7_JNIEnv"
    },
    {
     "referenced_type" : "_ZTIP8_jobject"
    },
    {
     "referenced_type" : "_ZTIP10_jmethodID"
    },
    {
     "referenced_type" : "_ZTISt9__va_list"
    }
   ],
   "return_type" : "_ZTIh",
   "source_file" : "libnativehelper/include_jni/jni.h"
  },
  {
   "alignment" : 4,
   "linker_set_key" : "_ZTIFhP7_JNIEnvP8_jobjectP10_jmethodIDzE",
   "name" : "unsigned char (_JNIEnv *, _jobject *, _jmethodID *, ...)",
   "parameters" :
   [
    {
     "referenced_type" : "_ZTIP7_JNIEnv"
    },
    {
     "referenced_type" : "_ZTIP8_jobject"
    },
    {
     "referenced_type" : "_ZTIP10_jmethodID"
    }
   ],
   "return_type" : "_ZTIh",
   "source_file" : "libnativehelper/include_jni/jni.h"
  },
  {
   "alignment" : 4,
   "linker_set_key" : "_ZTIFhP7_JNIEnvP8_jobjectP7_jclassE",
   "name" : "unsigned char (_JNIEnv *, _jobject *, _jclass *)",
   "parameters" :
   [
    {
     "referenced_type" : "_ZTIP7_JNIEnv"
    },
    {
     "referenced_type" : "_ZTIP8_jobject"
    },
    {
     "referenced_type" : "_ZTIP7_jclass"
    }
   ],
   "return_type" : "_ZTIh",
   "source_file" : "libnativehelper/include_jni/jni.h"
  },
  {
   "alignment" : 4,
   "linker_set_key" : "_ZTIFhP7_JNIEnvP8_jobjectP7_jclassP10_jmethodIDPK6jvalueE",
   "name" : "unsigned char (_JNIEnv *, _jobject *, _jclass *, _jmethodID *, const jvalue *)",
   "parameters" :
   [
    {
     "referenced_type" : "_ZTIP7_JNIEnv"
    },
    {
     "referenced_type" : "_ZTIP8_jobject"
    },
    {
     "referenced_type" : "_ZTIP7_jclass"
    },
    {
     "referenced_type" : "_ZTIP10_jmethodID"
    },
    {
     "referenced_type" : "_ZTIPK6jvalue"
    }
   ],
   "return_type" : "_ZTIh",
   "source_file" : "libnativehelper/include_jni/jni.h"
  },
  {
   "alignment" : 4,
   "linker_set_key" : "_ZTIFhP7_JNIEnvP8_jobjectP7_jclassP10_jmethodIDSt9__va_listE",
   "name" : "unsigned char (_JNIEnv *, _jobject *, _jclass *, _jmethodID *, std::__va_list)",
   "parameters" :
   [
    {
     "referenced_type" : "_ZTIP7_JNIEnv"
    },
    {
     "referenced_type" : "_ZTIP8_jobject"
    },
    {
     "referenced_type" : "_ZTIP7_jclass"
    },
    {
     "referenced_type" : "_ZTIP10_jmethodID"
    },
    {
     "referenced_type" : "_ZTISt9__va_list"
    }
   ],
   "return_type" : "_ZTIh",
   "source_file" : "libnativehelper/include_jni/jni.h"
  },
  {
   "alignment" : 4,
   "linker_set_key" : "_ZTIFhP7_JNIEnvP8_jobjectP7_jclassP10_jmethodIDzE",
   "name" : "unsigned char (_JNIEnv *, _jobject *, _jclass *, _jmethodID *, ...)",
   "parameters" :
   [
    {
     "referenced_type" : "_ZTIP7_JNIEnv"
    },
    {
     "referenced_type" : "_ZTIP8_jobject"
    },
    {
     "referenced_type" : "_ZTIP7_jclass"
    },
    {
     "referenced_type" : "_ZTIP10_jmethodID"
    }
   ],
   "return_type" : "_ZTIh",
   "source_file" : "libnativehelper/include_jni/jni.h"
  },
  {
   "alignment" : 4,
   "linker_set_key" : "_ZTIFhP7_JNIEnvP8_jobjectP9_jfieldIDE",
   "name" : "unsigned char (_JNIEnv *, _jobject *, _jfieldID *)",
   "parameters" :
   [
    {
     "referenced_type" : "_ZTIP7_JNIEnv"
    },
    {
     "referenced_type" : "_ZTIP8_jobject"
    },
    {
     "referenced_type" : "_ZTIP9_jfieldID"
    }
   ],
   "return_type" : "_ZTIh",
   "source_file" : "libnativehelper/include_jni/jni.h"
  },
  {
   "alignment" : 4,
   "linker_set_key" : "_ZTIFhP7_JNIEnvP8_jobjectS2_E",
   "name" : "unsigned char (_JNIEnv *, _jobject *, _jobject *)",
   "parameters" :
   [
    {
     "referenced_type" : "_ZTIP7_JNIEnv"
    },
    {
     "referenced_type" : "_ZTIP8_jobject"
    },
    {
     "referenced_type" : "_ZTIP8_jobject"
    }
   ],
   "return_type" : "_ZTIh",
   "source_file" : "libnativehelper/include_jni/jni.h"
  },
  {
   "alignment" : 4,
   "linker_set_key" : "_ZTIFiP7_JNIEnvE",
   "name" : "int (_JNIEnv *)",
   "parameters" :
   [
    {
     "referenced_type" : "_ZTIP7_JNIEnv"
    }
   ],
   "return_type" : "_ZTIi",
   "source_file" : "libnativehelper/include_jni/jni.h"
  },
  {
   "alignment" : 4,
   "linker_set_key" : "_ZTIFiP7_JNIEnvP11_jthrowableE",
   "name" : "int (_JNIEnv *, _jthrowable *)",
   "parameters" :
   [
    {
     "referenced_type" : "_ZTIP7_JNIEnv"
    },
    {
     "referenced_type" : "_ZTIP11_jthrowable"
    }
   ],
   "return_type" : "_ZTIi",
   "source_file" : "libnativehelper/include_jni/jni.h"
  },
  {
   "alignment" : 4,
   "linker_set_key" : "_ZTIFiP7_JNIEnvP7_jarrayE",
   "name" : "int (_JNIEnv *, _jarray *)",
   "parameters" :
   [
    {
     "referenced_type" : "_ZTIP7_JNIEnv"
    },
    {
     "referenced_type" : "_ZTIP7_jarray"
    }
   ],
   "return_type" : "_ZTIi",
   "source_file" : "libnativehelper/include_jni/jni.h"
  },
  {
   "alignment" : 4,
   "linker_set_key" : "_ZTIFiP7_JNIEnvP7_jclassE",
   "name" : "int (_JNIEnv *, _jclass *)",
   "parameters" :
   [
    {
     "referenced_type" : "_ZTIP7_JNIEnv"
    },
    {
     "referenced_type" : "_ZTIP7_jclass"
    }
   ],
   "return_type" : "_ZTIi",
   "source_file" : "libnativehelper/include_jni/jni.h"
  },
  {
   "alignment" : 4,
   "linker_set_key" : "_ZTIFiP7_JNIEnvP7_jclassP10_jmethodIDPK6jvalueE",
   "name" : "int (_JNIEnv *, _jclass *, _jmethodID *, const jvalue *)",
   "parameters" :
   [
    {
     "referenced_type" : "_ZTIP7_JNIEnv"
    },
    {
     "referenced_type" : "_ZTIP7_jclass"
    },
    {
     "referenced_type" : "_ZTIP10_jmethodID"
    },
    {
     "referenced_type" : "_ZTIPK6jvalue"
    }
   ],
   "return_type" : "_ZTIi",
   "source_file" : "libnativehelper/include_jni/jni.h"
  },
  {
   "alignment" : 4,
   "linker_set_key" : "_ZTIFiP7_JNIEnvP7_jclassP10_jmethodIDSt9__va_listE",
   "name" : "int (_JNIEnv *, _jclass *, _jmethodID *, std::__va_list)",
   "parameters" :
   [
    {
     "referenced_type" : "_ZTIP7_JNIEnv"
    },
    {
     "referenced_type" : "_ZTIP7_jclass"
    },
    {
     "referenced_type" : "_ZTIP10_jmethodID"
    },
    {
     "referenced_type" : "_ZTISt9__va_list"
    }
   ],
   "return_type" : "_ZTIi",
   "source_file" : "libnativehelper/include_jni/jni.h"
  },
  {
   "alignment" : 4,
   "linker_set_key" : "_ZTIFiP7_JNIEnvP7_jclassP10_jmethodIDzE",
   "name" : "int (_JNIEnv *, _jclass *, _jmethodID *, ...)",
   "parameters" :
   [
    {
     "referenced_type" : "_ZTIP7_JNIEnv"
    },
    {
     "referenced_type" : "_ZTIP7_jclass"
    },
    {
     "referenced_type" : "_ZTIP10_jmethodID"
    }
   ],
   "return_type" : "_ZTIi",
   "source_file" : "libnativehelper/include_jni/jni.h"
  },
  {
   "alignment" : 4,
   "linker_set_key" : "_ZTIFiP7_JNIEnvP7_jclassP9_jfieldIDE",
   "name" : "int (_JNIEnv *, _jclass *, _jfieldID *)",
   "parameters" :
   [
    {
     "referenced_type" : "_ZTIP7_JNIEnv"
    },
    {
     "referenced_type" : "_ZTIP7_jclass"
    },
    {
     "referenced_type" : "_ZTIP9_jfieldID"
    }
   ],
   "return_type" : "_ZTIi",
   "source_file" : "libnativehelper/include_jni/jni.h"
  },
  {
   "alignment" : 4,
   "linker_set_key" : "_ZTIFiP7_JNIEnvP7_jclassPK15JNINativeMethodiE",
   "name" : "int (_JNIEnv *, _jclass *, const JNINativeMethod *, int)",
   "parameters" :
   [
    {
     "referenced_type" : "_ZTIP7_JNIEnv"
    },
    {
     "referenced_type" : "_ZTIP7_jclass"
    },
    {
     "referenced_type" : "_ZTIPK15JNINativeMethod"
    },
    {
     "referenced_type" : "_ZTIi"
    }
   ],
   "return_type" : "_ZTIi",
   "source_file" : "libnativehelper/include_jni/jni.h"
  },
  {
   "alignment" : 4,
   "linker_set_key" : "_ZTIFiP7_JNIEnvP7_jclassPKcE",
   "name" : "int (_JNIEnv *, _jclass *, const char *)",
   "parameters" :
   [
    {
     "referenced_type" : "_ZTIP7_JNIEnv"
    },
    {
     "referenced_type" : "_ZTIP7_jclass"
    },
    {
     "referenced_type" : "_ZTIPKc"
    }
   ],
   "return_type" : "_ZTIi",
   "source_file" : "libnativehelper/include_jni/jni.h"
  },
  {
   "alignment" : 4,
   "linker_set_key" : "_ZTIFiP7_JNIEnvP8_jobjectE",
   "name" : "int (_JNIEnv *, _jobject *)",
   "parameters" :
   [
    {
     "referenced_type" : "_ZTIP7_JNIEnv"
    },
    {
     "referenced_type" : "_ZTIP8_jobject"
    }
   ],
   "return_type" : "_ZTIi",
   "source_file" : "libnativehelper/include_jni/jni.h"
  },
  {
   "alignment" : 4,
   "linker_set_key" : "_ZTIFiP7_JNIEnvP8_jobjectP10_jmethodIDPK6jvalueE",
   "name" : "int (_JNIEnv *, _jobject *, _jmethodID *, const jvalue *)",
   "parameters" :
   [
    {
     "referenced_type" : "_ZTIP7_JNIEnv"
    },
    {
     "referenced_type" : "_ZTIP8_jobject"
    },
    {
     "referenced_type" : "_ZTIP10_jmethodID"
    },
    {
     "referenced_type" : "_ZTIPK6jvalue"
    }
   ],
   "return_type" : "_ZTIi",
   "source_file" : "libnativehelper/include_jni/jni.h"
  },
  {
   "alignment" : 4,
   "linker_set_key" : "_ZTIFiP7_JNIEnvP8_jobjectP10_jmethodIDSt9__va_listE",
   "name" : "int (_JNIEnv *, _jobject *, _jmethodID *, std::__va_list)",
   "parameters" :
   [
    {
     "referenced_type" : "_ZTIP7_JNIEnv"
    },
    {
     "referenced_type" : "_ZTIP8_jobject"
    },
    {
     "referenced_type" : "_ZTIP10_jmethodID"
    },
    {
     "referenced_type" : "_ZTISt9__va_list"
    }
   ],
   "return_type" : "_ZTIi",
   "source_file" : "libnativehelper/include_jni/jni.h"
  },
  {
   "alignment" : 4,
   "linker_set_key" : "_ZTIFiP7_JNIEnvP8_jobjectP10_jmethodIDzE",
   "name" : "int (_JNIEnv *, _jobject *, _jmethodID *, ...)",
   "parameters" :
   [
    {
     "referenced_type" : "_ZTIP7_JNIEnv"
    },
    {
     "referenced_type" : "_ZTIP8_jobject"
    },
    {
     "referenced_type" : "_ZTIP10_jmethodID"
    }
   ],
   "return_type" : "_ZTIi",
   "source_file" : "libnativehelper/include_jni/jni.h"
  },
  {
   "alignment" : 4,
   "linker_set_key" : "_ZTIFiP7_JNIEnvP8_jobjectP7_jclassP10_jmethodIDPK6jvalueE",
   "name" : "int (_JNIEnv *, _jobject *, _jclass *, _jmethodID *, const jvalue *)",
   "parameters" :
   [
    {
     "referenced_type" : "_ZTIP7_JNIEnv"
    },
    {
     "referenced_type" : "_ZTIP8_jobject"
    },
    {
     "referenced_type" : "_ZTIP7_jclass"
    },
    {
     "referenced_type" : "_ZTIP10_jmethodID"
    },
    {
     "referenced_type" : "_ZTIPK6jvalue"
    }
   ],
   "return_type" : "_ZTIi",
   "source_file" : "libnativehelper/include_jni/jni.h"
  },
  {
   "alignment" : 4,
   "linker_set_key" : "_ZTIFiP7_JNIEnvP8_jobjectP7_jclassP10_jmethodIDSt9__va_listE",
   "name" : "int (_JNIEnv *, _jobject *, _jclass *, _jmethodID *, std::__va_list)",
   "parameters" :
   [
    {
     "referenced_type" : "_ZTIP7_JNIEnv"
    },
    {
     "referenced_type" : "_ZTIP8_jobject"
    },
    {
     "referenced_type" : "_ZTIP7_jclass"
    },
    {
     "referenced_type" : "_ZTIP10_jmethodID"
    },
    {
     "referenced_type" : "_ZTISt9__va_list"
    }
   ],
   "return_type" : "_ZTIi",
   "source_file" : "libnativehelper/include_jni/jni.h"
  },
  {
   "alignment" : 4,
   "linker_set_key" : "_ZTIFiP7_JNIEnvP8_jobjectP7_jclassP10_jmethodIDzE",
   "name" : "int (_JNIEnv *, _jobject *, _jclass *, _jmethodID *, ...)",
   "parameters" :
   [
    {
     "referenced_type" : "_ZTIP7_JNIEnv"
    },
    {
     "referenced_type" : "_ZTIP8_jobject"
    },
    {
     "referenced_type" : "_ZTIP7_jclass"
    },
    {
     "referenced_type" : "_ZTIP10_jmethodID"
    }
   ],
   "return_type" : "_ZTIi",
   "source_file" : "libnativehelper/include_jni/jni.h"
  },
  {
   "alignment" : 4,
   "linker_set_key" : "_ZTIFiP7_JNIEnvP8_jobjectP9_jfieldIDE",
   "name" : "int (_JNIEnv *, _jobject *, _jfieldID *)",
   "parameters" :
   [
    {
     "referenced_type" : "_ZTIP7_JNIEnv"
    },
    {
     "referenced_type" : "_ZTIP8_jobject"
    },
    {
     "referenced_type" : "_ZTIP9_jfieldID"
    }
   ],
   "return_type" : "_ZTIi",
   "source_file" : "libnativehelper/include_jni/jni.h"
  },
  {
   "alignment" : 4,
   "linker_set_key" : "_ZTIFiP7_JNIEnvP8_jstringE",
   "name" : "int (_JNIEnv *, _jstring *)",
   "parameters" :
   [
    {
     "referenced_type" : "_ZTIP7_JNIEnv"
    },
    {
     "referenced_type" : "_ZTIP8_jstring"
    }
   ],
   "return_type" : "_ZTIi",
   "source_file" : "libnativehelper/include_jni/jni.h"
  },
  {
   "alignment" : 4,
   "linker_set_key" : "_ZTIFiP7_JNIEnvPP7_JavaVME",
   "name" : "int (_JNIEnv *, _JavaVM **)",
   "parameters" :
   [
    {
     "referenced_type" : "_ZTIP7_JNIEnv"
    },
    {
     "referenced_type" : "_ZTIPP7_JavaVM"
    }
   ],
   "return_type" : "_ZTIi",
   "source_file" : "libnativehelper/include_jni/jni.h"
  },
  {
   "alignment" : 4,
   "linker_set_key" : "_ZTIFiP7_JNIEnviE",
   "name" : "int (_JNIEnv *, int)",
   "parameters" :
   [
    {
     "referenced_type" : "_ZTIP7_JNIEnv"
    },
    {
     "referenced_type" : "_ZTIi"
    }
   ],
   "return_type" : "_ZTIi",
   "source_file" : "libnativehelper/include_jni/jni.h"
  },
  {
   "alignment" : 4,
   "linker_set_key" : "_ZTIFiP7_JavaVME",
   "name" : "int (_JavaVM *)",
   "parameters" :
   [
    {
     "referenced_type" : "_ZTIP7_JavaVM"
    }
   ],
   "return_type" : "_ZTIi",
   "source_file" : "libnativehelper/include_jni/jni.h"
  },
  {
   "alignment" : 4,
   "linker_set_key" : "_ZTIFiP7_JavaVMPP7_JNIEnvPvE",
   "name" : "int (_JavaVM *, _JNIEnv **, void *)",
   "parameters" :
   [
    {
     "referenced_type" : "_ZTIP7_JavaVM"
    },
    {
     "referenced_type" : "_ZTIPP7_JNIEnv"
    },
    {
     "referenced_type" : "_ZTIPv"
    }
   ],
   "return_type" : "_ZTIi",
   "source_file" : "libnativehelper/include_jni/jni.h"
  },
  {
   "alignment" : 4,
   "linker_set_key" : "_ZTIFiP7_JavaVMPPviE",
   "name" : "int (_JavaVM *, void **, int)",
   "parameters" :
   [
    {
     "referenced_type" : "_ZTIP7_JavaVM"
    },
    {
     "referenced_type" : "_ZTIPPv"
    },
    {
     "referenced_type" : "_ZTIi"
    }
   ],
   "return_type" : "_ZTIi",
   "source_file" : "libnativehelper/include_jni/jni.h"
  },
  {
   "alignment" : 4,
   "linker_set_key" : "_ZTIFlP7_JNIEnvP7_jclassP10_jmethodIDPK6jvalueE",
   "name" : "long (_JNIEnv *, _jclass *, _jmethodID *, const jvalue *)",
   "parameters" :
   [
    {
     "referenced_type" : "_ZTIP7_JNIEnv"
    },
    {
     "referenced_type" : "_ZTIP7_jclass"
    },
    {
     "referenced_type" : "_ZTIP10_jmethodID"
    },
    {
     "referenced_type" : "_ZTIPK6jvalue"
    }
   ],
   "return_type" : "_ZTIl",
   "source_file" : "libnativehelper/include_jni/jni.h"
  },
  {
   "alignment" : 4,
   "linker_set_key" : "_ZTIFlP7_JNIEnvP7_jclassP10_jmethodIDSt9__va_listE",
   "name" : "long (_JNIEnv *, _jclass *, _jmethodID *, std::__va_list)",
   "parameters" :
   [
    {
     "referenced_type" : "_ZTIP7_JNIEnv"
    },
    {
     "referenced_type" : "_ZTIP7_jclass"
    },
    {
     "referenced_type" : "_ZTIP10_jmethodID"
    },
    {
     "referenced_type" : "_ZTISt9__va_list"
    }
   ],
   "return_type" : "_ZTIl",
   "source_file" : "libnativehelper/include_jni/jni.h"
  },
  {
   "alignment" : 4,
   "linker_set_key" : "_ZTIFlP7_JNIEnvP7_jclassP10_jmethodIDzE",
   "name" : "long (_JNIEnv *, _jclass *, _jmethodID *, ...)",
   "parameters" :
   [
    {
     "referenced_type" : "_ZTIP7_JNIEnv"
    },
    {
     "referenced_type" : "_ZTIP7_jclass"
    },
    {
     "referenced_type" : "_ZTIP10_jmethodID"
    }
   ],
   "return_type" : "_ZTIl",
   "source_file" : "libnativehelper/include_jni/jni.h"
  },
  {
   "alignment" : 4,
   "linker_set_key" : "_ZTIFlP7_JNIEnvP7_jclassP9_jfieldIDE",
   "name" : "long (_JNIEnv *, _jclass *, _jfieldID *)",
   "parameters" :
   [
    {
     "referenced_type" : "_ZTIP7_JNIEnv"
    },
    {
     "referenced_type" : "_ZTIP7_jclass"
    },
    {
     "referenced_type" : "_ZTIP9_jfieldID"
    }
   ],
   "return_type" : "_ZTIl",
   "source_file" : "libnativehelper/include_jni/jni.h"
  },
  {
   "alignment" : 4,
   "linker_set_key" : "_ZTIFlP7_JNIEnvP8_jobjectE",
   "name" : "long (_JNIEnv *, _jobject *)",
   "parameters" :
   [
    {
     "referenced_type" : "_ZTIP7_JNIEnv"
    },
    {
     "referenced_type" : "_ZTIP8_jobject"
    }
   ],
   "return_type" : "_ZTIl",
   "source_file" : "libnativehelper/include_jni/jni.h"
  },
  {
   "alignment" : 4,
   "linker_set_key" : "_ZTIFlP7_JNIEnvP8_jobjectP10_jmethodIDPK6jvalueE",
   "name" : "long (_JNIEnv *, _jobject *, _jmethodID *, const jvalue *)",
   "parameters" :
   [
    {
     "referenced_type" : "_ZTIP7_JNIEnv"
    },
    {
     "referenced_type" : "_ZTIP8_jobject"
    },
    {
     "referenced_type" : "_ZTIP10_jmethodID"
    },
    {
     "referenced_type" : "_ZTIPK6jvalue"
    }
   ],
   "return_type" : "_ZTIl",
   "source_file" : "libnativehelper/include_jni/jni.h"
  },
  {
   "alignment" : 4,
   "linker_set_key" : "_ZTIFlP7_JNIEnvP8_jobjectP10_jmethodIDSt9__va_listE",
   "name" : "long (_JNIEnv *, _jobject *, _jmethodID *, std::__va_list)",
   "parameters" :
   [
    {
     "referenced_type" : "_ZTIP7_JNIEnv"
    },
    {
     "referenced_type" : "_ZTIP8_jobject"
    },
    {
     "referenced_type" : "_ZTIP10_jmethodID"
    },
    {
     "referenced_type" : "_ZTISt9__va_list"
    }
   ],
   "return_type" : "_ZTIl",
   "source_file" : "libnativehelper/include_jni/jni.h"
  },
  {
   "alignment" : 4,
   "linker_set_key" : "_ZTIFlP7_JNIEnvP8_jobjectP10_jmethodIDzE",
   "name" : "long (_JNIEnv *, _jobject *, _jmethodID *, ...)",
   "parameters" :
   [
    {
     "referenced_type" : "_ZTIP7_JNIEnv"
    },
    {
     "referenced_type" : "_ZTIP8_jobject"
    },
    {
     "referenced_type" : "_ZTIP10_jmethodID"
    }
   ],
   "return_type" : "_ZTIl",
   "source_file" : "libnativehelper/include_jni/jni.h"
  },
  {
   "alignment" : 4,
   "linker_set_key" : "_ZTIFlP7_JNIEnvP8_jobjectP7_jclassP10_jmethodIDPK6jvalueE",
   "name" : "long (_JNIEnv *, _jobject *, _jclass *, _jmethodID *, const jvalue *)",
   "parameters" :
   [
    {
     "referenced_type" : "_ZTIP7_JNIEnv"
    },
    {
     "referenced_type" : "_ZTIP8_jobject"
    },
    {
     "referenced_type" : "_ZTIP7_jclass"
    },
    {
     "referenced_type" : "_ZTIP10_jmethodID"
    },
    {
     "referenced_type" : "_ZTIPK6jvalue"
    }
   ],
   "return_type" : "_ZTIl",
   "source_file" : "libnativehelper/include_jni/jni.h"
  },
  {
   "alignment" : 4,
   "linker_set_key" : "_ZTIFlP7_JNIEnvP8_jobjectP7_jclassP10_jmethodIDSt9__va_listE",
   "name" : "long (_JNIEnv *, _jobject *, _jclass *, _jmethodID *, std::__va_list)",
   "parameters" :
   [
    {
     "referenced_type" : "_ZTIP7_JNIEnv"
    },
    {
     "referenced_type" : "_ZTIP8_jobject"
    },
    {
     "referenced_type" : "_ZTIP7_jclass"
    },
    {
     "referenced_type" : "_ZTIP10_jmethodID"
    },
    {
     "referenced_type" : "_ZTISt9__va_list"
    }
   ],
   "return_type" : "_ZTIl",
   "source_file" : "libnativehelper/include_jni/jni.h"
  },
  {
   "alignment" : 4,
   "linker_set_key" : "_ZTIFlP7_JNIEnvP8_jobjectP7_jclassP10_jmethodIDzE",
   "name" : "long (_JNIEnv *, _jobject *, _jclass *, _jmethodID *, ...)",
   "parameters" :
   [
    {
     "referenced_type" : "_ZTIP7_JNIEnv"
    },
    {
     "referenced_type" : "_ZTIP8_jobject"
    },
    {
     "referenced_type" : "_ZTIP7_jclass"
    },
    {
     "referenced_type" : "_ZTIP10_jmethodID"
    }
   ],
   "return_type" : "_ZTIl",
   "source_file" : "libnativehelper/include_jni/jni.h"
  },
  {
   "alignment" : 4,
   "linker_set_key" : "_ZTIFlP7_JNIEnvP8_jobjectP9_jfieldIDE",
   "name" : "long (_JNIEnv *, _jobject *, _jfieldID *)",
   "parameters" :
   [
    {
     "referenced_type" : "_ZTIP7_JNIEnv"
    },
    {
     "referenced_type" : "_ZTIP8_jobject"
    },
    {
     "referenced_type" : "_ZTIP9_jfieldID"
    }
   ],
   "return_type" : "_ZTIl",
   "source_file" : "libnativehelper/include_jni/jni.h"
  },
  {
   "alignment" : 4,
   "linker_set_key" : "_ZTIFlPvS_E",
   "name" : "long (void *, void *)",
   "parameters" :
   [
    {
     "referenced_type" : "_ZTIPv"
    },
    {
     "referenced_type" : "_ZTIPv"
    }
   ],
   "return_type" : "_ZTIl",
   "source_file" : "frameworks/rs/cpp/rsDispatch.h"
  },
  {
   "alignment" : 4,
   "linker_set_key" : "_ZTIFsP7_JNIEnvP7_jclassP10_jmethodIDPK6jvalueE",
   "name" : "short (_JNIEnv *, _jclass *, _jmethodID *, const jvalue *)",
   "parameters" :
   [
    {
     "referenced_type" : "_ZTIP7_JNIEnv"
    },
    {
     "referenced_type" : "_ZTIP7_jclass"
    },
    {
     "referenced_type" : "_ZTIP10_jmethodID"
    },
    {
     "referenced_type" : "_ZTIPK6jvalue"
    }
   ],
   "return_type" : "_ZTIs",
   "source_file" : "libnativehelper/include_jni/jni.h"
  },
  {
   "alignment" : 4,
   "linker_set_key" : "_ZTIFsP7_JNIEnvP7_jclassP10_jmethodIDSt9__va_listE",
   "name" : "short (_JNIEnv *, _jclass *, _jmethodID *, std::__va_list)",
   "parameters" :
   [
    {
     "referenced_type" : "_ZTIP7_JNIEnv"
    },
    {
     "referenced_type" : "_ZTIP7_jclass"
    },
    {
     "referenced_type" : "_ZTIP10_jmethodID"
    },
    {
     "referenced_type" : "_ZTISt9__va_list"
    }
   ],
   "return_type" : "_ZTIs",
   "source_file" : "libnativehelper/include_jni/jni.h"
  },
  {
   "alignment" : 4,
   "linker_set_key" : "_ZTIFsP7_JNIEnvP7_jclassP10_jmethodIDzE",
   "name" : "short (_JNIEnv *, _jclass *, _jmethodID *, ...)",
   "parameters" :
   [
    {
     "referenced_type" : "_ZTIP7_JNIEnv"
    },
    {
     "referenced_type" : "_ZTIP7_jclass"
    },
    {
     "referenced_type" : "_ZTIP10_jmethodID"
    }
   ],
   "return_type" : "_ZTIs",
   "source_file" : "libnativehelper/include_jni/jni.h"
  },
  {
   "alignment" : 4,
   "linker_set_key" : "_ZTIFsP7_JNIEnvP7_jclassP9_jfieldIDE",
   "name" : "short (_JNIEnv *, _jclass *, _jfieldID *)",
   "parameters" :
   [
    {
     "referenced_type" : "_ZTIP7_JNIEnv"
    },
    {
     "referenced_type" : "_ZTIP7_jclass"
    },
    {
     "referenced_type" : "_ZTIP9_jfieldID"
    }
   ],
   "return_type" : "_ZTIs",
   "source_file" : "libnativehelper/include_jni/jni.h"
  },
  {
   "alignment" : 4,
   "linker_set_key" : "_ZTIFsP7_JNIEnvP8_jobjectP10_jmethodIDPK6jvalueE",
   "name" : "short (_JNIEnv *, _jobject *, _jmethodID *, const jvalue *)",
   "parameters" :
   [
    {
     "referenced_type" : "_ZTIP7_JNIEnv"
    },
    {
     "referenced_type" : "_ZTIP8_jobject"
    },
    {
     "referenced_type" : "_ZTIP10_jmethodID"
    },
    {
     "referenced_type" : "_ZTIPK6jvalue"
    }
   ],
   "return_type" : "_ZTIs",
   "source_file" : "libnativehelper/include_jni/jni.h"
  },
  {
   "alignment" : 4,
   "linker_set_key" : "_ZTIFsP7_JNIEnvP8_jobjectP10_jmethodIDSt9__va_listE",
   "name" : "short (_JNIEnv *, _jobject *, _jmethodID *, std::__va_list)",
   "parameters" :
   [
    {
     "referenced_type" : "_ZTIP7_JNIEnv"
    },
    {
     "referenced_type" : "_ZTIP8_jobject"
    },
    {
     "referenced_type" : "_ZTIP10_jmethodID"
    },
    {
     "referenced_type" : "_ZTISt9__va_list"
    }
   ],
   "return_type" : "_ZTIs",
   "source_file" : "libnativehelper/include_jni/jni.h"
  },
  {
   "alignment" : 4,
   "linker_set_key" : "_ZTIFsP7_JNIEnvP8_jobjectP10_jmethodIDzE",
   "name" : "short (_JNIEnv *, _jobject *, _jmethodID *, ...)",
   "parameters" :
   [
    {
     "referenced_type" : "_ZTIP7_JNIEnv"
    },
    {
     "referenced_type" : "_ZTIP8_jobject"
    },
    {
     "referenced_type" : "_ZTIP10_jmethodID"
    }
   ],
   "return_type" : "_ZTIs",
   "source_file" : "libnativehelper/include_jni/jni.h"
  },
  {
   "alignment" : 4,
   "linker_set_key" : "_ZTIFsP7_JNIEnvP8_jobjectP7_jclassP10_jmethodIDPK6jvalueE",
   "name" : "short (_JNIEnv *, _jobject *, _jclass *, _jmethodID *, const jvalue *)",
   "parameters" :
   [
    {
     "referenced_type" : "_ZTIP7_JNIEnv"
    },
    {
     "referenced_type" : "_ZTIP8_jobject"
    },
    {
     "referenced_type" : "_ZTIP7_jclass"
    },
    {
     "referenced_type" : "_ZTIP10_jmethodID"
    },
    {
     "referenced_type" : "_ZTIPK6jvalue"
    }
   ],
   "return_type" : "_ZTIs",
   "source_file" : "libnativehelper/include_jni/jni.h"
  },
  {
   "alignment" : 4,
   "linker_set_key" : "_ZTIFsP7_JNIEnvP8_jobjectP7_jclassP10_jmethodIDSt9__va_listE",
   "name" : "short (_JNIEnv *, _jobject *, _jclass *, _jmethodID *, std::__va_list)",
   "parameters" :
   [
    {
     "referenced_type" : "_ZTIP7_JNIEnv"
    },
    {
     "referenced_type" : "_ZTIP8_jobject"
    },
    {
     "referenced_type" : "_ZTIP7_jclass"
    },
    {
     "referenced_type" : "_ZTIP10_jmethodID"
    },
    {
     "referenced_type" : "_ZTISt9__va_list"
    }
   ],
   "return_type" : "_ZTIs",
   "source_file" : "libnativehelper/include_jni/jni.h"
  },
  {
   "alignment" : 4,
   "linker_set_key" : "_ZTIFsP7_JNIEnvP8_jobjectP7_jclassP10_jmethodIDzE",
   "name" : "short (_JNIEnv *, _jobject *, _jclass *, _jmethodID *, ...)",
   "parameters" :
   [
    {
     "referenced_type" : "_ZTIP7_JNIEnv"
    },
    {
     "referenced_type" : "_ZTIP8_jobject"
    },
    {
     "referenced_type" : "_ZTIP7_jclass"
    },
    {
     "referenced_type" : "_ZTIP10_jmethodID"
    }
   ],
   "return_type" : "_ZTIs",
   "source_file" : "libnativehelper/include_jni/jni.h"
  },
  {
   "alignment" : 4,
   "linker_set_key" : "_ZTIFsP7_JNIEnvP8_jobjectP9_jfieldIDE",
   "name" : "short (_JNIEnv *, _jobject *, _jfieldID *)",
   "parameters" :
   [
    {
     "referenced_type" : "_ZTIP7_JNIEnv"
    },
    {
     "referenced_type" : "_ZTIP8_jobject"
    },
    {
     "referenced_type" : "_ZTIP9_jfieldID"
    }
   ],
   "return_type" : "_ZTIs",
   "source_file" : "libnativehelper/include_jni/jni.h"
  },
  {
   "alignment" : 4,
   "linker_set_key" : "_ZTIFtP7_JNIEnvP7_jclassP10_jmethodIDPK6jvalueE",
   "name" : "unsigned short (_JNIEnv *, _jclass *, _jmethodID *, const jvalue *)",
   "parameters" :
   [
    {
     "referenced_type" : "_ZTIP7_JNIEnv"
    },
    {
     "referenced_type" : "_ZTIP7_jclass"
    },
    {
     "referenced_type" : "_ZTIP10_jmethodID"
    },
    {
     "referenced_type" : "_ZTIPK6jvalue"
    }
   ],
   "return_type" : "_ZTIt",
   "source_file" : "libnativehelper/include_jni/jni.h"
  },
  {
   "alignment" : 4,
   "linker_set_key" : "_ZTIFtP7_JNIEnvP7_jclassP10_jmethodIDSt9__va_listE",
   "name" : "unsigned short (_JNIEnv *, _jclass *, _jmethodID *, std::__va_list)",
   "parameters" :
   [
    {
     "referenced_type" : "_ZTIP7_JNIEnv"
    },
    {
     "referenced_type" : "_ZTIP7_jclass"
    },
    {
     "referenced_type" : "_ZTIP10_jmethodID"
    },
    {
     "referenced_type" : "_ZTISt9__va_list"
    }
   ],
   "return_type" : "_ZTIt",
   "source_file" : "libnativehelper/include_jni/jni.h"
  },
  {
   "alignment" : 4,
   "linker_set_key" : "_ZTIFtP7_JNIEnvP7_jclassP10_jmethodIDzE",
   "name" : "unsigned short (_JNIEnv *, _jclass *, _jmethodID *, ...)",
   "parameters" :
   [
    {
     "referenced_type" : "_ZTIP7_JNIEnv"
    },
    {
     "referenced_type" : "_ZTIP7_jclass"
    },
    {
     "referenced_type" : "_ZTIP10_jmethodID"
    }
   ],
   "return_type" : "_ZTIt",
   "source_file" : "libnativehelper/include_jni/jni.h"
  },
  {
   "alignment" : 4,
   "linker_set_key" : "_ZTIFtP7_JNIEnvP7_jclassP9_jfieldIDE",
   "name" : "unsigned short (_JNIEnv *, _jclass *, _jfieldID *)",
   "parameters" :
   [
    {
     "referenced_type" : "_ZTIP7_JNIEnv"
    },
    {
     "referenced_type" : "_ZTIP7_jclass"
    },
    {
     "referenced_type" : "_ZTIP9_jfieldID"
    }
   ],
   "return_type" : "_ZTIt",
   "source_file" : "libnativehelper/include_jni/jni.h"
  },
  {
   "alignment" : 4,
   "linker_set_key" : "_ZTIFtP7_JNIEnvP8_jobjectP10_jmethodIDPK6jvalueE",
   "name" : "unsigned short (_JNIEnv *, _jobject *, _jmethodID *, const jvalue *)",
   "parameters" :
   [
    {
     "referenced_type" : "_ZTIP7_JNIEnv"
    },
    {
     "referenced_type" : "_ZTIP8_jobject"
    },
    {
     "referenced_type" : "_ZTIP10_jmethodID"
    },
    {
     "referenced_type" : "_ZTIPK6jvalue"
    }
   ],
   "return_type" : "_ZTIt",
   "source_file" : "libnativehelper/include_jni/jni.h"
  },
  {
   "alignment" : 4,
   "linker_set_key" : "_ZTIFtP7_JNIEnvP8_jobjectP10_jmethodIDSt9__va_listE",
   "name" : "unsigned short (_JNIEnv *, _jobject *, _jmethodID *, std::__va_list)",
   "parameters" :
   [
    {
     "referenced_type" : "_ZTIP7_JNIEnv"
    },
    {
     "referenced_type" : "_ZTIP8_jobject"
    },
    {
     "referenced_type" : "_ZTIP10_jmethodID"
    },
    {
     "referenced_type" : "_ZTISt9__va_list"
    }
   ],
   "return_type" : "_ZTIt",
   "source_file" : "libnativehelper/include_jni/jni.h"
  },
  {
   "alignment" : 4,
   "linker_set_key" : "_ZTIFtP7_JNIEnvP8_jobjectP10_jmethodIDzE",
   "name" : "unsigned short (_JNIEnv *, _jobject *, _jmethodID *, ...)",
   "parameters" :
   [
    {
     "referenced_type" : "_ZTIP7_JNIEnv"
    },
    {
     "referenced_type" : "_ZTIP8_jobject"
    },
    {
     "referenced_type" : "_ZTIP10_jmethodID"
    }
   ],
   "return_type" : "_ZTIt",
   "source_file" : "libnativehelper/include_jni/jni.h"
  },
  {
   "alignment" : 4,
   "linker_set_key" : "_ZTIFtP7_JNIEnvP8_jobjectP7_jclassP10_jmethodIDPK6jvalueE",
   "name" : "unsigned short (_JNIEnv *, _jobject *, _jclass *, _jmethodID *, const jvalue *)",
   "parameters" :
   [
    {
     "referenced_type" : "_ZTIP7_JNIEnv"
    },
    {
     "referenced_type" : "_ZTIP8_jobject"
    },
    {
     "referenced_type" : "_ZTIP7_jclass"
    },
    {
     "referenced_type" : "_ZTIP10_jmethodID"
    },
    {
     "referenced_type" : "_ZTIPK6jvalue"
    }
   ],
   "return_type" : "_ZTIt",
   "source_file" : "libnativehelper/include_jni/jni.h"
  },
  {
   "alignment" : 4,
   "linker_set_key" : "_ZTIFtP7_JNIEnvP8_jobjectP7_jclassP10_jmethodIDSt9__va_listE",
   "name" : "unsigned short (_JNIEnv *, _jobject *, _jclass *, _jmethodID *, std::__va_list)",
   "parameters" :
   [
    {
     "referenced_type" : "_ZTIP7_JNIEnv"
    },
    {
     "referenced_type" : "_ZTIP8_jobject"
    },
    {
     "referenced_type" : "_ZTIP7_jclass"
    },
    {
     "referenced_type" : "_ZTIP10_jmethodID"
    },
    {
     "referenced_type" : "_ZTISt9__va_list"
    }
   ],
   "return_type" : "_ZTIt",
   "source_file" : "libnativehelper/include_jni/jni.h"
  },
  {
   "alignment" : 4,
   "linker_set_key" : "_ZTIFtP7_JNIEnvP8_jobjectP7_jclassP10_jmethodIDzE",
   "name" : "unsigned short (_JNIEnv *, _jobject *, _jclass *, _jmethodID *, ...)",
   "parameters" :
   [
    {
     "referenced_type" : "_ZTIP7_JNIEnv"
    },
    {
     "referenced_type" : "_ZTIP8_jobject"
    },
    {
     "referenced_type" : "_ZTIP7_jclass"
    },
    {
     "referenced_type" : "_ZTIP10_jmethodID"
    }
   ],
   "return_type" : "_ZTIt",
   "source_file" : "libnativehelper/include_jni/jni.h"
  },
  {
   "alignment" : 4,
   "linker_set_key" : "_ZTIFtP7_JNIEnvP8_jobjectP9_jfieldIDE",
   "name" : "unsigned short (_JNIEnv *, _jobject *, _jfieldID *)",
   "parameters" :
   [
    {
     "referenced_type" : "_ZTIP7_JNIEnv"
    },
    {
     "referenced_type" : "_ZTIP8_jobject"
    },
    {
     "referenced_type" : "_ZTIP9_jfieldID"
    }
   ],
   "return_type" : "_ZTIt",
   "source_file" : "libnativehelper/include_jni/jni.h"
  },
  {
   "alignment" : 4,
   "linker_set_key" : "_ZTIFv6sigvalE",
   "name" : "void (sigval)",
   "parameters" :
   [
    {
     "referenced_type" : "_ZTI6sigval"
    }
   ],
   "return_type" : "_ZTIv",
   "source_file" : "bionic/libc/kernel/uapi/asm-generic/siginfo.h"
  },
  {
   "alignment" : 4,
   "linker_set_key" : "_ZTIFvN7android8hardware12renderscript4V1_019MessageToClientTypeEmE",
   "name" : "void (android::hardware::renderscript::V1_0::MessageToClientType, unsigned long)",
   "parameters" :
   [
    {
     "referenced_type" : "_ZTIN7android8hardware12renderscript4V1_019MessageToClientTypeE"
    },
    {
     "referenced_type" : "_ZTIm"
    }
   ],
   "return_type" : "_ZTIv",
   "source_file" : "external/libcxx/include/functional"
  },
  {
   "alignment" : 4,
   "linker_set_key" : "_ZTIFvN7android8hardware12renderscript4V1_019MessageToClientTypeEmjE",
   "name" : "void (android::hardware::renderscript::V1_0::MessageToClientType, unsigned long, unsigned int)",
   "parameters" :
   [
    {
     "referenced_type" : "_ZTIN7android8hardware12renderscript4V1_019MessageToClientTypeE"
    },
    {
     "referenced_type" : "_ZTIm"
    },
    {
     "referenced_type" : "_ZTIj"
    }
   ],
   "return_type" : "_ZTIv",
   "source_file" : "external/libcxx/include/functional"
  },
  {
   "alignment" : 4,
   "linker_set_key" : "_ZTIFvNSt3__18ios_base5eventERS0_iE",
   "name" : "void (std::ios_base::event, std::ios_base &, int)",
   "parameters" :
   [
    {
     "referenced_type" : "_ZTINSt3__18ios_base5eventE"
    },
    {
     "referenced_type" : "_ZTIRNSt3__18ios_baseE"
    },
    {
     "referenced_type" : "_ZTIi"
    }
   ],
   "return_type" : "_ZTIv",
   "source_file" : "external/libcxx/include/ios"
  },
  {
   "alignment" : 4,
   "linker_set_key" : "_ZTIFvP7_JNIEnvE",
   "name" : "void (_JNIEnv *)",
   "parameters" :
   [
    {
     "referenced_type" : "_ZTIP7_JNIEnv"
    }
   ],
   "return_type" : "_ZTIv",
   "source_file" : "libnativehelper/include_jni/jni.h"
  },
  {
   "alignment" : 4,
   "linker_set_key" : "_ZTIFvP7_JNIEnvP10_jintArrayPiiE",
   "name" : "void (_JNIEnv *, _jintArray *, int *, int)",
   "parameters" :
   [
    {
     "referenced_type" : "_ZTIP7_JNIEnv"
    },
    {
     "referenced_type" : "_ZTIP10_jintArray"
    },
    {
     "referenced_type" : "_ZTIPi"
    },
    {
     "referenced_type" : "_ZTIi"
    }
   ],
   "return_type" : "_ZTIv",
   "source_file" : "libnativehelper/include_jni/jni.h"
  },
  {
   "alignment" : 4,
   "linker_set_key" : "_ZTIFvP7_JNIEnvP10_jintArrayiiPKiE",
   "name" : "void (_JNIEnv *, _jintArray *, int, int, const int *)",
   "parameters" :
   [
    {
     "referenced_type" : "_ZTIP7_JNIEnv"
    },
    {
     "referenced_type" : "_ZTIP10_jintArray"
    },
    {
     "referenced_type" : "_ZTIi"
    },
    {
     "referenced_type" : "_ZTIi"
    },
    {
     "referenced_type" : "_ZTIPKi"
    }
   ],
   "return_type" : "_ZTIv",
   "source_file" : "libnativehelper/include_jni/jni.h"
  },
  {
   "alignment" : 4,
   "linker_set_key" : "_ZTIFvP7_JNIEnvP10_jintArrayiiPiE",
   "name" : "void (_JNIEnv *, _jintArray *, int, int, int *)",
   "parameters" :
   [
    {
     "referenced_type" : "_ZTIP7_JNIEnv"
    },
    {
     "referenced_type" : "_ZTIP10_jintArray"
    },
    {
     "referenced_type" : "_ZTIi"
    },
    {
     "referenced_type" : "_ZTIi"
    },
    {
     "referenced_type" : "_ZTIPi"
    }
   ],
   "return_type" : "_ZTIv",
   "source_file" : "libnativehelper/include_jni/jni.h"
  },
  {
   "alignment" : 4,
   "linker_set_key" : "_ZTIFvP7_JNIEnvP11_jbyteArrayPaiE",
   "name" : "void (_JNIEnv *, _jbyteArray *, signed char *, int)",
   "parameters" :
   [
    {
     "referenced_type" : "_ZTIP7_JNIEnv"
    },
    {
     "referenced_type" : "_ZTIP11_jbyteArray"
    },
    {
     "referenced_type" : "_ZTIPa"
    },
    {
     "referenced_type" : "_ZTIi"
    }
   ],
   "return_type" : "_ZTIv",
   "source_file" : "libnativehelper/include_jni/jni.h"
  },
  {
   "alignment" : 4,
   "linker_set_key" : "_ZTIFvP7_JNIEnvP11_jbyteArrayiiPKaE",
   "name" : "void (_JNIEnv *, _jbyteArray *, int, int, const signed char *)",
   "parameters" :
   [
    {
     "referenced_type" : "_ZTIP7_JNIEnv"
    },
    {
     "referenced_type" : "_ZTIP11_jbyteArray"
    },
    {
     "referenced_type" : "_ZTIi"
    },
    {
     "referenced_type" : "_ZTIi"
    },
    {
     "referenced_type" : "_ZTIPKa"
    }
   ],
   "return_type" : "_ZTIv",
   "source_file" : "libnativehelper/include_jni/jni.h"
  },
  {
   "alignment" : 4,
   "linker_set_key" : "_ZTIFvP7_JNIEnvP11_jbyteArrayiiPaE",
   "name" : "void (_JNIEnv *, _jbyteArray *, int, int, signed char *)",
   "parameters" :
   [
    {
     "referenced_type" : "_ZTIP7_JNIEnv"
    },
    {
     "referenced_type" : "_ZTIP11_jbyteArray"
    },
    {
     "referenced_type" : "_ZTIi"
    },
    {
     "referenced_type" : "_ZTIi"
    },
    {
     "referenced_type" : "_ZTIPa"
    }
   ],
   "return_type" : "_ZTIv",
   "source_file" : "libnativehelper/include_jni/jni.h"
  },
  {
   "alignment" : 4,
   "linker_set_key" : "_ZTIFvP7_JNIEnvP11_jcharArrayPtiE",
   "name" : "void (_JNIEnv *, _jcharArray *, unsigned short *, int)",
   "parameters" :
   [
    {
     "referenced_type" : "_ZTIP7_JNIEnv"
    },
    {
     "referenced_type" : "_ZTIP11_jcharArray"
    },
    {
     "referenced_type" : "_ZTIPt"
    },
    {
     "referenced_type" : "_ZTIi"
    }
   ],
   "return_type" : "_ZTIv",
   "source_file" : "libnativehelper/include_jni/jni.h"
  },
  {
   "alignment" : 4,
   "linker_set_key" : "_ZTIFvP7_JNIEnvP11_jcharArrayiiPKtE",
   "name" : "void (_JNIEnv *, _jcharArray *, int, int, const unsigned short *)",
   "parameters" :
   [
    {
     "referenced_type" : "_ZTIP7_JNIEnv"
    },
    {
     "referenced_type" : "_ZTIP11_jcharArray"
    },
    {
     "referenced_type" : "_ZTIi"
    },
    {
     "referenced_type" : "_ZTIi"
    },
    {
     "referenced_type" : "_ZTIPKt"
    }
   ],
   "return_type" : "_ZTIv",
   "source_file" : "libnativehelper/include_jni/jni.h"
  },
  {
   "alignment" : 4,
   "linker_set_key" : "_ZTIFvP7_JNIEnvP11_jcharArrayiiPtE",
   "name" : "void (_JNIEnv *, _jcharArray *, int, int, unsigned short *)",
   "parameters" :
   [
    {
     "referenced_type" : "_ZTIP7_JNIEnv"
    },
    {
     "referenced_type" : "_ZTIP11_jcharArray"
    },
    {
     "referenced_type" : "_ZTIi"
    },
    {
     "referenced_type" : "_ZTIi"
    },
    {
     "referenced_type" : "_ZTIPt"
    }
   ],
   "return_type" : "_ZTIv",
   "source_file" : "libnativehelper/include_jni/jni.h"
  },
  {
   "alignment" : 4,
   "linker_set_key" : "_ZTIFvP7_JNIEnvP11_jlongArrayPliE",
   "name" : "void (_JNIEnv *, _jlongArray *, long *, int)",
   "parameters" :
   [
    {
     "referenced_type" : "_ZTIP7_JNIEnv"
    },
    {
     "referenced_type" : "_ZTIP11_jlongArray"
    },
    {
     "referenced_type" : "_ZTIPl"
    },
    {
     "referenced_type" : "_ZTIi"
    }
   ],
   "return_type" : "_ZTIv",
   "source_file" : "libnativehelper/include_jni/jni.h"
  },
  {
   "alignment" : 4,
   "linker_set_key" : "_ZTIFvP7_JNIEnvP11_jlongArrayiiPKlE",
   "name" : "void (_JNIEnv *, _jlongArray *, int, int, const long *)",
   "parameters" :
   [
    {
     "referenced_type" : "_ZTIP7_JNIEnv"
    },
    {
     "referenced_type" : "_ZTIP11_jlongArray"
    },
    {
     "referenced_type" : "_ZTIi"
    },
    {
     "referenced_type" : "_ZTIi"
    },
    {
     "referenced_type" : "_ZTIPKl"
    }
   ],
   "return_type" : "_ZTIv",
   "source_file" : "libnativehelper/include_jni/jni.h"
  },
  {
   "alignment" : 4,
   "linker_set_key" : "_ZTIFvP7_JNIEnvP11_jlongArrayiiPlE",
   "name" : "void (_JNIEnv *, _jlongArray *, int, int, long *)",
   "parameters" :
   [
    {
     "referenced_type" : "_ZTIP7_JNIEnv"
    },
    {
     "referenced_type" : "_ZTIP11_jlongArray"
    },
    {
     "referenced_type" : "_ZTIi"
    },
    {
     "referenced_type" : "_ZTIi"
    },
    {
     "referenced_type" : "_ZTIPl"
    }
   ],
   "return_type" : "_ZTIv",
   "source_file" : "libnativehelper/include_jni/jni.h"
  },
  {
   "alignment" : 4,
   "linker_set_key" : "_ZTIFvP7_JNIEnvP12_jfloatArrayPfiE",
   "name" : "void (_JNIEnv *, _jfloatArray *, float *, int)",
   "parameters" :
   [
    {
     "referenced_type" : "_ZTIP7_JNIEnv"
    },
    {
     "referenced_type" : "_ZTIP12_jfloatArray"
    },
    {
     "referenced_type" : "_ZTIPf"
    },
    {
     "referenced_type" : "_ZTIi"
    }
   ],
   "return_type" : "_ZTIv",
   "source_file" : "libnativehelper/include_jni/jni.h"
  },
  {
   "alignment" : 4,
   "linker_set_key" : "_ZTIFvP7_JNIEnvP12_jfloatArrayiiPKfE",
   "name" : "void (_JNIEnv *, _jfloatArray *, int, int, const float *)",
   "parameters" :
   [
    {
     "referenced_type" : "_ZTIP7_JNIEnv"
    },
    {
     "referenced_type" : "_ZTIP12_jfloatArray"
    },
    {
     "referenced_type" : "_ZTIi"
    },
    {
     "referenced_type" : "_ZTIi"
    },
    {
     "referenced_type" : "_ZTIPKf"
    }
   ],
   "return_type" : "_ZTIv",
   "source_file" : "libnativehelper/include_jni/jni.h"
  },
  {
   "alignment" : 4,
   "linker_set_key" : "_ZTIFvP7_JNIEnvP12_jfloatArrayiiPfE",
   "name" : "void (_JNIEnv *, _jfloatArray *, int, int, float *)",
   "parameters" :
   [
    {
     "referenced_type" : "_ZTIP7_JNIEnv"
    },
    {
     "referenced_type" : "_ZTIP12_jfloatArray"
    },
    {
     "referenced_type" : "_ZTIi"
    },
    {
     "referenced_type" : "_ZTIi"
    },
    {
     "referenced_type" : "_ZTIPf"
    }
   ],
   "return_type" : "_ZTIv",
   "source_file" : "libnativehelper/include_jni/jni.h"
  },
  {
   "alignment" : 4,
   "linker_set_key" : "_ZTIFvP7_JNIEnvP12_jshortArrayPsiE",
   "name" : "void (_JNIEnv *, _jshortArray *, short *, int)",
   "parameters" :
   [
    {
     "referenced_type" : "_ZTIP7_JNIEnv"
    },
    {
     "referenced_type" : "_ZTIP12_jshortArray"
    },
    {
     "referenced_type" : "_ZTIPs"
    },
    {
     "referenced_type" : "_ZTIi"
    }
   ],
   "return_type" : "_ZTIv",
   "source_file" : "libnativehelper/include_jni/jni.h"
  },
  {
   "alignment" : 4,
   "linker_set_key" : "_ZTIFvP7_JNIEnvP12_jshortArrayiiPKsE",
   "name" : "void (_JNIEnv *, _jshortArray *, int, int, const short *)",
   "parameters" :
   [
    {
     "referenced_type" : "_ZTIP7_JNIEnv"
    },
    {
     "referenced_type" : "_ZTIP12_jshortArray"
    },
    {
     "referenced_type" : "_ZTIi"
    },
    {
     "referenced_type" : "_ZTIi"
    },
    {
     "referenced_type" : "_ZTIPKs"
    }
   ],
   "return_type" : "_ZTIv",
   "source_file" : "libnativehelper/include_jni/jni.h"
  },
  {
   "alignment" : 4,
   "linker_set_key" : "_ZTIFvP7_JNIEnvP12_jshortArrayiiPsE",
   "name" : "void (_JNIEnv *, _jshortArray *, int, int, short *)",
   "parameters" :
   [
    {
     "referenced_type" : "_ZTIP7_JNIEnv"
    },
    {
     "referenced_type" : "_ZTIP12_jshortArray"
    },
    {
     "referenced_type" : "_ZTIi"
    },
    {
     "referenced_type" : "_ZTIi"
    },
    {
     "referenced_type" : "_ZTIPs"
    }
   ],
   "return_type" : "_ZTIv",
   "source_file" : "libnativehelper/include_jni/jni.h"
  },
  {
   "alignment" : 4,
   "linker_set_key" : "_ZTIFvP7_JNIEnvP13_jdoubleArrayPdiE",
   "name" : "void (_JNIEnv *, _jdoubleArray *, double *, int)",
   "parameters" :
   [
    {
     "referenced_type" : "_ZTIP7_JNIEnv"
    },
    {
     "referenced_type" : "_ZTIP13_jdoubleArray"
    },
    {
     "referenced_type" : "_ZTIPd"
    },
    {
     "referenced_type" : "_ZTIi"
    }
   ],
   "return_type" : "_ZTIv",
   "source_file" : "libnativehelper/include_jni/jni.h"
  },
  {
   "alignment" : 4,
   "linker_set_key" : "_ZTIFvP7_JNIEnvP13_jdoubleArrayiiPKdE",
   "name" : "void (_JNIEnv *, _jdoubleArray *, int, int, const double *)",
   "parameters" :
   [
    {
     "referenced_type" : "_ZTIP7_JNIEnv"
    },
    {
     "referenced_type" : "_ZTIP13_jdoubleArray"
    },
    {
     "referenced_type" : "_ZTIi"
    },
    {
     "referenced_type" : "_ZTIi"
    },
    {
     "referenced_type" : "_ZTIPKd"
    }
   ],
   "return_type" : "_ZTIv",
   "source_file" : "libnativehelper/include_jni/jni.h"
  },
  {
   "alignment" : 4,
   "linker_set_key" : "_ZTIFvP7_JNIEnvP13_jdoubleArrayiiPdE",
   "name" : "void (_JNIEnv *, _jdoubleArray *, int, int, double *)",
   "parameters" :
   [
    {
     "referenced_type" : "_ZTIP7_JNIEnv"
    },
    {
     "referenced_type" : "_ZTIP13_jdoubleArray"
    },
    {
     "referenced_type" : "_ZTIi"
    },
    {
     "referenced_type" : "_ZTIi"
    },
    {
     "referenced_type" : "_ZTIPd"
    }
   ],
   "return_type" : "_ZTIv",
   "source_file" : "libnativehelper/include_jni/jni.h"
  },
  {
   "alignment" : 4,
   "linker_set_key" : "_ZTIFvP7_JNIEnvP13_jobjectArrayiP8_jobjectE",
   "name" : "void (_JNIEnv *, _jobjectArray *, int, _jobject *)",
   "parameters" :
   [
    {
     "referenced_type" : "_ZTIP7_JNIEnv"
    },
    {
     "referenced_type" : "_ZTIP13_jobjectArray"
    },
    {
     "referenced_type" : "_ZTIi"
    },
    {
     "referenced_type" : "_ZTIP8_jobject"
    }
   ],
   "return_type" : "_ZTIv",
   "source_file" : "libnativehelper/include_jni/jni.h"
  },
  {
   "alignment" : 4,
   "linker_set_key" : "_ZTIFvP7_JNIEnvP14_jbooleanArrayPhiE",
   "name" : "void (_JNIEnv *, _jbooleanArray *, unsigned char *, int)",
   "parameters" :
   [
    {
     "referenced_type" : "_ZTIP7_JNIEnv"
    },
    {
     "referenced_type" : "_ZTIP14_jbooleanArray"
    },
    {
     "referenced_type" : "_ZTIPh"
    },
    {
     "referenced_type" : "_ZTIi"
    }
   ],
   "return_type" : "_ZTIv",
   "source_file" : "libnativehelper/include_jni/jni.h"
  },
  {
   "alignment" : 4,
   "linker_set_key" : "_ZTIFvP7_JNIEnvP14_jbooleanArrayiiPKhE",
   "name" : "void (_JNIEnv *, _jbooleanArray *, int, int, const unsigned char *)",
   "parameters" :
   [
    {
     "referenced_type" : "_ZTIP7_JNIEnv"
    },
    {
     "referenced_type" : "_ZTIP14_jbooleanArray"
    },
    {
     "referenced_type" : "_ZTIi"
    },
    {
     "referenced_type" : "_ZTIi"
    },
    {
     "referenced_type" : "_ZTIPKh"
    }
   ],
   "return_type" : "_ZTIv",
   "source_file" : "libnativehelper/include_jni/jni.h"
  },
  {
   "alignment" : 4,
   "linker_set_key" : "_ZTIFvP7_JNIEnvP14_jbooleanArrayiiPhE",
   "name" : "void (_JNIEnv *, _jbooleanArray *, int, int, unsigned char *)",
   "parameters" :
   [
    {
     "referenced_type" : "_ZTIP7_JNIEnv"
    },
    {
     "referenced_type" : "_ZTIP14_jbooleanArray"
    },
    {
     "referenced_type" : "_ZTIi"
    },
    {
     "referenced_type" : "_ZTIi"
    },
    {
     "referenced_type" : "_ZTIPh"
    }
   ],
   "return_type" : "_ZTIv",
   "source_file" : "libnativehelper/include_jni/jni.h"
  },
  {
   "alignment" : 4,
   "linker_set_key" : "_ZTIFvP7_JNIEnvP7_jarrayPviE",
   "name" : "void (_JNIEnv *, _jarray *, void *, int)",
   "parameters" :
   [
    {
     "referenced_type" : "_ZTIP7_JNIEnv"
    },
    {
     "referenced_type" : "_ZTIP7_jarray"
    },
    {
     "referenced_type" : "_ZTIPv"
    },
    {
     "referenced_type" : "_ZTIi"
    }
   ],
   "return_type" : "_ZTIv",
   "source_file" : "libnativehelper/include_jni/jni.h"
  },
  {
   "alignment" : 4,
   "linker_set_key" : "_ZTIFvP7_JNIEnvP7_jclassP10_jmethodIDPK6jvalueE",
   "name" : "void (_JNIEnv *, _jclass *, _jmethodID *, const jvalue *)",
   "parameters" :
   [
    {
     "referenced_type" : "_ZTIP7_JNIEnv"
    },
    {
     "referenced_type" : "_ZTIP7_jclass"
    },
    {
     "referenced_type" : "_ZTIP10_jmethodID"
    },
    {
     "referenced_type" : "_ZTIPK6jvalue"
    }
   ],
   "return_type" : "_ZTIv",
   "source_file" : "libnativehelper/include_jni/jni.h"
  },
  {
   "alignment" : 4,
   "linker_set_key" : "_ZTIFvP7_JNIEnvP7_jclassP10_jmethodIDSt9__va_listE",
   "name" : "void (_JNIEnv *, _jclass *, _jmethodID *, std::__va_list)",
   "parameters" :
   [
    {
     "referenced_type" : "_ZTIP7_JNIEnv"
    },
    {
     "referenced_type" : "_ZTIP7_jclass"
    },
    {
     "referenced_type" : "_ZTIP10_jmethodID"
    },
    {
     "referenced_type" : "_ZTISt9__va_list"
    }
   ],
   "return_type" : "_ZTIv",
   "source_file" : "libnativehelper/include_jni/jni.h"
  },
  {
   "alignment" : 4,
   "linker_set_key" : "_ZTIFvP7_JNIEnvP7_jclassP10_jmethodIDzE",
   "name" : "void (_JNIEnv *, _jclass *, _jmethodID *, ...)",
   "parameters" :
   [
    {
     "referenced_type" : "_ZTIP7_JNIEnv"
    },
    {
     "referenced_type" : "_ZTIP7_jclass"
    },
    {
     "referenced_type" : "_ZTIP10_jmethodID"
    }
   ],
   "return_type" : "_ZTIv",
   "source_file" : "libnativehelper/include_jni/jni.h"
  },
  {
   "alignment" : 4,
   "linker_set_key" : "_ZTIFvP7_JNIEnvP7_jclassP9_jfieldIDP8_jobjectE",
   "name" : "void (_JNIEnv *, _jclass *, _jfieldID *, _jobject *)",
   "parameters" :
   [
    {
     "referenced_type" : "_ZTIP7_JNIEnv"
    },
    {
     "referenced_type" : "_ZTIP7_jclass"
    },
    {
     "referenced_type" : "_ZTIP9_jfieldID"
    },
    {
     "referenced_type" : "_ZTIP8_jobject"
    }
   ],
   "return_type" : "_ZTIv",
   "source_file" : "libnativehelper/include_jni/jni.h"
  },
  {
   "alignment" : 4,
   "linker_set_key" : "_ZTIFvP7_JNIEnvP7_jclassP9_jfieldIDaE",
   "name" : "void (_JNIEnv *, _jclass *, _jfieldID *, signed char)",
   "parameters" :
   [
    {
     "referenced_type" : "_ZTIP7_JNIEnv"
    },
    {
     "referenced_type" : "_ZTIP7_jclass"
    },
    {
     "referenced_type" : "_ZTIP9_jfieldID"
    },
    {
     "referenced_type" : "_ZTIa"
    }
   ],
   "return_type" : "_ZTIv",
   "source_file" : "libnativehelper/include_jni/jni.h"
  },
  {
   "alignment" : 4,
   "linker_set_key" : "_ZTIFvP7_JNIEnvP7_jclassP9_jfieldIDdE",
   "name" : "void (_JNIEnv *, _jclass *, _jfieldID *, double)",
   "parameters" :
   [
    {
     "referenced_type" : "_ZTIP7_JNIEnv"
    },
    {
     "referenced_type" : "_ZTIP7_jclass"
    },
    {
     "referenced_type" : "_ZTIP9_jfieldID"
    },
    {
     "referenced_type" : "_ZTId"
    }
   ],
   "return_type" : "_ZTIv",
   "source_file" : "libnativehelper/include_jni/jni.h"
  },
  {
   "alignment" : 4,
   "linker_set_key" : "_ZTIFvP7_JNIEnvP7_jclassP9_jfieldIDfE",
   "name" : "void (_JNIEnv *, _jclass *, _jfieldID *, float)",
   "parameters" :
   [
    {
     "referenced_type" : "_ZTIP7_JNIEnv"
    },
    {
     "referenced_type" : "_ZTIP7_jclass"
    },
    {
     "referenced_type" : "_ZTIP9_jfieldID"
    },
    {
     "referenced_type" : "_ZTIf"
    }
   ],
   "return_type" : "_ZTIv",
   "source_file" : "libnativehelper/include_jni/jni.h"
  },
  {
   "alignment" : 4,
   "linker_set_key" : "_ZTIFvP7_JNIEnvP7_jclassP9_jfieldIDhE",
   "name" : "void (_JNIEnv *, _jclass *, _jfieldID *, unsigned char)",
   "parameters" :
   [
    {
     "referenced_type" : "_ZTIP7_JNIEnv"
    },
    {
     "referenced_type" : "_ZTIP7_jclass"
    },
    {
     "referenced_type" : "_ZTIP9_jfieldID"
    },
    {
     "referenced_type" : "_ZTIh"
    }
   ],
   "return_type" : "_ZTIv",
   "source_file" : "libnativehelper/include_jni/jni.h"
  },
  {
   "alignment" : 4,
   "linker_set_key" : "_ZTIFvP7_JNIEnvP7_jclassP9_jfieldIDiE",
   "name" : "void (_JNIEnv *, _jclass *, _jfieldID *, int)",
   "parameters" :
   [
    {
     "referenced_type" : "_ZTIP7_JNIEnv"
    },
    {
     "referenced_type" : "_ZTIP7_jclass"
    },
    {
     "referenced_type" : "_ZTIP9_jfieldID"
    },
    {
     "referenced_type" : "_ZTIi"
    }
   ],
   "return_type" : "_ZTIv",
   "source_file" : "libnativehelper/include_jni/jni.h"
  },
  {
   "alignment" : 4,
   "linker_set_key" : "_ZTIFvP7_JNIEnvP7_jclassP9_jfieldIDlE",
   "name" : "void (_JNIEnv *, _jclass *, _jfieldID *, long)",
   "parameters" :
   [
    {
     "referenced_type" : "_ZTIP7_JNIEnv"
    },
    {
     "referenced_type" : "_ZTIP7_jclass"
    },
    {
     "referenced_type" : "_ZTIP9_jfieldID"
    },
    {
     "referenced_type" : "_ZTIl"
    }
   ],
   "return_type" : "_ZTIv",
   "source_file" : "libnativehelper/include_jni/jni.h"
  },
  {
   "alignment" : 4,
   "linker_set_key" : "_ZTIFvP7_JNIEnvP7_jclassP9_jfieldIDsE",
   "name" : "void (_JNIEnv *, _jclass *, _jfieldID *, short)",
   "parameters" :
   [
    {
     "referenced_type" : "_ZTIP7_JNIEnv"
    },
    {
     "referenced_type" : "_ZTIP7_jclass"
    },
    {
     "referenced_type" : "_ZTIP9_jfieldID"
    },
    {
     "referenced_type" : "_ZTIs"
    }
   ],
   "return_type" : "_ZTIv",
   "source_file" : "libnativehelper/include_jni/jni.h"
  },
  {
   "alignment" : 4,
   "linker_set_key" : "_ZTIFvP7_JNIEnvP7_jclassP9_jfieldIDtE",
   "name" : "void (_JNIEnv *, _jclass *, _jfieldID *, unsigned short)",
   "parameters" :
   [
    {
     "referenced_type" : "_ZTIP7_JNIEnv"
    },
    {
     "referenced_type" : "_ZTIP7_jclass"
    },
    {
     "referenced_type" : "_ZTIP9_jfieldID"
    },
    {
     "referenced_type" : "_ZTIt"
    }
   ],
   "return_type" : "_ZTIv",
   "source_file" : "libnativehelper/include_jni/jni.h"
  },
  {
   "alignment" : 4,
   "linker_set_key" : "_ZTIFvP7_JNIEnvP8_jobjectE",
   "name" : "void (_JNIEnv *, _jobject *)",
   "parameters" :
   [
    {
     "referenced_type" : "_ZTIP7_JNIEnv"
    },
    {
     "referenced_type" : "_ZTIP8_jobject"
    }
   ],
   "return_type" : "_ZTIv",
   "source_file" : "libnativehelper/include_jni/jni.h"
  },
  {
   "alignment" : 4,
   "linker_set_key" : "_ZTIFvP7_JNIEnvP8_jobjectP10_jmethodIDPK6jvalueE",
   "name" : "void (_JNIEnv *, _jobject *, _jmethodID *, const jvalue *)",
   "parameters" :
   [
    {
     "referenced_type" : "_ZTIP7_JNIEnv"
    },
    {
     "referenced_type" : "_ZTIP8_jobject"
    },
    {
     "referenced_type" : "_ZTIP10_jmethodID"
    },
    {
     "referenced_type" : "_ZTIPK6jvalue"
    }
   ],
   "return_type" : "_ZTIv",
   "source_file" : "libnativehelper/include_jni/jni.h"
  },
  {
   "alignment" : 4,
   "linker_set_key" : "_ZTIFvP7_JNIEnvP8_jobjectP10_jmethodIDSt9__va_listE",
   "name" : "void (_JNIEnv *, _jobject *, _jmethodID *, std::__va_list)",
   "parameters" :
   [
    {
     "referenced_type" : "_ZTIP7_JNIEnv"
    },
    {
     "referenced_type" : "_ZTIP8_jobject"
    },
    {
     "referenced_type" : "_ZTIP10_jmethodID"
    },
    {
     "referenced_type" : "_ZTISt9__va_list"
    }
   ],
   "return_type" : "_ZTIv",
   "source_file" : "libnativehelper/include_jni/jni.h"
  },
  {
   "alignment" : 4,
   "linker_set_key" : "_ZTIFvP7_JNIEnvP8_jobjectP10_jmethodIDzE",
   "name" : "void (_JNIEnv *, _jobject *, _jmethodID *, ...)",
   "parameters" :
   [
    {
     "referenced_type" : "_ZTIP7_JNIEnv"
    },
    {
     "referenced_type" : "_ZTIP8_jobject"
    },
    {
     "referenced_type" : "_ZTIP10_jmethodID"
    }
   ],
   "return_type" : "_ZTIv",
   "source_file" : "libnativehelper/include_jni/jni.h"
  },
  {
   "alignment" : 4,
   "linker_set_key" : "_ZTIFvP7_JNIEnvP8_jobjectP7_jclassP10_jmethodIDPK6jvalueE",
   "name" : "void (_JNIEnv *, _jobject *, _jclass *, _jmethodID *, const jvalue *)",
   "parameters" :
   [
    {
     "referenced_type" : "_ZTIP7_JNIEnv"
    },
    {
     "referenced_type" : "_ZTIP8_jobject"
    },
    {
     "referenced_type" : "_ZTIP7_jclass"
    },
    {
     "referenced_type" : "_ZTIP10_jmethodID"
    },
    {
     "referenced_type" : "_ZTIPK6jvalue"
    }
   ],
   "return_type" : "_ZTIv",
   "source_file" : "libnativehelper/include_jni/jni.h"
  },
  {
   "alignment" : 4,
   "linker_set_key" : "_ZTIFvP7_JNIEnvP8_jobjectP7_jclassP10_jmethodIDSt9__va_listE",
   "name" : "void (_JNIEnv *, _jobject *, _jclass *, _jmethodID *, std::__va_list)",
   "parameters" :
   [
    {
     "referenced_type" : "_ZTIP7_JNIEnv"
    },
    {
     "referenced_type" : "_ZTIP8_jobject"
    },
    {
     "referenced_type" : "_ZTIP7_jclass"
    },
    {
     "referenced_type" : "_ZTIP10_jmethodID"
    },
    {
     "referenced_type" : "_ZTISt9__va_list"
    }
   ],
   "return_type" : "_ZTIv",
   "source_file" : "libnativehelper/include_jni/jni.h"
  },
  {
   "alignment" : 4,
   "linker_set_key" : "_ZTIFvP7_JNIEnvP8_jobjectP7_jclassP10_jmethodIDzE",
   "name" : "void (_JNIEnv *, _jobject *, _jclass *, _jmethodID *, ...)",
   "parameters" :
   [
    {
     "referenced_type" : "_ZTIP7_JNIEnv"
    },
    {
     "referenced_type" : "_ZTIP8_jobject"
    },
    {
     "referenced_type" : "_ZTIP7_jclass"
    },
    {
     "referenced_type" : "_ZTIP10_jmethodID"
    }
   ],
   "return_type" : "_ZTIv",
   "source_file" : "libnativehelper/include_jni/jni.h"
  },
  {
   "alignment" : 4,
   "linker_set_key" : "_ZTIFvP7_JNIEnvP8_jobjectP9_jfieldIDS2_E",
   "name" : "void (_JNIEnv *, _jobject *, _jfieldID *, _jobject *)",
   "parameters" :
   [
    {
     "referenced_type" : "_ZTIP7_JNIEnv"
    },
    {
     "referenced_type" : "_ZTIP8_jobject"
    },
    {
     "referenced_type" : "_ZTIP9_jfieldID"
    },
    {
     "referenced_type" : "_ZTIP8_jobject"
    }
   ],
   "return_type" : "_ZTIv",
   "source_file" : "libnativehelper/include_jni/jni.h"
  },
  {
   "alignment" : 4,
   "linker_set_key" : "_ZTIFvP7_JNIEnvP8_jobjectP9_jfieldIDaE",
   "name" : "void (_JNIEnv *, _jobject *, _jfieldID *, signed char)",
   "parameters" :
   [
    {
     "referenced_type" : "_ZTIP7_JNIEnv"
    },
    {
     "referenced_type" : "_ZTIP8_jobject"
    },
    {
     "referenced_type" : "_ZTIP9_jfieldID"
    },
    {
     "referenced_type" : "_ZTIa"
    }
   ],
   "return_type" : "_ZTIv",
   "source_file" : "libnativehelper/include_jni/jni.h"
  },
  {
   "alignment" : 4,
   "linker_set_key" : "_ZTIFvP7_JNIEnvP8_jobjectP9_jfieldIDdE",
   "name" : "void (_JNIEnv *, _jobject *, _jfieldID *, double)",
   "parameters" :
   [
    {
     "referenced_type" : "_ZTIP7_JNIEnv"
    },
    {
     "referenced_type" : "_ZTIP8_jobject"
    },
    {
     "referenced_type" : "_ZTIP9_jfieldID"
    },
    {
     "referenced_type" : "_ZTId"
    }
   ],
   "return_type" : "_ZTIv",
   "source_file" : "libnativehelper/include_jni/jni.h"
  },
  {
   "alignment" : 4,
   "linker_set_key" : "_ZTIFvP7_JNIEnvP8_jobjectP9_jfieldIDfE",
   "name" : "void (_JNIEnv *, _jobject *, _jfieldID *, float)",
   "parameters" :
   [
    {
     "referenced_type" : "_ZTIP7_JNIEnv"
    },
    {
     "referenced_type" : "_ZTIP8_jobject"
    },
    {
     "referenced_type" : "_ZTIP9_jfieldID"
    },
    {
     "referenced_type" : "_ZTIf"
    }
   ],
   "return_type" : "_ZTIv",
   "source_file" : "libnativehelper/include_jni/jni.h"
  },
  {
   "alignment" : 4,
   "linker_set_key" : "_ZTIFvP7_JNIEnvP8_jobjectP9_jfieldIDhE",
   "name" : "void (_JNIEnv *, _jobject *, _jfieldID *, unsigned char)",
   "parameters" :
   [
    {
     "referenced_type" : "_ZTIP7_JNIEnv"
    },
    {
     "referenced_type" : "_ZTIP8_jobject"
    },
    {
     "referenced_type" : "_ZTIP9_jfieldID"
    },
    {
     "referenced_type" : "_ZTIh"
    }
   ],
   "return_type" : "_ZTIv",
   "source_file" : "libnativehelper/include_jni/jni.h"
  },
  {
   "alignment" : 4,
   "linker_set_key" : "_ZTIFvP7_JNIEnvP8_jobjectP9_jfieldIDiE",
   "name" : "void (_JNIEnv *, _jobject *, _jfieldID *, int)",
   "parameters" :
   [
    {
     "referenced_type" : "_ZTIP7_JNIEnv"
    },
    {
     "referenced_type" : "_ZTIP8_jobject"
    },
    {
     "referenced_type" : "_ZTIP9_jfieldID"
    },
    {
     "referenced_type" : "_ZTIi"
    }
   ],
   "return_type" : "_ZTIv",
   "source_file" : "libnativehelper/include_jni/jni.h"
  },
  {
   "alignment" : 4,
   "linker_set_key" : "_ZTIFvP7_JNIEnvP8_jobjectP9_jfieldIDlE",
   "name" : "void (_JNIEnv *, _jobject *, _jfieldID *, long)",
   "parameters" :
   [
    {
     "referenced_type" : "_ZTIP7_JNIEnv"
    },
    {
     "referenced_type" : "_ZTIP8_jobject"
    },
    {
     "referenced_type" : "_ZTIP9_jfieldID"
    },
    {
     "referenced_type" : "_ZTIl"
    }
   ],
   "return_type" : "_ZTIv",
   "source_file" : "libnativehelper/include_jni/jni.h"
  },
  {
   "alignment" : 4,
   "linker_set_key" : "_ZTIFvP7_JNIEnvP8_jobjectP9_jfieldIDsE",
   "name" : "void (_JNIEnv *, _jobject *, _jfieldID *, short)",
   "parameters" :
   [
    {
     "referenced_type" : "_ZTIP7_JNIEnv"
    },
    {
     "referenced_type" : "_ZTIP8_jobject"
    },
    {
     "referenced_type" : "_ZTIP9_jfieldID"
    },
    {
     "referenced_type" : "_ZTIs"
    }
   ],
   "return_type" : "_ZTIv",
   "source_file" : "libnativehelper/include_jni/jni.h"
  },
  {
   "alignment" : 4,
   "linker_set_key" : "_ZTIFvP7_JNIEnvP8_jobjectP9_jfieldIDtE",
   "name" : "void (_JNIEnv *, _jobject *, _jfieldID *, unsigned short)",
   "parameters" :
   [
    {
     "referenced_type" : "_ZTIP7_JNIEnv"
    },
    {
     "referenced_type" : "_ZTIP8_jobject"
    },
    {
     "referenced_type" : "_ZTIP9_jfieldID"
    },
    {
     "referenced_type" : "_ZTIt"
    }
   ],
   "return_type" : "_ZTIv",
   "source_file" : "libnativehelper/include_jni/jni.h"
  },
  {
   "alignment" : 4,
   "linker_set_key" : "_ZTIFvP7_JNIEnvP8_jobjectPvS3_S3_13dispatchTableE",
   "name" : "void (_JNIEnv *, _jobject *, void *, void *, void *, dispatchTable)",
   "parameters" :
   [
    {
     "referenced_type" : "_ZTIP7_JNIEnv"
    },
    {
     "referenced_type" : "_ZTIP8_jobject"
    },
    {
     "referenced_type" : "_ZTIPv"
    },
    {
     "referenced_type" : "_ZTIPv"
    },
    {
     "referenced_type" : "_ZTIPv"
    },
    {
     "referenced_type" : "_ZTI13dispatchTable"
    }
   ],
   "return_type" : "_ZTIv",
   "source_file" : "frameworks/rs/cpp/rsDispatch.h"
  },
  {
   "alignment" : 4,
   "linker_set_key" : "_ZTIFvP7_JNIEnvP8_jstringPKcE",
   "name" : "void (_JNIEnv *, _jstring *, const char *)",
   "parameters" :
   [
    {
     "referenced_type" : "_ZTIP7_JNIEnv"
    },
    {
     "referenced_type" : "_ZTIP8_jstring"
    },
    {
     "referenced_type" : "_ZTIPKc"
    }
   ],
   "return_type" : "_ZTIv",
   "source_file" : "libnativehelper/include_jni/jni.h"
  },
  {
   "alignment" : 4,
   "linker_set_key" : "_ZTIFvP7_JNIEnvP8_jstringPKtE",
   "name" : "void (_JNIEnv *, _jstring *, const unsigned short *)",
   "parameters" :
   [
    {
     "referenced_type" : "_ZTIP7_JNIEnv"
    },
    {
     "referenced_type" : "_ZTIP8_jstring"
    },
    {
     "referenced_type" : "_ZTIPKt"
    }
   ],
   "return_type" : "_ZTIv",
   "source_file" : "libnativehelper/include_jni/jni.h"
  },
  {
   "alignment" : 4,
   "linker_set_key" : "_ZTIFvP7_JNIEnvP8_jstringiiPcE",
   "name" : "void (_JNIEnv *, _jstring *, int, int, char *)",
   "parameters" :
   [
    {
     "referenced_type" : "_ZTIP7_JNIEnv"
    },
    {
     "referenced_type" : "_ZTIP8_jstring"
    },
    {
     "referenced_type" : "_ZTIi"
    },
    {
     "referenced_type" : "_ZTIi"
    },
    {
     "referenced_type" : "_ZTIPc"
    }
   ],
   "return_type" : "_ZTIv",
   "source_file" : "libnativehelper/include_jni/jni.h"
  },
  {
   "alignment" : 4,
   "linker_set_key" : "_ZTIFvP7_JNIEnvP8_jstringiiPtE",
   "name" : "void (_JNIEnv *, _jstring *, int, int, unsigned short *)",
   "parameters" :
   [
    {
     "referenced_type" : "_ZTIP7_JNIEnv"
    },
    {
     "referenced_type" : "_ZTIP8_jstring"
    },
    {
     "referenced_type" : "_ZTIi"
    },
    {
     "referenced_type" : "_ZTIi"
    },
    {
     "referenced_type" : "_ZTIPt"
    }
   ],
   "return_type" : "_ZTIv",
   "source_file" : "libnativehelper/include_jni/jni.h"
  },
  {
   "alignment" : 4,
   "linker_set_key" : "_ZTIFvP7_JNIEnvPKcE",
   "name" : "void (_JNIEnv *, const char *)",
   "parameters" :
   [
    {
     "referenced_type" : "_ZTIP7_JNIEnv"
    },
    {
     "referenced_type" : "_ZTIPKc"
    }
   ],
   "return_type" : "_ZTIv",
   "source_file" : "libnativehelper/include_jni/jni.h"
  },
  {
   "alignment" : 4,
   "linker_set_key" : "_ZTIFvPv13RsDeviceParamiE",
   "name" : "void (void *, RsDeviceParam, int)",
   "parameters" :
   [
    {
     "referenced_type" : "_ZTIPv"
    },
    {
     "referenced_type" : "_ZTI13RsDeviceParam"
    },
    {
     "referenced_type" : "_ZTIi"
    }
   ],
   "return_type" : "_ZTIv",
   "source_file" : "frameworks/rs/cpp/rsDispatch.h"
  },
  {
   "alignment" : 4,
   "linker_set_key" : "_ZTIFvPvE",
   "name" : "void (void *)",
   "parameters" :
   [
    {
     "referenced_type" : "_ZTIPv"
    }
   ],
   "return_type" : "_ZTIv",
   "source_file" : "external/libcxx/include/type_traits"
  },
  {
   "alignment" : 4,
   "linker_set_key" : "_ZTIFvPvP16RsFileIndexEntryjS_E",
   "name" : "void (void *, RsFileIndexEntry *, unsigned int, void *)",
   "parameters" :
   [
    {
     "referenced_type" : "_ZTIPv"
    },
    {
     "referenced_type" : "_ZTIP16RsFileIndexEntry"
    },
    {
     "referenced_type" : "_ZTIj"
    },
    {
     "referenced_type" : "_ZTIPv"
    }
   ],
   "return_type" : "_ZTIv",
   "source_file" : "frameworks/rs/cpp/rsDispatch.h"
  },
  {
   "alignment" : 4,
   "linker_set_key" : "_ZTIFvPvPKcmE",
   "name" : "void (void *, const char *, unsigned long)",
   "parameters" :
   [
    {
     "referenced_type" : "_ZTIPv"
    },
    {
     "referenced_type" : "_ZTIPKc"
    },
    {
     "referenced_type" : "_ZTIm"
    }
   ],
   "return_type" : "_ZTIv",
   "source_file" : "frameworks/rs/cpp/rsDispatch.h"
  },
  {
   "alignment" : 4,
   "linker_set_key" : "_ZTIFvPvPKvE",
   "name" : "void (void *, const void *)",
   "parameters" :
   [
    {
     "referenced_type" : "_ZTIPv"
    },
    {
     "referenced_type" : "_ZTIPKv"
    }
   ],
   "return_type" : "_ZTIv",
   "source_file" : "bionic/libc/include/malloc.h"
  },
  {
   "alignment" : 4,
   "linker_set_key" : "_ZTIFvPvPiS_E",
   "name" : "void (void *, int *, void *)",
   "parameters" :
   [
    {
     "referenced_type" : "_ZTIPv"
    },
    {
     "referenced_type" : "_ZTIPi"
    },
    {
     "referenced_type" : "_ZTIPv"
    }
   ],
   "return_type" : "_ZTIv",
   "source_file" : "frameworks/rs/cpp/rsDispatch.h"
  },
  {
   "alignment" : 4,
   "linker_set_key" : "_ZTIFvPvS_21RsAllocationUsageTypeE",
   "name" : "void (void *, void *, RsAllocationUsageType)",
   "parameters" :
   [
    {
     "referenced_type" : "_ZTIPv"
    },
    {
     "referenced_type" : "_ZTIPv"
    },
    {
     "referenced_type" : "_ZTI21RsAllocationUsageType"
    }
   ],
   "return_type" : "_ZTIv",
   "source_file" : "frameworks/rs/cpp/rsDispatch.h"
  },
  {
   "alignment" : 4,
   "linker_set_key" : "_ZTIFvPvS_E",
   "name" : "void (void *, void *)",
   "parameters" :
   [
    {
     "referenced_type" : "_ZTIPv"
    },
    {
     "referenced_type" : "_ZTIPv"
    }
   ],
   "return_type" : "_ZTIv",
   "source_file" : "frameworks/rs/cpp/rsDispatch.h"
  },
  {
   "alignment" : 4,
   "linker_set_key" : "_ZTIFvPvS_PKcmE",
   "name" : "void (void *, void *, const char *, unsigned long)",
   "parameters" :
   [
    {
     "referenced_type" : "_ZTIPv"
    },
    {
     "referenced_type" : "_ZTIPv"
    },
    {
     "referenced_type" : "_ZTIPKc"
    },
    {
     "referenced_type" : "_ZTIm"
    }
   ],
   "return_type" : "_ZTIv",
   "source_file" : "frameworks/rs/cpp/rsDispatch.h"
  },
  {
   "alignment" : 4,
   "linker_set_key" : "_ZTIFvPvS_PKjmE",
   "name" : "void (void *, void *, const unsigned int *, unsigned long)",
   "parameters" :
   [
    {
     "referenced_type" : "_ZTIPv"
    },
    {
     "referenced_type" : "_ZTIPv"
    },
    {
     "referenced_type" : "_ZTIPKj"
    },
    {
     "referenced_type" : "_ZTIm"
    }
   ],
   "return_type" : "_ZTIv",
   "source_file" : "frameworks/rs/cpp/rsDispatch.h"
  },
  {
   "alignment" : 4,
   "linker_set_key" : "_ZTIFvPvS_PPKcE",
   "name" : "void (void *, void *, const char **)",
   "parameters" :
   [
    {
     "referenced_type" : "_ZTIPv"
    },
    {
     "referenced_type" : "_ZTIPv"
    },
    {
     "referenced_type" : "_ZTIPPKc"
    }
   ],
   "return_type" : "_ZTIv",
   "source_file" : "frameworks/rs/cpp/rsDispatch.h"
  },
  {
   "alignment" : 4,
   "linker_set_key" : "_ZTIFvPvS_PS_PjjE",
   "name" : "void (void *, void *, void **, unsigned int *, unsigned int)",
   "parameters" :
   [
    {
     "referenced_type" : "_ZTIPv"
    },
    {
     "referenced_type" : "_ZTIPv"
    },
    {
     "referenced_type" : "_ZTIPPv"
    },
    {
     "referenced_type" : "_ZTIPj"
    },
    {
     "referenced_type" : "_ZTIj"
    }
   ],
   "return_type" : "_ZTIv",
   "source_file" : "frameworks/rs/cpp/rsDispatch.h"
  },
  {
   "alignment" : 4,
   "linker_set_key" : "_ZTIFvPvS_PS_jE",
   "name" : "void (void *, void *, void **, unsigned int)",
   "parameters" :
   [
    {
     "referenced_type" : "_ZTIPv"
    },
    {
     "referenced_type" : "_ZTIPv"
    },
    {
     "referenced_type" : "_ZTIPPv"
    },
    {
     "referenced_type" : "_ZTIj"
    }
   ],
   "return_type" : "_ZTIv",
   "source_file" : "frameworks/rs/cpp/rsDispatch.h"
  },
  {
   "alignment" : 4,
   "linker_set_key" : "_ZTIFvPvS_PiE",
   "name" : "void (void *, void *, int *)",
   "parameters" :
   [
    {
     "referenced_type" : "_ZTIPv"
    },
    {
     "referenced_type" : "_ZTIPv"
    },
    {
     "referenced_type" : "_ZTIPi"
    }
   ],
   "return_type" : "_ZTIv",
   "source_file" : "frameworks/rs/cpp/rsDispatch.h"
  },
  {
   "alignment" : 4,
   "linker_set_key" : "_ZTIFvPvS_PjjE",
   "name" : "void (void *, void *, unsigned int *, unsigned int)",
   "parameters" :
   [
    {
     "referenced_type" : "_ZTIPv"
    },
    {
     "referenced_type" : "_ZTIPv"
    },
    {
     "referenced_type" : "_ZTIPj"
    },
    {
     "referenced_type" : "_ZTIj"
    }
   ],
   "return_type" : "_ZTIv",
   "source_file" : "frameworks/rs/cpp/rsDispatch.h"
  },
  {
   "alignment" : 4,
   "linker_set_key" : "_ZTIFvPvS_PmPPKcS0_jE",
   "name" : "void (void *, void *, unsigned long *, const char **, unsigned long *, unsigned int)",
   "parameters" :
   [
    {
     "referenced_type" : "_ZTIPv"
    },
    {
     "referenced_type" : "_ZTIPv"
    },
    {
     "referenced_type" : "_ZTIPm"
    },
    {
     "referenced_type" : "_ZTIPPKc"
    },
    {
     "referenced_type" : "_ZTIPm"
    },
    {
     "referenced_type" : "_ZTIj"
    }
   ],
   "return_type" : "_ZTIv",
   "source_file" : "frameworks/rs/cpp/rsDispatch.h"
  },
  {
   "alignment" : 4,
   "linker_set_key" : "_ZTIFvPvS_PmjE",
   "name" : "void (void *, void *, unsigned long *, unsigned int)",
   "parameters" :
   [
    {
     "referenced_type" : "_ZTIPv"
    },
    {
     "referenced_type" : "_ZTIPv"
    },
    {
     "referenced_type" : "_ZTIPm"
    },
    {
     "referenced_type" : "_ZTIj"
    }
   ],
   "return_type" : "_ZTIv",
   "source_file" : "frameworks/rs/cpp/rsDispatch.h"
  },
  {
   "alignment" : 4,
   "linker_set_key" : "_ZTIFvPvS_S_E",
   "name" : "void (void *, void *, void *)",
   "parameters" :
   [
    {
     "referenced_type" : "_ZTIPv"
    },
    {
     "referenced_type" : "_ZTIPv"
    },
    {
     "referenced_type" : "_ZTIPv"
    }
   ],
   "return_type" : "_ZTIv",
   "source_file" : "frameworks/rs/cpp/rsDispatch.h"
  },
  {
   "alignment" : 4,
   "linker_set_key" : "_ZTIFvPvS_S_S_E",
   "name" : "void (void *, void *, void *, void *)",
   "parameters" :
   [
    {
     "referenced_type" : "_ZTIPv"
    },
    {
     "referenced_type" : "_ZTIPv"
    },
    {
     "referenced_type" : "_ZTIPv"
    },
    {
     "referenced_type" : "_ZTIPv"
    }
   ],
   "return_type" : "_ZTIv",
   "source_file" : "frameworks/rs/cpp/rsDispatch.h"
  },
  {
   "alignment" : 4,
   "linker_set_key" : "_ZTIFvPvS_S_jE",
   "name" : "void (void *, void *, void *, unsigned int)",
   "parameters" :
   [
    {
     "referenced_type" : "_ZTIPv"
    },
    {
     "referenced_type" : "_ZTIPv"
    },
    {
     "referenced_type" : "_ZTIPv"
    },
    {
     "referenced_type" : "_ZTIj"
    }
   ],
   "return_type" : "_ZTIv",
   "source_file" : "frameworks/rs/cpp/rsDispatch.h"
  },
  {
   "alignment" : 4,
   "linker_set_key" : "_ZTIFvPvS_S_liE",
   "name" : "void (void *, void *, void *, long, int)",
   "parameters" :
   [
    {
     "referenced_type" : "_ZTIPv"
    },
    {
     "referenced_type" : "_ZTIPv"
    },
    {
     "referenced_type" : "_ZTIPv"
    },
    {
     "referenced_type" : "_ZTIl"
    },
    {
     "referenced_type" : "_ZTIi"
    }
   ],
   "return_type" : "_ZTIv",
   "source_file" : "frameworks/rs/cpp/rsDispatch.h"
  },
  {
   "alignment" : 4,
   "linker_set_key" : "_ZTIFvPvS_S_mE",
   "name" : "void (void *, void *, void *, unsigned long)",
   "parameters" :
   [
    {
     "referenced_type" : "_ZTIPv"
    },
    {
     "referenced_type" : "_ZTIPv"
    },
    {
     "referenced_type" : "_ZTIPv"
    },
    {
     "referenced_type" : "_ZTIm"
    }
   ],
   "return_type" : "_ZTIv",
   "source_file" : "frameworks/rs/cpp/rsDispatch.h"
  },
  {
   "alignment" : 4,
   "linker_set_key" : "_ZTIFvPvS_jE",
   "name" : "void (void *, void *, unsigned int)",
   "parameters" :
   [
    {
     "referenced_type" : "_ZTIPv"
    },
    {
     "referenced_type" : "_ZTIPv"
    },
    {
     "referenced_type" : "_ZTIj"
    }
   ],
   "return_type" : "_ZTIv",
   "source_file" : "frameworks/rs/cpp/rsDispatch.h"
  },
  {
   "alignment" : 4,
   "linker_set_key" : "_ZTIFvPvS_jPKvmE",
   "name" : "void (void *, void *, unsigned int, const void *, unsigned long)",
   "parameters" :
   [
    {
     "referenced_type" : "_ZTIPv"
    },
    {
     "referenced_type" : "_ZTIPv"
    },
    {
     "referenced_type" : "_ZTIj"
    },
    {
     "referenced_type" : "_ZTIPKv"
    },
    {
     "referenced_type" : "_ZTIm"
    }
   ],
   "return_type" : "_ZTIv",
   "source_file" : "frameworks/rs/cpp/rsDispatch.h"
  },
  {
   "alignment" : 4,
   "linker_set_key" : "_ZTIFvPvS_jPKvmS_PKjmE",
   "name" : "void (void *, void *, unsigned int, const void *, unsigned long, void *, const unsigned int *, unsigned long)",
   "parameters" :
   [
    {
     "referenced_type" : "_ZTIPv"
    },
    {
     "referenced_type" : "_ZTIPv"
    },
    {
     "referenced_type" : "_ZTIj"
    },
    {
     "referenced_type" : "_ZTIPKv"
    },
    {
     "referenced_type" : "_ZTIm"
    },
    {
     "referenced_type" : "_ZTIPv"
    },
    {
     "referenced_type" : "_ZTIPKj"
    },
    {
     "referenced_type" : "_ZTIm"
    }
   ],
   "return_type" : "_ZTIv",
   "source_file" : "frameworks/rs/cpp/rsDispatch.h"
  },
  {
   "alignment" : 4,
   "linker_set_key" : "_ZTIFvPvS_jPS_mS_PK12RsScriptCallmE",
   "name" : "void (void *, void *, unsigned int, void **, unsigned long, void *, const RsScriptCall *, unsigned long)",
   "parameters" :
   [
    {
     "referenced_type" : "_ZTIPv"
    },
    {
     "referenced_type" : "_ZTIPv"
    },
    {
     "referenced_type" : "_ZTIj"
    },
    {
     "referenced_type" : "_ZTIPPv"
    },
    {
     "referenced_type" : "_ZTIm"
    },
    {
     "referenced_type" : "_ZTIPv"
    },
    {
     "referenced_type" : "_ZTIPK12RsScriptCall"
    },
    {
     "referenced_type" : "_ZTIm"
    }
   ],
   "return_type" : "_ZTIv",
   "source_file" : "frameworks/rs/cpp/rsDispatch.h"
  },
  {
   "alignment" : 4,
   "linker_set_key" : "_ZTIFvPvS_jPS_mS_PKvmPK12RsScriptCallmE",
   "name" : "void (void *, void *, unsigned int, void **, unsigned long, void *, const void *, unsigned long, const RsScriptCall *, unsigned long)",
   "parameters" :
   [
    {
     "referenced_type" : "_ZTIPv"
    },
    {
     "referenced_type" : "_ZTIPv"
    },
    {
     "referenced_type" : "_ZTIj"
    },
    {
     "referenced_type" : "_ZTIPPv"
    },
    {
     "referenced_type" : "_ZTIm"
    },
    {
     "referenced_type" : "_ZTIPv"
    },
    {
     "referenced_type" : "_ZTIPKv"
    },
    {
     "referenced_type" : "_ZTIm"
    },
    {
     "referenced_type" : "_ZTIPK12RsScriptCall"
    },
    {
     "referenced_type" : "_ZTIm"
    }
   ],
   "return_type" : "_ZTIv",
   "source_file" : "frameworks/rs/cpp/rsDispatch.h"
  },
  {
   "alignment" : 4,
   "linker_set_key" : "_ZTIFvPvS_jS_E",
   "name" : "void (void *, void *, unsigned int, void *)",
   "parameters" :
   [
    {
     "referenced_type" : "_ZTIPv"
    },
    {
     "referenced_type" : "_ZTIPv"
    },
    {
     "referenced_type" : "_ZTIj"
    },
    {
     "referenced_type" : "_ZTIPv"
    }
   ],
   "return_type" : "_ZTIv",
   "source_file" : "frameworks/rs/cpp/rsDispatch.h"
  },
  {
   "alignment" : 4,
   "linker_set_key" : "_ZTIFvPvS_jS_S_PKvmPK12RsScriptCallmE",
   "name" : "void (void *, void *, unsigned int, void *, void *, const void *, unsigned long, const RsScriptCall *, unsigned long)",
   "parameters" :
   [
    {
     "referenced_type" : "_ZTIPv"
    },
    {
     "referenced_type" : "_ZTIPv"
    },
    {
     "referenced_type" : "_ZTIj"
    },
    {
     "referenced_type" : "_ZTIPv"
    },
    {
     "referenced_type" : "_ZTIPv"
    },
    {
     "referenced_type" : "_ZTIPKv"
    },
    {
     "referenced_type" : "_ZTIm"
    },
    {
     "referenced_type" : "_ZTIPK12RsScriptCall"
    },
    {
     "referenced_type" : "_ZTIm"
    }
   ],
   "return_type" : "_ZTIv",
   "source_file" : "frameworks/rs/cpp/rsDispatch.h"
  },
  {
   "alignment" : 4,
   "linker_set_key" : "_ZTIFvPvS_jS_mE",
   "name" : "void (void *, void *, unsigned int, void *, unsigned long)",
   "parameters" :
   [
    {
     "referenced_type" : "_ZTIPv"
    },
    {
     "referenced_type" : "_ZTIPv"
    },
    {
     "referenced_type" : "_ZTIj"
    },
    {
     "referenced_type" : "_ZTIPv"
    },
    {
     "referenced_type" : "_ZTIm"
    }
   ],
   "return_type" : "_ZTIv",
   "source_file" : "frameworks/rs/cpp/rsDispatch.h"
  },
  {
   "alignment" : 4,
   "linker_set_key" : "_ZTIFvPvS_jdE",
   "name" : "void (void *, void *, unsigned int, double)",
   "parameters" :
   [
    {
     "referenced_type" : "_ZTIPv"
    },
    {
     "referenced_type" : "_ZTIPv"
    },
    {
     "referenced_type" : "_ZTIj"
    },
    {
     "referenced_type" : "_ZTId"
    }
   ],
   "return_type" : "_ZTIv",
   "source_file" : "frameworks/rs/cpp/rsDispatch.h"
  },
  {
   "alignment" : 4,
   "linker_set_key" : "_ZTIFvPvS_jfE",
   "name" : "void (void *, void *, unsigned int, float)",
   "parameters" :
   [
    {
     "referenced_type" : "_ZTIPv"
    },
    {
     "referenced_type" : "_ZTIPv"
    },
    {
     "referenced_type" : "_ZTIj"
    },
    {
     "referenced_type" : "_ZTIf"
    }
   ],
   "return_type" : "_ZTIv",
   "source_file" : "frameworks/rs/cpp/rsDispatch.h"
  },
  {
   "alignment" : 4,
   "linker_set_key" : "_ZTIFvPvS_jiE",
   "name" : "void (void *, void *, unsigned int, int)",
   "parameters" :
   [
    {
     "referenced_type" : "_ZTIPv"
    },
    {
     "referenced_type" : "_ZTIPv"
    },
    {
     "referenced_type" : "_ZTIj"
    },
    {
     "referenced_type" : "_ZTIi"
    }
   ],
   "return_type" : "_ZTIv",
   "source_file" : "frameworks/rs/cpp/rsDispatch.h"
  },
  {
   "alignment" : 4,
   "linker_set_key" : "_ZTIFvPvS_jjPKvmmE",
   "name" : "void (void *, void *, unsigned int, unsigned int, const void *, unsigned long, unsigned long)",
   "parameters" :
   [
    {
     "referenced_type" : "_ZTIPv"
    },
    {
     "referenced_type" : "_ZTIPv"
    },
    {
     "referenced_type" : "_ZTIj"
    },
    {
     "referenced_type" : "_ZTIj"
    },
    {
     "referenced_type" : "_ZTIPKv"
    },
    {
     "referenced_type" : "_ZTIm"
    },
    {
     "referenced_type" : "_ZTIm"
    }
   ],
   "return_type" : "_ZTIv",
   "source_file" : "frameworks/rs/cpp/rsDispatch.h"
  },
  {
   "alignment" : 4,
   "linker_set_key" : "_ZTIFvPvS_jjj23RsAllocationCubemapFacejjPKvmmE",
   "name" : "void (void *, void *, unsigned int, unsigned int, unsigned int, RsAllocationCubemapFace, unsigned int, unsigned int, const void *, unsigned long, unsigned long)",
   "parameters" :
   [
    {
     "referenced_type" : "_ZTIPv"
    },
    {
     "referenced_type" : "_ZTIPv"
    },
    {
     "referenced_type" : "_ZTIj"
    },
    {
     "referenced_type" : "_ZTIj"
    },
    {
     "referenced_type" : "_ZTIj"
    },
    {
     "referenced_type" : "_ZTI23RsAllocationCubemapFace"
    },
    {
     "referenced_type" : "_ZTIj"
    },
    {
     "referenced_type" : "_ZTIj"
    },
    {
     "referenced_type" : "_ZTIPKv"
    },
    {
     "referenced_type" : "_ZTIm"
    },
    {
     "referenced_type" : "_ZTIm"
    }
   ],
   "return_type" : "_ZTIv",
   "source_file" : "frameworks/rs/cpp/rsDispatch.h"
  },
  {
   "alignment" : 4,
   "linker_set_key" : "_ZTIFvPvS_jjj23RsAllocationCubemapFacejjS_mmE",
   "name" : "void (void *, void *, unsigned int, unsigned int, unsigned int, RsAllocationCubemapFace, unsigned int, unsigned int, void *, unsigned long, unsigned long)",
   "parameters" :
   [
    {
     "referenced_type" : "_ZTIPv"
    },
    {
     "referenced_type" : "_ZTIPv"
    },
    {
     "referenced_type" : "_ZTIj"
    },
    {
     "referenced_type" : "_ZTIj"
    },
    {
     "referenced_type" : "_ZTIj"
    },
    {
     "referenced_type" : "_ZTI23RsAllocationCubemapFace"
    },
    {
     "referenced_type" : "_ZTIj"
    },
    {
     "referenced_type" : "_ZTIj"
    },
    {
     "referenced_type" : "_ZTIPv"
    },
    {
     "referenced_type" : "_ZTIm"
    },
    {
     "referenced_type" : "_ZTIm"
    }
   ],
   "return_type" : "_ZTIv",
   "source_file" : "frameworks/rs/cpp/rsDispatch.h"
  },
  {
   "alignment" : 4,
   "linker_set_key" : "_ZTIFvPvS_jjjPKvmE",
   "name" : "void (void *, void *, unsigned int, unsigned int, unsigned int, const void *, unsigned long)",
   "parameters" :
   [
    {
     "referenced_type" : "_ZTIPv"
    },
    {
     "referenced_type" : "_ZTIPv"
    },
    {
     "referenced_type" : "_ZTIj"
    },
    {
     "referenced_type" : "_ZTIj"
    },
    {
     "referenced_type" : "_ZTIj"
    },
    {
     "referenced_type" : "_ZTIPKv"
    },
    {
     "referenced_type" : "_ZTIm"
    }
   ],
   "return_type" : "_ZTIv",
   "source_file" : "frameworks/rs/cpp/rsDispatch.h"
  },
  {
   "alignment" : 4,
   "linker_set_key" : "_ZTIFvPvS_jjjS_mE",
   "name" : "void (void *, void *, unsigned int, unsigned int, unsigned int, void *, unsigned long)",
   "parameters" :
   [
    {
     "referenced_type" : "_ZTIPv"
    },
    {
     "referenced_type" : "_ZTIPv"
    },
    {
     "referenced_type" : "_ZTIj"
    },
    {
     "referenced_type" : "_ZTIj"
    },
    {
     "referenced_type" : "_ZTIj"
    },
    {
     "referenced_type" : "_ZTIPv"
    },
    {
     "referenced_type" : "_ZTIm"
    }
   ],
   "return_type" : "_ZTIv",
   "source_file" : "frameworks/rs/cpp/rsDispatch.h"
  },
  {
   "alignment" : 4,
   "linker_set_key" : "_ZTIFvPvS_jjjjPKvmmE",
   "name" : "void (void *, void *, unsigned int, unsigned int, unsigned int, unsigned int, const void *, unsigned long, unsigned long)",
   "parameters" :
   [
    {
     "referenced_type" : "_ZTIPv"
    },
    {
     "referenced_type" : "_ZTIPv"
    },
    {
     "referenced_type" : "_ZTIj"
    },
    {
     "referenced_type" : "_ZTIj"
    },
    {
     "referenced_type" : "_ZTIj"
    },
    {
     "referenced_type" : "_ZTIj"
    },
    {
     "referenced_type" : "_ZTIPKv"
    },
    {
     "referenced_type" : "_ZTIm"
    },
    {
     "referenced_type" : "_ZTIm"
    }
   ],
   "return_type" : "_ZTIv",
   "source_file" : "frameworks/rs/cpp/rsDispatch.h"
  },
  {
   "alignment" : 4,
   "linker_set_key" : "_ZTIFvPvS_jjjjS_mmE",
   "name" : "void (void *, void *, unsigned int, unsigned int, unsigned int, unsigned int, void *, unsigned long, unsigned long)",
   "parameters" :
   [
    {
     "referenced_type" : "_ZTIPv"
    },
    {
     "referenced_type" : "_ZTIPv"
    },
    {
     "referenced_type" : "_ZTIj"
    },
    {
     "referenced_type" : "_ZTIj"
    },
    {
     "referenced_type" : "_ZTIj"
    },
    {
     "referenced_type" : "_ZTIj"
    },
    {
     "referenced_type" : "_ZTIPv"
    },
    {
     "referenced_type" : "_ZTIm"
    },
    {
     "referenced_type" : "_ZTIm"
    }
   ],
   "return_type" : "_ZTIv",
   "source_file" : "frameworks/rs/cpp/rsDispatch.h"
  },
  {
   "alignment" : 4,
   "linker_set_key" : "_ZTIFvPvS_jjjjjjS_jjjjE",
   "name" : "void (void *, void *, unsigned int, unsigned int, unsigned int, unsigned int, unsigned int, unsigned int, void *, unsigned int, unsigned int, unsigned int, unsigned int)",
   "parameters" :
   [
    {
     "referenced_type" : "_ZTIPv"
    },
    {
     "referenced_type" : "_ZTIPv"
    },
    {
     "referenced_type" : "_ZTIj"
    },
    {
     "referenced_type" : "_ZTIj"
    },
    {
     "referenced_type" : "_ZTIj"
    },
    {
     "referenced_type" : "_ZTIj"
    },
    {
     "referenced_type" : "_ZTIj"
    },
    {
     "referenced_type" : "_ZTIj"
    },
    {
     "referenced_type" : "_ZTIPv"
    },
    {
     "referenced_type" : "_ZTIj"
    },
    {
     "referenced_type" : "_ZTIj"
    },
    {
     "referenced_type" : "_ZTIj"
    },
    {
     "referenced_type" : "_ZTIj"
    }
   ],
   "return_type" : "_ZTIv",
   "source_file" : "frameworks/rs/cpp/rsDispatch.h"
  },
  {
   "alignment" : 4,
   "linker_set_key" : "_ZTIFvPvS_jjjjjjjPKvmmE",
   "name" : "void (void *, void *, unsigned int, unsigned int, unsigned int, unsigned int, unsigned int, unsigned int, unsigned int, const void *, unsigned long, unsigned long)",
   "parameters" :
   [
    {
     "referenced_type" : "_ZTIPv"
    },
    {
     "referenced_type" : "_ZTIPv"
    },
    {
     "referenced_type" : "_ZTIj"
    },
    {
     "referenced_type" : "_ZTIj"
    },
    {
     "referenced_type" : "_ZTIj"
    },
    {
     "referenced_type" : "_ZTIj"
    },
    {
     "referenced_type" : "_ZTIj"
    },
    {
     "referenced_type" : "_ZTIj"
    },
    {
     "referenced_type" : "_ZTIj"
    },
    {
     "referenced_type" : "_ZTIPKv"
    },
    {
     "referenced_type" : "_ZTIm"
    },
    {
     "referenced_type" : "_ZTIm"
    }
   ],
   "return_type" : "_ZTIv",
   "source_file" : "frameworks/rs/cpp/rsDispatch.h"
  },
  {
   "alignment" : 4,
   "linker_set_key" : "_ZTIFvPvS_jjjjjjjS_jjjjE",
   "name" : "void (void *, void *, unsigned int, unsigned int, unsigned int, unsigned int, unsigned int, unsigned int, unsigned int, void *, unsigned int, unsigned int, unsigned int, unsigned int)",
   "parameters" :
   [
    {
     "referenced_type" : "_ZTIPv"
    },
    {
     "referenced_type" : "_ZTIPv"
    },
    {
     "referenced_type" : "_ZTIj"
    },
    {
     "referenced_type" : "_ZTIj"
    },
    {
     "referenced_type" : "_ZTIj"
    },
    {
     "referenced_type" : "_ZTIj"
    },
    {
     "referenced_type" : "_ZTIj"
    },
    {
     "referenced_type" : "_ZTIj"
    },
    {
     "referenced_type" : "_ZTIj"
    },
    {
     "referenced_type" : "_ZTIPv"
    },
    {
     "referenced_type" : "_ZTIj"
    },
    {
     "referenced_type" : "_ZTIj"
    },
    {
     "referenced_type" : "_ZTIj"
    },
    {
     "referenced_type" : "_ZTIj"
    }
   ],
   "return_type" : "_ZTIv",
   "source_file" : "frameworks/rs/cpp/rsDispatch.h"
  },
  {
   "alignment" : 4,
   "linker_set_key" : "_ZTIFvPvS_jjjjjjjS_mmE",
   "name" : "void (void *, void *, unsigned int, unsigned int, unsigned int, unsigned int, unsigned int, unsigned int, unsigned int, void *, unsigned long, unsigned long)",
   "parameters" :
   [
    {
     "referenced_type" : "_ZTIPv"
    },
    {
     "referenced_type" : "_ZTIPv"
    },
    {
     "referenced_type" : "_ZTIj"
    },
    {
     "referenced_type" : "_ZTIj"
    },
    {
     "referenced_type" : "_ZTIj"
    },
    {
     "referenced_type" : "_ZTIj"
    },
    {
     "referenced_type" : "_ZTIj"
    },
    {
     "referenced_type" : "_ZTIj"
    },
    {
     "referenced_type" : "_ZTIj"
    },
    {
     "referenced_type" : "_ZTIPv"
    },
    {
     "referenced_type" : "_ZTIm"
    },
    {
     "referenced_type" : "_ZTIm"
    }
   ],
   "return_type" : "_ZTIv",
   "source_file" : "frameworks/rs/cpp/rsDispatch.h"
  },
  {
   "alignment" : 4,
   "linker_set_key" : "_ZTIFvPvS_jlE",
   "name" : "void (void *, void *, unsigned int, long)",
   "parameters" :
   [
    {
     "referenced_type" : "_ZTIPv"
    },
    {
     "referenced_type" : "_ZTIPv"
    },
    {
     "referenced_type" : "_ZTIj"
    },
    {
     "referenced_type" : "_ZTIl"
    }
   ],
   "return_type" : "_ZTIv",
   "source_file" : "frameworks/rs/cpp/rsDispatch.h"
  },
  {
   "alignment" : 4,
   "linker_set_key" : "_ZTIFvPvS_jmiE",
   "name" : "void (void *, void *, unsigned int, unsigned long, int)",
   "parameters" :
   [
    {
     "referenced_type" : "_ZTIPv"
    },
    {
     "referenced_type" : "_ZTIPv"
    },
    {
     "referenced_type" : "_ZTIj"
    },
    {
     "referenced_type" : "_ZTIm"
    },
    {
     "referenced_type" : "_ZTIi"
    }
   ],
   "return_type" : "_ZTIv",
   "source_file" : "frameworks/rs/cpp/rsDispatch.h"
  },
  {
   "alignment" : 4,
   "linker_set_key" : "_ZTIFvPviE",
   "name" : "void (void *, int)",
   "parameters" :
   [
    {
     "referenced_type" : "_ZTIPv"
    },
    {
     "referenced_type" : "_ZTIi"
    }
   ],
   "return_type" : "_ZTIv",
   "source_file" : "frameworks/rs/cpp/rsDispatch.h"
  },
  {
   "alignment" : 4,
   "linker_set_key" : "_ZTIFvPvjPKhmE",
   "name" : "void (void *, unsigned int, const unsigned char *, unsigned long)",
   "parameters" :
   [
    {
     "referenced_type" : "_ZTIPv"
    },
    {
     "referenced_type" : "_ZTIj"
    },
    {
     "referenced_type" : "_ZTIPKh"
    },
    {
     "referenced_type" : "_ZTIm"
    }
   ],
   "return_type" : "_ZTIv",
   "source_file" : "frameworks/rs/cpp/rsDispatch.h"
  },
  {
   "alignment" : 4,
   "linker_set_key" : "_ZTIFvPvjjS_E",
   "name" : "void (void *, unsigned int, unsigned int, void *)",
   "parameters" :
   [
    {
     "referenced_type" : "_ZTIPv"
    },
    {
     "referenced_type" : "_ZTIj"
    },
    {
     "referenced_type" : "_ZTIj"
    },
    {
     "referenced_type" : "_ZTIPv"
    }
   ],
   "return_type" : "_ZTIv",
   "source_file" : "frameworks/rs/cpp/rsDispatch.h"
  },
  {
   "alignment" : 4,
   "linker_set_key" : "_ZTIFvPvmE",
   "name" : "void (void *, unsigned long)",
   "parameters" :
   [
    {
     "referenced_type" : "_ZTIPv"
    },
    {
     "referenced_type" : "_ZTIm"
    }
   ],
   "return_type" : "_ZTIv",
   "source_file" : "external/libcxx/include/functional"
  },
  {
   "alignment" : 4,
   "linker_set_key" : "_ZTIFvRKN7android8hardware11hidl_stringEE",
   "name" : "void (const android::hardware::hidl_string &)",
   "parameters" :
   [
    {
     "referenced_type" : "_ZTIRKN7android8hardware11hidl_stringE"
    }
   ],
   "return_type" : "_ZTIv",
   "source_file" : "external/libcxx/include/functional"
  },
  {
   "alignment" : 4,
   "linker_set_key" : "_ZTIFvRKN7android8hardware8hidl_vecIhEEE",
   "name" : "void (const android::hardware::hidl_vec<unsigned char> &)",
   "parameters" :
   [
    {
     "referenced_type" : "_ZTIRKN7android8hardware8hidl_vecIhEE"
    }
   ],
   "return_type" : "_ZTIv",
   "source_file" : "external/libcxx/include/functional"
  },
  {
   "alignment" : 4,
   "linker_set_key" : "_ZTIFvRKN7android8hardware8hidl_vecIjEEE",
   "name" : "void (const android::hardware::hidl_vec<unsigned int> &)",
   "parameters" :
   [
    {
     "referenced_type" : "_ZTIRKN7android8hardware8hidl_vecIjEE"
    }
   ],
   "return_type" : "_ZTIv",
   "source_file" : "external/libcxx/include/functional"
  },
  {
   "alignment" : 4,
   "linker_set_key" : "_ZTIFvRKN7android8hardware8hidl_vecImEEE",
   "name" : "void (const android::hardware::hidl_vec<unsigned long> &)",
   "parameters" :
   [
    {
     "referenced_type" : "_ZTIRKN7android8hardware8hidl_vecImEE"
    }
   ],
   "return_type" : "_ZTIv",
   "source_file" : "external/libcxx/include/functional"
  },
  {
   "alignment" : 4,
   "linker_set_key" : "_ZTIFvRKN7android8hardware8hidl_vecImEERKNS1_INS0_11hidl_stringEEES4_E",
   "name" : "void (const android::hardware::hidl_vec<unsigned long> &, const android::hardware::hidl_vec<android::hardware::hidl_string> &, const android::hardware::hidl_vec<unsigned long> &)",
   "parameters" :
   [
    {
     "referenced_type" : "_ZTIRKN7android8hardware8hidl_vecImEE"
    },
    {
     "referenced_type" : "_ZTIRKN7android8hardware8hidl_vecINS0_11hidl_stringEEE"
    },
    {
     "referenced_type" : "_ZTIRKN7android8hardware8hidl_vecImEE"
    }
   ],
   "return_type" : "_ZTIv",
   "source_file" : "external/libcxx/include/functional"
  },
  {
   "alignment" : 4,
   "linker_set_key" : "_ZTIFvRKNSt3__119__libcpp_debug_infoEE",
   "name" : "void (const std::__libcpp_debug_info &)",
   "parameters" :
   [
    {
     "referenced_type" : "_ZTIRKNSt3__119__libcpp_debug_infoE"
    }
   ],
   "return_type" : "_ZTIv",
   "source_file" : "external/libcxx/include/__debug"
  },
  {
   "alignment" : 4,
   "linker_set_key" : "_ZTIFviE",
   "name" : "void (int)",
   "parameters" :
   [
    {
     "referenced_type" : "_ZTIi"
    }
   ],
   "return_type" : "_ZTIv",
   "source_file" : "bionic/libc/kernel/uapi/asm-generic/signal.h"
  },
  {
   "alignment" : 4,
   "linker_set_key" : "_ZTIFviP7siginfoPvE",
   "name" : "void (int, siginfo *, void *)",
   "parameters" :
   [
    {
     "referenced_type" : "_ZTIi"
    },
    {
     "referenced_type" : "_ZTIP7siginfo"
    },
    {
     "referenced_type" : "_ZTIPv"
    }
   ],
   "return_type" : "_ZTIv",
   "source_file" : "bionic/libc/include/bits/signal_types.h"
  },
  {
   "alignment" : 4,
   "linker_set_key" : "_ZTIFvvE",
   "name" : "void ()",
   "return_type" : "_ZTIv",
   "source_file" : "bionic/libc/kernel/uapi/asm-generic/signal.h"
  }
 ],
 "functions" :
 [
  {
   "function_name" : "rsAllocation1DData",
   "linker_set_key" : "rsAllocation1DData",
   "parameters" :
   [
    {
     "referenced_type" : "_ZTIPv"
    },
    {
     "referenced_type" : "_ZTIPv"
    },
    {
     "referenced_type" : "_ZTIj"
    },
    {
     "referenced_type" : "_ZTIj"
    },
    {
     "referenced_type" : "_ZTIj"
    },
    {
     "referenced_type" : "_ZTIPKv"
    },
    {
     "referenced_type" : "_ZTIm"
    }
   ],
   "return_type" : "_ZTIv",
   "source_file" : "frameworks/rs/rsApiStubs.h"
  },
  {
   "function_name" : "rsAllocation1DElementData",
   "linker_set_key" : "rsAllocation1DElementData",
   "parameters" :
   [
    {
     "referenced_type" : "_ZTIPv"
    },
    {
     "referenced_type" : "_ZTIPv"
    },
    {
     "referenced_type" : "_ZTIj"
    },
    {
     "referenced_type" : "_ZTIj"
    },
    {
     "referenced_type" : "_ZTIPKv"
    },
    {
     "referenced_type" : "_ZTIm"
    },
    {
     "referenced_type" : "_ZTIm"
    }
   ],
   "return_type" : "_ZTIv",
   "source_file" : "frameworks/rs/rsApiStubs.h"
  },
  {
   "function_name" : "rsAllocation1DRead",
   "linker_set_key" : "rsAllocation1DRead",
   "parameters" :
   [
    {
     "referenced_type" : "_ZTIPv"
    },
    {
     "referenced_type" : "_ZTIPv"
    },
    {
     "referenced_type" : "_ZTIj"
    },
    {
     "referenced_type" : "_ZTIj"
    },
    {
     "referenced_type" : "_ZTIj"
    },
    {
     "referenced_type" : "_ZTIPv"
    },
    {
     "referenced_type" : "_ZTIm"
    }
   ],
   "return_type" : "_ZTIv",
   "source_file" : "frameworks/rs/rsApiStubs.h"
  },
  {
   "function_name" : "rsAllocation2DData",
   "linker_set_key" : "rsAllocation2DData",
   "parameters" :
   [
    {
     "referenced_type" : "_ZTIPv"
    },
    {
     "referenced_type" : "_ZTIPv"
    },
    {
     "referenced_type" : "_ZTIj"
    },
    {
     "referenced_type" : "_ZTIj"
    },
    {
     "referenced_type" : "_ZTIj"
    },
    {
     "referenced_type" : "_ZTI23RsAllocationCubemapFace"
    },
    {
     "referenced_type" : "_ZTIj"
    },
    {
     "referenced_type" : "_ZTIj"
    },
    {
     "referenced_type" : "_ZTIPKv"
    },
    {
     "referenced_type" : "_ZTIm"
    },
    {
     "referenced_type" : "_ZTIm"
    }
   ],
   "return_type" : "_ZTIv",
   "source_file" : "frameworks/rs/rsApiStubs.h"
  },
  {
   "function_name" : "rsAllocation2DRead",
   "linker_set_key" : "rsAllocation2DRead",
   "parameters" :
   [
    {
     "referenced_type" : "_ZTIPv"
    },
    {
     "referenced_type" : "_ZTIPv"
    },
    {
     "referenced_type" : "_ZTIj"
    },
    {
     "referenced_type" : "_ZTIj"
    },
    {
     "referenced_type" : "_ZTIj"
    },
    {
     "referenced_type" : "_ZTI23RsAllocationCubemapFace"
    },
    {
     "referenced_type" : "_ZTIj"
    },
    {
     "referenced_type" : "_ZTIj"
    },
    {
     "referenced_type" : "_ZTIPv"
    },
    {
     "referenced_type" : "_ZTIm"
    },
    {
     "referenced_type" : "_ZTIm"
    }
   ],
   "return_type" : "_ZTIv",
   "source_file" : "frameworks/rs/rsApiStubs.h"
  },
  {
   "function_name" : "rsAllocation3DData",
   "linker_set_key" : "rsAllocation3DData",
   "parameters" :
   [
    {
     "referenced_type" : "_ZTIPv"
    },
    {
     "referenced_type" : "_ZTIPv"
    },
    {
     "referenced_type" : "_ZTIj"
    },
    {
     "referenced_type" : "_ZTIj"
    },
    {
     "referenced_type" : "_ZTIj"
    },
    {
     "referenced_type" : "_ZTIj"
    },
    {
     "referenced_type" : "_ZTIj"
    },
    {
     "referenced_type" : "_ZTIj"
    },
    {
     "referenced_type" : "_ZTIj"
    },
    {
     "referenced_type" : "_ZTIPKv"
    },
    {
     "referenced_type" : "_ZTIm"
    },
    {
     "referenced_type" : "_ZTIm"
    }
   ],
   "return_type" : "_ZTIv",
   "source_file" : "frameworks/rs/rsApiStubs.h"
  },
  {
   "function_name" : "rsAllocation3DRead",
   "linker_set_key" : "rsAllocation3DRead",
   "parameters" :
   [
    {
     "referenced_type" : "_ZTIPv"
    },
    {
     "referenced_type" : "_ZTIPv"
    },
    {
     "referenced_type" : "_ZTIj"
    },
    {
     "referenced_type" : "_ZTIj"
    },
    {
     "referenced_type" : "_ZTIj"
    },
    {
     "referenced_type" : "_ZTIj"
    },
    {
     "referenced_type" : "_ZTIj"
    },
    {
     "referenced_type" : "_ZTIj"
    },
    {
     "referenced_type" : "_ZTIj"
    },
    {
     "referenced_type" : "_ZTIPv"
    },
    {
     "referenced_type" : "_ZTIm"
    },
    {
     "referenced_type" : "_ZTIm"
    }
   ],
   "return_type" : "_ZTIv",
   "source_file" : "frameworks/rs/rsApiStubs.h"
  },
  {
   "function_name" : "rsAllocationAdapterCreate",
   "linker_set_key" : "rsAllocationAdapterCreate",
   "parameters" :
   [
    {
     "referenced_type" : "_ZTIPv"
    },
    {
     "referenced_type" : "_ZTIPv"
    },
    {
     "referenced_type" : "_ZTIPv"
    }
   ],
   "return_type" : "_ZTIPv",
   "source_file" : "frameworks/rs/rsApiStubs.h"
  },
  {
   "function_name" : "rsAllocationAdapterOffset",
   "linker_set_key" : "rsAllocationAdapterOffset",
   "parameters" :
   [
    {
     "referenced_type" : "_ZTIPv"
    },
    {
     "referenced_type" : "_ZTIPv"
    },
    {
     "referenced_type" : "_ZTIPKj"
    },
    {
     "referenced_type" : "_ZTIm"
    }
   ],
   "return_type" : "_ZTIv",
   "source_file" : "frameworks/rs/rsApiStubs.h"
  },
  {
   "function_name" : "rsAllocationCopy2DRange",
   "linker_set_key" : "rsAllocationCopy2DRange",
   "parameters" :
   [
    {
     "referenced_type" : "_ZTIPv"
    },
    {
     "referenced_type" : "_ZTIPv"
    },
    {
     "referenced_type" : "_ZTIj"
    },
    {
     "referenced_type" : "_ZTIj"
    },
    {
     "referenced_type" : "_ZTIj"
    },
    {
     "referenced_type" : "_ZTIj"
    },
    {
     "referenced_type" : "_ZTIj"
    },
    {
     "referenced_type" : "_ZTIj"
    },
    {
     "referenced_type" : "_ZTIPv"
    },
    {
     "referenced_type" : "_ZTIj"
    },
    {
     "referenced_type" : "_ZTIj"
    },
    {
     "referenced_type" : "_ZTIj"
    },
    {
     "referenced_type" : "_ZTIj"
    }
   ],
   "return_type" : "_ZTIv",
   "source_file" : "frameworks/rs/rsApiStubs.h"
  },
  {
   "function_name" : "rsAllocationCopy3DRange",
   "linker_set_key" : "rsAllocationCopy3DRange",
   "parameters" :
   [
    {
     "referenced_type" : "_ZTIPv"
    },
    {
     "referenced_type" : "_ZTIPv"
    },
    {
     "referenced_type" : "_ZTIj"
    },
    {
     "referenced_type" : "_ZTIj"
    },
    {
     "referenced_type" : "_ZTIj"
    },
    {
     "referenced_type" : "_ZTIj"
    },
    {
     "referenced_type" : "_ZTIj"
    },
    {
     "referenced_type" : "_ZTIj"
    },
    {
     "referenced_type" : "_ZTIj"
    },
    {
     "referenced_type" : "_ZTIPv"
    },
    {
     "referenced_type" : "_ZTIj"
    },
    {
     "referenced_type" : "_ZTIj"
    },
    {
     "referenced_type" : "_ZTIj"
    },
    {
     "referenced_type" : "_ZTIj"
    }
   ],
   "return_type" : "_ZTIv",
   "source_file" : "frameworks/rs/rsApiStubs.h"
  },
  {
   "function_name" : "rsAllocationCopyToBitmap",
   "linker_set_key" : "rsAllocationCopyToBitmap",
   "parameters" :
   [
    {
     "referenced_type" : "_ZTIPv"
    },
    {
     "referenced_type" : "_ZTIPv"
    },
    {
     "referenced_type" : "_ZTIPv"
    },
    {
     "referenced_type" : "_ZTIm"
    }
   ],
   "return_type" : "_ZTIv",
   "source_file" : "frameworks/rs/rsApiStubs.h"
  },
  {
   "function_name" : "rsAllocationCreateFromBitmap",
   "linker_set_key" : "rsAllocationCreateFromBitmap",
   "parameters" :
   [
    {
     "referenced_type" : "_ZTIPv"
    },
    {
     "referenced_type" : "_ZTIPv"
    },
    {
     "referenced_type" : "_ZTI25RsAllocationMipmapControl"
    },
    {
     "referenced_type" : "_ZTIPKv"
    },
    {
     "referenced_type" : "_ZTIm"
    },
    {
     "referenced_type" : "_ZTIj"
    }
   ],
   "return_type" : "_ZTIPv",
   "source_file" : "frameworks/rs/rsApiStubs.h"
  },
  {
   "function_name" : "rsAllocationCreateTyped",
   "linker_set_key" : "rsAllocationCreateTyped",
   "parameters" :
   [
    {
     "referenced_type" : "_ZTIPv"
    },
    {
     "referenced_type" : "_ZTIPv"
    },
    {
     "referenced_type" : "_ZTI25RsAllocationMipmapControl"
    },
    {
     "referenced_type" : "_ZTIj"
    },
    {
     "referenced_type" : "_ZTIm"
    }
   ],
   "return_type" : "_ZTIPv",
   "source_file" : "frameworks/rs/rsApiStubs.h"
  },
  {
   "function_name" : "rsAllocationCubeCreateFromBitmap",
   "linker_set_key" : "rsAllocationCubeCreateFromBitmap",
   "parameters" :
   [
    {
     "referenced_type" : "_ZTIPv"
    },
    {
     "referenced_type" : "_ZTIPv"
    },
    {
     "referenced_type" : "_ZTI25RsAllocationMipmapControl"
    },
    {
     "referenced_type" : "_ZTIPKv"
    },
    {
     "referenced_type" : "_ZTIm"
    },
    {
     "referenced_type" : "_ZTIj"
    }
   ],
   "return_type" : "_ZTIPv",
   "source_file" : "frameworks/rs/rsApiStubs.h"
  },
  {
   "function_name" : "rsAllocationElementData",
   "linker_set_key" : "rsAllocationElementData",
   "parameters" :
   [
    {
     "referenced_type" : "_ZTIPv"
    },
    {
     "referenced_type" : "_ZTIPv"
    },
    {
     "referenced_type" : "_ZTIj"
    },
    {
     "referenced_type" : "_ZTIj"
    },
    {
     "referenced_type" : "_ZTIj"
    },
    {
     "referenced_type" : "_ZTIj"
    },
    {
     "referenced_type" : "_ZTIPKv"
    },
    {
     "referenced_type" : "_ZTIm"
    },
    {
     "referenced_type" : "_ZTIm"
    }
   ],
   "return_type" : "_ZTIv",
   "source_file" : "frameworks/rs/rsApiStubs.h"
  },
  {
   "function_name" : "rsAllocationElementRead",
   "linker_set_key" : "rsAllocationElementRead",
   "parameters" :
   [
    {
     "referenced_type" : "_ZTIPv"
    },
    {
     "referenced_type" : "_ZTIPv"
    },
    {
     "referenced_type" : "_ZTIj"
    },
    {
     "referenced_type" : "_ZTIj"
    },
    {
     "referenced_type" : "_ZTIj"
    },
    {
     "referenced_type" : "_ZTIj"
    },
    {
     "referenced_type" : "_ZTIPv"
    },
    {
     "referenced_type" : "_ZTIm"
    },
    {
     "referenced_type" : "_ZTIm"
    }
   ],
   "return_type" : "_ZTIv",
   "source_file" : "frameworks/rs/rsApiStubs.h"
  },
  {
   "function_name" : "rsAllocationGenerateMipmaps",
   "linker_set_key" : "rsAllocationGenerateMipmaps",
   "parameters" :
   [
    {
     "referenced_type" : "_ZTIPv"
    },
    {
     "referenced_type" : "_ZTIPv"
    }
   ],
   "return_type" : "_ZTIv",
   "source_file" : "frameworks/rs/rsApiStubs.h"
  },
  {
   "function_name" : "rsAllocationGetPointer",
   "linker_set_key" : "rsAllocationGetPointer",
   "parameters" :
   [
    {
     "referenced_type" : "_ZTIPv"
    },
    {
     "referenced_type" : "_ZTIPv"
    },
    {
     "referenced_type" : "_ZTIj"
    },
    {
     "referenced_type" : "_ZTI23RsAllocationCubemapFace"
    },
    {
     "referenced_type" : "_ZTIj"
    },
    {
     "referenced_type" : "_ZTIj"
    },
    {
     "referenced_type" : "_ZTIPm"
    },
    {
     "referenced_type" : "_ZTIm"
    }
   ],
   "return_type" : "_ZTIPv",
   "source_file" : "frameworks/rs/rsApiStubs.h"
  },
  {
   "function_name" : "rsAllocationGetSurface",
   "linker_set_key" : "rsAllocationGetSurface",
   "parameters" :
   [
    {
     "referenced_type" : "_ZTIPv"
    },
    {
     "referenced_type" : "_ZTIPv"
    }
   ],
   "return_type" : "_ZTIPv",
   "source_file" : "frameworks/rs/rsApiStubs.h"
  },
  {
   "function_name" : "rsAllocationIoReceive",
   "linker_set_key" : "rsAllocationIoReceive",
   "parameters" :
   [
    {
     "referenced_type" : "_ZTIPv"
    },
    {
     "referenced_type" : "_ZTIPv"
    }
   ],
   "return_type" : "_ZTIl",
   "source_file" : "frameworks/rs/rsApiStubs.h"
  },
  {
   "function_name" : "rsAllocationIoSend",
   "linker_set_key" : "rsAllocationIoSend",
   "parameters" :
   [
    {
     "referenced_type" : "_ZTIPv"
    },
    {
     "referenced_type" : "_ZTIPv"
    }
   ],
   "return_type" : "_ZTIv",
   "source_file" : "frameworks/rs/rsApiStubs.h"
  },
  {
   "function_name" : "rsAllocationRead",
   "linker_set_key" : "rsAllocationRead",
   "parameters" :
   [
    {
     "referenced_type" : "_ZTIPv"
    },
    {
     "referenced_type" : "_ZTIPv"
    },
    {
     "referenced_type" : "_ZTIPv"
    },
    {
     "referenced_type" : "_ZTIm"
    }
   ],
   "return_type" : "_ZTIv",
   "source_file" : "frameworks/rs/rsApiStubs.h"
  },
  {
   "function_name" : "rsAllocationResize1D",
   "linker_set_key" : "rsAllocationResize1D",
   "parameters" :
   [
    {
     "referenced_type" : "_ZTIPv"
    },
    {
     "referenced_type" : "_ZTIPv"
    },
    {
     "referenced_type" : "_ZTIj"
    }
   ],
   "return_type" : "_ZTIv",
   "source_file" : "frameworks/rs/rsApiStubs.h"
  },
  {
   "function_name" : "rsAllocationSetSurface",
   "linker_set_key" : "rsAllocationSetSurface",
   "parameters" :
   [
    {
     "referenced_type" : "_ZTIPv"
    },
    {
     "referenced_type" : "_ZTIPv"
    },
    {
     "referenced_type" : "_ZTIPv"
    }
   ],
   "return_type" : "_ZTIv",
   "source_file" : "frameworks/rs/rsApiStubs.h"
  },
  {
   "function_name" : "rsAllocationSetupBufferQueue",
   "linker_set_key" : "rsAllocationSetupBufferQueue",
   "parameters" :
   [
    {
     "referenced_type" : "_ZTIPv"
    },
    {
     "referenced_type" : "_ZTIPv"
    },
    {
     "referenced_type" : "_ZTIj"
    }
   ],
   "return_type" : "_ZTIv",
   "source_file" : "frameworks/rs/rsApiStubs.h"
  },
  {
   "function_name" : "rsAllocationShareBufferQueue",
   "linker_set_key" : "rsAllocationShareBufferQueue",
   "parameters" :
   [
    {
     "referenced_type" : "_ZTIPv"
    },
    {
     "referenced_type" : "_ZTIPv"
    },
    {
     "referenced_type" : "_ZTIPv"
    }
   ],
   "return_type" : "_ZTIv",
   "source_file" : "frameworks/rs/rsApiStubs.h"
  },
  {
   "function_name" : "rsAllocationSyncAll",
   "linker_set_key" : "rsAllocationSyncAll",
   "parameters" :
   [
    {
     "referenced_type" : "_ZTIPv"
    },
    {
     "referenced_type" : "_ZTIPv"
    },
    {
     "referenced_type" : "_ZTI21RsAllocationUsageType"
    }
   ],
   "return_type" : "_ZTIv",
   "source_file" : "frameworks/rs/rsApiStubs.h"
  },
  {
   "function_name" : "rsAssignName",
   "linker_set_key" : "rsAssignName",
   "parameters" :
   [
    {
     "referenced_type" : "_ZTIPv"
    },
    {
     "referenced_type" : "_ZTIPv"
    },
    {
     "referenced_type" : "_ZTIPKc"
    },
    {
     "referenced_type" : "_ZTIm"
    }
   ],
   "return_type" : "_ZTIv",
   "source_file" : "frameworks/rs/rsApiStubs.h"
  },
  {
   "function_name" : "rsClosureCreate",
   "linker_set_key" : "rsClosureCreate",
   "parameters" :
   [
    {
     "referenced_type" : "_ZTIPv"
    },
    {
     "referenced_type" : "_ZTIPv"
    },
    {
     "referenced_type" : "_ZTIPv"
    },
    {
     "referenced_type" : "_ZTIPPv"
    },
    {
     "referenced_type" : "_ZTIm"
    },
    {
     "referenced_type" : "_ZTIPKl"
    },
    {
     "referenced_type" : "_ZTIm"
    },
    {
     "referenced_type" : "_ZTIPKi"
    },
    {
     "referenced_type" : "_ZTIm"
    },
    {
     "referenced_type" : "_ZTIPPv"
    },
    {
     "referenced_type" : "_ZTIm"
    },
    {
     "referenced_type" : "_ZTIPPv"
    },
    {
     "referenced_type" : "_ZTIm"
    }
   ],
   "return_type" : "_ZTIPv",
   "source_file" : "frameworks/rs/rsApiStubs.h"
  },
  {
   "function_name" : "rsClosureSetArg",
   "linker_set_key" : "rsClosureSetArg",
   "parameters" :
   [
    {
     "referenced_type" : "_ZTIPv"
    },
    {
     "referenced_type" : "_ZTIPv"
    },
    {
     "referenced_type" : "_ZTIj"
    },
    {
     "referenced_type" : "_ZTIm"
    },
    {
     "referenced_type" : "_ZTIi"
    }
   ],
   "return_type" : "_ZTIv",
   "source_file" : "frameworks/rs/rsApiStubs.h"
  },
  {
   "function_name" : "rsClosureSetGlobal",
   "linker_set_key" : "rsClosureSetGlobal",
   "parameters" :
   [
    {
     "referenced_type" : "_ZTIPv"
    },
    {
     "referenced_type" : "_ZTIPv"
    },
    {
     "referenced_type" : "_ZTIPv"
    },
    {
     "referenced_type" : "_ZTIl"
    },
    {
     "referenced_type" : "_ZTIi"
    }
   ],
   "return_type" : "_ZTIv",
   "source_file" : "frameworks/rs/rsApiStubs.h"
  },
  {
   "function_name" : "rsContextBindProgramFragment",
   "linker_set_key" : "rsContextBindProgramFragment",
   "parameters" :
   [
    {
     "referenced_type" : "_ZTIPv"
    },
    {
     "referenced_type" : "_ZTIPv"
    }
   ],
   "return_type" : "_ZTIv",
   "source_file" : "frameworks/rs/rsApiStubs.h"
  },
  {
   "function_name" : "rsContextBindProgramRaster",
   "linker_set_key" : "rsContextBindProgramRaster",
   "parameters" :
   [
    {
     "referenced_type" : "_ZTIPv"
    },
    {
     "referenced_type" : "_ZTIPv"
    }
   ],
   "return_type" : "_ZTIv",
   "source_file" : "frameworks/rs/rsApiStubs.h"
  },
  {
   "function_name" : "rsContextBindProgramStore",
   "linker_set_key" : "rsContextBindProgramStore",
   "parameters" :
   [
    {
     "referenced_type" : "_ZTIPv"
    },
    {
     "referenced_type" : "_ZTIPv"
    }
   ],
   "return_type" : "_ZTIv",
   "source_file" : "frameworks/rs/rsApiStubs.h"
  },
  {
   "function_name" : "rsContextBindProgramVertex",
   "linker_set_key" : "rsContextBindProgramVertex",
   "parameters" :
   [
    {
     "referenced_type" : "_ZTIPv"
    },
    {
     "referenced_type" : "_ZTIPv"
    }
   ],
   "return_type" : "_ZTIv",
   "source_file" : "frameworks/rs/rsApiStubs.h"
  },
  {
   "function_name" : "rsContextBindRootScript",
   "linker_set_key" : "rsContextBindRootScript",
   "parameters" :
   [
    {
     "referenced_type" : "_ZTIPv"
    },
    {
     "referenced_type" : "_ZTIPv"
    }
   ],
   "return_type" : "_ZTIv",
   "source_file" : "frameworks/rs/rsApiStubs.h"
  },
  {
   "function_name" : "rsContextCreate",
   "linker_set_key" : "rsContextCreate",
   "parameters" :
   [
    {
     "referenced_type" : "_ZTIPv"
    },
    {
     "referenced_type" : "_ZTIj"
    },
    {
     "referenced_type" : "_ZTIj"
    },
    {
     "referenced_type" : "_ZTI13RsContextType"
    },
    {
     "referenced_type" : "_ZTIj"
    }
   ],
   "return_type" : "_ZTIPv",
   "source_file" : "frameworks/rs/rsApiStubs.h"
  },
  {
   "function_name" : "rsContextCreateGL",
   "linker_set_key" : "rsContextCreateGL",
   "parameters" :
   [
    {
     "referenced_type" : "_ZTIPv"
    },
    {
     "referenced_type" : "_ZTIj"
    },
    {
     "referenced_type" : "_ZTIj"
    },
    {
     "referenced_type" : "_ZTI15RsSurfaceConfig"
    },
    {
     "referenced_type" : "_ZTIj"
    }
   ],
   "return_type" : "_ZTIPv",
   "source_file" : "frameworks/rs/rsApiStubs.h"
  },
  {
   "function_name" : "rsContextDeinitToClient",
   "linker_set_key" : "rsContextDeinitToClient",
   "parameters" :
   [
    {
     "referenced_type" : "_ZTIPv"
    }
   ],
   "return_type" : "_ZTIv",
   "source_file" : "frameworks/rs/rsApiStubs.h"
  },
  {
   "function_name" : "rsContextDestroy",
   "linker_set_key" : "rsContextDestroy",
   "parameters" :
   [
    {
     "referenced_type" : "_ZTIPv"
    }
   ],
   "return_type" : "_ZTIv",
   "source_file" : "frameworks/rs/rsApiStubs.h"
  },
  {
   "function_name" : "rsContextDestroyWorker",
   "linker_set_key" : "rsContextDestroyWorker",
   "parameters" :
   [
    {
     "referenced_type" : "_ZTIPv"
    }
   ],
   "return_type" : "_ZTIv",
   "source_file" : "frameworks/rs/rsApiStubs.h"
  },
  {
   "function_name" : "rsContextDump",
   "linker_set_key" : "rsContextDump",
   "parameters" :
   [
    {
     "referenced_type" : "_ZTIPv"
    },
    {
     "referenced_type" : "_ZTIi"
    }
   ],
   "return_type" : "_ZTIv",
   "source_file" : "frameworks/rs/rsApiStubs.h"
  },
  {
   "function_name" : "rsContextFinish",
   "linker_set_key" : "rsContextFinish",
   "parameters" :
   [
    {
     "referenced_type" : "_ZTIPv"
    }
   ],
   "return_type" : "_ZTIv",
   "source_file" : "frameworks/rs/rsApiStubs.h"
  },
  {
   "function_name" : "rsContextGetMessage",
   "linker_set_key" : "rsContextGetMessage",
   "parameters" :
   [
    {
     "referenced_type" : "_ZTIPv"
    },
    {
     "referenced_type" : "_ZTIPv"
    },
    {
     "referenced_type" : "_ZTIm"
    },
    {
     "referenced_type" : "_ZTIPm"
    },
    {
     "referenced_type" : "_ZTIm"
    },
    {
     "referenced_type" : "_ZTIPj"
    },
    {
     "referenced_type" : "_ZTIm"
    }
   ],
   "return_type" : "_ZTI21RsMessageToClientType",
   "source_file" : "frameworks/rs/rsApiStubs.h"
  },
  {
   "function_name" : "rsContextInitToClient",
   "linker_set_key" : "rsContextInitToClient",
   "parameters" :
   [
    {
     "referenced_type" : "_ZTIPv"
    }
   ],
   "return_type" : "_ZTIv",
   "source_file" : "frameworks/rs/rsApiStubs.h"
  },
  {
   "function_name" : "rsContextPause",
   "linker_set_key" : "rsContextPause",
   "parameters" :
   [
    {
     "referenced_type" : "_ZTIPv"
    }
   ],
   "return_type" : "_ZTIv",
   "source_file" : "frameworks/rs/rsApiStubs.h"
  },
  {
   "function_name" : "rsContextPeekMessage",
   "linker_set_key" : "rsContextPeekMessage",
   "parameters" :
   [
    {
     "referenced_type" : "_ZTIPv"
    },
    {
     "referenced_type" : "_ZTIPm"
    },
    {
     "referenced_type" : "_ZTIm"
    },
    {
     "referenced_type" : "_ZTIPj"
    },
    {
     "referenced_type" : "_ZTIm"
    }
   ],
   "return_type" : "_ZTI21RsMessageToClientType",
   "source_file" : "frameworks/rs/rsApiStubs.h"
  },
  {
   "function_name" : "rsContextResume",
   "linker_set_key" : "rsContextResume",
   "parameters" :
   [
    {
     "referenced_type" : "_ZTIPv"
    }
   ],
   "return_type" : "_ZTIv",
   "source_file" : "frameworks/rs/rsApiStubs.h"
  },
  {
   "function_name" : "rsContextSendMessage",
   "linker_set_key" : "rsContextSendMessage",
   "parameters" :
   [
    {
     "referenced_type" : "_ZTIPv"
    },
    {
     "referenced_type" : "_ZTIj"
    },
    {
     "referenced_type" : "_ZTIPKh"
    },
    {
     "referenced_type" : "_ZTIm"
    }
   ],
   "return_type" : "_ZTIv",
   "source_file" : "frameworks/rs/rsApiStubs.h"
  },
  {
   "function_name" : "rsContextSetCacheDir",
   "linker_set_key" : "rsContextSetCacheDir",
   "parameters" :
   [
    {
     "referenced_type" : "_ZTIPv"
    },
    {
     "referenced_type" : "_ZTIPKc"
    },
    {
     "referenced_type" : "_ZTIm"
    }
   ],
   "return_type" : "_ZTIv",
   "source_file" : "frameworks/rs/rsApiStubs.h"
  },
  {
   "function_name" : "rsContextSetPriority",
   "linker_set_key" : "rsContextSetPriority",
   "parameters" :
   [
    {
     "referenced_type" : "_ZTIPv"
    },
    {
     "referenced_type" : "_ZTIi"
    }
   ],
   "return_type" : "_ZTIv",
   "source_file" : "frameworks/rs/rsApiStubs.h"
  },
  {
   "function_name" : "rsContextSetSurface",
   "linker_set_key" : "rsContextSetSurface",
   "parameters" :
   [
    {
     "referenced_type" : "_ZTIPv"
    },
    {
     "referenced_type" : "_ZTIj"
    },
    {
     "referenced_type" : "_ZTIj"
    },
    {
     "referenced_type" : "_ZTIPv"
    }
   ],
   "return_type" : "_ZTIv",
   "source_file" : "frameworks/rs/rsApiStubs.h"
  },
  {
   "function_name" : "rsDebugGetHighLevelContext",
   "linker_set_key" : "rsDebugGetHighLevelContext",
   "parameters" :
   [
    {
     "referenced_type" : "_ZTIPv"
    }
   ],
   "return_type" : "_ZTIPv",
   "source_file" : "frameworks/rs/rsApiStubs.cpp"
  },
  {
   "function_name" : "rsDeviceCreate",
   "linker_set_key" : "rsDeviceCreate",
   "return_type" : "_ZTIPv",
   "source_file" : "frameworks/rs/rsApiStubs.h"
  },
  {
   "function_name" : "rsDeviceDestroy",
   "linker_set_key" : "rsDeviceDestroy",
   "parameters" :
   [
    {
     "referenced_type" : "_ZTIPv"
    }
   ],
   "return_type" : "_ZTIv",
   "source_file" : "frameworks/rs/rsApiStubs.h"
  },
  {
   "function_name" : "rsDeviceSetConfig",
   "linker_set_key" : "rsDeviceSetConfig",
   "parameters" :
   [
    {
     "referenced_type" : "_ZTIPv"
    },
    {
     "referenced_type" : "_ZTI13RsDeviceParam"
    },
    {
     "referenced_type" : "_ZTIi"
    }
   ],
   "return_type" : "_ZTIv",
   "source_file" : "frameworks/rs/rsApiStubs.h"
  },
  {
   "function_name" : "rsElementCreate",
   "linker_set_key" : "rsElementCreate",
   "parameters" :
   [
    {
     "referenced_type" : "_ZTIPv"
    },
    {
     "referenced_type" : "_ZTI10RsDataType"
    },
    {
     "referenced_type" : "_ZTI10RsDataKind"
    },
    {
     "referenced_type" : "_ZTIb"
    },
    {
     "referenced_type" : "_ZTIj"
    }
   ],
   "return_type" : "_ZTIPv",
   "source_file" : "frameworks/rs/rsApiStubs.h"
  },
  {
   "function_name" : "rsElementCreate2",
   "linker_set_key" : "rsElementCreate2",
   "parameters" :
   [
    {
     "referenced_type" : "_ZTIPv"
    },
    {
     "referenced_type" : "_ZTIPKPv"
    },
    {
     "referenced_type" : "_ZTIm"
    },
    {
     "referenced_type" : "_ZTIPPKc"
    },
    {
     "referenced_type" : "_ZTIm"
    },
    {
     "referenced_type" : "_ZTIPKm"
    },
    {
     "referenced_type" : "_ZTIPKj"
    },
    {
     "referenced_type" : "_ZTIm"
    }
   ],
   "return_type" : "_ZTIPv",
   "source_file" : "frameworks/rs/rsApiStubs.h"
  },
  {
   "function_name" : "rsFontCreateFromFile",
   "linker_set_key" : "rsFontCreateFromFile",
   "parameters" :
   [
    {
     "referenced_type" : "_ZTIPv"
    },
    {
     "referenced_type" : "_ZTIPKc"
    },
    {
     "referenced_type" : "_ZTIm"
    },
    {
     "referenced_type" : "_ZTIf"
    },
    {
     "referenced_type" : "_ZTIj"
    }
   ],
   "return_type" : "_ZTIPv",
   "source_file" : "frameworks/rs/rsApiStubs.h"
  },
  {
   "function_name" : "rsFontCreateFromMemory",
   "linker_set_key" : "rsFontCreateFromMemory",
   "parameters" :
   [
    {
     "referenced_type" : "_ZTIPv"
    },
    {
     "referenced_type" : "_ZTIPKc"
    },
    {
     "referenced_type" : "_ZTIm"
    },
    {
     "referenced_type" : "_ZTIf"
    },
    {
     "referenced_type" : "_ZTIj"
    },
    {
     "referenced_type" : "_ZTIPKv"
    },
    {
     "referenced_type" : "_ZTIm"
    }
   ],
   "return_type" : "_ZTIPv",
   "source_file" : "frameworks/rs/rsApiStubs.h"
  },
  {
   "function_name" : "rsInvokeClosureCreate",
   "linker_set_key" : "rsInvokeClosureCreate",
   "parameters" :
   [
    {
     "referenced_type" : "_ZTIPv"
    },
    {
     "referenced_type" : "_ZTIPv"
    },
    {
     "referenced_type" : "_ZTIPKv"
    },
    {
     "referenced_type" : "_ZTIm"
    },
    {
     "referenced_type" : "_ZTIPKPv"
    },
    {
     "referenced_type" : "_ZTIm"
    },
    {
     "referenced_type" : "_ZTIPKl"
    },
    {
     "referenced_type" : "_ZTIm"
    },
    {
     "referenced_type" : "_ZTIPKi"
    },
    {
     "referenced_type" : "_ZTIm"
    }
   ],
   "return_type" : "_ZTIPv",
   "source_file" : "frameworks/rs/rsApiStubs.h"
  },
  {
   "function_name" : "rsMeshCreate",
   "linker_set_key" : "rsMeshCreate",
   "parameters" :
   [
    {
     "referenced_type" : "_ZTIPv"
    },
    {
     "referenced_type" : "_ZTIPPv"
    },
    {
     "referenced_type" : "_ZTIm"
    },
    {
     "referenced_type" : "_ZTIPPv"
    },
    {
     "referenced_type" : "_ZTIm"
    },
    {
     "referenced_type" : "_ZTIPj"
    },
    {
     "referenced_type" : "_ZTIm"
    }
   ],
   "return_type" : "_ZTIPv",
   "source_file" : "frameworks/rs/rsApiStubs.h"
  },
  {
   "function_name" : "rsObjDestroy",
   "linker_set_key" : "rsObjDestroy",
   "parameters" :
   [
    {
     "referenced_type" : "_ZTIPv"
    },
    {
     "referenced_type" : "_ZTIPv"
    }
   ],
   "return_type" : "_ZTIv",
   "source_file" : "frameworks/rs/rsApiStubs.h"
  },
  {
   "function_name" : "rsProgramBindConstants",
   "linker_set_key" : "rsProgramBindConstants",
   "parameters" :
   [
    {
     "referenced_type" : "_ZTIPv"
    },
    {
     "referenced_type" : "_ZTIPv"
    },
    {
     "referenced_type" : "_ZTIj"
    },
    {
     "referenced_type" : "_ZTIPv"
    }
   ],
   "return_type" : "_ZTIv",
   "source_file" : "frameworks/rs/rsApiStubs.h"
  },
  {
   "function_name" : "rsProgramBindSampler",
   "linker_set_key" : "rsProgramBindSampler",
   "parameters" :
   [
    {
     "referenced_type" : "_ZTIPv"
    },
    {
     "referenced_type" : "_ZTIPv"
    },
    {
     "referenced_type" : "_ZTIj"
    },
    {
     "referenced_type" : "_ZTIPv"
    }
   ],
   "return_type" : "_ZTIv",
   "source_file" : "frameworks/rs/rsApiStubs.h"
  },
  {
   "function_name" : "rsProgramBindTexture",
   "linker_set_key" : "rsProgramBindTexture",
   "parameters" :
   [
    {
     "referenced_type" : "_ZTIPv"
    },
    {
     "referenced_type" : "_ZTIPv"
    },
    {
     "referenced_type" : "_ZTIj"
    },
    {
     "referenced_type" : "_ZTIPv"
    }
   ],
   "return_type" : "_ZTIv",
   "source_file" : "frameworks/rs/rsApiStubs.h"
  },
  {
   "function_name" : "rsProgramFragmentCreate",
   "linker_set_key" : "rsProgramFragmentCreate",
   "parameters" :
   [
    {
     "referenced_type" : "_ZTIPv"
    },
    {
     "referenced_type" : "_ZTIPKc"
    },
    {
     "referenced_type" : "_ZTIm"
    },
    {
     "referenced_type" : "_ZTIPPKc"
    },
    {
     "referenced_type" : "_ZTIm"
    },
    {
     "referenced_type" : "_ZTIPKm"
    },
    {
     "referenced_type" : "_ZTIPKm"
    },
    {
     "referenced_type" : "_ZTIm"
    }
   ],
   "return_type" : "_ZTIPv",
   "source_file" : "frameworks/rs/rsApiStubs.h"
  },
  {
   "function_name" : "rsProgramRasterCreate",
   "linker_set_key" : "rsProgramRasterCreate",
   "parameters" :
   [
    {
     "referenced_type" : "_ZTIPv"
    },
    {
     "referenced_type" : "_ZTIb"
    },
    {
     "referenced_type" : "_ZTI10RsCullMode"
    }
   ],
   "return_type" : "_ZTIPv",
   "source_file" : "frameworks/rs/rsApiStubs.h"
  },
  {
   "function_name" : "rsProgramStoreCreate",
   "linker_set_key" : "rsProgramStoreCreate",
   "parameters" :
   [
    {
     "referenced_type" : "_ZTIPv"
    },
    {
     "referenced_type" : "_ZTIb"
    },
    {
     "referenced_type" : "_ZTIb"
    },
    {
     "referenced_type" : "_ZTIb"
    },
    {
     "referenced_type" : "_ZTIb"
    },
    {
     "referenced_type" : "_ZTIb"
    },
    {
     "referenced_type" : "_ZTIb"
    },
    {
     "referenced_type" : "_ZTI14RsBlendSrcFunc"
    },
    {
     "referenced_type" : "_ZTI14RsBlendDstFunc"
    },
    {
     "referenced_type" : "_ZTI11RsDepthFunc"
    }
   ],
   "return_type" : "_ZTIPv",
   "source_file" : "frameworks/rs/rsApiStubs.h"
  },
  {
   "function_name" : "rsProgramVertexCreate",
   "linker_set_key" : "rsProgramVertexCreate",
   "parameters" :
   [
    {
     "referenced_type" : "_ZTIPv"
    },
    {
     "referenced_type" : "_ZTIPKc"
    },
    {
     "referenced_type" : "_ZTIm"
    },
    {
     "referenced_type" : "_ZTIPPKc"
    },
    {
     "referenced_type" : "_ZTIm"
    },
    {
     "referenced_type" : "_ZTIPKm"
    },
    {
     "referenced_type" : "_ZTIPKm"
    },
    {
     "referenced_type" : "_ZTIm"
    }
   ],
   "return_type" : "_ZTIPv",
   "source_file" : "frameworks/rs/rsApiStubs.h"
  },
  {
   "function_name" : "rsSamplerCreate",
   "linker_set_key" : "rsSamplerCreate",
   "parameters" :
   [
    {
     "referenced_type" : "_ZTIPv"
    },
    {
     "referenced_type" : "_ZTI14RsSamplerValue"
    },
    {
     "referenced_type" : "_ZTI14RsSamplerValue"
    },
    {
     "referenced_type" : "_ZTI14RsSamplerValue"
    },
    {
     "referenced_type" : "_ZTI14RsSamplerValue"
    },
    {
     "referenced_type" : "_ZTI14RsSamplerValue"
    },
    {
     "referenced_type" : "_ZTIf"
    }
   ],
   "return_type" : "_ZTIPv",
   "source_file" : "frameworks/rs/rsApiStubs.h"
  },
  {
   "function_name" : "rsScriptBindAllocation",
   "linker_set_key" : "rsScriptBindAllocation",
   "parameters" :
   [
    {
     "referenced_type" : "_ZTIPv"
    },
    {
     "referenced_type" : "_ZTIPv"
    },
    {
     "referenced_type" : "_ZTIPv"
    },
    {
     "referenced_type" : "_ZTIj"
    }
   ],
   "return_type" : "_ZTIv",
   "source_file" : "frameworks/rs/rsApiStubs.h"
  },
  {
   "function_name" : "rsScriptCCreate",
   "linker_set_key" : "rsScriptCCreate",
   "parameters" :
   [
    {
     "referenced_type" : "_ZTIPv"
    },
    {
     "referenced_type" : "_ZTIPKc"
    },
    {
     "referenced_type" : "_ZTIm"
    },
    {
     "referenced_type" : "_ZTIPKc"
    },
    {
     "referenced_type" : "_ZTIm"
    },
    {
     "referenced_type" : "_ZTIPKc"
    },
    {
     "referenced_type" : "_ZTIm"
    }
   ],
   "return_type" : "_ZTIPv",
   "source_file" : "frameworks/rs/rsApiStubs.h"
  },
  {
   "function_name" : "rsScriptFieldIDCreate",
   "linker_set_key" : "rsScriptFieldIDCreate",
   "parameters" :
   [
    {
     "referenced_type" : "_ZTIPv"
    },
    {
     "referenced_type" : "_ZTIPv"
    },
    {
     "referenced_type" : "_ZTIi"
    }
   ],
   "return_type" : "_ZTIPv",
   "source_file" : "frameworks/rs/rsApiStubs.h"
  },
  {
   "function_name" : "rsScriptForEach",
   "linker_set_key" : "rsScriptForEach",
   "parameters" :
   [
    {
     "referenced_type" : "_ZTIPv"
    },
    {
     "referenced_type" : "_ZTIPv"
    },
    {
     "referenced_type" : "_ZTIj"
    },
    {
     "referenced_type" : "_ZTIPv"
    },
    {
     "referenced_type" : "_ZTIPv"
    },
    {
     "referenced_type" : "_ZTIPKv"
    },
    {
     "referenced_type" : "_ZTIm"
    },
    {
     "referenced_type" : "_ZTIPK12RsScriptCall"
    },
    {
     "referenced_type" : "_ZTIm"
    }
   ],
   "return_type" : "_ZTIv",
   "source_file" : "frameworks/rs/rsApiStubs.h"
  },
  {
   "function_name" : "rsScriptForEachMulti",
   "linker_set_key" : "rsScriptForEachMulti",
   "parameters" :
   [
    {
     "referenced_type" : "_ZTIPv"
    },
    {
     "referenced_type" : "_ZTIPv"
    },
    {
     "referenced_type" : "_ZTIj"
    },
    {
     "referenced_type" : "_ZTIPPv"
    },
    {
     "referenced_type" : "_ZTIm"
    },
    {
     "referenced_type" : "_ZTIPv"
    },
    {
     "referenced_type" : "_ZTIPKv"
    },
    {
     "referenced_type" : "_ZTIm"
    },
    {
     "referenced_type" : "_ZTIPK12RsScriptCall"
    },
    {
     "referenced_type" : "_ZTIm"
    }
   ],
   "return_type" : "_ZTIv",
   "source_file" : "frameworks/rs/rsApiStubs.h"
  },
  {
   "function_name" : "rsScriptGetVarV",
   "linker_set_key" : "rsScriptGetVarV",
   "parameters" :
   [
    {
     "referenced_type" : "_ZTIPv"
    },
    {
     "referenced_type" : "_ZTIPv"
    },
    {
     "referenced_type" : "_ZTIj"
    },
    {
     "referenced_type" : "_ZTIPv"
    },
    {
     "referenced_type" : "_ZTIm"
    }
   ],
   "return_type" : "_ZTIv",
   "source_file" : "frameworks/rs/rsApiStubs.h"
  },
  {
   "function_name" : "rsScriptGroup2Create",
   "linker_set_key" : "rsScriptGroup2Create",
   "parameters" :
   [
    {
     "referenced_type" : "_ZTIPv"
    },
    {
     "referenced_type" : "_ZTIPKc"
    },
    {
     "referenced_type" : "_ZTIm"
    },
    {
     "referenced_type" : "_ZTIPKc"
    },
    {
     "referenced_type" : "_ZTIm"
    },
    {
     "referenced_type" : "_ZTIPPv"
    },
    {
     "referenced_type" : "_ZTIm"
    }
   ],
   "return_type" : "_ZTIPv",
   "source_file" : "frameworks/rs/rsApiStubs.h"
  },
  {
   "function_name" : "rsScriptGroupCreate",
   "linker_set_key" : "rsScriptGroupCreate",
   "parameters" :
   [
    {
     "referenced_type" : "_ZTIPv"
    },
    {
     "referenced_type" : "_ZTIPPv"
    },
    {
     "referenced_type" : "_ZTIm"
    },
    {
     "referenced_type" : "_ZTIPPv"
    },
    {
     "referenced_type" : "_ZTIm"
    },
    {
     "referenced_type" : "_ZTIPPv"
    },
    {
     "referenced_type" : "_ZTIm"
    },
    {
     "referenced_type" : "_ZTIPPv"
    },
    {
     "referenced_type" : "_ZTIm"
    },
    {
     "referenced_type" : "_ZTIPKPv"
    },
    {
     "referenced_type" : "_ZTIm"
    }
   ],
   "return_type" : "_ZTIPv",
   "source_file" : "frameworks/rs/rsApiStubs.h"
  },
  {
   "function_name" : "rsScriptGroupExecute",
   "linker_set_key" : "rsScriptGroupExecute",
   "parameters" :
   [
    {
     "referenced_type" : "_ZTIPv"
    },
    {
     "referenced_type" : "_ZTIPv"
    }
   ],
   "return_type" : "_ZTIv",
   "source_file" : "frameworks/rs/rsApiStubs.h"
  },
  {
   "function_name" : "rsScriptGroupSetInput",
   "linker_set_key" : "rsScriptGroupSetInput",
   "parameters" :
   [
    {
     "referenced_type" : "_ZTIPv"
    },
    {
     "referenced_type" : "_ZTIPv"
    },
    {
     "referenced_type" : "_ZTIPv"
    },
    {
     "referenced_type" : "_ZTIPv"
    }
   ],
   "return_type" : "_ZTIv",
   "source_file" : "frameworks/rs/rsApiStubs.h"
  },
  {
   "function_name" : "rsScriptGroupSetOutput",
   "linker_set_key" : "rsScriptGroupSetOutput",
   "parameters" :
   [
    {
     "referenced_type" : "_ZTIPv"
    },
    {
     "referenced_type" : "_ZTIPv"
    },
    {
     "referenced_type" : "_ZTIPv"
    },
    {
     "referenced_type" : "_ZTIPv"
    }
   ],
   "return_type" : "_ZTIv",
   "source_file" : "frameworks/rs/rsApiStubs.h"
  },
  {
   "function_name" : "rsScriptIntrinsicCreate",
   "linker_set_key" : "rsScriptIntrinsicCreate",
   "parameters" :
   [
    {
     "referenced_type" : "_ZTIPv"
    },
    {
     "referenced_type" : "_ZTIj"
    },
    {
     "referenced_type" : "_ZTIPv"
    }
   ],
   "return_type" : "_ZTIPv",
   "source_file" : "frameworks/rs/rsApiStubs.h"
  },
  {
   "function_name" : "rsScriptInvoke",
   "linker_set_key" : "rsScriptInvoke",
   "parameters" :
   [
    {
     "referenced_type" : "_ZTIPv"
    },
    {
     "referenced_type" : "_ZTIPv"
    },
    {
     "referenced_type" : "_ZTIj"
    }
   ],
   "return_type" : "_ZTIv",
   "source_file" : "frameworks/rs/rsApiStubs.h"
  },
  {
   "function_name" : "rsScriptInvokeIDCreate",
   "linker_set_key" : "rsScriptInvokeIDCreate",
   "parameters" :
   [
    {
     "referenced_type" : "_ZTIPv"
    },
    {
     "referenced_type" : "_ZTIPv"
    },
    {
     "referenced_type" : "_ZTIj"
    }
   ],
   "return_type" : "_ZTIPv",
   "source_file" : "frameworks/rs/rsApiStubs.h"
  },
  {
   "function_name" : "rsScriptInvokeV",
   "linker_set_key" : "rsScriptInvokeV",
   "parameters" :
   [
    {
     "referenced_type" : "_ZTIPv"
    },
    {
     "referenced_type" : "_ZTIPv"
    },
    {
     "referenced_type" : "_ZTIj"
    },
    {
     "referenced_type" : "_ZTIPKv"
    },
    {
     "referenced_type" : "_ZTIm"
    }
   ],
   "return_type" : "_ZTIv",
   "source_file" : "frameworks/rs/rsApiStubs.h"
  },
  {
   "function_name" : "rsScriptKernelIDCreate",
   "linker_set_key" : "rsScriptKernelIDCreate",
   "parameters" :
   [
    {
     "referenced_type" : "_ZTIPv"
    },
    {
     "referenced_type" : "_ZTIPv"
    },
    {
     "referenced_type" : "_ZTIi"
    },
    {
     "referenced_type" : "_ZTIi"
    }
   ],
   "return_type" : "_ZTIPv",
   "source_file" : "frameworks/rs/rsApiStubs.h"
  },
  {
   "function_name" : "rsScriptReduce",
   "linker_set_key" : "rsScriptReduce",
   "parameters" :
   [
    {
     "referenced_type" : "_ZTIPv"
    },
    {
     "referenced_type" : "_ZTIPv"
    },
    {
     "referenced_type" : "_ZTIj"
    },
    {
     "referenced_type" : "_ZTIPPv"
    },
    {
     "referenced_type" : "_ZTIm"
    },
    {
     "referenced_type" : "_ZTIPv"
    },
    {
     "referenced_type" : "_ZTIPK12RsScriptCall"
    },
    {
     "referenced_type" : "_ZTIm"
    }
   ],
   "return_type" : "_ZTIv",
   "source_file" : "frameworks/rs/rsApiStubs.h"
  },
  {
   "function_name" : "rsScriptSetTimeZone",
   "linker_set_key" : "rsScriptSetTimeZone",
   "parameters" :
   [
    {
     "referenced_type" : "_ZTIPv"
    },
    {
     "referenced_type" : "_ZTIPv"
    },
    {
     "referenced_type" : "_ZTIPKc"
    },
    {
     "referenced_type" : "_ZTIm"
    }
   ],
   "return_type" : "_ZTIv",
   "source_file" : "frameworks/rs/rsApiStubs.h"
  },
  {
   "function_name" : "rsScriptSetVarD",
   "linker_set_key" : "rsScriptSetVarD",
   "parameters" :
   [
    {
     "referenced_type" : "_ZTIPv"
    },
    {
     "referenced_type" : "_ZTIPv"
    },
    {
     "referenced_type" : "_ZTIj"
    },
    {
     "referenced_type" : "_ZTId"
    }
   ],
   "return_type" : "_ZTIv",
   "source_file" : "frameworks/rs/rsApiStubs.h"
  },
  {
   "function_name" : "rsScriptSetVarF",
   "linker_set_key" : "rsScriptSetVarF",
   "parameters" :
   [
    {
     "referenced_type" : "_ZTIPv"
    },
    {
     "referenced_type" : "_ZTIPv"
    },
    {
     "referenced_type" : "_ZTIj"
    },
    {
     "referenced_type" : "_ZTIf"
    }
   ],
   "return_type" : "_ZTIv",
   "source_file" : "frameworks/rs/rsApiStubs.h"
  },
  {
   "function_name" : "rsScriptSetVarI",
   "linker_set_key" : "rsScriptSetVarI",
   "parameters" :
   [
    {
     "referenced_type" : "_ZTIPv"
    },
    {
     "referenced_type" : "_ZTIPv"
    },
    {
     "referenced_type" : "_ZTIj"
    },
    {
     "referenced_type" : "_ZTIi"
    }
   ],
   "return_type" : "_ZTIv",
   "source_file" : "frameworks/rs/rsApiStubs.h"
  },
  {
   "function_name" : "rsScriptSetVarJ",
   "linker_set_key" : "rsScriptSetVarJ",
   "parameters" :
   [
    {
     "referenced_type" : "_ZTIPv"
    },
    {
     "referenced_type" : "_ZTIPv"
    },
    {
     "referenced_type" : "_ZTIj"
    },
    {
     "referenced_type" : "_ZTIl"
    }
   ],
   "return_type" : "_ZTIv",
   "source_file" : "frameworks/rs/rsApiStubs.h"
  },
  {
   "function_name" : "rsScriptSetVarObj",
   "linker_set_key" : "rsScriptSetVarObj",
   "parameters" :
   [
    {
     "referenced_type" : "_ZTIPv"
    },
    {
     "referenced_type" : "_ZTIPv"
    },
    {
     "referenced_type" : "_ZTIj"
    },
    {
     "referenced_type" : "_ZTIPv"
    }
   ],
   "return_type" : "_ZTIv",
   "source_file" : "frameworks/rs/rsApiStubs.h"
  },
  {
   "function_name" : "rsScriptSetVarV",
   "linker_set_key" : "rsScriptSetVarV",
   "parameters" :
   [
    {
     "referenced_type" : "_ZTIPv"
    },
    {
     "referenced_type" : "_ZTIPv"
    },
    {
     "referenced_type" : "_ZTIj"
    },
    {
     "referenced_type" : "_ZTIPKv"
    },
    {
     "referenced_type" : "_ZTIm"
    }
   ],
   "return_type" : "_ZTIv",
   "source_file" : "frameworks/rs/rsApiStubs.h"
  },
  {
   "function_name" : "rsScriptSetVarVE",
   "linker_set_key" : "rsScriptSetVarVE",
   "parameters" :
   [
    {
     "referenced_type" : "_ZTIPv"
    },
    {
     "referenced_type" : "_ZTIPv"
    },
    {
     "referenced_type" : "_ZTIj"
    },
    {
     "referenced_type" : "_ZTIPKv"
    },
    {
     "referenced_type" : "_ZTIm"
    },
    {
     "referenced_type" : "_ZTIPv"
    },
    {
     "referenced_type" : "_ZTIPKj"
    },
    {
     "referenced_type" : "_ZTIm"
    }
   ],
   "return_type" : "_ZTIv",
   "source_file" : "frameworks/rs/rsApiStubs.h"
  },
  {
   "function_name" : "rsTypeCreate",
   "linker_set_key" : "rsTypeCreate",
   "parameters" :
   [
    {
     "referenced_type" : "_ZTIPv"
    },
    {
     "referenced_type" : "_ZTIPv"
    },
    {
     "referenced_type" : "_ZTIj"
    },
    {
     "referenced_type" : "_ZTIj"
    },
    {
     "referenced_type" : "_ZTIj"
    },
    {
     "referenced_type" : "_ZTIb"
    },
    {
     "referenced_type" : "_ZTIb"
    },
    {
     "referenced_type" : "_ZTIj"
    }
   ],
   "return_type" : "_ZTIPv",
   "source_file" : "frameworks/rs/rsApiStubs.h"
  },
  {
   "function_name" : "rsTypeCreate2",
   "linker_set_key" : "rsTypeCreate2",
   "parameters" :
   [
    {
     "referenced_type" : "_ZTIPv"
    },
    {
     "referenced_type" : "_ZTIPK18RsTypeCreateParams"
    },
    {
     "referenced_type" : "_ZTIm"
    }
   ],
   "return_type" : "_ZTIPv",
   "source_file" : "frameworks/rs/rsApiStubs.h"
  },
  {
   "function_name" : "rsaAllocationGetType",
   "linker_set_key" : "rsaAllocationGetType",
   "parameters" :
   [
    {
     "referenced_type" : "_ZTIPv"
    },
    {
     "referenced_type" : "_ZTIPv"
    }
   ],
   "return_type" : "_ZTIPKv",
   "source_file" : "frameworks/rs/rsApiStubs.h"
  },
  {
   "function_name" : "rsaContextSetNativeLibDir",
   "linker_set_key" : "rsaContextSetNativeLibDir",
   "parameters" :
   [
    {
     "referenced_type" : "_ZTIPv"
    },
    {
     "referenced_type" : "_ZTIPc"
    },
    {
     "referenced_type" : "_ZTIm"
    }
   ],
   "return_type" : "_ZTIv",
   "source_file" : "frameworks/rs/rsApiStubs.h"
  },
  {
   "function_name" : "rsaElementGetNativeData",
   "linker_set_key" : "rsaElementGetNativeData",
   "parameters" :
   [
    {
     "referenced_type" : "_ZTIPv"
    },
    {
     "referenced_type" : "_ZTIPv"
    },
    {
     "referenced_type" : "_ZTIPj"
    },
    {
     "referenced_type" : "_ZTIj"
    }
   ],
   "return_type" : "_ZTIv",
   "source_file" : "frameworks/rs/rsApiStubs.h"
  },
  {
   "function_name" : "rsaElementGetSubElements",
   "linker_set_key" : "rsaElementGetSubElements",
   "parameters" :
   [
    {
     "referenced_type" : "_ZTIPv"
    },
    {
     "referenced_type" : "_ZTIPv"
    },
    {
     "referenced_type" : "_ZTIPm"
    },
    {
     "referenced_type" : "_ZTIPPKc"
    },
    {
     "referenced_type" : "_ZTIPm"
    },
    {
     "referenced_type" : "_ZTIj"
    }
   ],
   "return_type" : "_ZTIv",
   "source_file" : "frameworks/rs/rsApiStubs.h"
  },
  {
   "function_name" : "rsaFileA3DCreateFromAsset",
   "linker_set_key" : "rsaFileA3DCreateFromAsset",
   "parameters" :
   [
    {
     "referenced_type" : "_ZTIPv"
    },
    {
     "referenced_type" : "_ZTIPv"
    }
   ],
   "return_type" : "_ZTIPv",
   "source_file" : "frameworks/rs/rsApiStubs.h"
  },
  {
   "function_name" : "rsaFileA3DCreateFromFile",
   "linker_set_key" : "rsaFileA3DCreateFromFile",
   "parameters" :
   [
    {
     "referenced_type" : "_ZTIPv"
    },
    {
     "referenced_type" : "_ZTIPKc"
    }
   ],
   "return_type" : "_ZTIPv",
   "source_file" : "frameworks/rs/rsApiStubs.h"
  },
  {
   "function_name" : "rsaFileA3DCreateFromMemory",
   "linker_set_key" : "rsaFileA3DCreateFromMemory",
   "parameters" :
   [
    {
     "referenced_type" : "_ZTIPv"
    },
    {
     "referenced_type" : "_ZTIPKv"
    },
    {
     "referenced_type" : "_ZTIj"
    }
   ],
   "return_type" : "_ZTIPv",
   "source_file" : "frameworks/rs/rsApiStubs.h"
  },
  {
   "function_name" : "rsaFileA3DGetEntryByIndex",
   "linker_set_key" : "rsaFileA3DGetEntryByIndex",
   "parameters" :
   [
    {
     "referenced_type" : "_ZTIPv"
    },
    {
     "referenced_type" : "_ZTIj"
    },
    {
     "referenced_type" : "_ZTIPv"
    }
   ],
   "return_type" : "_ZTIPv",
   "source_file" : "frameworks/rs/rsApiStubs.h"
  },
  {
   "function_name" : "rsaFileA3DGetIndexEntries",
   "linker_set_key" : "rsaFileA3DGetIndexEntries",
   "parameters" :
   [
    {
     "referenced_type" : "_ZTIPv"
    },
    {
     "referenced_type" : "_ZTIP16RsFileIndexEntry"
    },
    {
     "referenced_type" : "_ZTIj"
    },
    {
     "referenced_type" : "_ZTIPv"
    }
   ],
   "return_type" : "_ZTIv",
   "source_file" : "frameworks/rs/rsApiStubs.h"
  },
  {
   "function_name" : "rsaFileA3DGetNumIndexEntries",
   "linker_set_key" : "rsaFileA3DGetNumIndexEntries",
   "parameters" :
   [
    {
     "referenced_type" : "_ZTIPv"
    },
    {
     "referenced_type" : "_ZTIPi"
    },
    {
     "referenced_type" : "_ZTIPv"
    }
   ],
   "return_type" : "_ZTIv",
   "source_file" : "frameworks/rs/rsApiStubs.h"
  },
  {
   "function_name" : "rsaGetName",
   "linker_set_key" : "rsaGetName",
   "parameters" :
   [
    {
     "referenced_type" : "_ZTIPv"
    },
    {
     "referenced_type" : "_ZTIPv"
    },
    {
     "referenced_type" : "_ZTIPPKc"
    }
   ],
   "return_type" : "_ZTIv",
   "source_file" : "frameworks/rs/rsApiStubs.h"
  },
  {
   "function_name" : "rsaMeshGetIndexCount",
   "linker_set_key" : "rsaMeshGetIndexCount",
   "parameters" :
   [
    {
     "referenced_type" : "_ZTIPv"
    },
    {
     "referenced_type" : "_ZTIPv"
    },
    {
     "referenced_type" : "_ZTIPi"
    }
   ],
   "return_type" : "_ZTIv",
   "source_file" : "frameworks/rs/rsApiStubs.h"
  },
  {
   "function_name" : "rsaMeshGetIndices",
   "linker_set_key" : "rsaMeshGetIndices",
   "parameters" :
   [
    {
     "referenced_type" : "_ZTIPv"
    },
    {
     "referenced_type" : "_ZTIPv"
    },
    {
     "referenced_type" : "_ZTIPPv"
    },
    {
     "referenced_type" : "_ZTIPj"
    },
    {
     "referenced_type" : "_ZTIj"
    }
   ],
   "return_type" : "_ZTIv",
   "source_file" : "frameworks/rs/rsApiStubs.h"
  },
  {
   "function_name" : "rsaMeshGetVertexBufferCount",
   "linker_set_key" : "rsaMeshGetVertexBufferCount",
   "parameters" :
   [
    {
     "referenced_type" : "_ZTIPv"
    },
    {
     "referenced_type" : "_ZTIPv"
    },
    {
     "referenced_type" : "_ZTIPi"
    }
   ],
   "return_type" : "_ZTIv",
   "source_file" : "frameworks/rs/rsApiStubs.h"
  },
  {
   "function_name" : "rsaMeshGetVertices",
   "linker_set_key" : "rsaMeshGetVertices",
   "parameters" :
   [
    {
     "referenced_type" : "_ZTIPv"
    },
    {
     "referenced_type" : "_ZTIPv"
    },
    {
     "referenced_type" : "_ZTIPPv"
    },
    {
     "referenced_type" : "_ZTIj"
    }
   ],
   "return_type" : "_ZTIv",
   "source_file" : "frameworks/rs/rsApiStubs.h"
  },
  {
   "function_name" : "rsaTypeGetNativeData",
   "linker_set_key" : "rsaTypeGetNativeData",
   "parameters" :
   [
    {
     "referenced_type" : "_ZTIPv"
    },
    {
     "referenced_type" : "_ZTIPv"
    },
    {
     "referenced_type" : "_ZTIPm"
    },
    {
     "referenced_type" : "_ZTIj"
    }
   ],
   "return_type" : "_ZTIv",
   "source_file" : "frameworks/rs/rsApiStubs.h"
  }
 ],
 "global_vars" :
 [
  {
   "linker_set_key" : "gDebuggerPresent",
   "name" : "gDebuggerPresent",
   "referenced_type" : "_ZTIi",
   "source_file" : "frameworks/rs/rsApiStubs.cpp"
  }
 ],
 "lvalue_reference_types" :
 [
  {
   "alignment" : 8,
   "linker_set_key" : "_ZTIR13dispatchTable",
   "name" : "dispatchTable &",
   "referenced_type" : "_ZTI13dispatchTable",
   "size" : 8,
   "source_file" : "frameworks/rs/cpp/rsDispatch.h"
  },
  {
   "alignment" : 8,
   "linker_set_key" : "_ZTIR16RsHidlAdaptation",
   "name" : "RsHidlAdaptation &",
   "referenced_type" : "_ZTI16RsHidlAdaptation",
   "size" : 8,
   "source_file" : "frameworks/rs/rsHidlAdaptation.h"
  },
  {
   "alignment" : 8,
   "linker_set_key" : "_ZTIR20RsFallbackAdaptation",
   "name" : "RsFallbackAdaptation &",
   "referenced_type" : "_ZTI20RsFallbackAdaptation",
   "size" : 8,
   "source_file" : "frameworks/rs/rsFallbackAdaptation.h"
  },
  {
   "alignment" : 8,
   "linker_set_key" : "_ZTIR8ioSuppDT",
   "name" : "ioSuppDT &",
   "referenced_type" : "_ZTI8ioSuppDT",
   "size" : 8,
   "source_file" : "frameworks/rs/cpp/rsDispatch.h"
  },
  {
   "alignment" : 8,
   "linker_set_key" : "_ZTIR9mbstate_t",
   "name" : "mbstate_t &",
   "referenced_type" : "_ZTI9mbstate_t",
   "size" : 8,
   "source_file" : "external/libcxx/include/__locale"
  },
  {
   "alignment" : 8,
   "linker_set_key" : "_ZTIRA10_Kc",
   "name" : "const char (&)[10]",
   "referenced_type" : "_ZTIA10_Kc",
   "size" : 8,
   "source_file" : "external/libcxx/include/type_traits"
  },
  {
   "alignment" : 8,
   "linker_set_key" : "_ZTIRA11_Kc",
   "name" : "const char (&)[11]",
   "referenced_type" : "_ZTIA11_Kc",
   "size" : 8,
   "source_file" : "external/libcxx/include/type_traits"
  },
  {
   "alignment" : 8,
   "linker_set_key" : "_ZTIRA12_Kc",
   "name" : "const char (&)[12]",
   "referenced_type" : "_ZTIA12_Kc",
   "size" : 8,
   "source_file" : "external/libcxx/include/type_traits"
  },
  {
   "alignment" : 8,
   "linker_set_key" : "_ZTIRA13_Kc",
   "name" : "const char (&)[13]",
   "referenced_type" : "_ZTIA13_Kc",
   "size" : 8,
   "source_file" : "external/libcxx/include/type_traits"
  },
  {
   "alignment" : 8,
   "linker_set_key" : "_ZTIRA14_Kc",
   "name" : "const char (&)[14]",
   "referenced_type" : "_ZTIA14_Kc",
   "size" : 8,
   "source_file" : "external/libcxx/include/type_traits"
  },
  {
   "alignment" : 8,
   "linker_set_key" : "_ZTIRA15_Kc",
   "name" : "const char (&)[15]",
   "referenced_type" : "_ZTIA15_Kc",
   "size" : 8,
   "source_file" : "external/libcxx/include/type_traits"
  },
  {
   "alignment" : 8,
   "linker_set_key" : "_ZTIRA16_Kc",
   "name" : "const char (&)[16]",
   "referenced_type" : "_ZTIA16_Kc",
   "size" : 8,
   "source_file" : "external/libcxx/include/type_traits"
  },
  {
   "alignment" : 8,
   "linker_set_key" : "_ZTIRA17_Kc",
   "name" : "const char (&)[17]",
   "referenced_type" : "_ZTIA17_Kc",
   "size" : 8,
   "source_file" : "external/libcxx/include/type_traits"
  },
  {
   "alignment" : 8,
   "linker_set_key" : "_ZTIRA18_Kc",
   "name" : "const char (&)[18]",
   "referenced_type" : "_ZTIA18_Kc",
   "size" : 8,
   "source_file" : "external/libcxx/include/type_traits"
  },
  {
   "alignment" : 8,
   "linker_set_key" : "_ZTIRA19_Kc",
   "name" : "const char (&)[19]",
   "referenced_type" : "_ZTIA19_Kc",
   "size" : 8,
   "source_file" : "external/libcxx/include/type_traits"
  },
  {
   "alignment" : 8,
   "linker_set_key" : "_ZTIRA23_Kc",
   "name" : "const char (&)[23]",
   "referenced_type" : "_ZTIA23_Kc",
   "size" : 8,
   "source_file" : "external/libcxx/include/type_traits"
  },
  {
   "alignment" : 8,
   "linker_set_key" : "_ZTIRA2_Kc",
   "name" : "const char (&)[2]",
   "referenced_type" : "_ZTIA2_Kc",
   "size" : 8,
   "source_file" : "external/libcxx/include/type_traits"
  },
  {
   "alignment" : 8,
   "linker_set_key" : "_ZTIRA3_Kc",
   "name" : "const char (&)[3]",
   "referenced_type" : "_ZTIA3_Kc",
   "size" : 8,
   "source_file" : "external/libcxx/include/type_traits"
  },
  {
   "alignment" : 8,
   "linker_set_key" : "_ZTIRA4_Kc",
   "name" : "const char (&)[4]",
   "referenced_type" : "_ZTIA4_Kc",
   "size" : 8,
   "source_file" : "external/libcxx/include/type_traits"
  },
  {
   "alignment" : 8,
   "linker_set_key" : "_ZTIRA5_Kc",
   "name" : "const char (&)[5]",
   "referenced_type" : "_ZTIA5_Kc",
   "size" : 8,
   "source_file" : "external/libcxx/include/type_traits"
  },
  {
   "alignment" : 8,
   "linker_set_key" : "_ZTIRA6_Kc",
   "name" : "const char (&)[6]",
   "referenced_type" : "_ZTIA6_Kc",
   "size" : 8,
   "source_file" : "external/libcxx/include/type_traits"
  },
  {
   "alignment" : 8,
   "linker_set_key" : "_ZTIRA7_Kc",
   "name" : "const char (&)[7]",
   "referenced_type" : "_ZTIA7_Kc",
   "size" : 8,
   "source_file" : "external/libcxx/include/type_traits"
  },
  {
   "alignment" : 8,
   "linker_set_key" : "_ZTIRA8_Kc",
   "name" : "const char (&)[8]",
   "referenced_type" : "_ZTIA8_Kc",
   "size" : 8,
   "source_file" : "external/libcxx/include/type_traits"
  },
  {
   "alignment" : 8,
   "linker_set_key" : "_ZTIRA9_Kc",
   "name" : "const char (&)[9]",
   "referenced_type" : "_ZTIA9_Kc",
   "size" : 8,
   "source_file" : "external/libcxx/include/type_traits"
  },
  {
   "alignment" : 8,
   "linker_set_key" : "_ZTIRDi",
   "name" : "char32_t &",
   "referenced_type" : "_ZTIDi",
   "size" : 8,
   "source_file" : "external/libcxx/include/memory"
  },
  {
   "alignment" : 8,
   "linker_set_key" : "_ZTIRDn",
   "name" : "std::nullptr_t &",
   "referenced_type" : "_ZTIDn",
   "size" : 8,
   "source_file" : "external/libcxx/include/type_traits"
  },
  {
   "alignment" : 8,
   "linker_set_key" : "_ZTIRDs",
   "name" : "char16_t &",
   "referenced_type" : "_ZTIDs",
   "size" : 8,
   "source_file" : "external/libcxx/include/memory"
  },
  {
   "alignment" : 8,
   "linker_set_key" : "_ZTIRDu",
   "name" : "char8_t &",
   "referenced_type" : "_ZTIDu",
   "size" : 8,
   "source_file" : "external/libcxx/include/memory"
  },
  {
   "alignment" : 8,
   "linker_set_key" : "_ZTIRK8log_time",
   "name" : "const log_time &",
   "referenced_type" : "_ZTIK8log_time",
   "size" : 8,
   "source_file" : "system/logging/liblog/include/log/log_time.h"
  },
  {
   "alignment" : 8,
   "linker_set_key" : "_ZTIRK8timespec",
   "name" : "const timespec &",
   "referenced_type" : "_ZTIK8timespec",
   "size" : 8,
   "source_file" : "system/logging/liblog/include/log/log_time.h"
  },
  {
   "alignment" : 8,
   "linker_set_key" : "_ZTIRKDi",
   "name" : "const char32_t &",
   "referenced_type" : "_ZTIKDi",
   "size" : 8,
   "source_file" : "external/libcxx/include/__string"
  },
  {
   "alignment" : 8,
   "linker_set_key" : "_ZTIRKDs",
   "name" : "const char16_t &",
   "referenced_type" : "_ZTIKDs",
   "size" : 8,
   "source_file" : "external/libcxx/include/__string"
  },
  {
   "alignment" : 8,
   "linker_set_key" : "_ZTIRKDu",
   "name" : "const char8_t &",
   "referenced_type" : "_ZTIKDu",
   "size" : 8,
   "source_file" : "external/libcxx/include/__string"
  },
  {
   "alignment" : 8,
   "linker_set_key" : "_ZTIRKN7android2spINS_8hardware12renderscript4V1_08IContextEEE",
   "name" : "const android::sp<android::hardware::renderscript::V1_0::IContext> &",
   "referenced_type" : "_ZTIKN7android2spINS_8hardware12renderscript4V1_08IContextEEE",
   "size" : 8,
   "source_file" : "external/libcxx/include/type_traits"
  },
  {
   "alignment" : 8,
   "linker_set_key" : "_ZTIRKN7android2spINS_8hardware20hidl_death_recipientEEE",
   "name" : "const android::sp<android::hardware::hidl_death_recipient> &",
   "referenced_type" : "_ZTIKN7android2spINS_8hardware20hidl_death_recipientEEE",
   "size" : 8,
   "source_file" : "system/libhidl/base/include/hidl/HidlSupport.h"
  },
  {
   "alignment" : 8,
   "linker_set_key" : "_ZTIRKN7android8hardware11hidl_handleE",
   "name" : "const android::hardware::hidl_handle &",
   "referenced_type" : "_ZTIKN7android8hardware11hidl_handleE",
   "size" : 8,
   "source_file" : "system/libhidl/base/include/hidl/HidlSupport.h"
  },
  {
   "alignment" : 8,
   "linker_set_key" : "_ZTIRKN7android8hardware11hidl_memoryE",
   "name" : "const android::hardware::hidl_memory &",
   "referenced_type" : "_ZTIKN7android8hardware11hidl_memoryE",
   "size" : 8,
   "source_file" : "system/libhidl/base/include/hidl/HidlSupport.h"
  },
  {
   "alignment" : 8,
   "linker_set_key" : "_ZTIRKN7android8hardware11hidl_stringE",
   "name" : "const android::hardware::hidl_string &",
   "referenced_type" : "_ZTIKN7android8hardware11hidl_stringE",
   "size" : 8,
   "source_file" : "system/libhidl/base/include/hidl/HidlSupport.h"
  },
  {
   "alignment" : 8,
   "linker_set_key" : "_ZTIRKN7android8hardware12hidl_versionE",
   "name" : "const android::hardware::hidl_version &",
   "referenced_type" : "_ZTIKN7android8hardware12hidl_versionE",
   "size" : 8,
   "source_file" : "system/libhidl/base/include/hidl/HidlSupport.h"
  },
  {
   "alignment" : 8,
   "linker_set_key" : "_ZTIRKN7android8hardware6StatusE",
   "name" : "const android::hardware::Status &",
   "referenced_type" : "_ZTIKN7android8hardware6StatusE",
   "size" : 8,
   "source_file" : "system/libhidl/base/include/hidl/Status.h"
  },
  {
   "linker_set_key" : "_ZTIRKN7android8hardware8hidl_vec4iterIXTL0__EEE",
   "name" : "const iter<is_const> &",
   "referenced_type" : "_ZTIKN7android8hardware8hidl_vec4iterIXTL0__EEE",
   "source_file" : "system/libhidl/base/include/hidl/HidlSupport.h"
  },
  {
   "alignment" : 8,
   "linker_set_key" : "_ZTIRKN7android8hardware8hidl_vecINS0_11hidl_stringEEE",
   "name" : "const android::hardware::hidl_vec<android::hardware::hidl_string> &",
   "referenced_type" : "_ZTIKN7android8hardware8hidl_vecINS0_11hidl_stringEEE",
   "size" : 8,
   "source_file" : "external/libcxx/include/type_traits"
  },
  {
   "alignment" : 8,
   "linker_set_key" : "_ZTIRKN7android8hardware8hidl_vecIhEE",
   "name" : "const android::hardware::hidl_vec<unsigned char> &",
   "referenced_type" : "_ZTIKN7android8hardware8hidl_vecIhEE",
   "size" : 8,
   "source_file" : "external/libcxx/include/type_traits"
  },
  {
   "alignment" : 8,
   "linker_set_key" : "_ZTIRKN7android8hardware8hidl_vecIjEE",
   "name" : "const android::hardware::hidl_vec<unsigned int> &",
   "referenced_type" : "_ZTIKN7android8hardware8hidl_vecIjEE",
   "size" : 8,
   "source_file" : "external/libcxx/include/type_traits"
  },
  {
   "alignment" : 8,
   "linker_set_key" : "_ZTIRKN7android8hardware8hidl_vecImEE",
   "name" : "const android::hardware::hidl_vec<unsigned long> &",
   "referenced_type" : "_ZTIKN7android8hardware8hidl_vecImEE",
   "size" : 8,
   "source_file" : "external/libcxx/include/type_traits"
  },
  {
   "alignment" : 8,
   "linker_set_key" : "_ZTIRKNSt3__110error_codeE",
   "name" : "const std::error_code &",
   "referenced_type" : "_ZTIKNSt3__110error_codeE",
   "size" : 8,
   "source_file" : "external/libcxx/include/system_error"
  },
  {
   "alignment" : 8,
   "linker_set_key" : "_ZTIRKNSt3__112__value_typeIPvP16RsContextWrapperEE",
   "name" : "const std::__value_type<void *, RsContextWrapper *> &",
   "referenced_type" : "_ZTIKNSt3__112__value_typeIPvP16RsContextWrapperEE",
   "size" : 8,
   "source_file" : "external/libcxx/include/__tree"
  },
  {
   "alignment" : 8,
   "linker_set_key" : "_ZTIRKNSt3__112basic_stringIDiNS_11char_traitsIDiEENS_9allocatorIDiEEE5__repE",
   "name" : "const std::basic_string<char32_t, std::char_traits<char32_t>, std::allocator<char32_t>>::__rep &",
   "referenced_type" : "_ZTIKNSt3__112basic_stringIDiNS_11char_traitsIDiEENS_9allocatorIDiEEE5__repE",
   "size" : 8,
   "source_file" : "external/libcxx/include/memory"
  },
  {
   "alignment" : 8,
   "linker_set_key" : "_ZTIRKNSt3__112basic_stringIDsNS_11char_traitsIDsEENS_9allocatorIDsEEE5__repE",
   "name" : "const std::basic_string<char16_t, std::char_traits<char16_t>, std::allocator<char16_t>>::__rep &",
   "referenced_type" : "_ZTIKNSt3__112basic_stringIDsNS_11char_traitsIDsEENS_9allocatorIDsEEE5__repE",
   "size" : 8,
   "source_file" : "external/libcxx/include/memory"
  },
  {
   "alignment" : 8,
   "linker_set_key" : "_ZTIRKNSt3__112basic_stringIDuNS_11char_traitsIDuEENS_9allocatorIDuEEE5__repE",
   "name" : "const std::basic_string<char8_t, std::char_traits<char8_t>, std::allocator<char8_t>>::__rep &",
   "referenced_type" : "_ZTIKNSt3__112basic_stringIDuNS_11char_traitsIDuEENS_9allocatorIDuEEE5__repE",
   "size" : 8,
   "source_file" : "external/libcxx/include/memory"
  },
  {
   "alignment" : 8,
   "linker_set_key" : "_ZTIRKNSt3__112basic_stringIcNS_11char_traitsIcEENS_9allocatorIcEEE5__repE",
   "name" : "const std::basic_string<char, std::char_traits<char>, std::allocator<char>>::__rep &",
   "referenced_type" : "_ZTIKNSt3__112basic_stringIcNS_11char_traitsIcEENS_9allocatorIcEEE5__repE",
   "size" : 8,
   "source_file" : "external/libcxx/include/memory"
  },
  {
   "alignment" : 8,
   "linker_set_key" : "_ZTIRKNSt3__112basic_stringIcNS_11char_traitsIcEENS_9allocatorIcEEEE",
   "name" : "const std::basic_string<char, std::char_traits<char>, std::allocator<char>> &",
   "referenced_type" : "_ZTIKNSt3__112basic_stringIcNS_11char_traitsIcEENS_9allocatorIcEEEE",
   "size" : 8,
   "source_file" : "external/libcxx/include/type_traits"
  },
  {
   "alignment" : 8,
   "linker_set_key" : "_ZTIRKNSt3__112basic_stringIwNS_11char_traitsIwEENS_9allocatorIwEEE5__repE",
   "name" : "const std::basic_string<wchar_t, std::char_traits<wchar_t>, std::allocator<wchar_t>>::__rep &",
   "referenced_type" : "_ZTIKNSt3__112basic_stringIwNS_11char_traitsIwEENS_9allocatorIwEEE5__repE",
   "size" : 8,
   "source_file" : "external/libcxx/include/memory"
  },
  {
   "alignment" : 8,
   "linker_set_key" : "_ZTIRKNSt3__112basic_stringIwNS_11char_traitsIwEENS_9allocatorIwEEEE",
   "name" : "const std::basic_string<wchar_t, std::char_traits<wchar_t>, std::allocator<wchar_t>> &",
   "referenced_type" : "_ZTIKNSt3__112basic_stringIwNS_11char_traitsIwEENS_9allocatorIwEEEE",
   "size" : 8,
   "source_file" : "external/libcxx/include/type_traits"
  },
  {
   "linker_set_key" : "_ZTIRKNSt3__114__bit_iteratorIT_XT0_EXT1_EEE",
   "name" : "const __bit_iterator<_Cp, _IsConst, > &",
   "referenced_type" : "_ZTIKNSt3__114__bit_iteratorIT_XT0_EXT1_EEE",
   "source_file" : "external/libcxx/include/__bit_reference"
  },
  {
   "alignment" : 8,
   "linker_set_key" : "_ZTIRKNSt3__114__map_iteratorINS_15__tree_iteratorINS_12__value_typeIPvP16RsContextWrapperEEPNS_11__tree_nodeIS6_S3_EElEEEE",
   "name" : "const std::__map_iterator<std::__tree_iterator<std::__value_type<void *, RsContextWrapper *>, std::__tree_node<std::__value_type<void *, RsContextWrapper *>, void *> *, long>> &",
   "referenced_type" : "_ZTIKNSt3__114__map_iteratorINS_15__tree_iteratorINS_12__value_typeIPvP16RsContextWrapperEEPNS_11__tree_nodeIS6_S3_EElEEEE",
   "size" : 8,
   "source_file" : "external/libcxx/include/type_traits"
  },
  {
   "linker_set_key" : "_ZTIRKNSt3__114__map_iteratorIT_EE",
   "name" : "const __map_iterator<_TreeIterator> &",
   "referenced_type" : "_ZTIKNSt3__114__map_iteratorIT_EE",
   "source_file" : "external/libcxx/include/map"
  },
  {
   "alignment" : 8,
   "linker_set_key" : "_ZTIRKNSt3__114error_categoryE",
   "name" : "const std::error_category &",
   "referenced_type" : "_ZTIKNSt3__114error_categoryE",
   "size" : 8,
   "source_file" : "external/libcxx/include/system_error"
  },
  {
   "alignment" : 8,
   "linker_set_key" : "_ZTIRKNSt3__115__tree_end_nodeIPNS_16__tree_node_baseIPvEEEE",
   "name" : "const std::__tree_end_node<std::__tree_node_base<void *> *> &",
   "referenced_type" : "_ZTIKNSt3__115__tree_end_nodeIPNS_16__tree_node_baseIPvEEEE",
   "size" : 8,
   "source_file" : "external/libcxx/include/memory"
  },
  {
   "alignment" : 8,
   "linker_set_key" : "_ZTIRKNSt3__115__tree_iteratorIN7android2spINS1_8hardware12renderscript4V1_08IContextEEEPNS_11__tree_nodeIS7_PvEElEE",
   "name" : "const std::__tree_iterator<android::sp<android::hardware::renderscript::V1_0::IContext>, std::__tree_node<android::sp<android::hardware::renderscript::V1_0::IContext>, void *> *, long> &",
   "referenced_type" : "_ZTIKNSt3__115__tree_iteratorIN7android2spINS1_8hardware12renderscript4V1_08IContextEEEPNS_11__tree_nodeIS7_PvEElEE",
   "size" : 8,
   "source_file" : "external/libcxx/include/utility"
  },
  {
   "alignment" : 8,
   "linker_set_key" : "_ZTIRKNSt3__115__tree_iteratorINS_12__value_typeIPvP16RsContextWrapperEEPNS_11__tree_nodeIS5_S2_EElEE",
   "name" : "const std::__tree_iterator<std::__value_type<void *, RsContextWrapper *>, std::__tree_node<std::__value_type<void *, RsContextWrapper *>, void *> *, long> &",
   "referenced_type" : "_ZTIKNSt3__115__tree_iteratorINS_12__value_typeIPvP16RsContextWrapperEEPNS_11__tree_nodeIS5_S2_EElEE",
   "size" : 8,
   "source_file" : "external/libcxx/include/utility"
  },
  {
   "linker_set_key" : "_ZTIRKNSt3__115__tree_iteratorIT_T0_T1_EE",
   "name" : "const __tree_iterator<_Tp, _NodePtr, _DiffType> &",
   "referenced_type" : "_ZTIKNSt3__115__tree_iteratorIT_T0_T1_EE",
   "source_file" : "external/libcxx/include/__tree"
  },
  {
   "alignment" : 8,
   "linker_set_key" : "_ZTIRKNSt3__115error_conditionE",
   "name" : "const std::error_condition &",
   "referenced_type" : "_ZTIKNSt3__115error_conditionE",
   "size" : 8,
   "source_file" : "external/libcxx/include/system_error"
  },
  {
   "alignment" : 8,
   "linker_set_key" : "_ZTIRKNSt3__117__compressed_pairIPN7android8hardware11hidl_stringENS_9allocatorIS3_EEEE",
   "name" : "const std::__compressed_pair<android::hardware::hidl_string *, std::allocator<android::hardware::hidl_string>> &",
   "referenced_type" : "_ZTIKNSt3__117__compressed_pairIPN7android8hardware11hidl_stringENS_9allocatorIS3_EEEE",
   "size" : 8,
   "source_file" : "external/libcxx/include/type_traits"
  },
  {
   "alignment" : 8,
   "linker_set_key" : "_ZTIRKNSt3__117__compressed_pairIPNS_11__tree_nodeIN7android2spINS2_8hardware12renderscript4V1_08IContextEEEPvEENS_22__tree_node_destructorINS_9allocatorISA_EEEEEE",
   "name" : "const std::__compressed_pair<std::__tree_node<android::sp<android::hardware::renderscript::V1_0::IContext>, void *> *, std::__tree_node_destructor<std::allocator<std::__tree_node<android::sp<android::hardware::renderscript::V1_0::IContext>, void *>>>> &",
   "referenced_type" : "_ZTIKNSt3__117__compressed_pairIPNS_11__tree_nodeIN7android2spINS2_8hardware12renderscript4V1_08IContextEEEPvEENS_22__tree_node_destructorINS_9allocatorISA_EEEEEE",
   "size" : 8,
   "source_file" : "external/libcxx/include/type_traits"
  },
  {
   "alignment" : 8,
   "linker_set_key" : "_ZTIRKNSt3__117__compressed_pairIPNS_11__tree_nodeINS_12__value_typeIPvP16RsContextWrapperEES3_EENS_22__tree_node_destructorINS_9allocatorIS7_EEEEEE",
   "name" : "const std::__compressed_pair<std::__tree_node<std::__value_type<void *, RsContextWrapper *>, void *> *, std::__tree_node_destructor<std::allocator<std::__tree_node<std::__value_type<void *, RsContextWrapper *>, void *>>>> &",
   "referenced_type" : "_ZTIKNSt3__117__compressed_pairIPNS_11__tree_nodeINS_12__value_typeIPvP16RsContextWrapperEES3_EENS_22__tree_node_destructorINS_9allocatorIS7_EEEEEE",
   "size" : 8,
   "source_file" : "external/libcxx/include/type_traits"
  },
  {
   "alignment" : 8,
   "linker_set_key" : "_ZTIRKNSt3__117__compressed_pairIPcPFvPvEEE",
   "name" : "const std::__compressed_pair<char *, void (*)(void *)> &",
   "referenced_type" : "_ZTIKNSt3__117__compressed_pairIPcPFvPvEEE",
   "size" : 8,
   "source_file" : "external/libcxx/include/type_traits"
  },
  {
   "alignment" : 8,
   "linker_set_key" : "_ZTIRKNSt3__117__compressed_pairIPhPFvPvEEE",
   "name" : "const std::__compressed_pair<unsigned char *, void (*)(void *)> &",
   "referenced_type" : "_ZTIKNSt3__117__compressed_pairIPhPFvPvEEE",
   "size" : 8,
   "source_file" : "external/libcxx/include/type_traits"
  },
  {
   "alignment" : 8,
   "linker_set_key" : "_ZTIRKNSt3__117__compressed_pairIPiNS_9allocatorIiEEEE",
   "name" : "const std::__compressed_pair<int *, std::allocator<int>> &",
   "referenced_type" : "_ZTIKNSt3__117__compressed_pairIPiNS_9allocatorIiEEEE",
   "size" : 8,
   "source_file" : "external/libcxx/include/type_traits"
  },
  {
   "alignment" : 8,
   "linker_set_key" : "_ZTIRKNSt3__117__compressed_pairIPjPFvPvEEE",
   "name" : "const std::__compressed_pair<unsigned int *, void (*)(void *)> &",
   "referenced_type" : "_ZTIKNSt3__117__compressed_pairIPjPFvPvEEE",
   "size" : 8,
   "source_file" : "external/libcxx/include/type_traits"
  },
  {
   "alignment" : 8,
   "linker_set_key" : "_ZTIRKNSt3__117__compressed_pairIPlNS_9allocatorIlEEEE",
   "name" : "const std::__compressed_pair<long *, std::allocator<long>> &",
   "referenced_type" : "_ZTIKNSt3__117__compressed_pairIPlNS_9allocatorIlEEEE",
   "size" : 8,
   "source_file" : "external/libcxx/include/type_traits"
  },
  {
   "alignment" : 8,
   "linker_set_key" : "_ZTIRKNSt3__117__compressed_pairIPmNS_9allocatorImEEEE",
   "name" : "const std::__compressed_pair<unsigned long *, std::allocator<unsigned long>> &",
   "referenced_type" : "_ZTIKNSt3__117__compressed_pairIPmNS_9allocatorImEEEE",
   "size" : 8,
   "source_file" : "external/libcxx/include/type_traits"
  },
  {
   "alignment" : 8,
   "linker_set_key" : "_ZTIRKNSt3__117basic_string_viewIDiNS_11char_traitsIDiEEEE",
   "name" : "const std::basic_string_view<char32_t, std::char_traits<char32_t>> &",
   "referenced_type" : "_ZTIKNSt3__117basic_string_viewIDiNS_11char_traitsIDiEEEE",
   "size" : 8,
   "source_file" : "external/libcxx/include/string_view"
  },
  {
   "alignment" : 8,
   "linker_set_key" : "_ZTIRKNSt3__117basic_string_viewIDsNS_11char_traitsIDsEEEE",
   "name" : "const std::basic_string_view<char16_t, std::char_traits<char16_t>> &",
   "referenced_type" : "_ZTIKNSt3__117basic_string_viewIDsNS_11char_traitsIDsEEEE",
   "size" : 8,
   "source_file" : "external/libcxx/include/string_view"
  },
  {
   "alignment" : 8,
   "linker_set_key" : "_ZTIRKNSt3__117basic_string_viewIDuNS_11char_traitsIDuEEEE",
   "name" : "const std::basic_string_view<char8_t, std::char_traits<char8_t>> &",
   "referenced_type" : "_ZTIKNSt3__117basic_string_viewIDuNS_11char_traitsIDuEEEE",
   "size" : 8,
   "source_file" : "external/libcxx/include/string_view"
  },
  {
   "alignment" : 8,
   "linker_set_key" : "_ZTIRKNSt3__117basic_string_viewIcNS_11char_traitsIcEEEE",
   "name" : "const std::basic_string_view<char, std::char_traits<char>> &",
   "referenced_type" : "_ZTIKNSt3__117basic_string_viewIcNS_11char_traitsIcEEEE",
   "size" : 8,
   "source_file" : "external/libcxx/include/string_view"
  },
  {
   "alignment" : 8,
   "linker_set_key" : "_ZTIRKNSt3__117basic_string_viewIwNS_11char_traitsIwEEEE",
   "name" : "const std::basic_string_view<wchar_t, std::char_traits<wchar_t>> &",
   "referenced_type" : "_ZTIKNSt3__117basic_string_viewIwNS_11char_traitsIwEEEE",
   "size" : 8,
   "source_file" : "external/libcxx/include/string_view"
  },
  {
   "alignment" : 8,
   "linker_set_key" : "_ZTIRKNSt3__118__sfinae_ctor_baseILb0ELb0EEE",
   "name" : "const std::__sfinae_ctor_base<false, false> &",
   "referenced_type" : "_ZTIKNSt3__118__sfinae_ctor_baseILb0ELb0EEE",
   "size" : 8,
   "source_file" : "external/libcxx/include/__tuple"
  },
  {
   "alignment" : 8,
   "linker_set_key" : "_ZTIRKNSt3__118__sfinae_ctor_baseILb0ELb1EEE",
   "name" : "const std::__sfinae_ctor_base<false, true> &",
   "referenced_type" : "_ZTIKNSt3__118__sfinae_ctor_baseILb0ELb1EEE",
   "size" : 8,
   "source_file" : "external/libcxx/include/__tuple"
  },
  {
   "alignment" : 8,
   "linker_set_key" : "_ZTIRKNSt3__118__sfinae_ctor_baseILb1ELb0EEE",
   "name" : "const std::__sfinae_ctor_base<true, false> &",
   "referenced_type" : "_ZTIKNSt3__118__sfinae_ctor_baseILb1ELb0EEE",
   "size" : 8,
   "source_file" : "external/libcxx/include/__tuple"
  },
  {
   "alignment" : 8,
   "linker_set_key" : "_ZTIRKNSt3__119__libcpp_debug_infoE",
   "name" : "const std::__libcpp_debug_info &",
   "referenced_type" : "_ZTIKNSt3__119__libcpp_debug_infoE",
   "size" : 8,
   "source_file" : "external/libcxx/include/__debug"
  },
  {
   "alignment" : 8,
   "linker_set_key" : "_ZTIRKNSt3__119__map_value_compareIPvNS_12__value_typeIS1_P16RsContextWrapperEENS_4lessIS1_EELb1EEE",
   "name" : "const std::__map_value_compare<void *, std::__value_type<void *, RsContextWrapper *>, std::less<void *>, true> &",
   "referenced_type" : "_ZTIKNSt3__119__map_value_compareIPvNS_12__value_typeIS1_P16RsContextWrapperEENS_4lessIS1_EELb1EEE",
   "size" : 8,
   "source_file" : "external/libcxx/include/type_traits"
  },
  {
   "linker_set_key" : "_ZTIRKNSt3__120__map_const_iteratorIT_EE",
   "name" : "const __map_const_iterator<_TreeIterator> &",
   "referenced_type" : "_ZTIKNSt3__120__map_const_iteratorIT_EE",
   "source_file" : "external/libcxx/include/map"
  },
  {
   "alignment" : 8,
   "linker_set_key" : "_ZTIRKNSt3__120__sfinae_assign_baseILb0ELb0EEE",
   "name" : "const std::__sfinae_assign_base<false, false> &",
   "referenced_type" : "_ZTIKNSt3__120__sfinae_assign_baseILb0ELb0EEE",
   "size" : 8,
   "source_file" : "external/libcxx/include/__tuple"
  },
  {
   "alignment" : 8,
   "linker_set_key" : "_ZTIRKNSt3__120__sfinae_assign_baseILb0ELb1EEE",
   "name" : "const std::__sfinae_assign_base<false, true> &",
   "referenced_type" : "_ZTIKNSt3__120__sfinae_assign_baseILb0ELb1EEE",
   "size" : 8,
   "source_file" : "external/libcxx/include/__tuple"
  },
  {
   "alignment" : 8,
   "linker_set_key" : "_ZTIRKNSt3__120__sfinae_assign_baseILb1ELb0EEE",
   "name" : "const std::__sfinae_assign_base<true, false> &",
   "referenced_type" : "_ZTIKNSt3__120__sfinae_assign_baseILb1ELb0EEE",
   "size" : 8,
   "source_file" : "external/libcxx/include/__tuple"
  },
  {
   "alignment" : 8,
   "linker_set_key" : "_ZTIRKNSt3__121__tree_const_iteratorIN7android2spINS1_8hardware12renderscript4V1_08IContextEEEPNS_11__tree_nodeIS7_PvEElEE",
   "name" : "const std::__tree_const_iterator<android::sp<android::hardware::renderscript::V1_0::IContext>, std::__tree_node<android::sp<android::hardware::renderscript::V1_0::IContext>, void *> *, long> &",
   "referenced_type" : "_ZTIKNSt3__121__tree_const_iteratorIN7android2spINS1_8hardware12renderscript4V1_08IContextEEEPNS_11__tree_nodeIS7_PvEElEE",
   "size" : 8,
   "source_file" : "external/libcxx/include/type_traits"
  },
  {
   "linker_set_key" : "_ZTIRKNSt3__121__tree_const_iteratorIT_T0_T1_EE",
   "name" : "const __tree_const_iterator<_Tp, _ConstNodePtr, _DiffType> &",
   "referenced_type" : "_ZTIKNSt3__121__tree_const_iteratorIT_T0_T1_EE",
   "source_file" : "external/libcxx/include/__tree"
  },
  {
   "alignment" : 8,
   "linker_set_key" : "_ZTIRKNSt3__122__compressed_pair_elemINS_12basic_stringIDiNS_11char_traitsIDiEENS_9allocatorIDiEEE5__repELi0ELb0EEE",
   "name" : "const std::__compressed_pair_elem<std::basic_string<char32_t, std::char_traits<char32_t>, std::allocator<char32_t>>::__rep, 0, false> &",
   "referenced_type" : "_ZTIKNSt3__122__compressed_pair_elemINS_12basic_stringIDiNS_11char_traitsIDiEENS_9allocatorIDiEEE5__repELi0ELb0EEE",
   "size" : 8,
   "source_file" : "external/libcxx/include/type_traits"
  },
  {
   "alignment" : 8,
   "linker_set_key" : "_ZTIRKNSt3__122__compressed_pair_elemINS_12basic_stringIDsNS_11char_traitsIDsEENS_9allocatorIDsEEE5__repELi0ELb0EEE",
   "name" : "const std::__compressed_pair_elem<std::basic_string<char16_t, std::char_traits<char16_t>, std::allocator<char16_t>>::__rep, 0, false> &",
   "referenced_type" : "_ZTIKNSt3__122__compressed_pair_elemINS_12basic_stringIDsNS_11char_traitsIDsEENS_9allocatorIDsEEE5__repELi0ELb0EEE",
   "size" : 8,
   "source_file" : "external/libcxx/include/type_traits"
  },
  {
   "alignment" : 8,
   "linker_set_key" : "_ZTIRKNSt3__122__compressed_pair_elemINS_12basic_stringIDuNS_11char_traitsIDuEENS_9allocatorIDuEEE5__repELi0ELb0EEE",
   "name" : "const std::__compressed_pair_elem<std::basic_string<char8_t, std::char_traits<char8_t>, std::allocator<char8_t>>::__rep, 0, false> &",
   "referenced_type" : "_ZTIKNSt3__122__compressed_pair_elemINS_12basic_stringIDuNS_11char_traitsIDuEENS_9allocatorIDuEEE5__repELi0ELb0EEE",
   "size" : 8,
   "source_file" : "external/libcxx/include/type_traits"
  },
  {
   "alignment" : 8,
   "linker_set_key" : "_ZTIRKNSt3__122__compressed_pair_elemINS_12basic_stringIcNS_11char_traitsIcEENS_9allocatorIcEEE5__repELi0ELb0EEE",
   "name" : "const std::__compressed_pair_elem<std::basic_string<char, std::char_traits<char>, std::allocator<char>>::__rep, 0, false> &",
   "referenced_type" : "_ZTIKNSt3__122__compressed_pair_elemINS_12basic_stringIcNS_11char_traitsIcEENS_9allocatorIcEEE5__repELi0ELb0EEE",
   "size" : 8,
   "source_file" : "external/libcxx/include/type_traits"
  },
  {
   "alignment" : 8,
   "linker_set_key" : "_ZTIRKNSt3__122__compressed_pair_elemINS_12basic_stringIwNS_11char_traitsIwEENS_9allocatorIwEEE5__repELi0ELb0EEE",
   "name" : "const std::__compressed_pair_elem<std::basic_string<wchar_t, std::char_traits<wchar_t>, std::allocator<wchar_t>>::__rep, 0, false> &",
   "referenced_type" : "_ZTIKNSt3__122__compressed_pair_elemINS_12basic_stringIwNS_11char_traitsIwEENS_9allocatorIwEEE5__repELi0ELb0EEE",
   "size" : 8,
   "source_file" : "external/libcxx/include/type_traits"
  },
  {
   "alignment" : 8,
   "linker_set_key" : "_ZTIRKNSt3__122__compressed_pair_elemINS_15__tree_end_nodeIPNS_16__tree_node_baseIPvEEEELi0ELb0EEE",
   "name" : "const std::__compressed_pair_elem<std::__tree_end_node<std::__tree_node_base<void *> *>, 0, false> &",
   "referenced_type" : "_ZTIKNSt3__122__compressed_pair_elemINS_15__tree_end_nodeIPNS_16__tree_node_baseIPvEEEELi0ELb0EEE",
   "size" : 8,
   "source_file" : "external/libcxx/include/type_traits"
  },
  {
   "alignment" : 8,
   "linker_set_key" : "_ZTIRKNSt3__122__compressed_pair_elemINS_19__map_value_compareIPvNS_12__value_typeIS2_P16RsContextWrapperEENS_4lessIS2_EELb1EEELi1ELb1EEE",
   "name" : "const std::__compressed_pair_elem<std::__map_value_compare<void *, std::__value_type<void *, RsContextWrapper *>, std::less<void *>, true>, 1, true> &",
   "referenced_type" : "_ZTIKNSt3__122__compressed_pair_elemINS_19__map_value_compareIPvNS_12__value_typeIS2_P16RsContextWrapperEENS_4lessIS2_EELb1EEELi1ELb1EEE",
   "size" : 8,
   "source_file" : "external/libcxx/include/type_traits"
  },
  {
   "alignment" : 8,
   "linker_set_key" : "_ZTIRKNSt3__122__compressed_pair_elemINS_22__tree_node_destructorINS_9allocatorINS_11__tree_nodeIN7android2spINS4_8hardware12renderscript4V1_08IContextEEEPvEEEEEELi1ELb0EEE",
   "name" : "const std::__compressed_pair_elem<std::__tree_node_destructor<std::allocator<std::__tree_node<android::sp<android::hardware::renderscript::V1_0::IContext>, void *>>>, 1, false> &",
   "referenced_type" : "_ZTIKNSt3__122__compressed_pair_elemINS_22__tree_node_destructorINS_9allocatorINS_11__tree_nodeIN7android2spINS4_8hardware12renderscript4V1_08IContextEEEPvEEEEEELi1ELb0EEE",
   "size" : 8,
   "source_file" : "external/libcxx/include/type_traits"
  },
  {
   "alignment" : 8,
   "linker_set_key" : "_ZTIRKNSt3__122__compressed_pair_elemINS_22__tree_node_destructorINS_9allocatorINS_11__tree_nodeINS_12__value_typeIPvP16RsContextWrapperEES5_EEEEEELi1ELb0EEE",
   "name" : "const std::__compressed_pair_elem<std::__tree_node_destructor<std::allocator<std::__tree_node<std::__value_type<void *, RsContextWrapper *>, void *>>>, 1, false> &",
   "referenced_type" : "_ZTIKNSt3__122__compressed_pair_elemINS_22__tree_node_destructorINS_9allocatorINS_11__tree_nodeINS_12__value_typeIPvP16RsContextWrapperEES5_EEEEEELi1ELb0EEE",
   "size" : 8,
   "source_file" : "external/libcxx/include/type_traits"
  },
  {
   "alignment" : 8,
   "linker_set_key" : "_ZTIRKNSt3__122__compressed_pair_elemINS_4lessIN7android2spINS2_8hardware12renderscript4V1_08IContextEEEEELi1ELb1EEE",
   "name" : "const std::__compressed_pair_elem<std::less<android::sp<android::hardware::renderscript::V1_0::IContext>>, 1, true> &",
   "referenced_type" : "_ZTIKNSt3__122__compressed_pair_elemINS_4lessIN7android2spINS2_8hardware12renderscript4V1_08IContextEEEEELi1ELb1EEE",
   "size" : 8,
   "source_file" : "external/libcxx/include/type_traits"
  },
  {
   "alignment" : 8,
   "linker_set_key" : "_ZTIRKNSt3__122__compressed_pair_elemINS_9allocatorIDiEELi1ELb1EEE",
   "name" : "const std::__compressed_pair_elem<std::allocator<char32_t>, 1, true> &",
   "referenced_type" : "_ZTIKNSt3__122__compressed_pair_elemINS_9allocatorIDiEELi1ELb1EEE",
   "size" : 8,
   "source_file" : "external/libcxx/include/type_traits"
  },
  {
   "alignment" : 8,
   "linker_set_key" : "_ZTIRKNSt3__122__compressed_pair_elemINS_9allocatorIDsEELi1ELb1EEE",
   "name" : "const std::__compressed_pair_elem<std::allocator<char16_t>, 1, true> &",
   "referenced_type" : "_ZTIKNSt3__122__compressed_pair_elemINS_9allocatorIDsEELi1ELb1EEE",
   "size" : 8,
   "source_file" : "external/libcxx/include/type_traits"
  },
  {
   "alignment" : 8,
   "linker_set_key" : "_ZTIRKNSt3__122__compressed_pair_elemINS_9allocatorIDuEELi1ELb1EEE",
   "name" : "const std::__compressed_pair_elem<std::allocator<char8_t>, 1, true> &",
   "referenced_type" : "_ZTIKNSt3__122__compressed_pair_elemINS_9allocatorIDuEELi1ELb1EEE",
   "size" : 8,
   "source_file" : "external/libcxx/include/type_traits"
  },
  {
   "alignment" : 8,
   "linker_set_key" : "_ZTIRKNSt3__122__compressed_pair_elemINS_9allocatorIN7android8hardware11hidl_stringEEELi1ELb1EEE",
   "name" : "const std::__compressed_pair_elem<std::allocator<android::hardware::hidl_string>, 1, true> &",
   "referenced_type" : "_ZTIKNSt3__122__compressed_pair_elemINS_9allocatorIN7android8hardware11hidl_stringEEELi1ELb1EEE",
   "size" : 8,
   "source_file" : "external/libcxx/include/type_traits"
  },
  {
   "alignment" : 8,
   "linker_set_key" : "_ZTIRKNSt3__122__compressed_pair_elemINS_9allocatorINS_11__tree_nodeIN7android2spINS3_8hardware12renderscript4V1_08IContextEEEPvEEEELi1ELb1EEE",
   "name" : "const std::__compressed_pair_elem<std::allocator<std::__tree_node<android::sp<android::hardware::renderscript::V1_0::IContext>, void *>>, 1, true> &",
   "referenced_type" : "_ZTIKNSt3__122__compressed_pair_elemINS_9allocatorINS_11__tree_nodeIN7android2spINS3_8hardware12renderscript4V1_08IContextEEEPvEEEELi1ELb1EEE",
   "size" : 8,
   "source_file" : "external/libcxx/include/type_traits"
  },
  {
   "alignment" : 8,
   "linker_set_key" : "_ZTIRKNSt3__122__compressed_pair_elemINS_9allocatorINS_11__tree_nodeINS_12__value_typeIPvP16RsContextWrapperEES4_EEEELi1ELb1EEE",
   "name" : "const std::__compressed_pair_elem<std::allocator<std::__tree_node<std::__value_type<void *, RsContextWrapper *>, void *>>, 1, true> &",
   "referenced_type" : "_ZTIKNSt3__122__compressed_pair_elemINS_9allocatorINS_11__tree_nodeINS_12__value_typeIPvP16RsContextWrapperEES4_EEEELi1ELb1EEE",
   "size" : 8,
   "source_file" : "external/libcxx/include/type_traits"
  },
  {
   "alignment" : 8,
   "linker_set_key" : "_ZTIRKNSt3__122__compressed_pair_elemINS_9allocatorIcEELi1ELb1EEE",
   "name" : "const std::__compressed_pair_elem<std::allocator<char>, 1, true> &",
   "referenced_type" : "_ZTIKNSt3__122__compressed_pair_elemINS_9allocatorIcEELi1ELb1EEE",
   "size" : 8,
   "source_file" : "external/libcxx/include/type_traits"
  },
  {
   "alignment" : 8,
   "linker_set_key" : "_ZTIRKNSt3__122__compressed_pair_elemINS_9allocatorIiEELi1ELb1EEE",
   "name" : "const std::__compressed_pair_elem<std::allocator<int>, 1, true> &",
   "referenced_type" : "_ZTIKNSt3__122__compressed_pair_elemINS_9allocatorIiEELi1ELb1EEE",
   "size" : 8,
   "source_file" : "external/libcxx/include/type_traits"
  },
  {
   "alignment" : 8,
   "linker_set_key" : "_ZTIRKNSt3__122__compressed_pair_elemINS_9allocatorIlEELi1ELb1EEE",
   "name" : "const std::__compressed_pair_elem<std::allocator<long>, 1, true> &",
   "referenced_type" : "_ZTIKNSt3__122__compressed_pair_elemINS_9allocatorIlEELi1ELb1EEE",
   "size" : 8,
   "source_file" : "external/libcxx/include/type_traits"
  },
  {
   "alignment" : 8,
   "linker_set_key" : "_ZTIRKNSt3__122__compressed_pair_elemINS_9allocatorImEELi1ELb1EEE",
   "name" : "const std::__compressed_pair_elem<std::allocator<unsigned long>, 1, true> &",
   "referenced_type" : "_ZTIKNSt3__122__compressed_pair_elemINS_9allocatorImEELi1ELb1EEE",
   "size" : 8,
   "source_file" : "external/libcxx/include/type_traits"
  },
  {
   "alignment" : 8,
   "linker_set_key" : "_ZTIRKNSt3__122__compressed_pair_elemINS_9allocatorIwEELi1ELb1EEE",
   "name" : "const std::__compressed_pair_elem<std::allocator<wchar_t>, 1, true> &",
   "referenced_type" : "_ZTIKNSt3__122__compressed_pair_elemINS_9allocatorIwEELi1ELb1EEE",
   "size" : 8,
   "source_file" : "external/libcxx/include/type_traits"
  },
  {
   "alignment" : 8,
   "linker_set_key" : "_ZTIRKNSt3__122__compressed_pair_elemIPFvPvELi1ELb0EEE",
   "name" : "const std::__compressed_pair_elem<void (*)(void *), 1> &",
   "referenced_type" : "_ZTIKNSt3__122__compressed_pair_elemIPFvPvELi1ELb0EEE",
   "size" : 8,
   "source_file" : "external/libcxx/include/type_traits"
  },
  {
   "alignment" : 8,
   "linker_set_key" : "_ZTIRKNSt3__122__compressed_pair_elemIPN7android8hardware11hidl_stringELi0ELb0EEE",
   "name" : "const std::__compressed_pair_elem<android::hardware::hidl_string *, 0, false> &",
   "referenced_type" : "_ZTIKNSt3__122__compressed_pair_elemIPN7android8hardware11hidl_stringELi0ELb0EEE",
   "size" : 8,
   "source_file" : "external/libcxx/include/type_traits"
  },
  {
   "alignment" : 8,
   "linker_set_key" : "_ZTIRKNSt3__122__compressed_pair_elemIPNS_11__tree_nodeIN7android2spINS2_8hardware12renderscript4V1_08IContextEEEPvEELi0ELb0EEE",
   "name" : "const std::__compressed_pair_elem<std::__tree_node<android::sp<android::hardware::renderscript::V1_0::IContext>, void *> *, 0, false> &",
   "referenced_type" : "_ZTIKNSt3__122__compressed_pair_elemIPNS_11__tree_nodeIN7android2spINS2_8hardware12renderscript4V1_08IContextEEEPvEELi0ELb0EEE",
   "size" : 8,
   "source_file" : "external/libcxx/include/type_traits"
  },
  {
   "alignment" : 8,
   "linker_set_key" : "_ZTIRKNSt3__122__compressed_pair_elemIPNS_11__tree_nodeINS_12__value_typeIPvP16RsContextWrapperEES3_EELi0ELb0EEE",
   "name" : "const std::__compressed_pair_elem<std::__tree_node<std::__value_type<void *, RsContextWrapper *>, void *> *, 0, false> &",
   "referenced_type" : "_ZTIKNSt3__122__compressed_pair_elemIPNS_11__tree_nodeINS_12__value_typeIPvP16RsContextWrapperEES3_EELi0ELb0EEE",
   "size" : 8,
   "source_file" : "external/libcxx/include/type_traits"
  },
  {
   "alignment" : 8,
   "linker_set_key" : "_ZTIRKNSt3__122__compressed_pair_elemIPcLi0ELb0EEE",
   "name" : "const std::__compressed_pair_elem<char *, 0> &",
   "referenced_type" : "_ZTIKNSt3__122__compressed_pair_elemIPcLi0ELb0EEE",
   "size" : 8,
   "source_file" : "external/libcxx/include/type_traits"
  },
  {
   "alignment" : 8,
   "linker_set_key" : "_ZTIRKNSt3__122__compressed_pair_elemIPhLi0ELb0EEE",
   "name" : "const std::__compressed_pair_elem<unsigned char *, 0> &",
   "referenced_type" : "_ZTIKNSt3__122__compressed_pair_elemIPhLi0ELb0EEE",
   "size" : 8,
   "source_file" : "external/libcxx/include/type_traits"
  },
  {
   "alignment" : 8,
   "linker_set_key" : "_ZTIRKNSt3__122__compressed_pair_elemIPiLi0ELb0EEE",
   "name" : "const std::__compressed_pair_elem<int *, 0> &",
   "referenced_type" : "_ZTIKNSt3__122__compressed_pair_elemIPiLi0ELb0EEE",
   "size" : 8,
   "source_file" : "external/libcxx/include/type_traits"
  },
  {
   "alignment" : 8,
   "linker_set_key" : "_ZTIRKNSt3__122__compressed_pair_elemIPjLi0ELb0EEE",
   "name" : "const std::__compressed_pair_elem<unsigned int *, 0> &",
   "referenced_type" : "_ZTIKNSt3__122__compressed_pair_elemIPjLi0ELb0EEE",
   "size" : 8,
   "source_file" : "external/libcxx/include/type_traits"
  },
  {
   "alignment" : 8,
   "linker_set_key" : "_ZTIRKNSt3__122__compressed_pair_elemIPlLi0ELb0EEE",
   "name" : "const std::__compressed_pair_elem<long *, 0> &",
   "referenced_type" : "_ZTIKNSt3__122__compressed_pair_elemIPlLi0ELb0EEE",
   "size" : 8,
   "source_file" : "external/libcxx/include/type_traits"
  },
  {
   "alignment" : 8,
   "linker_set_key" : "_ZTIRKNSt3__122__compressed_pair_elemIPmLi0ELb0EEE",
   "name" : "const std::__compressed_pair_elem<unsigned long *, 0> &",
   "referenced_type" : "_ZTIKNSt3__122__compressed_pair_elemIPmLi0ELb0EEE",
   "size" : 8,
   "source_file" : "external/libcxx/include/type_traits"
  },
  {
   "alignment" : 8,
   "linker_set_key" : "_ZTIRKNSt3__122__compressed_pair_elemImLi0ELb0EEE",
   "name" : "const std::__compressed_pair_elem<unsigned long, 0> &",
   "referenced_type" : "_ZTIKNSt3__122__compressed_pair_elemImLi0ELb0EEE",
   "size" : 8,
   "source_file" : "external/libcxx/include/type_traits"
  },
  {
   "linker_set_key" : "_ZTIRKNSt3__124uniform_int_distribution10param_typeE",
   "name" : "const class std::uniform_int_distribution::param_type &",
   "referenced_type" : "_ZTIKNSt3__124uniform_int_distribution10param_typeE",
   "source_file" : "external/libcxx/include/algorithm"
  },
  {
   "linker_set_key" : "_ZTIRKNSt3__124uniform_int_distributionIT_EE",
   "name" : "const uniform_int_distribution<_IntType> &",
   "referenced_type" : "_ZTIKNSt3__124uniform_int_distributionIT_EE",
   "source_file" : "external/libcxx/include/algorithm"
  },
  {
   "alignment" : 8,
   "linker_set_key" : "_ZTIRKNSt3__14lessIN7android2spINS1_8hardware12renderscript4V1_08IContextEEEEE",
   "name" : "const std::less<android::sp<android::hardware::renderscript::V1_0::IContext>> &",
   "referenced_type" : "_ZTIKNSt3__14lessIN7android2spINS1_8hardware12renderscript4V1_08IContextEEEEE",
   "size" : 8,
   "source_file" : "external/libcxx/include/type_traits"
  },
  {
   "alignment" : 8,
   "linker_set_key" : "_ZTIRKNSt3__14lessIPvEE",
   "name" : "const std::less<void *> &",
   "referenced_type" : "_ZTIKNSt3__14lessIPvEE",
   "size" : 8,
   "source_file" : "external/libcxx/include/type_traits"
  },
  {
   "alignment" : 8,
   "linker_set_key" : "_ZTIRKNSt3__14pairIKPvP16RsContextWrapperEE",
   "name" : "const std::pair<void *const, RsContextWrapper *> &",
   "referenced_type" : "_ZTIKNSt3__14pairIKPvP16RsContextWrapperEE",
   "size" : 8,
   "source_file" : "external/libcxx/include/utility"
  },
  {
   "alignment" : 8,
   "linker_set_key" : "_ZTIRKNSt3__14pairINS_14__map_iteratorINS_15__tree_iteratorINS_12__value_typeIPvP16RsContextWrapperEEPNS_11__tree_nodeIS7_S4_EElEEEEbEE",
   "name" : "const std::pair<std::__map_iterator<std::__tree_iterator<std::__value_type<void *, RsContextWrapper *>, std::__tree_node<std::__value_type<void *, RsContextWrapper *>, void *> *, long>>, bool> &",
   "referenced_type" : "_ZTIKNSt3__14pairINS_14__map_iteratorINS_15__tree_iteratorINS_12__value_typeIPvP16RsContextWrapperEEPNS_11__tree_nodeIS7_S4_EElEEEEbEE",
   "size" : 8,
   "source_file" : "external/libcxx/include/utility"
  },
  {
   "alignment" : 8,
   "linker_set_key" : "_ZTIRKNSt3__14pairINS_15__tree_iteratorIN7android2spINS2_8hardware12renderscript4V1_08IContextEEEPNS_11__tree_nodeIS8_PvEElEEbEE",
   "name" : "const std::pair<std::__tree_iterator<android::sp<android::hardware::renderscript::V1_0::IContext>, std::__tree_node<android::sp<android::hardware::renderscript::V1_0::IContext>, void *> *, long>, bool> &",
   "referenced_type" : "_ZTIKNSt3__14pairINS_15__tree_iteratorIN7android2spINS2_8hardware12renderscript4V1_08IContextEEEPNS_11__tree_nodeIS8_PvEElEEbEE",
   "size" : 8,
   "source_file" : "external/libcxx/include/utility"
  },
  {
   "alignment" : 8,
   "linker_set_key" : "_ZTIRKNSt3__14pairINS_15__tree_iteratorINS_12__value_typeIPvP16RsContextWrapperEEPNS_11__tree_nodeIS6_S3_EElEEbEE",
   "name" : "const std::pair<std::__tree_iterator<std::__value_type<void *, RsContextWrapper *>, std::__tree_node<std::__value_type<void *, RsContextWrapper *>, void *> *, long>, bool> &",
   "referenced_type" : "_ZTIKNSt3__14pairINS_15__tree_iteratorINS_12__value_typeIPvP16RsContextWrapperEEPNS_11__tree_nodeIS6_S3_EElEEbEE",
   "size" : 8,
   "source_file" : "external/libcxx/include/utility"
  },
  {
   "alignment" : 8,
   "linker_set_key" : "_ZTIRKNSt3__14pairINS_21__tree_const_iteratorIN7android2spINS2_8hardware12renderscript4V1_08IContextEEEPNS_11__tree_nodeIS8_PvEElEEbEE",
   "name" : "const std::pair<std::__tree_const_iterator<android::sp<android::hardware::renderscript::V1_0::IContext>, std::__tree_node<android::sp<android::hardware::renderscript::V1_0::IContext>, void *> *, long>, bool> &",
   "referenced_type" : "_ZTIKNSt3__14pairINS_21__tree_const_iteratorIN7android2spINS2_8hardware12renderscript4V1_08IContextEEEPNS_11__tree_nodeIS8_PvEElEEbEE",
   "size" : 8,
   "source_file" : "external/libcxx/include/utility"
  },
  {
   "alignment" : 8,
   "linker_set_key" : "_ZTIRKNSt3__14pairIPvP16RsContextWrapperEE",
   "name" : "const std::pair<void *, RsContextWrapper *> &",
   "referenced_type" : "_ZTIKNSt3__14pairIPvP16RsContextWrapperEE",
   "size" : 8,
   "source_file" : "external/libcxx/include/utility"
  },
  {
   "alignment" : 8,
   "linker_set_key" : "_ZTIRKNSt3__14pairImmEE",
   "name" : "const std::pair<unsigned long, unsigned long> &",
   "referenced_type" : "_ZTIKNSt3__14pairImmEE",
   "size" : 8,
   "source_file" : "external/libcxx/include/utility"
  },
  {
   "alignment" : 8,
   "linker_set_key" : "_ZTIRKNSt3__15ctypeIcEE",
   "name" : "const std::ctype<char> &",
   "referenced_type" : "_ZTIKNSt3__15ctypeIcEE",
   "size" : 8,
   "source_file" : "external/libcxx/include/__locale"
  },
  {
   "alignment" : 8,
   "linker_set_key" : "_ZTIRKNSt3__16chrono10time_pointINS0_12steady_clockENS0_8durationIxNS_5ratioILl1ELl1000000000EEEEEEE",
   "name" : "const std::chrono::time_point<std::chrono::steady_clock, std::chrono::duration<long long, std::ratio<1, 1000000000>>> &",
   "referenced_type" : "_ZTIKNSt3__16chrono10time_pointINS0_12steady_clockENS0_8durationIxNS_5ratioILl1ELl1000000000EEEEEEE",
   "size" : 8,
   "source_file" : "external/libcxx/include/chrono"
  },
  {
   "alignment" : 8,
   "linker_set_key" : "_ZTIRKNSt3__16chrono10time_pointINS0_12system_clockENS0_8durationIiNS_5ratioILl86400ELl1EEEEEEE",
   "name" : "const std::chrono::time_point<std::chrono::system_clock, std::chrono::duration<int, std::ratio<86400, 1>>> &",
   "referenced_type" : "_ZTIKNSt3__16chrono10time_pointINS0_12system_clockENS0_8durationIiNS_5ratioILl86400ELl1EEEEEEE",
   "size" : 8,
   "source_file" : "external/libcxx/include/chrono"
  },
  {
   "alignment" : 8,
   "linker_set_key" : "_ZTIRKNSt3__16chrono10time_pointINS0_12system_clockENS0_8durationIxNS_5ratioILl1ELl1000000000EEEEEEE",
   "name" : "const std::chrono::time_point<std::chrono::system_clock, std::chrono::duration<long long, std::ratio<1, 1000000000>>> &",
   "referenced_type" : "_ZTIKNSt3__16chrono10time_pointINS0_12system_clockENS0_8durationIxNS_5ratioILl1ELl1000000000EEEEEEE",
   "size" : 8,
   "source_file" : "external/libcxx/include/chrono"
  },
  {
   "alignment" : 8,
   "linker_set_key" : "_ZTIRKNSt3__16chrono10time_pointINS0_7local_tENS0_8durationIiNS_5ratioILl86400ELl1EEEEEEE",
   "name" : "const std::chrono::time_point<std::chrono::local_t, std::chrono::duration<int, std::ratio<86400, 1>>> &",
   "referenced_type" : "_ZTIKNSt3__16chrono10time_pointINS0_7local_tENS0_8durationIiNS_5ratioILl86400ELl1EEEEEEE",
   "size" : 8,
   "source_file" : "external/libcxx/include/chrono"
  },
  {
   "alignment" : 8,
   "linker_set_key" : "_ZTIRKNSt3__16chrono10time_pointINS_4__fs10filesystem16_FilesystemClockENS0_8durationInNS_5ratioILl1ELl1000000000EEEEEEE",
   "name" : "const std::chrono::time_point<std::filesystem::_FilesystemClock, std::chrono::duration<__int128, std::ratio<1, 1000000000>>> &",
   "referenced_type" : "_ZTIKNSt3__16chrono10time_pointINS_4__fs10filesystem16_FilesystemClockENS0_8durationInNS_5ratioILl1ELl1000000000EEEEEEE",
   "size" : 8,
   "source_file" : "external/libcxx/include/chrono"
  },
  {
   "alignment" : 8,
   "linker_set_key" : "_ZTIRKNSt3__16chrono10year_monthE",
   "name" : "const std::chrono::year_month &",
   "referenced_type" : "_ZTIKNSt3__16chrono10year_monthE",
   "size" : 8,
   "source_file" : "external/libcxx/include/chrono"
  },
  {
   "alignment" : 8,
   "linker_set_key" : "_ZTIRKNSt3__16chrono12weekday_lastE",
   "name" : "const std::chrono::weekday_last &",
   "referenced_type" : "_ZTIKNSt3__16chrono12weekday_lastE",
   "size" : 8,
   "source_file" : "external/libcxx/include/chrono"
  },
  {
   "alignment" : 8,
   "linker_set_key" : "_ZTIRKNSt3__16chrono13month_weekdayE",
   "name" : "const std::chrono::month_weekday &",
   "referenced_type" : "_ZTIKNSt3__16chrono13month_weekdayE",
   "size" : 8,
   "source_file" : "external/libcxx/include/chrono"
  },
  {
   "alignment" : 8,
   "linker_set_key" : "_ZTIRKNSt3__16chrono14month_day_lastE",
   "name" : "const std::chrono::month_day_last &",
   "referenced_type" : "_ZTIKNSt3__16chrono14month_day_lastE",
   "size" : 8,
   "source_file" : "external/libcxx/include/chrono"
  },
  {
   "alignment" : 8,
   "linker_set_key" : "_ZTIRKNSt3__16chrono14year_month_dayE",
   "name" : "const std::chrono::year_month_day &",
   "referenced_type" : "_ZTIKNSt3__16chrono14year_month_dayE",
   "size" : 8,
   "source_file" : "external/libcxx/include/chrono"
  },
  {
   "alignment" : 8,
   "linker_set_key" : "_ZTIRKNSt3__16chrono15weekday_indexedE",
   "name" : "const std::chrono::weekday_indexed &",
   "referenced_type" : "_ZTIKNSt3__16chrono15weekday_indexedE",
   "size" : 8,
   "source_file" : "external/libcxx/include/chrono"
  },
  {
   "alignment" : 8,
   "linker_set_key" : "_ZTIRKNSt3__16chrono18month_weekday_lastE",
   "name" : "const std::chrono::month_weekday_last &",
   "referenced_type" : "_ZTIKNSt3__16chrono18month_weekday_lastE",
   "size" : 8,
   "source_file" : "external/libcxx/include/chrono"
  },
  {
   "alignment" : 8,
   "linker_set_key" : "_ZTIRKNSt3__16chrono18year_month_weekdayE",
   "name" : "const std::chrono::year_month_weekday &",
   "referenced_type" : "_ZTIKNSt3__16chrono18year_month_weekdayE",
   "size" : 8,
   "source_file" : "external/libcxx/include/chrono"
  },
  {
   "alignment" : 8,
   "linker_set_key" : "_ZTIRKNSt3__16chrono19year_month_day_lastE",
   "name" : "const std::chrono::year_month_day_last &",
   "referenced_type" : "_ZTIKNSt3__16chrono19year_month_day_lastE",
   "size" : 8,
   "source_file" : "external/libcxx/include/chrono"
  },
  {
   "alignment" : 8,
   "linker_set_key" : "_ZTIRKNSt3__16chrono23year_month_weekday_lastE",
   "name" : "const std::chrono::year_month_weekday_last &",
   "referenced_type" : "_ZTIKNSt3__16chrono23year_month_weekday_lastE",
   "size" : 8,
   "source_file" : "external/libcxx/include/chrono"
  },
  {
   "alignment" : 8,
   "linker_set_key" : "_ZTIRKNSt3__16chrono3dayE",
   "name" : "const std::chrono::day &",
   "referenced_type" : "_ZTIKNSt3__16chrono3dayE",
   "size" : 8,
   "source_file" : "external/libcxx/include/chrono"
  },
  {
   "alignment" : 8,
   "linker_set_key" : "_ZTIRKNSt3__16chrono4yearE",
   "name" : "const std::chrono::year &",
   "referenced_type" : "_ZTIKNSt3__16chrono4yearE",
   "size" : 8,
   "source_file" : "external/libcxx/include/chrono"
  },
  {
   "alignment" : 8,
   "linker_set_key" : "_ZTIRKNSt3__16chrono5monthE",
   "name" : "const std::chrono::month &",
   "referenced_type" : "_ZTIKNSt3__16chrono5monthE",
   "size" : 8,
   "source_file" : "external/libcxx/include/chrono"
  },
  {
   "alignment" : 8,
   "linker_set_key" : "_ZTIRKNSt3__16chrono7weekdayE",
   "name" : "const std::chrono::weekday &",
   "referenced_type" : "_ZTIKNSt3__16chrono7weekdayE",
   "size" : 8,
   "source_file" : "external/libcxx/include/chrono"
  },
  {
   "alignment" : 8,
   "linker_set_key" : "_ZTIRKNSt3__16chrono8durationIiNS_5ratioILl2629746ELl1EEEEE",
   "name" : "const std::chrono::duration<int, std::ratio<2629746, 1>> &",
   "referenced_type" : "_ZTIKNSt3__16chrono8durationIiNS_5ratioILl2629746ELl1EEEEE",
   "size" : 8,
   "source_file" : "external/libcxx/include/chrono"
  },
  {
   "alignment" : 8,
   "linker_set_key" : "_ZTIRKNSt3__16chrono8durationIiNS_5ratioILl31556952ELl1EEEEE",
   "name" : "const std::chrono::duration<int, std::ratio<31556952, 1>> &",
   "referenced_type" : "_ZTIKNSt3__16chrono8durationIiNS_5ratioILl31556952ELl1EEEEE",
   "size" : 8,
   "source_file" : "external/libcxx/include/chrono"
  },
  {
   "alignment" : 8,
   "linker_set_key" : "_ZTIRKNSt3__16chrono8durationIiNS_5ratioILl86400ELl1EEEEE",
   "name" : "const std::chrono::duration<int, std::ratio<86400, 1>> &",
   "referenced_type" : "_ZTIKNSt3__16chrono8durationIiNS_5ratioILl86400ELl1EEEEE",
   "size" : 8,
   "source_file" : "external/libcxx/include/chrono"
  },
  {
   "alignment" : 8,
   "linker_set_key" : "_ZTIRKNSt3__16chrono8durationInNS_5ratioILl1ELl1000000000EEEEE",
   "name" : "const std::chrono::duration<__int128, std::ratio<1, 1000000000>> &",
   "referenced_type" : "_ZTIKNSt3__16chrono8durationInNS_5ratioILl1ELl1000000000EEEEE",
   "size" : 8,
   "source_file" : "external/libcxx/include/chrono"
  },
  {
   "alignment" : 8,
   "linker_set_key" : "_ZTIRKNSt3__16chrono8durationInNS_5ratioILl1ELl1EEEEE",
   "name" : "const std::chrono::duration<__int128, std::ratio<1, 1>> &",
   "referenced_type" : "_ZTIKNSt3__16chrono8durationInNS_5ratioILl1ELl1EEEEE",
   "size" : 8,
   "source_file" : "external/libcxx/include/chrono"
  },
  {
   "alignment" : 8,
   "linker_set_key" : "_ZTIRKNSt3__16chrono8durationIxNS_5ratioILl1ELl1000000000EEEEE",
   "name" : "const std::chrono::duration<long long, std::ratio<1, 1000000000>> &",
   "referenced_type" : "_ZTIKNSt3__16chrono8durationIxNS_5ratioILl1ELl1000000000EEEEE",
   "size" : 8,
   "source_file" : "external/libcxx/include/chrono"
  },
  {
   "alignment" : 8,
   "linker_set_key" : "_ZTIRKNSt3__16chrono8durationIxNS_5ratioILl1ELl1EEEEE",
   "name" : "const std::chrono::duration<long long, std::ratio<1, 1>> &",
   "referenced_type" : "_ZTIKNSt3__16chrono8durationIxNS_5ratioILl1ELl1EEEEE",
   "size" : 8,
   "source_file" : "external/libcxx/include/chrono"
  },
  {
   "alignment" : 8,
   "linker_set_key" : "_ZTIRKNSt3__16chrono9month_dayE",
   "name" : "const std::chrono::month_day &",
   "referenced_type" : "_ZTIKNSt3__16chrono9month_dayE",
   "size" : 8,
   "source_file" : "external/libcxx/include/chrono"
  },
  {
   "alignment" : 8,
   "linker_set_key" : "_ZTIRKNSt3__16localeE",
   "name" : "const std::locale &",
   "referenced_type" : "_ZTIKNSt3__16localeE",
   "size" : 8,
   "source_file" : "external/libcxx/include/__locale"
  },
  {
   "alignment" : 8,
   "linker_set_key" : "_ZTIRKNSt3__16vectorIN7android8hardware11hidl_stringENS_9allocatorIS3_EEEE",
   "name" : "const std::vector<android::hardware::hidl_string, std::allocator<android::hardware::hidl_string>> &",
   "referenced_type" : "_ZTIKNSt3__16vectorIN7android8hardware11hidl_stringENS_9allocatorIS3_EEEE",
   "size" : 8,
   "source_file" : "external/libcxx/include/vector"
  },
  {
   "alignment" : 8,
   "linker_set_key" : "_ZTIRKNSt3__16vectorINS_8functionIFvN7android8hardware7details16HidlInstrumentor20InstrumentationEventEPKcS8_S8_S8_PNS0_IPvNS_9allocatorIS9_EEEEEEENSA_ISF_EEEE",
   "name" : "const std::vector<std::function<void (InstrumentationEvent, const char *, const char *, const char *, const char *, vector<void *, allocator<void *>> *)>, std::allocator<std::function<void (InstrumentationEvent, const char *, const char *, const char *, const char *, vector<void *, allocator<void *>> *)>>> &",
   "referenced_type" : "_ZTIKNSt3__16vectorINS_8functionIFvN7android8hardware7details16HidlInstrumentor20InstrumentationEventEPKcS8_S8_S8_PNS0_IPvNS_9allocatorIS9_EEEEEEENSA_ISF_EEEE",
   "size" : 8,
   "source_file" : "system/libhidl/base/include/hidl/HidlInternal.h"
  },
  {
   "alignment" : 8,
   "linker_set_key" : "_ZTIRKNSt3__16vectorIiNS_9allocatorIiEEEE",
   "name" : "const std::vector<int, std::allocator<int>> &",
   "referenced_type" : "_ZTIKNSt3__16vectorIiNS_9allocatorIiEEEE",
   "size" : 8,
   "source_file" : "external/libcxx/include/vector"
  },
  {
   "alignment" : 8,
   "linker_set_key" : "_ZTIRKNSt3__16vectorIlNS_9allocatorIlEEEE",
   "name" : "const std::vector<long, std::allocator<long>> &",
   "referenced_type" : "_ZTIKNSt3__16vectorIlNS_9allocatorIlEEEE",
   "size" : 8,
   "source_file" : "external/libcxx/include/vector"
  },
  {
   "alignment" : 8,
   "linker_set_key" : "_ZTIRKNSt3__16vectorImNS_9allocatorImEEEE",
   "name" : "const std::vector<unsigned long, std::allocator<unsigned long>> &",
   "referenced_type" : "_ZTIKNSt3__16vectorImNS_9allocatorImEEEE",
   "size" : 8,
   "source_file" : "external/libcxx/include/vector"
  },
  {
   "alignment" : 8,
   "linker_set_key" : "_ZTIRKNSt3__18__bitsetILm0ELm0EEE",
   "name" : "const std::__bitset<0, 0> &",
   "referenced_type" : "_ZTIKNSt3__18__bitsetILm0ELm0EEE",
   "size" : 8,
   "source_file" : "external/libcxx/include/bitset"
  },
  {
   "alignment" : 8,
   "linker_set_key" : "_ZTIRKNSt3__18optionalINS_9allocatorIN7android2spINS2_8hardware12renderscript4V1_08IContextEEEEEEE",
   "name" : "const std::optional<std::allocator<android::sp<android::hardware::renderscript::V1_0::IContext>>> &",
   "referenced_type" : "_ZTIKNSt3__18optionalINS_9allocatorIN7android2spINS2_8hardware12renderscript4V1_08IContextEEEEEEE",
   "size" : 8,
   "source_file" : "external/libcxx/include/type_traits"
  },
  {
   "alignment" : 8,
   "linker_set_key" : "_ZTIRKNSt3__18optionalINS_9allocatorINS_4pairIKPvP16RsContextWrapperEEEEEE",
   "name" : "const std::optional<std::allocator<std::pair<void *const, RsContextWrapper *>>> &",
   "referenced_type" : "_ZTIKNSt3__18optionalINS_9allocatorINS_4pairIKPvP16RsContextWrapperEEEEEE",
   "size" : 8,
   "source_file" : "external/libcxx/include/type_traits"
  },
  {
   "alignment" : 8,
   "linker_set_key" : "_ZTIRKNSt3__19allocatorIDiEE",
   "name" : "const std::allocator<char32_t> &",
   "referenced_type" : "_ZTIKNSt3__19allocatorIDiEE",
   "size" : 8,
   "source_file" : "external/libcxx/include/string"
  },
  {
   "alignment" : 8,
   "linker_set_key" : "_ZTIRKNSt3__19allocatorIDsEE",
   "name" : "const std::allocator<char16_t> &",
   "referenced_type" : "_ZTIKNSt3__19allocatorIDsEE",
   "size" : 8,
   "source_file" : "external/libcxx/include/string"
  },
  {
   "alignment" : 8,
   "linker_set_key" : "_ZTIRKNSt3__19allocatorIDuEE",
   "name" : "const std::allocator<char8_t> &",
   "referenced_type" : "_ZTIKNSt3__19allocatorIDuEE",
   "size" : 8,
   "source_file" : "external/libcxx/include/string"
  },
  {
   "alignment" : 8,
   "linker_set_key" : "_ZTIRKNSt3__19allocatorIN7android2spINS1_8hardware12renderscript4V1_08IContextEEEEE",
   "name" : "const std::allocator<android::sp<android::hardware::renderscript::V1_0::IContext>> &",
   "referenced_type" : "_ZTIKNSt3__19allocatorIN7android2spINS1_8hardware12renderscript4V1_08IContextEEEEE",
   "size" : 8,
   "source_file" : "external/libcxx/include/type_traits"
  },
  {
   "alignment" : 8,
   "linker_set_key" : "_ZTIRKNSt3__19allocatorIN7android8hardware11hidl_stringEEE",
   "name" : "const std::allocator<android::hardware::hidl_string> &",
   "referenced_type" : "_ZTIKNSt3__19allocatorIN7android8hardware11hidl_stringEEE",
   "size" : 8,
   "source_file" : "external/libcxx/include/memory"
  },
  {
   "alignment" : 8,
   "linker_set_key" : "_ZTIRKNSt3__19allocatorINS_4pairIKPvP16RsContextWrapperEEEE",
   "name" : "const std::allocator<std::pair<void *const, RsContextWrapper *>> &",
   "referenced_type" : "_ZTIKNSt3__19allocatorINS_4pairIKPvP16RsContextWrapperEEEE",
   "size" : 8,
   "source_file" : "external/libcxx/include/type_traits"
  },
  {
   "alignment" : 8,
   "linker_set_key" : "_ZTIRKNSt3__19allocatorIcEE",
   "name" : "const std::allocator<char> &",
   "referenced_type" : "_ZTIKNSt3__19allocatorIcEE",
   "size" : 8,
   "source_file" : "external/libcxx/include/type_traits"
  },
  {
   "alignment" : 8,
   "linker_set_key" : "_ZTIRKNSt3__19allocatorIiEE",
   "name" : "const std::allocator<int> &",
   "referenced_type" : "_ZTIKNSt3__19allocatorIiEE",
   "size" : 8,
   "source_file" : "external/libcxx/include/memory"
  },
  {
   "alignment" : 8,
   "linker_set_key" : "_ZTIRKNSt3__19allocatorIlEE",
   "name" : "const std::allocator<long> &",
   "referenced_type" : "_ZTIKNSt3__19allocatorIlEE",
   "size" : 8,
   "source_file" : "external/libcxx/include/memory"
  },
  {
   "alignment" : 8,
   "linker_set_key" : "_ZTIRKNSt3__19allocatorImEE",
   "name" : "const std::allocator<unsigned long> &",
   "referenced_type" : "_ZTIKNSt3__19allocatorImEE",
   "size" : 8,
   "source_file" : "external/libcxx/include/memory"
  },
  {
   "alignment" : 8,
   "linker_set_key" : "_ZTIRKNSt3__19allocatorIwEE",
   "name" : "const std::allocator<wchar_t> &",
   "referenced_type" : "_ZTIKNSt3__19allocatorIwEE",
   "size" : 8,
   "source_file" : "external/libcxx/include/memory"
  },
  {
   "alignment" : 8,
   "linker_set_key" : "_ZTIRKP16RsContextWrapper",
   "name" : "RsContextWrapper *const &",
   "referenced_type" : "_ZTIKP16RsContextWrapper",
   "size" : 8,
   "source_file" : "external/libcxx/include/utility"
  },
  {
   "alignment" : 8,
   "linker_set_key" : "_ZTIRKPKDi",
   "name" : "const char32_t *const &",
   "referenced_type" : "_ZTIKPKDi",
   "size" : 8,
   "source_file" : "external/libcxx/include/type_traits"
  },
  {
   "alignment" : 8,
   "linker_set_key" : "_ZTIRKPKDs",
   "name" : "const char16_t *const &",
   "referenced_type" : "_ZTIKPKDs",
   "size" : 8,
   "source_file" : "external/libcxx/include/type_traits"
  },
  {
   "alignment" : 8,
   "linker_set_key" : "_ZTIRKPKDu",
   "name" : "const char8_t *const &",
   "referenced_type" : "_ZTIKPKDu",
   "size" : 8,
   "source_file" : "external/libcxx/include/type_traits"
  },
  {
   "alignment" : 8,
   "linker_set_key" : "_ZTIRKPKc",
   "name" : "const char *const &",
   "referenced_type" : "_ZTIKPKc",
   "size" : 8,
   "source_file" : "external/libcxx/include/type_traits"
  },
  {
   "alignment" : 8,
   "linker_set_key" : "_ZTIRKPKw",
   "name" : "const wchar_t *const &",
   "referenced_type" : "_ZTIKPKw",
   "size" : 8,
   "source_file" : "external/libcxx/include/type_traits"
  },
  {
   "alignment" : 8,
   "linker_set_key" : "_ZTIRKPN7android8hardware11hidl_stringE",
   "name" : "android::hardware::hidl_string *const &",
   "referenced_type" : "_ZTIKPN7android8hardware11hidl_stringE",
   "size" : 8,
   "source_file" : "external/libcxx/include/memory"
  },
  {
   "alignment" : 8,
   "linker_set_key" : "_ZTIRKPN7android8hardware12renderscript4V1_08IContextE",
   "name" : "android::hardware::renderscript::V1_0::IContext *const &",
   "referenced_type" : "_ZTIKPN7android8hardware12renderscript4V1_08IContextE",
   "size" : 8,
   "source_file" : "external/libcxx/include/__functional_base"
  },
  {
   "alignment" : 8,
   "linker_set_key" : "_ZTIRKPNSt3__111__tree_nodeIN7android2spINS1_8hardware12renderscript4V1_08IContextEEEPvEE",
   "name" : "std::__tree_node<android::sp<android::hardware::renderscript::V1_0::IContext>, void *> *const &",
   "referenced_type" : "_ZTIKPNSt3__111__tree_nodeIN7android2spINS1_8hardware12renderscript4V1_08IContextEEEPvEE",
   "size" : 8,
   "source_file" : "external/libcxx/include/memory"
  },
  {
   "alignment" : 8,
   "linker_set_key" : "_ZTIRKPNSt3__111__tree_nodeINS_12__value_typeIPvP16RsContextWrapperEES2_EE",
   "name" : "std::__tree_node<std::__value_type<void *, RsContextWrapper *>, void *> *const &",
   "referenced_type" : "_ZTIKPNSt3__111__tree_nodeINS_12__value_typeIPvP16RsContextWrapperEES2_EE",
   "size" : 8,
   "source_file" : "external/libcxx/include/memory"
  },
  {
   "alignment" : 8,
   "linker_set_key" : "_ZTIRKPc",
   "name" : "char *const &",
   "referenced_type" : "_ZTIKPc",
   "size" : 8,
   "source_file" : "external/libcxx/include/type_traits"
  },
  {
   "alignment" : 8,
   "linker_set_key" : "_ZTIRKPi",
   "name" : "int *const &",
   "referenced_type" : "_ZTIKPi",
   "size" : 8,
   "source_file" : "external/libcxx/include/memory"
  },
  {
   "alignment" : 8,
   "linker_set_key" : "_ZTIRKPl",
   "name" : "long *const &",
   "referenced_type" : "_ZTIKPl",
   "size" : 8,
   "source_file" : "external/libcxx/include/memory"
  },
  {
   "alignment" : 8,
   "linker_set_key" : "_ZTIRKPm",
   "name" : "unsigned long *const &",
   "referenced_type" : "_ZTIKPm",
   "size" : 8,
   "source_file" : "external/libcxx/include/memory"
  },
  {
   "alignment" : 8,
   "linker_set_key" : "_ZTIRKPv",
   "name" : "void *const &",
   "referenced_type" : "_ZTIKPv",
   "size" : 8,
   "source_file" : "external/libcxx/include/utility"
  },
  {
   "alignment" : 8,
   "linker_set_key" : "_ZTIRKSt13exception_ptr",
   "name" : "const std::exception_ptr &",
   "referenced_type" : "_ZTIKSt13exception_ptr",
   "size" : 8,
   "source_file" : "external/libcxx/include/exception"
  },
  {
   "alignment" : 8,
   "linker_set_key" : "_ZTIRKSt9type_info",
   "name" : "const std::type_info &",
   "referenced_type" : "_ZTIKSt9type_info",
   "size" : 8,
   "source_file" : "external/libcxx/include/typeinfo"
  },
  {
   "alignment" : 8,
   "linker_set_key" : "_ZTIRKa",
   "name" : "const signed char &",
   "referenced_type" : "_ZTIKa",
   "size" : 8,
   "source_file" : "system/core/libutils/include/utils/TypeHelpers.h"
  },
  {
   "alignment" : 8,
   "linker_set_key" : "_ZTIRKb",
   "name" : "const bool &",
   "referenced_type" : "_ZTIKb",
   "size" : 8,
   "source_file" : "external/libcxx/include/utility"
  },
  {
   "alignment" : 8,
   "linker_set_key" : "_ZTIRKc",
   "name" : "const char &",
   "referenced_type" : "_ZTIKc",
   "size" : 8,
   "source_file" : "external/libcxx/include/memory"
  },
  {
   "alignment" : 8,
   "linker_set_key" : "_ZTIRKd",
   "name" : "const double &",
   "referenced_type" : "_ZTIKd",
   "size" : 8,
   "source_file" : "system/core/libutils/include/utils/TypeHelpers.h"
  },
  {
   "alignment" : 8,
   "linker_set_key" : "_ZTIRKe",
   "name" : "const long double &",
   "referenced_type" : "_ZTIKe",
   "size" : 8,
   "source_file" : "external/libcxx/include/chrono"
  },
  {
   "alignment" : 8,
   "linker_set_key" : "_ZTIRKf",
   "name" : "const float &",
   "referenced_type" : "_ZTIKf",
   "size" : 8,
   "source_file" : "system/core/libutils/include/utils/TypeHelpers.h"
  },
  {
   "alignment" : 8,
   "linker_set_key" : "_ZTIRKh",
   "name" : "const unsigned char &",
   "referenced_type" : "_ZTIKh",
   "size" : 8,
   "source_file" : "system/core/libutils/include/utils/TypeHelpers.h"
  },
  {
   "alignment" : 8,
   "linker_set_key" : "_ZTIRKi",
   "name" : "const int &",
   "referenced_type" : "_ZTIKi",
   "size" : 8,
   "source_file" : "external/libcxx/include/chrono"
  },
  {
   "alignment" : 8,
   "linker_set_key" : "_ZTIRKj",
   "name" : "const unsigned int &",
   "referenced_type" : "_ZTIKj",
   "size" : 8,
   "source_file" : "external/libcxx/include/algorithm"
  },
  {
   "alignment" : 8,
   "linker_set_key" : "_ZTIRKl",
   "name" : "const long &",
   "referenced_type" : "_ZTIKl",
   "size" : 8,
   "source_file" : "external/libcxx/include/type_traits"
  },
  {
   "alignment" : 8,
   "linker_set_key" : "_ZTIRKm",
   "name" : "const unsigned long &",
   "referenced_type" : "_ZTIKm",
   "size" : 8,
   "source_file" : "external/libcxx/include/utility"
  },
  {
   "alignment" : 8,
   "linker_set_key" : "_ZTIRKn",
   "name" : "const __int128 &",
   "referenced_type" : "_ZTIKn",
   "size" : 8,
   "source_file" : "external/libcxx/include/chrono"
  },
  {
   "alignment" : 8,
   "linker_set_key" : "_ZTIRKs",
   "name" : "const short &",
   "referenced_type" : "_ZTIKs",
   "size" : 8,
   "source_file" : "system/core/libutils/include/utils/TypeHelpers.h"
  },
  {
   "alignment" : 8,
   "linker_set_key" : "_ZTIRKt",
   "name" : "const unsigned short &",
   "referenced_type" : "_ZTIKt",
   "size" : 8,
   "source_file" : "system/core/libutils/include/utils/TypeHelpers.h"
  },
  {
   "alignment" : 8,
   "linker_set_key" : "_ZTIRKw",
   "name" : "const wchar_t &",
   "referenced_type" : "_ZTIKw",
   "size" : 8,
   "source_file" : "external/libcxx/include/__string"
  },
  {
   "alignment" : 8,
   "linker_set_key" : "_ZTIRKx",
   "name" : "const long long &",
   "referenced_type" : "_ZTIKx",
   "size" : 8,
   "source_file" : "external/libcxx/include/chrono"
  },
  {
   "alignment" : 8,
   "linker_set_key" : "_ZTIRN7android2spINS_8hardware12renderscript4V1_07IDeviceEEE",
   "name" : "android::sp<android::hardware::renderscript::V1_0::IDevice> &",
   "referenced_type" : "_ZTIN7android2spINS_8hardware12renderscript4V1_07IDeviceEEE",
   "size" : 8,
   "source_file" : "system/core/libutils/include/utils/StrongPointer.h"
  },
  {
   "alignment" : 8,
   "linker_set_key" : "_ZTIRN7android2spINS_8hardware12renderscript4V1_08IContextEEE",
   "name" : "android::sp<android::hardware::renderscript::V1_0::IContext> &",
   "referenced_type" : "_ZTIN7android2spINS_8hardware12renderscript4V1_08IContextEEE",
   "size" : 8,
   "source_file" : "external/libcxx/include/__tree"
  },
  {
   "alignment" : 8,
   "linker_set_key" : "_ZTIRN7android8hardware11hidl_handleE",
   "name" : "android::hardware::hidl_handle &",
   "referenced_type" : "_ZTIN7android8hardware11hidl_handleE",
   "size" : 8,
   "source_file" : "external/libcxx/include/type_traits"
  },
  {
   "alignment" : 8,
   "linker_set_key" : "_ZTIRN7android8hardware11hidl_memoryE",
   "name" : "android::hardware::hidl_memory &",
   "referenced_type" : "_ZTIN7android8hardware11hidl_memoryE",
   "size" : 8,
   "source_file" : "external/libcxx/include/type_traits"
  },
  {
   "alignment" : 8,
   "linker_set_key" : "_ZTIRN7android8hardware11hidl_stringE",
   "name" : "android::hardware::hidl_string &",
   "referenced_type" : "_ZTIN7android8hardware11hidl_stringE",
   "size" : 8,
   "source_file" : "external/libcxx/include/type_traits"
  },
  {
   "alignment" : 8,
   "linker_set_key" : "_ZTIRN7android8hardware12renderscript4V1_019MessageToClientTypeE",
   "name" : "android::hardware::renderscript::V1_0::MessageToClientType &",
   "referenced_type" : "_ZTIN7android8hardware12renderscript4V1_019MessageToClientTypeE",
   "size" : 8,
   "source_file" : "external/libcxx/include/type_traits"
  },
  {
   "alignment" : 8,
   "linker_set_key" : "_ZTIRN7android8hardware6ReturnINS_2spINS0_12renderscript4V1_08IContextEEEEE",
   "name" : "android::hardware::Return<android::sp<android::hardware::renderscript::V1_0::IContext>> &",
   "referenced_type" : "_ZTIN7android8hardware6ReturnINS_2spINS0_12renderscript4V1_08IContextEEEEE",
   "size" : 8,
   "source_file" : "system/libhidl/base/include/hidl/Status.h"
  },
  {
   "alignment" : 8,
   "linker_set_key" : "_ZTIRN7android8hardware6ReturnImEE",
   "name" : "android::hardware::Return<unsigned long> &",
   "referenced_type" : "_ZTIN7android8hardware6ReturnImEE",
   "size" : 8,
   "source_file" : "system/libhidl/base/include/hidl/Status.h"
  },
  {
   "alignment" : 8,
   "linker_set_key" : "_ZTIRN7android8hardware6ReturnIvEE",
   "name" : "android::hardware::Return<void> &",
   "referenced_type" : "_ZTIN7android8hardware6ReturnIvEE",
   "size" : 8,
   "source_file" : "system/libhidl/base/include/hidl/Status.h"
  },
  {
   "alignment" : 8,
   "linker_set_key" : "_ZTIRN7android8hardware6StatusE",
   "name" : "android::hardware::Status &",
   "referenced_type" : "_ZTIN7android8hardware6StatusE",
   "size" : 8,
   "source_file" : "system/libhidl/base/include/hidl/Status.h"
  },
  {
   "alignment" : 8,
   "linker_set_key" : "_ZTIRN7android8hardware7details12hidl_pointerINS0_11hidl_stringEEE",
   "name" : "android::hardware::details::hidl_pointer<android::hardware::hidl_string> &",
   "referenced_type" : "_ZTIN7android8hardware7details12hidl_pointerINS0_11hidl_stringEEE",
   "size" : 8,
   "source_file" : "system/libhidl/base/include/hidl/HidlInternal.h"
  },
  {
   "alignment" : 8,
   "linker_set_key" : "_ZTIRN7android8hardware7details12hidl_pointerIhEE",
   "name" : "android::hardware::details::hidl_pointer<unsigned char> &",
   "referenced_type" : "_ZTIN7android8hardware7details12hidl_pointerIhEE",
   "size" : 8,
   "source_file" : "system/libhidl/base/include/hidl/HidlInternal.h"
  },
  {
   "alignment" : 8,
   "linker_set_key" : "_ZTIRN7android8hardware7details12hidl_pointerIiEE",
   "name" : "android::hardware::details::hidl_pointer<int> &",
   "referenced_type" : "_ZTIN7android8hardware7details12hidl_pointerIiEE",
   "size" : 8,
   "source_file" : "system/libhidl/base/include/hidl/HidlInternal.h"
  },
  {
   "alignment" : 8,
   "linker_set_key" : "_ZTIRN7android8hardware7details12hidl_pointerIjEE",
   "name" : "android::hardware::details::hidl_pointer<unsigned int> &",
   "referenced_type" : "_ZTIN7android8hardware7details12hidl_pointerIjEE",
   "size" : 8,
   "source_file" : "system/libhidl/base/include/hidl/HidlInternal.h"
  },
  {
   "alignment" : 8,
   "linker_set_key" : "_ZTIRN7android8hardware7details12hidl_pointerIlEE",
   "name" : "android::hardware::details::hidl_pointer<long> &",
   "referenced_type" : "_ZTIN7android8hardware7details12hidl_pointerIlEE",
   "size" : 8,
   "source_file" : "system/libhidl/base/include/hidl/HidlInternal.h"
  },
  {
   "alignment" : 8,
   "linker_set_key" : "_ZTIRN7android8hardware7details12hidl_pointerImEE",
   "name" : "android::hardware::details::hidl_pointer<unsigned long> &",
   "referenced_type" : "_ZTIN7android8hardware7details12hidl_pointerImEE",
   "size" : 8,
   "source_file" : "system/libhidl/base/include/hidl/HidlInternal.h"
  },
  {
   "alignment" : 8,
   "linker_set_key" : "_ZTIRN7android8hardware7details13return_statusE",
   "name" : "android::hardware::details::return_status &",
   "referenced_type" : "_ZTIN7android8hardware7details13return_statusE",
   "size" : 8,
   "source_file" : "external/libcxx/include/type_traits"
  },
  {
   "alignment" : 8,
   "linker_set_key" : "_ZTIRN7android8hardware8hidl_vecINS0_11hidl_stringEEE",
   "name" : "android::hardware::hidl_vec<android::hardware::hidl_string> &",
   "referenced_type" : "_ZTIN7android8hardware8hidl_vecINS0_11hidl_stringEEE",
   "size" : 8,
   "source_file" : "system/libhidl/base/include/hidl/HidlSupport.h"
  },
  {
   "alignment" : 8,
   "linker_set_key" : "_ZTIRN7android8hardware8hidl_vecIiEE",
   "name" : "android::hardware::hidl_vec<int> &",
   "referenced_type" : "_ZTIN7android8hardware8hidl_vecIiEE",
   "size" : 8,
   "source_file" : "system/libhidl/base/include/hidl/HidlSupport.h"
  },
  {
   "alignment" : 8,
   "linker_set_key" : "_ZTIRN7android8hardware8hidl_vecIlEE",
   "name" : "android::hardware::hidl_vec<long> &",
   "referenced_type" : "_ZTIN7android8hardware8hidl_vecIlEE",
   "size" : 8,
   "source_file" : "system/libhidl/base/include/hidl/HidlSupport.h"
  },
  {
   "alignment" : 8,
   "linker_set_key" : "_ZTIRN7android8hardware8hidl_vecImEE",
   "name" : "android::hardware::hidl_vec<unsigned long> &",
   "referenced_type" : "_ZTIN7android8hardware8hidl_vecImEE",
   "size" : 8,
   "source_file" : "system/libhidl/base/include/hidl/HidlSupport.h"
  },
  {
   "alignment" : 8,
   "linker_set_key" : "_ZTIRNSt3__110__function6__baseIFvN7android8hardware12renderscript4V1_019MessageToClientTypeEmEEE",
   "name" : "std::__function::__base<void (MessageToClientType, unsigned long)> &",
   "referenced_type" : "_ZTINSt3__110__function6__baseIFvN7android8hardware12renderscript4V1_019MessageToClientTypeEmEEE",
   "size" : 8,
   "source_file" : "external/libcxx/include/type_traits"
  },
  {
   "alignment" : 8,
   "linker_set_key" : "_ZTIRNSt3__110__function6__baseIFvN7android8hardware12renderscript4V1_019MessageToClientTypeEmjEEE",
   "name" : "std::__function::__base<void (MessageToClientType, unsigned long, unsigned int)> &",
   "referenced_type" : "_ZTINSt3__110__function6__baseIFvN7android8hardware12renderscript4V1_019MessageToClientTypeEmjEEE",
   "size" : 8,
   "source_file" : "external/libcxx/include/type_traits"
  },
  {
   "alignment" : 8,
   "linker_set_key" : "_ZTIRNSt3__110__function6__baseIFvPvmEEE",
   "name" : "std::__function::__base<void (void *, unsigned long)> &",
   "referenced_type" : "_ZTINSt3__110__function6__baseIFvPvmEEE",
   "size" : 8,
   "source_file" : "external/libcxx/include/type_traits"
  },
  {
   "alignment" : 8,
   "linker_set_key" : "_ZTIRNSt3__110__function6__baseIFvRKN7android8hardware11hidl_stringEEEE",
   "name" : "std::__function::__base<void (const hidl_string &)> &",
   "referenced_type" : "_ZTINSt3__110__function6__baseIFvRKN7android8hardware11hidl_stringEEEE",
   "size" : 8,
   "source_file" : "external/libcxx/include/type_traits"
  },
  {
   "alignment" : 8,
   "linker_set_key" : "_ZTIRNSt3__110__function6__baseIFvRKN7android8hardware8hidl_vecIhEEEEE",
   "name" : "std::__function::__base<void (const hidl_vec<unsigned char> &)> &",
   "referenced_type" : "_ZTINSt3__110__function6__baseIFvRKN7android8hardware8hidl_vecIhEEEEE",
   "size" : 8,
   "source_file" : "external/libcxx/include/type_traits"
  },
  {
   "alignment" : 8,
   "linker_set_key" : "_ZTIRNSt3__110__function6__baseIFvRKN7android8hardware8hidl_vecIjEEEEE",
   "name" : "std::__function::__base<void (const hidl_vec<unsigned int> &)> &",
   "referenced_type" : "_ZTINSt3__110__function6__baseIFvRKN7android8hardware8hidl_vecIjEEEEE",
   "size" : 8,
   "source_file" : "external/libcxx/include/type_traits"
  },
  {
   "alignment" : 8,
   "linker_set_key" : "_ZTIRNSt3__110__function6__baseIFvRKN7android8hardware8hidl_vecImEEEEE",
   "name" : "std::__function::__base<void (const hidl_vec<unsigned long> &)> &",
   "referenced_type" : "_ZTINSt3__110__function6__baseIFvRKN7android8hardware8hidl_vecImEEEEE",
   "size" : 8,
   "source_file" : "external/libcxx/include/type_traits"
  },
  {
   "alignment" : 8,
   "linker_set_key" : "_ZTIRNSt3__110__function6__baseIFvRKN7android8hardware8hidl_vecImEERKNS4_INS3_11hidl_stringEEES7_EEE",
   "name" : "std::__function::__base<void (const hidl_vec<unsigned long> &, const hidl_vec<hidl_string> &, const hidl_vec<unsigned long> &)> &",
   "referenced_type" : "_ZTINSt3__110__function6__baseIFvRKN7android8hardware8hidl_vecImEERKNS4_INS3_11hidl_stringEEES7_EEE",
   "size" : 8,
   "source_file" : "external/libcxx/include/type_traits"
  },
  {
   "alignment" : 8,
   "linker_set_key" : "_ZTIRNSt3__110error_codeE",
   "name" : "std::error_code &",
   "referenced_type" : "_ZTINSt3__110error_codeE",
   "size" : 8,
   "source_file" : "external/libcxx/include/type_traits"
  },
  {
   "alignment" : 8,
   "linker_set_key" : "_ZTIRNSt3__111__tree_nodeIN7android2spINS1_8hardware12renderscript4V1_08IContextEEEPvEE",
   "name" : "std::__tree_node<android::sp<android::hardware::renderscript::V1_0::IContext>, void *> &",
   "referenced_type" : "_ZTINSt3__111__tree_nodeIN7android2spINS1_8hardware12renderscript4V1_08IContextEEEPvEE",
   "size" : 8,
   "source_file" : "external/libcxx/include/type_traits"
  },
  {
   "alignment" : 8,
   "linker_set_key" : "_ZTIRNSt3__111__tree_nodeINS_12__value_typeIPvP16RsContextWrapperEES2_EE",
   "name" : "std::__tree_node<std::__value_type<void *, RsContextWrapper *>, void *> &",
   "referenced_type" : "_ZTINSt3__111__tree_nodeINS_12__value_typeIPvP16RsContextWrapperEES2_EE",
   "size" : 8,
   "source_file" : "external/libcxx/include/type_traits"
  },
  {
   "alignment" : 8,
   "linker_set_key" : "_ZTIRNSt3__112__value_typeIPvP16RsContextWrapperEE",
   "name" : "std::__value_type<void *, RsContextWrapper *> &",
   "referenced_type" : "_ZTINSt3__112__value_typeIPvP16RsContextWrapperEE",
   "size" : 8,
   "source_file" : "external/libcxx/include/__tree"
  },
  {
   "alignment" : 8,
   "linker_set_key" : "_ZTIRNSt3__112basic_stringIDiNS_11char_traitsIDiEENS_9allocatorIDiEEE5__repE",
   "name" : "std::basic_string<char32_t, std::char_traits<char32_t>, std::allocator<char32_t>>::__rep &",
   "referenced_type" : "_ZTINSt3__112basic_stringIDiNS_11char_traitsIDiEENS_9allocatorIDiEEE5__repE",
   "size" : 8,
   "source_file" : "external/libcxx/include/memory"
  },
  {
   "alignment" : 8,
   "linker_set_key" : "_ZTIRNSt3__112basic_stringIDsNS_11char_traitsIDsEENS_9allocatorIDsEEE5__repE",
   "name" : "std::basic_string<char16_t, std::char_traits<char16_t>, std::allocator<char16_t>>::__rep &",
   "referenced_type" : "_ZTINSt3__112basic_stringIDsNS_11char_traitsIDsEENS_9allocatorIDsEEE5__repE",
   "size" : 8,
   "source_file" : "external/libcxx/include/memory"
  },
  {
   "alignment" : 8,
   "linker_set_key" : "_ZTIRNSt3__112basic_stringIDuNS_11char_traitsIDuEENS_9allocatorIDuEEE5__repE",
   "name" : "std::basic_string<char8_t, std::char_traits<char8_t>, std::allocator<char8_t>>::__rep &",
   "referenced_type" : "_ZTINSt3__112basic_stringIDuNS_11char_traitsIDuEENS_9allocatorIDuEEE5__repE",
   "size" : 8,
   "source_file" : "external/libcxx/include/memory"
  },
  {
   "alignment" : 8,
   "linker_set_key" : "_ZTIRNSt3__112basic_stringIcNS_11char_traitsIcEENS_9allocatorIcEEE5__repE",
   "name" : "std::basic_string<char, std::char_traits<char>, std::allocator<char>>::__rep &",
   "referenced_type" : "_ZTINSt3__112basic_stringIcNS_11char_traitsIcEENS_9allocatorIcEEE5__repE",
   "size" : 8,
   "source_file" : "external/libcxx/include/memory"
  },
  {
   "alignment" : 8,
   "linker_set_key" : "_ZTIRNSt3__112basic_stringIcNS_11char_traitsIcEENS_9allocatorIcEEEE",
   "name" : "std::basic_string<char, std::char_traits<char>, std::allocator<char>> &",
   "referenced_type" : "_ZTINSt3__112basic_stringIcNS_11char_traitsIcEENS_9allocatorIcEEEE",
   "size" : 8,
   "source_file" : "external/libcxx/include/type_traits"
  },
  {
   "alignment" : 8,
   "linker_set_key" : "_ZTIRNSt3__112basic_stringIwNS_11char_traitsIwEENS_9allocatorIwEEE5__repE",
   "name" : "std::basic_string<wchar_t, std::char_traits<wchar_t>, std::allocator<wchar_t>>::__rep &",
   "referenced_type" : "_ZTINSt3__112basic_stringIwNS_11char_traitsIwEENS_9allocatorIwEEE5__repE",
   "size" : 8,
   "source_file" : "external/libcxx/include/memory"
  },
  {
   "alignment" : 8,
   "linker_set_key" : "_ZTIRNSt3__113basic_ostreamIcNS_11char_traitsIcEEEE",
   "name" : "std::basic_ostream<char, std::char_traits<char>> &",
   "referenced_type" : "_ZTINSt3__113basic_ostreamIcNS_11char_traitsIcEEEE",
   "size" : 8,
   "source_file" : "external/libcxx/include/type_traits"
  },
  {
   "alignment" : 8,
   "linker_set_key" : "_ZTIRNSt3__113basic_ostreamIwNS_11char_traitsIwEEEE",
   "name" : "std::basic_ostream<wchar_t, std::char_traits<wchar_t>> &",
   "referenced_type" : "_ZTINSt3__113basic_ostreamIwNS_11char_traitsIwEEEE",
   "size" : 8,
   "source_file" : "external/libcxx/include/ostream"
  },
  {
   "alignment" : 8,
   "linker_set_key" : "_ZTIRNSt3__114__map_iteratorINS_15__tree_iteratorINS_12__value_typeIPvP16RsContextWrapperEEPNS_11__tree_nodeIS6_S3_EElEEEE",
   "name" : "std::__map_iterator<std::__tree_iterator<std::__value_type<void *, RsContextWrapper *>, std::__tree_node<std::__value_type<void *, RsContextWrapper *>, void *> *, long>> &",
   "referenced_type" : "_ZTINSt3__114__map_iteratorINS_15__tree_iteratorINS_12__value_typeIPvP16RsContextWrapperEEPNS_11__tree_nodeIS6_S3_EElEEEE",
   "size" : 8,
   "source_file" : "external/libcxx/include/type_traits"
  },
  {
   "alignment" : 8,
   "linker_set_key" : "_ZTIRNSt3__115__tree_end_nodeIPNS_16__tree_node_baseIPvEEEE",
   "name" : "std::__tree_end_node<std::__tree_node_base<void *> *> &",
   "referenced_type" : "_ZTINSt3__115__tree_end_nodeIPNS_16__tree_node_baseIPvEEEE",
   "size" : 8,
   "source_file" : "external/libcxx/include/memory"
  },
  {
   "alignment" : 8,
   "linker_set_key" : "_ZTIRNSt3__115__tree_iteratorIN7android2spINS1_8hardware12renderscript4V1_08IContextEEEPNS_11__tree_nodeIS7_PvEElEE",
   "name" : "std::__tree_iterator<android::sp<android::hardware::renderscript::V1_0::IContext>, std::__tree_node<android::sp<android::hardware::renderscript::V1_0::IContext>, void *> *, long> &",
   "referenced_type" : "_ZTINSt3__115__tree_iteratorIN7android2spINS1_8hardware12renderscript4V1_08IContextEEEPNS_11__tree_nodeIS7_PvEElEE",
   "size" : 8,
   "source_file" : "external/libcxx/include/type_traits"
  },
  {
   "alignment" : 8,
   "linker_set_key" : "_ZTIRNSt3__115__tree_iteratorINS_12__value_typeIPvP16RsContextWrapperEEPNS_11__tree_nodeIS5_S2_EElEE",
   "name" : "std::__tree_iterator<std::__value_type<void *, RsContextWrapper *>, std::__tree_node<std::__value_type<void *, RsContextWrapper *>, void *> *, long> &",
   "referenced_type" : "_ZTINSt3__115__tree_iteratorINS_12__value_typeIPvP16RsContextWrapperEEPNS_11__tree_nodeIS5_S2_EElEE",
   "size" : 8,
   "source_file" : "external/libcxx/include/type_traits"
  },
  {
   "alignment" : 8,
   "linker_set_key" : "_ZTIRNSt3__117__compressed_pairINS_12basic_stringIcNS_11char_traitsIcEENS_9allocatorIcEEE5__repES5_EE",
   "name" : "std::__compressed_pair<std::basic_string<char, std::char_traits<char>, std::allocator<char>>::__rep, std::allocator<char>> &",
   "referenced_type" : "_ZTINSt3__117__compressed_pairINS_12basic_stringIcNS_11char_traitsIcEENS_9allocatorIcEEE5__repES5_EE",
   "size" : 8,
   "source_file" : "external/libcxx/include/type_traits"
  },
  {
   "alignment" : 8,
   "linker_set_key" : "_ZTIRNSt3__117basic_string_viewIDiNS_11char_traitsIDiEEEE",
   "name" : "std::basic_string_view<char32_t, std::char_traits<char32_t>> &",
   "referenced_type" : "_ZTINSt3__117basic_string_viewIDiNS_11char_traitsIDiEEEE",
   "size" : 8,
   "source_file" : "external/libcxx/include/string_view"
  },
  {
   "alignment" : 8,
   "linker_set_key" : "_ZTIRNSt3__117basic_string_viewIDsNS_11char_traitsIDsEEEE",
   "name" : "std::basic_string_view<char16_t, std::char_traits<char16_t>> &",
   "referenced_type" : "_ZTINSt3__117basic_string_viewIDsNS_11char_traitsIDsEEEE",
   "size" : 8,
   "source_file" : "external/libcxx/include/string_view"
  },
  {
   "alignment" : 8,
   "linker_set_key" : "_ZTIRNSt3__117basic_string_viewIDuNS_11char_traitsIDuEEEE",
   "name" : "std::basic_string_view<char8_t, std::char_traits<char8_t>> &",
   "referenced_type" : "_ZTINSt3__117basic_string_viewIDuNS_11char_traitsIDuEEEE",
   "size" : 8,
   "source_file" : "external/libcxx/include/string_view"
  },
  {
   "alignment" : 8,
   "linker_set_key" : "_ZTIRNSt3__117basic_string_viewIcNS_11char_traitsIcEEEE",
   "name" : "std::basic_string_view<char, std::char_traits<char>> &",
   "referenced_type" : "_ZTINSt3__117basic_string_viewIcNS_11char_traitsIcEEEE",
   "size" : 8,
   "source_file" : "external/libcxx/include/string_view"
  },
  {
   "alignment" : 8,
   "linker_set_key" : "_ZTIRNSt3__117basic_string_viewIwNS_11char_traitsIwEEEE",
   "name" : "std::basic_string_view<wchar_t, std::char_traits<wchar_t>> &",
   "referenced_type" : "_ZTINSt3__117basic_string_viewIwNS_11char_traitsIwEEEE",
   "size" : 8,
   "source_file" : "external/libcxx/include/string_view"
  },
  {
   "alignment" : 8,
   "linker_set_key" : "_ZTIRNSt3__118__sfinae_ctor_baseILb0ELb0EEE",
   "name" : "std::__sfinae_ctor_base<false, false> &",
   "referenced_type" : "_ZTINSt3__118__sfinae_ctor_baseILb0ELb0EEE",
   "size" : 8,
   "source_file" : "external/libcxx/include/__tuple"
  },
  {
   "alignment" : 8,
   "linker_set_key" : "_ZTIRNSt3__118__sfinae_ctor_baseILb0ELb1EEE",
   "name" : "std::__sfinae_ctor_base<false, true> &",
   "referenced_type" : "_ZTINSt3__118__sfinae_ctor_baseILb0ELb1EEE",
   "size" : 8,
   "source_file" : "external/libcxx/include/__tuple"
  },
  {
   "alignment" : 8,
   "linker_set_key" : "_ZTIRNSt3__118__sfinae_ctor_baseILb1ELb0EEE",
   "name" : "std::__sfinae_ctor_base<true, false> &",
   "referenced_type" : "_ZTINSt3__118__sfinae_ctor_baseILb1ELb0EEE",
   "size" : 8,
   "source_file" : "external/libcxx/include/__tuple"
  },
  {
   "linker_set_key" : "_ZTIRNSt3__119__basic_node_handleIT_T0_T1_EE",
   "name" : "__basic_node_handle<_NodeType, _Alloc, _MapOrSetSpecifics> &",
   "referenced_type" : "_ZTINSt3__119__basic_node_handleIT_T0_T1_EE",
   "source_file" : "external/libcxx/include/__node_handle"
  },
  {
   "alignment" : 8,
   "linker_set_key" : "_ZTIRNSt3__119__map_value_compareIPvNS_12__value_typeIS1_P16RsContextWrapperEENS_4lessIS1_EELb1EEE",
   "name" : "std::__map_value_compare<void *, std::__value_type<void *, RsContextWrapper *>, std::less<void *>, true> &",
   "referenced_type" : "_ZTINSt3__119__map_value_compareIPvNS_12__value_typeIS1_P16RsContextWrapperEENS_4lessIS1_EELb1EEE",
   "size" : 8,
   "source_file" : "external/libcxx/include/memory"
  },
  {
   "alignment" : 8,
   "linker_set_key" : "_ZTIRNSt3__119basic_ostringstreamIcNS_11char_traitsIcEENS_9allocatorIcEEEE",
   "name" : "std::basic_ostringstream<char, std::char_traits<char>, std::allocator<char>> &",
   "referenced_type" : "_ZTINSt3__119basic_ostringstreamIcNS_11char_traitsIcEENS_9allocatorIcEEEE",
   "size" : 8,
   "source_file" : "external/libcxx/include/type_traits"
  },
  {
   "alignment" : 8,
   "linker_set_key" : "_ZTIRNSt3__120__sfinae_assign_baseILb0ELb1EEE",
   "name" : "std::__sfinae_assign_base<false, true> &",
   "referenced_type" : "_ZTINSt3__120__sfinae_assign_baseILb0ELb1EEE",
   "size" : 8,
   "source_file" : "external/libcxx/include/__tuple"
  },
  {
   "alignment" : 8,
   "linker_set_key" : "_ZTIRNSt3__120__sfinae_assign_baseILb1ELb0EEE",
   "name" : "std::__sfinae_assign_base<true, false> &",
   "referenced_type" : "_ZTINSt3__120__sfinae_assign_baseILb1ELb0EEE",
   "size" : 8,
   "source_file" : "external/libcxx/include/__tuple"
  },
  {
   "alignment" : 8,
   "linker_set_key" : "_ZTIRNSt3__121__tree_const_iteratorIN7android2spINS1_8hardware12renderscript4V1_08IContextEEEPNS_11__tree_nodeIS7_PvEElEE",
   "name" : "std::__tree_const_iterator<android::sp<android::hardware::renderscript::V1_0::IContext>, std::__tree_node<android::sp<android::hardware::renderscript::V1_0::IContext>, void *> *, long> &",
   "referenced_type" : "_ZTINSt3__121__tree_const_iteratorIN7android2spINS1_8hardware12renderscript4V1_08IContextEEEPNS_11__tree_nodeIS7_PvEElEE",
   "size" : 8,
   "source_file" : "external/libcxx/include/type_traits"
  },
  {
   "alignment" : 8,
   "linker_set_key" : "_ZTIRNSt3__122__compressed_pair_elemINS_12basic_stringIDiNS_11char_traitsIDiEENS_9allocatorIDiEEE5__repELi0ELb0EEE",
   "name" : "std::__compressed_pair_elem<std::basic_string<char32_t, std::char_traits<char32_t>, std::allocator<char32_t>>::__rep, 0, false> &",
   "referenced_type" : "_ZTINSt3__122__compressed_pair_elemINS_12basic_stringIDiNS_11char_traitsIDiEENS_9allocatorIDiEEE5__repELi0ELb0EEE",
   "size" : 8,
   "source_file" : "external/libcxx/include/type_traits"
  },
  {
   "alignment" : 8,
   "linker_set_key" : "_ZTIRNSt3__122__compressed_pair_elemINS_12basic_stringIDsNS_11char_traitsIDsEENS_9allocatorIDsEEE5__repELi0ELb0EEE",
   "name" : "std::__compressed_pair_elem<std::basic_string<char16_t, std::char_traits<char16_t>, std::allocator<char16_t>>::__rep, 0, false> &",
   "referenced_type" : "_ZTINSt3__122__compressed_pair_elemINS_12basic_stringIDsNS_11char_traitsIDsEENS_9allocatorIDsEEE5__repELi0ELb0EEE",
   "size" : 8,
   "source_file" : "external/libcxx/include/type_traits"
  },
  {
   "alignment" : 8,
   "linker_set_key" : "_ZTIRNSt3__122__compressed_pair_elemINS_12basic_stringIDuNS_11char_traitsIDuEENS_9allocatorIDuEEE5__repELi0ELb0EEE",
   "name" : "std::__compressed_pair_elem<std::basic_string<char8_t, std::char_traits<char8_t>, std::allocator<char8_t>>::__rep, 0, false> &",
   "referenced_type" : "_ZTINSt3__122__compressed_pair_elemINS_12basic_stringIDuNS_11char_traitsIDuEENS_9allocatorIDuEEE5__repELi0ELb0EEE",
   "size" : 8,
   "source_file" : "external/libcxx/include/type_traits"
  },
  {
   "alignment" : 8,
   "linker_set_key" : "_ZTIRNSt3__122__compressed_pair_elemINS_12basic_stringIcNS_11char_traitsIcEENS_9allocatorIcEEE5__repELi0ELb0EEE",
   "name" : "std::__compressed_pair_elem<std::basic_string<char, std::char_traits<char>, std::allocator<char>>::__rep, 0, false> &",
   "referenced_type" : "_ZTINSt3__122__compressed_pair_elemINS_12basic_stringIcNS_11char_traitsIcEENS_9allocatorIcEEE5__repELi0ELb0EEE",
   "size" : 8,
   "source_file" : "external/libcxx/include/type_traits"
  },
  {
   "alignment" : 8,
   "linker_set_key" : "_ZTIRNSt3__122__compressed_pair_elemINS_12basic_stringIwNS_11char_traitsIwEENS_9allocatorIwEEE5__repELi0ELb0EEE",
   "name" : "std::__compressed_pair_elem<std::basic_string<wchar_t, std::char_traits<wchar_t>, std::allocator<wchar_t>>::__rep, 0, false> &",
   "referenced_type" : "_ZTINSt3__122__compressed_pair_elemINS_12basic_stringIwNS_11char_traitsIwEENS_9allocatorIwEEE5__repELi0ELb0EEE",
   "size" : 8,
   "source_file" : "external/libcxx/include/type_traits"
  },
  {
   "alignment" : 8,
   "linker_set_key" : "_ZTIRNSt3__122__compressed_pair_elemINS_15__tree_end_nodeIPNS_16__tree_node_baseIPvEEEELi0ELb0EEE",
   "name" : "std::__compressed_pair_elem<std::__tree_end_node<std::__tree_node_base<void *> *>, 0, false> &",
   "referenced_type" : "_ZTINSt3__122__compressed_pair_elemINS_15__tree_end_nodeIPNS_16__tree_node_baseIPvEEEELi0ELb0EEE",
   "size" : 8,
   "source_file" : "external/libcxx/include/type_traits"
  },
  {
   "alignment" : 8,
   "linker_set_key" : "_ZTIRNSt3__122__compressed_pair_elemINS_19__map_value_compareIPvNS_12__value_typeIS2_P16RsContextWrapperEENS_4lessIS2_EELb1EEELi1ELb1EEE",
   "name" : "std::__compressed_pair_elem<std::__map_value_compare<void *, std::__value_type<void *, RsContextWrapper *>, std::less<void *>, true>, 1, true> &",
   "referenced_type" : "_ZTINSt3__122__compressed_pair_elemINS_19__map_value_compareIPvNS_12__value_typeIS2_P16RsContextWrapperEENS_4lessIS2_EELb1EEELi1ELb1EEE",
   "size" : 8,
   "source_file" : "external/libcxx/include/type_traits"
  },
  {
   "alignment" : 8,
   "linker_set_key" : "_ZTIRNSt3__122__compressed_pair_elemINS_22__tree_node_destructorINS_9allocatorINS_11__tree_nodeIN7android2spINS4_8hardware12renderscript4V1_08IContextEEEPvEEEEEELi1ELb0EEE",
   "name" : "std::__compressed_pair_elem<std::__tree_node_destructor<std::allocator<std::__tree_node<android::sp<android::hardware::renderscript::V1_0::IContext>, void *>>>, 1, false> &",
   "referenced_type" : "_ZTINSt3__122__compressed_pair_elemINS_22__tree_node_destructorINS_9allocatorINS_11__tree_nodeIN7android2spINS4_8hardware12renderscript4V1_08IContextEEEPvEEEEEELi1ELb0EEE",
   "size" : 8,
   "source_file" : "external/libcxx/include/type_traits"
  },
  {
   "alignment" : 8,
   "linker_set_key" : "_ZTIRNSt3__122__compressed_pair_elemINS_22__tree_node_destructorINS_9allocatorINS_11__tree_nodeINS_12__value_typeIPvP16RsContextWrapperEES5_EEEEEELi1ELb0EEE",
   "name" : "std::__compressed_pair_elem<std::__tree_node_destructor<std::allocator<std::__tree_node<std::__value_type<void *, RsContextWrapper *>, void *>>>, 1, false> &",
   "referenced_type" : "_ZTINSt3__122__compressed_pair_elemINS_22__tree_node_destructorINS_9allocatorINS_11__tree_nodeINS_12__value_typeIPvP16RsContextWrapperEES5_EEEEEELi1ELb0EEE",
   "size" : 8,
   "source_file" : "external/libcxx/include/type_traits"
  },
  {
   "alignment" : 8,
   "linker_set_key" : "_ZTIRNSt3__122__compressed_pair_elemINS_4lessIN7android2spINS2_8hardware12renderscript4V1_08IContextEEEEELi1ELb1EEE",
   "name" : "std::__compressed_pair_elem<std::less<android::sp<android::hardware::renderscript::V1_0::IContext>>, 1, true> &",
   "referenced_type" : "_ZTINSt3__122__compressed_pair_elemINS_4lessIN7android2spINS2_8hardware12renderscript4V1_08IContextEEEEELi1ELb1EEE",
   "size" : 8,
   "source_file" : "external/libcxx/include/type_traits"
  },
  {
   "alignment" : 8,
   "linker_set_key" : "_ZTIRNSt3__122__compressed_pair_elemINS_9allocatorIDiEELi1ELb1EEE",
   "name" : "std::__compressed_pair_elem<std::allocator<char32_t>, 1, true> &",
   "referenced_type" : "_ZTINSt3__122__compressed_pair_elemINS_9allocatorIDiEELi1ELb1EEE",
   "size" : 8,
   "source_file" : "external/libcxx/include/type_traits"
  },
  {
   "alignment" : 8,
   "linker_set_key" : "_ZTIRNSt3__122__compressed_pair_elemINS_9allocatorIDsEELi1ELb1EEE",
   "name" : "std::__compressed_pair_elem<std::allocator<char16_t>, 1, true> &",
   "referenced_type" : "_ZTINSt3__122__compressed_pair_elemINS_9allocatorIDsEELi1ELb1EEE",
   "size" : 8,
   "source_file" : "external/libcxx/include/type_traits"
  },
  {
   "alignment" : 8,
   "linker_set_key" : "_ZTIRNSt3__122__compressed_pair_elemINS_9allocatorIDuEELi1ELb1EEE",
   "name" : "std::__compressed_pair_elem<std::allocator<char8_t>, 1, true> &",
   "referenced_type" : "_ZTINSt3__122__compressed_pair_elemINS_9allocatorIDuEELi1ELb1EEE",
   "size" : 8,
   "source_file" : "external/libcxx/include/type_traits"
  },
  {
   "alignment" : 8,
   "linker_set_key" : "_ZTIRNSt3__122__compressed_pair_elemINS_9allocatorIN7android8hardware11hidl_stringEEELi1ELb1EEE",
   "name" : "std::__compressed_pair_elem<std::allocator<android::hardware::hidl_string>, 1, true> &",
   "referenced_type" : "_ZTINSt3__122__compressed_pair_elemINS_9allocatorIN7android8hardware11hidl_stringEEELi1ELb1EEE",
   "size" : 8,
   "source_file" : "external/libcxx/include/type_traits"
  },
  {
   "alignment" : 8,
   "linker_set_key" : "_ZTIRNSt3__122__compressed_pair_elemINS_9allocatorINS_11__tree_nodeIN7android2spINS3_8hardware12renderscript4V1_08IContextEEEPvEEEELi1ELb1EEE",
   "name" : "std::__compressed_pair_elem<std::allocator<std::__tree_node<android::sp<android::hardware::renderscript::V1_0::IContext>, void *>>, 1, true> &",
   "referenced_type" : "_ZTINSt3__122__compressed_pair_elemINS_9allocatorINS_11__tree_nodeIN7android2spINS3_8hardware12renderscript4V1_08IContextEEEPvEEEELi1ELb1EEE",
   "size" : 8,
   "source_file" : "external/libcxx/include/type_traits"
  },
  {
   "alignment" : 8,
   "linker_set_key" : "_ZTIRNSt3__122__compressed_pair_elemINS_9allocatorINS_11__tree_nodeINS_12__value_typeIPvP16RsContextWrapperEES4_EEEELi1ELb1EEE",
   "name" : "std::__compressed_pair_elem<std::allocator<std::__tree_node<std::__value_type<void *, RsContextWrapper *>, void *>>, 1, true> &",
   "referenced_type" : "_ZTINSt3__122__compressed_pair_elemINS_9allocatorINS_11__tree_nodeINS_12__value_typeIPvP16RsContextWrapperEES4_EEEELi1ELb1EEE",
   "size" : 8,
   "source_file" : "external/libcxx/include/type_traits"
  },
  {
   "alignment" : 8,
   "linker_set_key" : "_ZTIRNSt3__122__compressed_pair_elemINS_9allocatorIcEELi1ELb1EEE",
   "name" : "std::__compressed_pair_elem<std::allocator<char>, 1, true> &",
   "referenced_type" : "_ZTINSt3__122__compressed_pair_elemINS_9allocatorIcEELi1ELb1EEE",
   "size" : 8,
   "source_file" : "external/libcxx/include/type_traits"
  },
  {
   "alignment" : 8,
   "linker_set_key" : "_ZTIRNSt3__122__compressed_pair_elemINS_9allocatorIiEELi1ELb1EEE",
   "name" : "std::__compressed_pair_elem<std::allocator<int>, 1, true> &",
   "referenced_type" : "_ZTINSt3__122__compressed_pair_elemINS_9allocatorIiEELi1ELb1EEE",
   "size" : 8,
   "source_file" : "external/libcxx/include/type_traits"
  },
  {
   "alignment" : 8,
   "linker_set_key" : "_ZTIRNSt3__122__compressed_pair_elemINS_9allocatorIlEELi1ELb1EEE",
   "name" : "std::__compressed_pair_elem<std::allocator<long>, 1, true> &",
   "referenced_type" : "_ZTINSt3__122__compressed_pair_elemINS_9allocatorIlEELi1ELb1EEE",
   "size" : 8,
   "source_file" : "external/libcxx/include/type_traits"
  },
  {
   "alignment" : 8,
   "linker_set_key" : "_ZTIRNSt3__122__compressed_pair_elemINS_9allocatorImEELi1ELb1EEE",
   "name" : "std::__compressed_pair_elem<std::allocator<unsigned long>, 1, true> &",
   "referenced_type" : "_ZTINSt3__122__compressed_pair_elemINS_9allocatorImEELi1ELb1EEE",
   "size" : 8,
   "source_file" : "external/libcxx/include/type_traits"
  },
  {
   "alignment" : 8,
   "linker_set_key" : "_ZTIRNSt3__122__compressed_pair_elemINS_9allocatorIwEELi1ELb1EEE",
   "name" : "std::__compressed_pair_elem<std::allocator<wchar_t>, 1, true> &",
   "referenced_type" : "_ZTINSt3__122__compressed_pair_elemINS_9allocatorIwEELi1ELb1EEE",
   "size" : 8,
   "source_file" : "external/libcxx/include/type_traits"
  },
  {
   "alignment" : 8,
   "linker_set_key" : "_ZTIRNSt3__122__compressed_pair_elemIPFvPvELi1ELb0EEE",
   "name" : "std::__compressed_pair_elem<void (*)(void *), 1> &",
   "referenced_type" : "_ZTINSt3__122__compressed_pair_elemIPFvPvELi1ELb0EEE",
   "size" : 8,
   "source_file" : "external/libcxx/include/type_traits"
  },
  {
   "alignment" : 8,
   "linker_set_key" : "_ZTIRNSt3__122__compressed_pair_elemIPN7android8hardware11hidl_stringELi0ELb0EEE",
   "name" : "std::__compressed_pair_elem<android::hardware::hidl_string *, 0, false> &",
   "referenced_type" : "_ZTINSt3__122__compressed_pair_elemIPN7android8hardware11hidl_stringELi0ELb0EEE",
   "size" : 8,
   "source_file" : "external/libcxx/include/type_traits"
  },
  {
   "alignment" : 8,
   "linker_set_key" : "_ZTIRNSt3__122__compressed_pair_elemIPNS_11__tree_nodeIN7android2spINS2_8hardware12renderscript4V1_08IContextEEEPvEELi0ELb0EEE",
   "name" : "std::__compressed_pair_elem<std::__tree_node<android::sp<android::hardware::renderscript::V1_0::IContext>, void *> *, 0, false> &",
   "referenced_type" : "_ZTINSt3__122__compressed_pair_elemIPNS_11__tree_nodeIN7android2spINS2_8hardware12renderscript4V1_08IContextEEEPvEELi0ELb0EEE",
   "size" : 8,
   "source_file" : "external/libcxx/include/type_traits"
  },
  {
   "alignment" : 8,
   "linker_set_key" : "_ZTIRNSt3__122__compressed_pair_elemIPNS_11__tree_nodeINS_12__value_typeIPvP16RsContextWrapperEES3_EELi0ELb0EEE",
   "name" : "std::__compressed_pair_elem<std::__tree_node<std::__value_type<void *, RsContextWrapper *>, void *> *, 0, false> &",
   "referenced_type" : "_ZTINSt3__122__compressed_pair_elemIPNS_11__tree_nodeINS_12__value_typeIPvP16RsContextWrapperEES3_EELi0ELb0EEE",
   "size" : 8,
   "source_file" : "external/libcxx/include/type_traits"
  },
  {
   "alignment" : 8,
   "linker_set_key" : "_ZTIRNSt3__122__compressed_pair_elemIPcLi0ELb0EEE",
   "name" : "std::__compressed_pair_elem<char *, 0> &",
   "referenced_type" : "_ZTINSt3__122__compressed_pair_elemIPcLi0ELb0EEE",
   "size" : 8,
   "source_file" : "external/libcxx/include/type_traits"
  },
  {
   "alignment" : 8,
   "linker_set_key" : "_ZTIRNSt3__122__compressed_pair_elemIPhLi0ELb0EEE",
   "name" : "std::__compressed_pair_elem<unsigned char *, 0> &",
   "referenced_type" : "_ZTINSt3__122__compressed_pair_elemIPhLi0ELb0EEE",
   "size" : 8,
   "source_file" : "external/libcxx/include/type_traits"
  },
  {
   "alignment" : 8,
   "linker_set_key" : "_ZTIRNSt3__122__compressed_pair_elemIPiLi0ELb0EEE",
   "name" : "std::__compressed_pair_elem<int *, 0> &",
   "referenced_type" : "_ZTINSt3__122__compressed_pair_elemIPiLi0ELb0EEE",
   "size" : 8,
   "source_file" : "external/libcxx/include/type_traits"
  },
  {
   "alignment" : 8,
   "linker_set_key" : "_ZTIRNSt3__122__compressed_pair_elemIPjLi0ELb0EEE",
   "name" : "std::__compressed_pair_elem<unsigned int *, 0> &",
   "referenced_type" : "_ZTINSt3__122__compressed_pair_elemIPjLi0ELb0EEE",
   "size" : 8,
   "source_file" : "external/libcxx/include/type_traits"
  },
  {
   "alignment" : 8,
   "linker_set_key" : "_ZTIRNSt3__122__compressed_pair_elemIPlLi0ELb0EEE",
   "name" : "std::__compressed_pair_elem<long *, 0> &",
   "referenced_type" : "_ZTINSt3__122__compressed_pair_elemIPlLi0ELb0EEE",
   "size" : 8,
   "source_file" : "external/libcxx/include/type_traits"
  },
  {
   "alignment" : 8,
   "linker_set_key" : "_ZTIRNSt3__122__compressed_pair_elemIPmLi0ELb0EEE",
   "name" : "std::__compressed_pair_elem<unsigned long *, 0> &",
   "referenced_type" : "_ZTINSt3__122__compressed_pair_elemIPmLi0ELb0EEE",
   "size" : 8,
   "source_file" : "external/libcxx/include/type_traits"
  },
  {
   "alignment" : 8,
   "linker_set_key" : "_ZTIRNSt3__122__compressed_pair_elemImLi0ELb0EEE",
   "name" : "std::__compressed_pair_elem<unsigned long, 0> &",
   "referenced_type" : "_ZTINSt3__122__compressed_pair_elemImLi0ELb0EEE",
   "size" : 8,
   "source_file" : "external/libcxx/include/type_traits"
  },
  {
   "alignment" : 8,
   "linker_set_key" : "_ZTIRNSt3__122__tree_node_destructorINS_9allocatorINS_11__tree_nodeIN7android2spINS3_8hardware12renderscript4V1_08IContextEEEPvEEEEEE",
   "name" : "std::__tree_node_destructor<std::allocator<std::__tree_node<android::sp<android::hardware::renderscript::V1_0::IContext>, void *>>> &",
   "referenced_type" : "_ZTINSt3__122__tree_node_destructorINS_9allocatorINS_11__tree_nodeIN7android2spINS3_8hardware12renderscript4V1_08IContextEEEPvEEEEEE",
   "size" : 8,
   "source_file" : "external/libcxx/include/type_traits"
  },
  {
   "alignment" : 8,
   "linker_set_key" : "_ZTIRNSt3__122__tree_node_destructorINS_9allocatorINS_11__tree_nodeINS_12__value_typeIPvP16RsContextWrapperEES4_EEEEEE",
   "name" : "std::__tree_node_destructor<std::allocator<std::__tree_node<std::__value_type<void *, RsContextWrapper *>, void *>>> &",
   "referenced_type" : "_ZTINSt3__122__tree_node_destructorINS_9allocatorINS_11__tree_nodeINS_12__value_typeIPvP16RsContextWrapperEES4_EEEEEE",
   "size" : 8,
   "source_file" : "external/libcxx/include/type_traits"
  },
  {
   "alignment" : 8,
   "linker_set_key" : "_ZTIRNSt3__14lessIN7android2spINS1_8hardware12renderscript4V1_08IContextEEEEE",
   "name" : "std::less<android::sp<android::hardware::renderscript::V1_0::IContext>> &",
   "referenced_type" : "_ZTINSt3__14lessIN7android2spINS1_8hardware12renderscript4V1_08IContextEEEEE",
   "size" : 8,
   "source_file" : "external/libcxx/include/memory"
  },
  {
   "alignment" : 8,
   "linker_set_key" : "_ZTIRNSt3__14pairIKPvP16RsContextWrapperEE",
   "name" : "std::pair<void *const, RsContextWrapper *> &",
   "referenced_type" : "_ZTINSt3__14pairIKPvP16RsContextWrapperEE",
   "size" : 8,
   "source_file" : "external/libcxx/include/type_traits"
  },
  {
   "alignment" : 8,
   "linker_set_key" : "_ZTIRNSt3__14pairINS_15__tree_iteratorIN7android2spINS2_8hardware12renderscript4V1_08IContextEEEPNS_11__tree_nodeIS8_PvEElEEbEE",
   "name" : "std::pair<std::__tree_iterator<android::sp<android::hardware::renderscript::V1_0::IContext>, std::__tree_node<android::sp<android::hardware::renderscript::V1_0::IContext>, void *> *, long>, bool> &",
   "referenced_type" : "_ZTINSt3__14pairINS_15__tree_iteratorIN7android2spINS2_8hardware12renderscript4V1_08IContextEEEPNS_11__tree_nodeIS8_PvEElEEbEE",
   "size" : 8,
   "source_file" : "external/libcxx/include/type_traits"
  },
  {
   "alignment" : 8,
   "linker_set_key" : "_ZTIRNSt3__14pairINS_15__tree_iteratorINS_12__value_typeIPvP16RsContextWrapperEEPNS_11__tree_nodeIS6_S3_EElEEbEE",
   "name" : "std::pair<std::__tree_iterator<std::__value_type<void *, RsContextWrapper *>, std::__tree_node<std::__value_type<void *, RsContextWrapper *>, void *> *, long>, bool> &",
   "referenced_type" : "_ZTINSt3__14pairINS_15__tree_iteratorINS_12__value_typeIPvP16RsContextWrapperEEPNS_11__tree_nodeIS6_S3_EElEEbEE",
   "size" : 8,
   "source_file" : "external/libcxx/include/type_traits"
  },
  {
   "alignment" : 8,
   "linker_set_key" : "_ZTIRNSt3__14pairIPvP16RsContextWrapperEE",
   "name" : "std::pair<void *, RsContextWrapper *> &",
   "referenced_type" : "_ZTINSt3__14pairIPvP16RsContextWrapperEE",
   "size" : 8,
   "source_file" : "external/libcxx/include/type_traits"
  },
  {
   "alignment" : 8,
   "linker_set_key" : "_ZTIRNSt3__14pairImmEE",
   "name" : "std::pair<unsigned long, unsigned long> &",
   "referenced_type" : "_ZTINSt3__14pairImmEE",
   "size" : 8,
   "source_file" : "external/libcxx/include/utility"
  },
  {
   "alignment" : 8,
   "linker_set_key" : "_ZTIRNSt3__15mutexE",
   "name" : "std::mutex &",
   "referenced_type" : "_ZTINSt3__15mutexE",
   "size" : 8,
   "source_file" : "external/libcxx/include/__mutex_base"
  },
  {
   "alignment" : 8,
   "linker_set_key" : "_ZTIRNSt3__15tupleIJEEE",
   "name" : "std::tuple<> &",
   "referenced_type" : "_ZTINSt3__15tupleIJEEE",
   "size" : 8,
   "source_file" : "external/libcxx/include/tuple"
  },
  {
   "alignment" : 8,
   "linker_set_key" : "_ZTIRNSt3__16chrono10year_monthE",
   "name" : "std::chrono::year_month &",
   "referenced_type" : "_ZTINSt3__16chrono10year_monthE",
   "size" : 8,
   "source_file" : "external/libcxx/include/chrono"
  },
  {
   "alignment" : 8,
   "linker_set_key" : "_ZTIRNSt3__16chrono14year_month_dayE",
   "name" : "std::chrono::year_month_day &",
   "referenced_type" : "_ZTINSt3__16chrono14year_month_dayE",
   "size" : 8,
   "source_file" : "external/libcxx/include/chrono"
  },
  {
   "alignment" : 8,
   "linker_set_key" : "_ZTIRNSt3__16chrono18year_month_weekdayE",
   "name" : "std::chrono::year_month_weekday &",
   "referenced_type" : "_ZTINSt3__16chrono18year_month_weekdayE",
   "size" : 8,
   "source_file" : "external/libcxx/include/chrono"
  },
  {
   "alignment" : 8,
   "linker_set_key" : "_ZTIRNSt3__16chrono19year_month_day_lastE",
   "name" : "std::chrono::year_month_day_last &",
   "referenced_type" : "_ZTINSt3__16chrono19year_month_day_lastE",
   "size" : 8,
   "source_file" : "external/libcxx/include/chrono"
  },
  {
   "alignment" : 8,
   "linker_set_key" : "_ZTIRNSt3__16chrono23year_month_weekday_lastE",
   "name" : "std::chrono::year_month_weekday_last &",
   "referenced_type" : "_ZTINSt3__16chrono23year_month_weekday_lastE",
   "size" : 8,
   "source_file" : "external/libcxx/include/chrono"
  },
  {
   "alignment" : 8,
   "linker_set_key" : "_ZTIRNSt3__16chrono3dayE",
   "name" : "std::chrono::day &",
   "referenced_type" : "_ZTINSt3__16chrono3dayE",
   "size" : 8,
   "source_file" : "external/libcxx/include/chrono"
  },
  {
   "alignment" : 8,
   "linker_set_key" : "_ZTIRNSt3__16chrono4yearE",
   "name" : "std::chrono::year &",
   "referenced_type" : "_ZTINSt3__16chrono4yearE",
   "size" : 8,
   "source_file" : "external/libcxx/include/chrono"
  },
  {
   "alignment" : 8,
   "linker_set_key" : "_ZTIRNSt3__16chrono5monthE",
   "name" : "std::chrono::month &",
   "referenced_type" : "_ZTINSt3__16chrono5monthE",
   "size" : 8,
   "source_file" : "external/libcxx/include/chrono"
  },
  {
   "alignment" : 8,
   "linker_set_key" : "_ZTIRNSt3__16chrono7weekdayE",
   "name" : "std::chrono::weekday &",
   "referenced_type" : "_ZTINSt3__16chrono7weekdayE",
   "size" : 8,
   "source_file" : "external/libcxx/include/chrono"
  },
  {
   "alignment" : 8,
   "linker_set_key" : "_ZTIRNSt3__18ios_baseE",
   "name" : "std::ios_base &",
   "referenced_type" : "_ZTINSt3__18ios_baseE",
   "size" : 8,
   "source_file" : "external/libcxx/include/system_error"
  },
  {
   "alignment" : 8,
   "linker_set_key" : "_ZTIRNSt3__18optionalINS_9allocatorIN7android2spINS2_8hardware12renderscript4V1_08IContextEEEEEEE",
   "name" : "std::optional<std::allocator<android::sp<android::hardware::renderscript::V1_0::IContext>>> &",
   "referenced_type" : "_ZTINSt3__18optionalINS_9allocatorIN7android2spINS2_8hardware12renderscript4V1_08IContextEEEEEEE",
   "size" : 8,
   "source_file" : "external/libcxx/include/optional"
  },
  {
   "alignment" : 8,
   "linker_set_key" : "_ZTIRNSt3__18optionalINS_9allocatorINS_4pairIKPvP16RsContextWrapperEEEEEE",
   "name" : "std::optional<std::allocator<std::pair<void *const, RsContextWrapper *>>> &",
   "referenced_type" : "_ZTINSt3__18optionalINS_9allocatorINS_4pairIKPvP16RsContextWrapperEEEEEE",
   "size" : 8,
   "source_file" : "external/libcxx/include/optional"
  },
  {
   "alignment" : 8,
   "linker_set_key" : "_ZTIRNSt3__19allocatorIDiEE",
   "name" : "std::allocator<char32_t> &",
   "referenced_type" : "_ZTINSt3__19allocatorIDiEE",
   "size" : 8,
   "source_file" : "external/libcxx/include/string"
  },
  {
   "alignment" : 8,
   "linker_set_key" : "_ZTIRNSt3__19allocatorIDsEE",
   "name" : "std::allocator<char16_t> &",
   "referenced_type" : "_ZTINSt3__19allocatorIDsEE",
   "size" : 8,
   "source_file" : "external/libcxx/include/string"
  },
  {
   "alignment" : 8,
   "linker_set_key" : "_ZTIRNSt3__19allocatorIDuEE",
   "name" : "std::allocator<char8_t> &",
   "referenced_type" : "_ZTINSt3__19allocatorIDuEE",
   "size" : 8,
   "source_file" : "external/libcxx/include/string"
  },
  {
   "alignment" : 8,
   "linker_set_key" : "_ZTIRNSt3__19allocatorIN7android2spINS1_8hardware12renderscript4V1_08IContextEEEEE",
   "name" : "std::allocator<android::sp<android::hardware::renderscript::V1_0::IContext>> &",
   "referenced_type" : "_ZTINSt3__19allocatorIN7android2spINS1_8hardware12renderscript4V1_08IContextEEEEE",
   "size" : 8,
   "source_file" : "external/libcxx/include/type_traits"
  },
  {
   "alignment" : 8,
   "linker_set_key" : "_ZTIRNSt3__19allocatorIN7android8hardware11hidl_stringEEE",
   "name" : "std::allocator<android::hardware::hidl_string> &",
   "referenced_type" : "_ZTINSt3__19allocatorIN7android8hardware11hidl_stringEEE",
   "size" : 8,
   "source_file" : "external/libcxx/include/memory"
  },
  {
   "alignment" : 8,
   "linker_set_key" : "_ZTIRNSt3__19allocatorINS_11__tree_nodeIN7android2spINS2_8hardware12renderscript4V1_08IContextEEEPvEEEE",
   "name" : "std::allocator<std::__tree_node<android::sp<android::hardware::renderscript::V1_0::IContext>, void *>> &",
   "referenced_type" : "_ZTINSt3__19allocatorINS_11__tree_nodeIN7android2spINS2_8hardware12renderscript4V1_08IContextEEEPvEEEE",
   "size" : 8,
   "source_file" : "external/libcxx/include/memory"
  },
  {
   "alignment" : 8,
   "linker_set_key" : "_ZTIRNSt3__19allocatorINS_11__tree_nodeINS_12__value_typeIPvP16RsContextWrapperEES3_EEEE",
   "name" : "std::allocator<std::__tree_node<std::__value_type<void *, RsContextWrapper *>, void *>> &",
   "referenced_type" : "_ZTINSt3__19allocatorINS_11__tree_nodeINS_12__value_typeIPvP16RsContextWrapperEES3_EEEE",
   "size" : 8,
   "source_file" : "external/libcxx/include/memory"
  },
  {
   "alignment" : 8,
   "linker_set_key" : "_ZTIRNSt3__19allocatorINS_4pairIKPvP16RsContextWrapperEEEE",
   "name" : "std::allocator<std::pair<void *const, RsContextWrapper *>> &",
   "referenced_type" : "_ZTINSt3__19allocatorINS_4pairIKPvP16RsContextWrapperEEEE",
   "size" : 8,
   "source_file" : "external/libcxx/include/type_traits"
  },
  {
   "alignment" : 8,
   "linker_set_key" : "_ZTIRNSt3__19allocatorIcEE",
   "name" : "std::allocator<char> &",
   "referenced_type" : "_ZTINSt3__19allocatorIcEE",
   "size" : 8,
   "source_file" : "external/libcxx/include/memory"
  },
  {
   "alignment" : 8,
   "linker_set_key" : "_ZTIRNSt3__19allocatorIiEE",
   "name" : "std::allocator<int> &",
   "referenced_type" : "_ZTINSt3__19allocatorIiEE",
   "size" : 8,
   "source_file" : "external/libcxx/include/memory"
  },
  {
   "alignment" : 8,
   "linker_set_key" : "_ZTIRNSt3__19allocatorIlEE",
   "name" : "std::allocator<long> &",
   "referenced_type" : "_ZTINSt3__19allocatorIlEE",
   "size" : 8,
   "source_file" : "external/libcxx/include/memory"
  },
  {
   "alignment" : 8,
   "linker_set_key" : "_ZTIRNSt3__19allocatorImEE",
   "name" : "std::allocator<unsigned long> &",
   "referenced_type" : "_ZTINSt3__19allocatorImEE",
   "size" : 8,
   "source_file" : "external/libcxx/include/memory"
  },
  {
   "alignment" : 8,
   "linker_set_key" : "_ZTIRNSt3__19allocatorIwEE",
   "name" : "std::allocator<wchar_t> &",
   "referenced_type" : "_ZTINSt3__19allocatorIwEE",
   "size" : 8,
   "source_file" : "external/libcxx/include/memory"
  },
  {
   "alignment" : 8,
   "linker_set_key" : "_ZTIRP10__locale_t",
   "name" : "__locale_t *&",
   "referenced_type" : "_ZTIP10__locale_t",
   "size" : 8,
   "source_file" : "external/libcxx/include/__locale"
  },
  {
   "alignment" : 8,
   "linker_set_key" : "_ZTIRP16RsContextWrapper",
   "name" : "RsContextWrapper *&",
   "referenced_type" : "_ZTIP16RsContextWrapper",
   "size" : 8,
   "source_file" : "external/libcxx/include/utility"
  },
  {
   "alignment" : 8,
   "linker_set_key" : "_ZTIRPDi",
   "name" : "char32_t *&",
   "referenced_type" : "_ZTIPDi",
   "size" : 8,
   "source_file" : "external/libcxx/include/__locale"
  },
  {
   "alignment" : 8,
   "linker_set_key" : "_ZTIRPDs",
   "name" : "char16_t *&",
   "referenced_type" : "_ZTIPDs",
   "size" : 8,
   "source_file" : "external/libcxx/include/__locale"
  },
  {
   "alignment" : 8,
   "linker_set_key" : "_ZTIRPKDi",
   "name" : "const char32_t *&",
   "referenced_type" : "_ZTIPKDi",
   "size" : 8,
   "source_file" : "external/libcxx/include/__locale"
  },
  {
   "alignment" : 8,
   "linker_set_key" : "_ZTIRPKDs",
   "name" : "const char16_t *&",
   "referenced_type" : "_ZTIPKDs",
   "size" : 8,
   "source_file" : "external/libcxx/include/__locale"
  },
  {
   "alignment" : 8,
   "linker_set_key" : "_ZTIRPKc",
   "name" : "const char *&",
   "referenced_type" : "_ZTIPKc",
   "size" : 8,
   "source_file" : "external/libcxx/include/__locale"
  },
  {
   "alignment" : 8,
   "linker_set_key" : "_ZTIRPKw",
   "name" : "const wchar_t *&",
   "referenced_type" : "_ZTIPKw",
   "size" : 8,
   "source_file" : "external/libcxx/include/__locale"
  },
  {
   "alignment" : 8,
   "linker_set_key" : "_ZTIRPN7android8hardware11hidl_stringE",
   "name" : "android::hardware::hidl_string *&",
   "referenced_type" : "_ZTIPN7android8hardware11hidl_stringE",
   "size" : 8,
   "source_file" : "external/libcxx/include/memory"
  },
  {
   "alignment" : 8,
   "linker_set_key" : "_ZTIRPN7android8hardware12renderscript4V1_08IContextE",
   "name" : "android::hardware::renderscript::V1_0::IContext *&",
   "referenced_type" : "_ZTIPN7android8hardware12renderscript4V1_08IContextE",
   "size" : 8,
   "source_file" : "external/libcxx/include/type_traits"
  },
  {
   "alignment" : 8,
   "linker_set_key" : "_ZTIRPNSt3__111__tree_nodeIN7android2spINS1_8hardware12renderscript4V1_08IContextEEEPvEE",
   "name" : "std::__tree_node<android::sp<android::hardware::renderscript::V1_0::IContext>, void *> *&",
   "referenced_type" : "_ZTIPNSt3__111__tree_nodeIN7android2spINS1_8hardware12renderscript4V1_08IContextEEEPvEE",
   "size" : 8,
   "source_file" : "external/libcxx/include/type_traits"
  },
  {
   "alignment" : 8,
   "linker_set_key" : "_ZTIRPNSt3__111__tree_nodeINS_12__value_typeIPvP16RsContextWrapperEES2_EE",
   "name" : "std::__tree_node<std::__value_type<void *, RsContextWrapper *>, void *> *&",
   "referenced_type" : "_ZTIPNSt3__111__tree_nodeINS_12__value_typeIPvP16RsContextWrapperEES2_EE",
   "size" : 8,
   "source_file" : "external/libcxx/include/type_traits"
  },
  {
   "alignment" : 8,
   "linker_set_key" : "_ZTIRPNSt3__115__tree_end_nodeIPNS_16__tree_node_baseIPvEEEE",
   "name" : "std::__tree_end_node<std::__tree_node_base<void *> *> *&",
   "referenced_type" : "_ZTIPNSt3__115__tree_end_nodeIPNS_16__tree_node_baseIPvEEEE",
   "size" : 8,
   "source_file" : "external/libcxx/include/__tree"
  },
  {
   "alignment" : 8,
   "linker_set_key" : "_ZTIRPNSt3__116__tree_node_baseIPvEE",
   "name" : "std::__tree_node_base<void *> *&",
   "referenced_type" : "_ZTIPNSt3__116__tree_node_baseIPvEE",
   "size" : 8,
   "source_file" : "external/libcxx/include/__tree"
  },
  {
   "alignment" : 8,
   "linker_set_key" : "_ZTIRPc",
   "name" : "char *&",
   "referenced_type" : "_ZTIPc",
   "size" : 8,
   "source_file" : "external/libcxx/include/__locale"
  },
  {
   "alignment" : 8,
   "linker_set_key" : "_ZTIRPi",
   "name" : "int *&",
   "referenced_type" : "_ZTIPi",
   "size" : 8,
   "source_file" : "external/libcxx/include/memory"
  },
  {
   "alignment" : 8,
   "linker_set_key" : "_ZTIRPl",
   "name" : "long *&",
   "referenced_type" : "_ZTIPl",
   "size" : 8,
   "source_file" : "external/libcxx/include/memory"
  },
  {
   "alignment" : 8,
   "linker_set_key" : "_ZTIRPm",
   "name" : "unsigned long *&",
   "referenced_type" : "_ZTIPm",
   "size" : 8,
   "source_file" : "external/libcxx/include/memory"
  },
  {
   "alignment" : 8,
   "linker_set_key" : "_ZTIRPv",
   "name" : "void *&",
   "referenced_type" : "_ZTIPv",
   "size" : 8,
   "source_file" : "external/libcxx/include/utility"
  },
  {
   "alignment" : 8,
   "linker_set_key" : "_ZTIRPw",
   "name" : "wchar_t *&",
   "referenced_type" : "_ZTIPw",
   "size" : 8,
   "source_file" : "external/libcxx/include/__locale"
  },
  {
   "alignment" : 8,
   "linker_set_key" : "_ZTIRSt4byte",
   "name" : "std::byte &",
   "referenced_type" : "_ZTISt4byte",
   "size" : 8,
   "source_file" : "external/libcxx/include/cstddef"
  },
  {
   "alignment" : 8,
   "linker_set_key" : "_ZTIRb",
   "name" : "bool &",
   "referenced_type" : "_ZTIb",
   "size" : 8,
   "source_file" : "external/libcxx/include/utility"
  },
  {
   "alignment" : 8,
   "linker_set_key" : "_ZTIRc",
   "name" : "char &",
   "referenced_type" : "_ZTIc",
   "size" : 8,
   "source_file" : "external/libcxx/include/type_traits"
  },
  {
   "alignment" : 8,
   "linker_set_key" : "_ZTIRe",
   "name" : "long double &",
   "referenced_type" : "_ZTIe",
   "size" : 8,
   "source_file" : "external/libcxx/include/type_traits"
  },
  {
   "alignment" : 8,
   "linker_set_key" : "_ZTIRh",
   "name" : "unsigned char &",
   "referenced_type" : "_ZTIh",
   "size" : 8,
   "source_file" : "external/libcxx/include/type_traits"
  },
  {
   "alignment" : 8,
   "linker_set_key" : "_ZTIRi",
   "name" : "int &",
   "referenced_type" : "_ZTIi",
   "size" : 8,
   "source_file" : "external/libcxx/include/type_traits"
  },
  {
   "alignment" : 8,
   "linker_set_key" : "_ZTIRj",
   "name" : "unsigned int &",
   "referenced_type" : "_ZTIj",
   "size" : 8,
   "source_file" : "external/libcxx/include/type_traits"
  },
  {
   "alignment" : 8,
   "linker_set_key" : "_ZTIRl",
   "name" : "long &",
   "referenced_type" : "_ZTIl",
   "size" : 8,
   "source_file" : "external/libcxx/include/type_traits"
  },
  {
   "alignment" : 8,
   "linker_set_key" : "_ZTIRm",
   "name" : "unsigned long &",
   "referenced_type" : "_ZTIm",
   "size" : 8,
   "source_file" : "external/libcxx/include/type_traits"
  },
  {
   "alignment" : 8,
   "linker_set_key" : "_ZTIRn",
   "name" : "__int128 &",
   "referenced_type" : "_ZTIn",
   "size" : 8,
   "source_file" : "external/libcxx/include/type_traits"
  },
  {
   "alignment" : 8,
   "linker_set_key" : "_ZTIRw",
   "name" : "wchar_t &",
   "referenced_type" : "_ZTIw",
   "size" : 8,
   "source_file" : "external/libcxx/include/memory"
  },
  {
   "alignment" : 8,
   "linker_set_key" : "_ZTIRx",
   "name" : "long long &",
   "referenced_type" : "_ZTIx",
   "size" : 8,
   "source_file" : "external/libcxx/include/type_traits"
  }
 ],
 "pointer_types" :
 [
  {
   "alignment" : 8,
   "linker_set_key" : "_ZTIP10__locale_t",
   "name" : "__locale_t *",
   "referenced_type" : "_ZTI10__locale_t",
   "size" : 8,
   "source_file" : "external/libcxx/include/__locale"
  },
  {
   "alignment" : 8,
   "linker_set_key" : "_ZTIP10_jintArray",
   "name" : "_jintArray *",
   "referenced_type" : "_ZTI10_jintArray",
   "size" : 8,
   "source_file" : "libnativehelper/include_jni/jni.h"
  },
  {
   "alignment" : 8,
   "linker_set_key" : "_ZTIP10_jmethodID",
   "name" : "_jmethodID *",
   "referenced_type" : "_ZTI10_jmethodID",
   "size" : 8,
   "source_file" : "libnativehelper/include_jni/jni.h"
  },
  {
   "alignment" : 8,
   "linker_set_key" : "_ZTIP11_jbyteArray",
   "name" : "_jbyteArray *",
   "referenced_type" : "_ZTI11_jbyteArray",
   "size" : 8,
   "source_file" : "libnativehelper/include_jni/jni.h"
  },
  {
   "alignment" : 8,
   "linker_set_key" : "_ZTIP11_jcharArray",
   "name" : "_jcharArray *",
   "referenced_type" : "_ZTI11_jcharArray",
   "size" : 8,
   "source_file" : "libnativehelper/include_jni/jni.h"
  },
  {
   "alignment" : 8,
   "linker_set_key" : "_ZTIP11_jlongArray",
   "name" : "_jlongArray *",
   "referenced_type" : "_ZTI11_jlongArray",
   "size" : 8,
   "source_file" : "libnativehelper/include_jni/jni.h"
  },
  {
   "alignment" : 8,
   "linker_set_key" : "_ZTIP11_jthrowable",
   "name" : "_jthrowable *",
   "referenced_type" : "_ZTI11_jthrowable",
   "size" : 8,
   "source_file" : "libnativehelper/include_jni/jni.h"
  },
  {
   "alignment" : 8,
   "linker_set_key" : "_ZTIP12JavaVMOption",
   "name" : "JavaVMOption *",
   "referenced_type" : "_ZTI12JavaVMOption",
   "size" : 8,
   "source_file" : "libnativehelper/include_jni/jni.h"
  },
  {
   "alignment" : 8,
   "linker_set_key" : "_ZTIP12_jfloatArray",
   "name" : "_jfloatArray *",
   "referenced_type" : "_ZTI12_jfloatArray",
   "size" : 8,
   "source_file" : "libnativehelper/include_jni/jni.h"
  },
  {
   "alignment" : 8,
   "linker_set_key" : "_ZTIP12_jshortArray",
   "name" : "_jshortArray *",
   "referenced_type" : "_ZTI12_jshortArray",
   "size" : 8,
   "source_file" : "libnativehelper/include_jni/jni.h"
  },
  {
   "alignment" : 8,
   "linker_set_key" : "_ZTIP13_jdoubleArray",
   "name" : "_jdoubleArray *",
   "referenced_type" : "_ZTI13_jdoubleArray",
   "size" : 8,
   "source_file" : "libnativehelper/include_jni/jni.h"
  },
  {
   "alignment" : 8,
   "linker_set_key" : "_ZTIP13_jobjectArray",
   "name" : "_jobjectArray *",
   "referenced_type" : "_ZTI13_jobjectArray",
   "size" : 8,
   "source_file" : "libnativehelper/include_jni/jni.h"
  },
  {
   "alignment" : 8,
   "linker_set_key" : "_ZTIP13native_handle",
   "name" : "native_handle *",
   "referenced_type" : "_ZTI13native_handle",
   "size" : 8,
   "source_file" : "system/libhidl/base/include/hidl/HidlInternal.h"
  },
  {
   "alignment" : 8,
   "linker_set_key" : "_ZTIP14GlobalObjGuard",
   "name" : "GlobalObjGuard *",
   "referenced_type" : "_ZTI14GlobalObjGuard",
   "size" : 8,
   "source_file" : "frameworks/rs/rsApiStubs.cpp"
  },
  {
   "alignment" : 8,
   "linker_set_key" : "_ZTIP14_jbooleanArray",
   "name" : "_jbooleanArray *",
   "referenced_type" : "_ZTI14_jbooleanArray",
   "size" : 8,
   "source_file" : "libnativehelper/include_jni/jni.h"
  },
  {
   "alignment" : 8,
   "linker_set_key" : "_ZTIP14pthread_cond_t",
   "name" : "pthread_cond_t *",
   "referenced_type" : "_ZTI14pthread_cond_t",
   "size" : 8,
   "source_file" : "external/libcxx/include/__threading_support"
  },
  {
   "alignment" : 8,
   "linker_set_key" : "_ZTIP15pthread_mutex_t",
   "name" : "pthread_mutex_t *",
   "referenced_type" : "_ZTI15pthread_mutex_t",
   "size" : 8,
   "source_file" : "external/libcxx/include/__threading_support"
  },
  {
   "alignment" : 8,
   "linker_set_key" : "_ZTIP16RsContextWrapper",
   "name" : "RsContextWrapper *",
   "referenced_type" : "_ZTI16RsContextWrapper",
   "size" : 8,
   "source_file" : "external/libcxx/include/utility"
  },
  {
   "alignment" : 8,
   "linker_set_key" : "_ZTIP16RsFileIndexEntry",
   "name" : "RsFileIndexEntry *",
   "referenced_type" : "_ZTI16RsFileIndexEntry",
   "size" : 8,
   "source_file" : "frameworks/rs/rsApiStubs.h"
  },
  {
   "alignment" : 8,
   "linker_set_key" : "_ZTIP16RsHidlAdaptation",
   "name" : "RsHidlAdaptation *",
   "referenced_type" : "_ZTI16RsHidlAdaptation",
   "size" : 8,
   "source_file" : "frameworks/rs/rsHidlAdaptation.h"
  },
  {
   "alignment" : 8,
   "linker_set_key" : "_ZTIP19__pthread_cleanup_t",
   "name" : "__pthread_cleanup_t *",
   "referenced_type" : "_ZTI19__pthread_cleanup_t",
   "size" : 8,
   "source_file" : "bionic/libc/include/pthread.h"
  },
  {
   "alignment" : 8,
   "linker_set_key" : "_ZTIP20RsFallbackAdaptation",
   "name" : "RsFallbackAdaptation *",
   "referenced_type" : "_ZTI20RsFallbackAdaptation",
   "size" : 8,
   "source_file" : "frameworks/rs/rsFallbackAdaptation.h"
  },
  {
   "alignment" : 8,
   "linker_set_key" : "_ZTIP5lconv",
   "name" : "lconv *",
   "referenced_type" : "_ZTI5lconv",
   "size" : 8,
   "source_file" : "external/libcxx/include/__bsd_locale_fallbacks.h"
  },
  {
   "alignment" : 8,
   "linker_set_key" : "_ZTIP7_JNIEnv",
   "name" : "_JNIEnv *",
   "referenced_type" : "_ZTI7_JNIEnv",
   "size" : 8,
   "source_file" : "libnativehelper/include_jni/jni.h"
  },
  {
   "alignment" : 8,
   "linker_set_key" : "_ZTIP7_JavaVM",
   "name" : "_JavaVM *",
   "referenced_type" : "_ZTI7_JavaVM",
   "size" : 8,
   "source_file" : "libnativehelper/include_jni/jni.h"
  },
  {
   "alignment" : 8,
   "linker_set_key" : "_ZTIP7__sFILE",
   "name" : "__sFILE *",
   "referenced_type" : "_ZTI7__sFILE",
   "size" : 8,
   "source_file" : "bionic/libc/include/stdio.h"
  },
  {
   "alignment" : 8,
   "linker_set_key" : "_ZTIP7_jarray",
   "name" : "_jarray *",
   "referenced_type" : "_ZTI7_jarray",
   "size" : 8,
   "source_file" : "libnativehelper/include_jni/jni.h"
  },
  {
   "alignment" : 8,
   "linker_set_key" : "_ZTIP7_jclass",
   "name" : "_jclass *",
   "referenced_type" : "_ZTI7_jclass",
   "size" : 8,
   "source_file" : "libnativehelper/include_jni/jni.h"
  },
  {
   "alignment" : 8,
   "linker_set_key" : "_ZTIP7siginfo",
   "name" : "siginfo *",
   "referenced_type" : "_ZTI7siginfo",
   "size" : 8,
   "source_file" : "bionic/libc/include/bits/signal_types.h"
  },
  {
   "alignment" : 8,
   "linker_set_key" : "_ZTIP8_jobject",
   "name" : "_jobject *",
   "referenced_type" : "_ZTI8_jobject",
   "size" : 8,
   "source_file" : "libnativehelper/include_jni/jni.h"
  },
  {
   "alignment" : 8,
   "linker_set_key" : "_ZTIP8_jstring",
   "name" : "_jstring *",
   "referenced_type" : "_ZTI8_jstring",
   "size" : 8,
   "source_file" : "libnativehelper/include_jni/jni.h"
  },
  {
   "alignment" : 8,
   "linker_set_key" : "_ZTIP8log_time",
   "name" : "log_time *",
   "referenced_type" : "_ZTI8log_time",
   "size" : 8,
   "source_file" : "system/logging/liblog/include/log/log_time.h"
  },
  {
   "alignment" : 8,
   "linker_set_key" : "_ZTIP8timespec",
   "name" : "timespec *",
   "referenced_type" : "_ZTI8timespec",
   "size" : 8,
   "source_file" : "external/libcxx/include/__threading_support"
  },
  {
   "alignment" : 8,
   "linker_set_key" : "_ZTIP8ucontext",
   "name" : "ucontext *",
   "referenced_type" : "_ZTI8ucontext",
   "size" : 8,
   "source_file" : "bionic/libc/include/sys/ucontext.h"
  },
  {
   "alignment" : 8,
   "linker_set_key" : "_ZTIP9_jfieldID",
   "name" : "_jfieldID *",
   "referenced_type" : "_ZTI9_jfieldID",
   "size" : 8,
   "source_file" : "libnativehelper/include_jni/jni.h"
  },
  {
   "alignment" : 8,
   "linker_set_key" : "_ZTIP9mbstate_t",
   "name" : "mbstate_t *",
   "referenced_type" : "_ZTI9mbstate_t",
   "size" : 8,
   "source_file" : "external/libcxx/include/__bsd_locale_fallbacks.h"
  },
  {
   "alignment" : 8,
   "linker_set_key" : "_ZTIPDi",
   "name" : "char32_t *",
   "referenced_type" : "_ZTIDi",
   "size" : 8,
   "source_file" : "external/libcxx/include/type_traits"
  },
  {
   "alignment" : 8,
   "linker_set_key" : "_ZTIPDn",
   "name" : "std::nullptr_t *",
   "referenced_type" : "_ZTIDn",
   "size" : 8,
   "source_file" : "external/libcxx/include/type_traits"
  },
  {
   "alignment" : 8,
   "linker_set_key" : "_ZTIPDs",
   "name" : "char16_t *",
   "referenced_type" : "_ZTIDs",
   "size" : 8,
   "source_file" : "external/libcxx/include/type_traits"
  },
  {
   "alignment" : 8,
   "linker_set_key" : "_ZTIPDu",
   "name" : "char8_t *",
   "referenced_type" : "_ZTIDu",
   "size" : 8,
   "source_file" : "external/libcxx/include/type_traits"
  },
  {
   "alignment" : 8,
   "linker_set_key" : "_ZTIPF14jobjectRefTypeP7_JNIEnvP8_jobjectE",
   "name" : "jobjectRefType (*)(_JNIEnv *, _jobject *)",
   "referenced_type" : "_ZTIF14jobjectRefTypeP7_JNIEnvP8_jobjectE",
   "size" : 8,
   "source_file" : "libnativehelper/include_jni/jni.h"
  },
  {
   "alignment" : 8,
   "linker_set_key" : "_ZTIPF21RsMessageToClientTypePvPmmPjmE",
   "name" : "RsMessageToClientType (*)(void *, unsigned long *, unsigned long, unsigned int *, unsigned long)",
   "referenced_type" : "_ZTIF21RsMessageToClientTypePvPmmPjmE",
   "size" : 8,
   "source_file" : "frameworks/rs/cpp/rsDispatch.h"
  },
  {
   "alignment" : 8,
   "linker_set_key" : "_ZTIPF21RsMessageToClientTypePvS0_mPmmPjmE",
   "name" : "RsMessageToClientType (*)(void *, void *, unsigned long, unsigned long *, unsigned long, unsigned int *, unsigned long)",
   "referenced_type" : "_ZTIF21RsMessageToClientTypePvS0_mPmmPjmE",
   "size" : 8,
   "source_file" : "frameworks/rs/cpp/rsDispatch.h"
  },
  {
   "alignment" : 8,
   "linker_set_key" : "_ZTIPFP10_jintArrayP7_JNIEnviE",
   "name" : "_jintArray *(*)(_JNIEnv *, int)",
   "referenced_type" : "_ZTIFP10_jintArrayP7_JNIEnviE",
   "size" : 8,
   "source_file" : "libnativehelper/include_jni/jni.h"
  },
  {
   "alignment" : 8,
   "linker_set_key" : "_ZTIPFP10_jmethodIDP7_JNIEnvP7_jclassPKcS6_E",
   "name" : "_jmethodID *(*)(_JNIEnv *, _jclass *, const char *, const char *)",
   "referenced_type" : "_ZTIFP10_jmethodIDP7_JNIEnvP7_jclassPKcS6_E",
   "size" : 8,
   "source_file" : "libnativehelper/include_jni/jni.h"
  },
  {
   "alignment" : 8,
   "linker_set_key" : "_ZTIPFP10_jmethodIDP7_JNIEnvP8_jobjectE",
   "name" : "_jmethodID *(*)(_JNIEnv *, _jobject *)",
   "referenced_type" : "_ZTIFP10_jmethodIDP7_JNIEnvP8_jobjectE",
   "size" : 8,
   "source_file" : "libnativehelper/include_jni/jni.h"
  },
  {
   "alignment" : 8,
   "linker_set_key" : "_ZTIPFP11_jbyteArrayP7_JNIEnviE",
   "name" : "_jbyteArray *(*)(_JNIEnv *, int)",
   "referenced_type" : "_ZTIFP11_jbyteArrayP7_JNIEnviE",
   "size" : 8,
   "source_file" : "libnativehelper/include_jni/jni.h"
  },
  {
   "alignment" : 8,
   "linker_set_key" : "_ZTIPFP11_jcharArrayP7_JNIEnviE",
   "name" : "_jcharArray *(*)(_JNIEnv *, int)",
   "referenced_type" : "_ZTIFP11_jcharArrayP7_JNIEnviE",
   "size" : 8,
   "source_file" : "libnativehelper/include_jni/jni.h"
  },
  {
   "alignment" : 8,
   "linker_set_key" : "_ZTIPFP11_jlongArrayP7_JNIEnviE",
   "name" : "_jlongArray *(*)(_JNIEnv *, int)",
   "referenced_type" : "_ZTIFP11_jlongArrayP7_JNIEnviE",
   "size" : 8,
   "source_file" : "libnativehelper/include_jni/jni.h"
  },
  {
   "alignment" : 8,
   "linker_set_key" : "_ZTIPFP11_jthrowableP7_JNIEnvE",
   "name" : "_jthrowable *(*)(_JNIEnv *)",
   "referenced_type" : "_ZTIFP11_jthrowableP7_JNIEnvE",
   "size" : 8,
   "source_file" : "libnativehelper/include_jni/jni.h"
  },
  {
   "alignment" : 8,
   "linker_set_key" : "_ZTIPFP12_jfloatArrayP7_JNIEnviE",
   "name" : "_jfloatArray *(*)(_JNIEnv *, int)",
   "referenced_type" : "_ZTIFP12_jfloatArrayP7_JNIEnviE",
   "size" : 8,
   "source_file" : "libnativehelper/include_jni/jni.h"
  },
  {
   "alignment" : 8,
   "linker_set_key" : "_ZTIPFP12_jshortArrayP7_JNIEnviE",
   "name" : "_jshortArray *(*)(_JNIEnv *, int)",
   "referenced_type" : "_ZTIFP12_jshortArrayP7_JNIEnviE",
   "size" : 8,
   "source_file" : "libnativehelper/include_jni/jni.h"
  },
  {
   "alignment" : 8,
   "linker_set_key" : "_ZTIPFP13_jdoubleArrayP7_JNIEnviE",
   "name" : "_jdoubleArray *(*)(_JNIEnv *, int)",
   "referenced_type" : "_ZTIFP13_jdoubleArrayP7_JNIEnviE",
   "size" : 8,
   "source_file" : "libnativehelper/include_jni/jni.h"
  },
  {
   "alignment" : 8,
   "linker_set_key" : "_ZTIPFP13_jobjectArrayP7_JNIEnviP7_jclassP8_jobjectE",
   "name" : "_jobjectArray *(*)(_JNIEnv *, int, _jclass *, _jobject *)",
   "referenced_type" : "_ZTIFP13_jobjectArrayP7_JNIEnviP7_jclassP8_jobjectE",
   "size" : 8,
   "source_file" : "libnativehelper/include_jni/jni.h"
  },
  {
   "alignment" : 8,
   "linker_set_key" : "_ZTIPFP14_jbooleanArrayP7_JNIEnviE",
   "name" : "_jbooleanArray *(*)(_JNIEnv *, int)",
   "referenced_type" : "_ZTIFP14_jbooleanArrayP7_JNIEnviE",
   "size" : 8,
   "source_file" : "libnativehelper/include_jni/jni.h"
  },
  {
   "alignment" : 8,
   "linker_set_key" : "_ZTIPFP7_jclassP7_JNIEnvP8_jobjectE",
   "name" : "_jclass *(*)(_JNIEnv *, _jobject *)",
   "referenced_type" : "_ZTIFP7_jclassP7_JNIEnvP8_jobjectE",
   "size" : 8,
   "source_file" : "libnativehelper/include_jni/jni.h"
  },
  {
   "alignment" : 8,
   "linker_set_key" : "_ZTIPFP7_jclassP7_JNIEnvPKcE",
   "name" : "_jclass *(*)(_JNIEnv *, const char *)",
   "referenced_type" : "_ZTIFP7_jclassP7_JNIEnvPKcE",
   "size" : 8,
   "source_file" : "libnativehelper/include_jni/jni.h"
  },
  {
   "alignment" : 8,
   "linker_set_key" : "_ZTIPFP7_jclassP7_JNIEnvPKcP8_jobjectPKaiE",
   "name" : "_jclass *(*)(_JNIEnv *, const char *, _jobject *, const signed char *, int)",
   "referenced_type" : "_ZTIFP7_jclassP7_JNIEnvPKcP8_jobjectPKaiE",
   "size" : 8,
   "source_file" : "libnativehelper/include_jni/jni.h"
  },
  {
   "alignment" : 8,
   "linker_set_key" : "_ZTIPFP7_jclassP7_JNIEnvS0_E",
   "name" : "_jclass *(*)(_JNIEnv *, _jclass *)",
   "referenced_type" : "_ZTIFP7_jclassP7_JNIEnvS0_E",
   "size" : 8,
   "source_file" : "libnativehelper/include_jni/jni.h"
  },
  {
   "alignment" : 8,
   "linker_set_key" : "_ZTIPFP8_jobjectP7_JNIEnvP13_jobjectArrayiE",
   "name" : "_jobject *(*)(_JNIEnv *, _jobjectArray *, int)",
   "referenced_type" : "_ZTIFP8_jobjectP7_JNIEnvP13_jobjectArrayiE",
   "size" : 8,
   "source_file" : "libnativehelper/include_jni/jni.h"
  },
  {
   "alignment" : 8,
   "linker_set_key" : "_ZTIPFP8_jobjectP7_JNIEnvP7_jclassE",
   "name" : "_jobject *(*)(_JNIEnv *, _jclass *)",
   "referenced_type" : "_ZTIFP8_jobjectP7_JNIEnvP7_jclassE",
   "size" : 8,
   "source_file" : "libnativehelper/include_jni/jni.h"
  },
  {
   "alignment" : 8,
   "linker_set_key" : "_ZTIPFP8_jobjectP7_JNIEnvP7_jclassP10_jmethodIDPK6jvalueE",
   "name" : "_jobject *(*)(_JNIEnv *, _jclass *, _jmethodID *, const jvalue *)",
   "referenced_type" : "_ZTIFP8_jobjectP7_JNIEnvP7_jclassP10_jmethodIDPK6jvalueE",
   "size" : 8,
   "source_file" : "libnativehelper/include_jni/jni.h"
  },
  {
   "alignment" : 8,
   "linker_set_key" : "_ZTIPFP8_jobjectP7_JNIEnvP7_jclassP10_jmethodIDSt9__va_listE",
   "name" : "_jobject *(*)(_JNIEnv *, _jclass *, _jmethodID *, std::__va_list)",
   "referenced_type" : "_ZTIFP8_jobjectP7_JNIEnvP7_jclassP10_jmethodIDSt9__va_listE",
   "size" : 8,
   "source_file" : "libnativehelper/include_jni/jni.h"
  },
  {
   "alignment" : 8,
   "linker_set_key" : "_ZTIPFP8_jobjectP7_JNIEnvP7_jclassP10_jmethodIDhE",
   "name" : "_jobject *(*)(_JNIEnv *, _jclass *, _jmethodID *, unsigned char)",
   "referenced_type" : "_ZTIFP8_jobjectP7_JNIEnvP7_jclassP10_jmethodIDhE",
   "size" : 8,
   "source_file" : "libnativehelper/include_jni/jni.h"
  },
  {
   "alignment" : 8,
   "linker_set_key" : "_ZTIPFP8_jobjectP7_JNIEnvP7_jclassP10_jmethodIDzE",
   "name" : "_jobject *(*)(_JNIEnv *, _jclass *, _jmethodID *, ...)",
   "referenced_type" : "_ZTIFP8_jobjectP7_JNIEnvP7_jclassP10_jmethodIDzE",
   "size" : 8,
   "source_file" : "libnativehelper/include_jni/jni.h"
  },
  {
   "alignment" : 8,
   "linker_set_key" : "_ZTIPFP8_jobjectP7_JNIEnvP7_jclassP9_jfieldIDE",
   "name" : "_jobject *(*)(_JNIEnv *, _jclass *, _jfieldID *)",
   "referenced_type" : "_ZTIFP8_jobjectP7_JNIEnvP7_jclassP9_jfieldIDE",
   "size" : 8,
   "source_file" : "libnativehelper/include_jni/jni.h"
  },
  {
   "alignment" : 8,
   "linker_set_key" : "_ZTIPFP8_jobjectP7_JNIEnvP7_jclassP9_jfieldIDhE",
   "name" : "_jobject *(*)(_JNIEnv *, _jclass *, _jfieldID *, unsigned char)",
   "referenced_type" : "_ZTIFP8_jobjectP7_JNIEnvP7_jclassP9_jfieldIDhE",
   "size" : 8,
   "source_file" : "libnativehelper/include_jni/jni.h"
  },
  {
   "alignment" : 8,
   "linker_set_key" : "_ZTIPFP8_jobjectP7_JNIEnvPvlE",
   "name" : "_jobject *(*)(_JNIEnv *, void *, long)",
   "referenced_type" : "_ZTIFP8_jobjectP7_JNIEnvPvlE",
   "size" : 8,
   "source_file" : "libnativehelper/include_jni/jni.h"
  },
  {
   "alignment" : 8,
   "linker_set_key" : "_ZTIPFP8_jobjectP7_JNIEnvS0_E",
   "name" : "_jobject *(*)(_JNIEnv *, _jobject *)",
   "referenced_type" : "_ZTIFP8_jobjectP7_JNIEnvS0_E",
   "size" : 8,
   "source_file" : "libnativehelper/include_jni/jni.h"
  },
  {
   "alignment" : 8,
   "linker_set_key" : "_ZTIPFP8_jobjectP7_JNIEnvS0_P10_jmethodIDPK6jvalueE",
   "name" : "_jobject *(*)(_JNIEnv *, _jobject *, _jmethodID *, const jvalue *)",
   "referenced_type" : "_ZTIFP8_jobjectP7_JNIEnvS0_P10_jmethodIDPK6jvalueE",
   "size" : 8,
   "source_file" : "libnativehelper/include_jni/jni.h"
  },
  {
   "alignment" : 8,
   "linker_set_key" : "_ZTIPFP8_jobjectP7_JNIEnvS0_P10_jmethodIDSt9__va_listE",
   "name" : "_jobject *(*)(_JNIEnv *, _jobject *, _jmethodID *, std::__va_list)",
   "referenced_type" : "_ZTIFP8_jobjectP7_JNIEnvS0_P10_jmethodIDSt9__va_listE",
   "size" : 8,
   "source_file" : "libnativehelper/include_jni/jni.h"
  },
  {
   "alignment" : 8,
   "linker_set_key" : "_ZTIPFP8_jobjectP7_JNIEnvS0_P10_jmethodIDzE",
   "name" : "_jobject *(*)(_JNIEnv *, _jobject *, _jmethodID *, ...)",
   "referenced_type" : "_ZTIFP8_jobjectP7_JNIEnvS0_P10_jmethodIDzE",
   "size" : 8,
   "source_file" : "libnativehelper/include_jni/jni.h"
  },
  {
   "alignment" : 8,
   "linker_set_key" : "_ZTIPFP8_jobjectP7_JNIEnvS0_P7_jclassP10_jmethodIDPK6jvalueE",
   "name" : "_jobject *(*)(_JNIEnv *, _jobject *, _jclass *, _jmethodID *, const jvalue *)",
   "referenced_type" : "_ZTIFP8_jobjectP7_JNIEnvS0_P7_jclassP10_jmethodIDPK6jvalueE",
   "size" : 8,
   "source_file" : "libnativehelper/include_jni/jni.h"
  },
  {
   "alignment" : 8,
   "linker_set_key" : "_ZTIPFP8_jobjectP7_JNIEnvS0_P7_jclassP10_jmethodIDSt9__va_listE",
   "name" : "_jobject *(*)(_JNIEnv *, _jobject *, _jclass *, _jmethodID *, std::__va_list)",
   "referenced_type" : "_ZTIFP8_jobjectP7_JNIEnvS0_P7_jclassP10_jmethodIDSt9__va_listE",
   "size" : 8,
   "source_file" : "libnativehelper/include_jni/jni.h"
  },
  {
   "alignment" : 8,
   "linker_set_key" : "_ZTIPFP8_jobjectP7_JNIEnvS0_P7_jclassP10_jmethodIDzE",
   "name" : "_jobject *(*)(_JNIEnv *, _jobject *, _jclass *, _jmethodID *, ...)",
   "referenced_type" : "_ZTIFP8_jobjectP7_JNIEnvS0_P7_jclassP10_jmethodIDzE",
   "size" : 8,
   "source_file" : "libnativehelper/include_jni/jni.h"
  },
  {
   "alignment" : 8,
   "linker_set_key" : "_ZTIPFP8_jobjectP7_JNIEnvS0_P9_jfieldIDE",
   "name" : "_jobject *(*)(_JNIEnv *, _jobject *, _jfieldID *)",
   "referenced_type" : "_ZTIFP8_jobjectP7_JNIEnvS0_P9_jfieldIDE",
   "size" : 8,
   "source_file" : "libnativehelper/include_jni/jni.h"
  },
  {
   "alignment" : 8,
   "linker_set_key" : "_ZTIPFP8_jstringP7_JNIEnvPKcE",
   "name" : "_jstring *(*)(_JNIEnv *, const char *)",
   "referenced_type" : "_ZTIFP8_jstringP7_JNIEnvPKcE",
   "size" : 8,
   "source_file" : "libnativehelper/include_jni/jni.h"
  },
  {
   "alignment" : 8,
   "linker_set_key" : "_ZTIPFP8_jstringP7_JNIEnvPKtiE",
   "name" : "_jstring *(*)(_JNIEnv *, const unsigned short *, int)",
   "referenced_type" : "_ZTIFP8_jstringP7_JNIEnvPKtiE",
   "size" : 8,
   "source_file" : "libnativehelper/include_jni/jni.h"
  },
  {
   "alignment" : 8,
   "linker_set_key" : "_ZTIPFP9_jfieldIDP7_JNIEnvP7_jclassPKcS6_E",
   "name" : "_jfieldID *(*)(_JNIEnv *, _jclass *, const char *, const char *)",
   "referenced_type" : "_ZTIFP9_jfieldIDP7_JNIEnvP7_jclassPKcS6_E",
   "size" : 8,
   "source_file" : "libnativehelper/include_jni/jni.h"
  },
  {
   "alignment" : 8,
   "linker_set_key" : "_ZTIPFP9_jfieldIDP7_JNIEnvP8_jobjectE",
   "name" : "_jfieldID *(*)(_JNIEnv *, _jobject *)",
   "referenced_type" : "_ZTIFP9_jfieldIDP7_JNIEnvP8_jobjectE",
   "size" : 8,
   "source_file" : "libnativehelper/include_jni/jni.h"
  },
  {
   "alignment" : 8,
   "linker_set_key" : "_ZTIPFPKcP7_JNIEnvP8_jstringPhE",
   "name" : "const char *(*)(_JNIEnv *, _jstring *, unsigned char *)",
   "referenced_type" : "_ZTIFPKcP7_JNIEnvP8_jstringPhE",
   "size" : 8,
   "source_file" : "libnativehelper/include_jni/jni.h"
  },
  {
   "alignment" : 8,
   "linker_set_key" : "_ZTIPFPKcvE",
   "name" : "const char *(*)()",
   "referenced_type" : "_ZTIFPKcvE",
   "size" : 8,
   "source_file" : "frameworks/rs/rsApiStubs.cpp"
  },
  {
   "alignment" : 8,
   "linker_set_key" : "_ZTIPFPKtP7_JNIEnvP8_jstringPhE",
   "name" : "const unsigned short *(*)(_JNIEnv *, _jstring *, unsigned char *)",
   "referenced_type" : "_ZTIFPKtP7_JNIEnvP8_jstringPhE",
   "size" : 8,
   "source_file" : "libnativehelper/include_jni/jni.h"
  },
  {
   "alignment" : 8,
   "linker_set_key" : "_ZTIPFPKvPvS1_E",
   "name" : "const void *(*)(void *, void *)",
   "referenced_type" : "_ZTIFPKvPvS1_E",
   "size" : 8,
   "source_file" : "frameworks/rs/cpp/rsDispatch.h"
  },
  {
   "alignment" : 8,
   "linker_set_key" : "_ZTIPFPaP7_JNIEnvP11_jbyteArrayPhE",
   "name" : "signed char *(*)(_JNIEnv *, _jbyteArray *, unsigned char *)",
   "referenced_type" : "_ZTIFPaP7_JNIEnvP11_jbyteArrayPhE",
   "size" : 8,
   "source_file" : "libnativehelper/include_jni/jni.h"
  },
  {
   "alignment" : 8,
   "linker_set_key" : "_ZTIPFPdP7_JNIEnvP13_jdoubleArrayPhE",
   "name" : "double *(*)(_JNIEnv *, _jdoubleArray *, unsigned char *)",
   "referenced_type" : "_ZTIFPdP7_JNIEnvP13_jdoubleArrayPhE",
   "size" : 8,
   "source_file" : "libnativehelper/include_jni/jni.h"
  },
  {
   "alignment" : 8,
   "linker_set_key" : "_ZTIPFPfP7_JNIEnvP12_jfloatArrayPhE",
   "name" : "float *(*)(_JNIEnv *, _jfloatArray *, unsigned char *)",
   "referenced_type" : "_ZTIFPfP7_JNIEnvP12_jfloatArrayPhE",
   "size" : 8,
   "source_file" : "libnativehelper/include_jni/jni.h"
  },
  {
   "alignment" : 8,
   "linker_set_key" : "_ZTIPFPhP7_JNIEnvP14_jbooleanArrayS_E",
   "name" : "unsigned char *(*)(_JNIEnv *, _jbooleanArray *, unsigned char *)",
   "referenced_type" : "_ZTIFPhP7_JNIEnvP14_jbooleanArrayS_E",
   "size" : 8,
   "source_file" : "libnativehelper/include_jni/jni.h"
  },
  {
   "alignment" : 8,
   "linker_set_key" : "_ZTIPFPiP7_JNIEnvP10_jintArrayPhE",
   "name" : "int *(*)(_JNIEnv *, _jintArray *, unsigned char *)",
   "referenced_type" : "_ZTIFPiP7_JNIEnvP10_jintArrayPhE",
   "size" : 8,
   "source_file" : "libnativehelper/include_jni/jni.h"
  },
  {
   "alignment" : 8,
   "linker_set_key" : "_ZTIPFPlP7_JNIEnvP11_jlongArrayPhE",
   "name" : "long *(*)(_JNIEnv *, _jlongArray *, unsigned char *)",
   "referenced_type" : "_ZTIFPlP7_JNIEnvP11_jlongArrayPhE",
   "size" : 8,
   "source_file" : "libnativehelper/include_jni/jni.h"
  },
  {
   "alignment" : 8,
   "linker_set_key" : "_ZTIPFPsP7_JNIEnvP12_jshortArrayPhE",
   "name" : "short *(*)(_JNIEnv *, _jshortArray *, unsigned char *)",
   "referenced_type" : "_ZTIFPsP7_JNIEnvP12_jshortArrayPhE",
   "size" : 8,
   "source_file" : "libnativehelper/include_jni/jni.h"
  },
  {
   "alignment" : 8,
   "linker_set_key" : "_ZTIPFPtP7_JNIEnvP11_jcharArrayPhE",
   "name" : "unsigned short *(*)(_JNIEnv *, _jcharArray *, unsigned char *)",
   "referenced_type" : "_ZTIFPtP7_JNIEnvP11_jcharArrayPhE",
   "size" : 8,
   "source_file" : "libnativehelper/include_jni/jni.h"
  },
  {
   "alignment" : 8,
   "linker_set_key" : "_ZTIPFPvP7_JNIEnvP7_jarrayPhE",
   "name" : "void *(*)(_JNIEnv *, _jarray *, unsigned char *)",
   "referenced_type" : "_ZTIFPvP7_JNIEnvP7_jarrayPhE",
   "size" : 8,
   "source_file" : "libnativehelper/include_jni/jni.h"
  },
  {
   "alignment" : 8,
   "linker_set_key" : "_ZTIPFPvP7_JNIEnvP8_jobjectE",
   "name" : "void *(*)(_JNIEnv *, _jobject *)",
   "referenced_type" : "_ZTIFPvP7_JNIEnvP8_jobjectE",
   "size" : 8,
   "source_file" : "libnativehelper/include_jni/jni.h"
  },
  {
   "alignment" : 8,
   "linker_set_key" : "_ZTIPFPvPKvE",
   "name" : "void *(*)(const void *)",
   "referenced_type" : "_ZTIFPvPKvE",
   "size" : 8,
   "source_file" : "external/libcxx/include/functional"
  },
  {
   "alignment" : 8,
   "linker_set_key" : "_ZTIPFPvS_10RsDataType10RsDataKindbjE",
   "name" : "void *(*)(void *, RsDataType, RsDataKind, bool, unsigned int)",
   "referenced_type" : "_ZTIFPvS_10RsDataType10RsDataKindbjE",
   "size" : 8,
   "source_file" : "frameworks/rs/cpp/rsDispatch.h"
  },
  {
   "alignment" : 8,
   "linker_set_key" : "_ZTIPFPvS_14RsSamplerValueS0_S0_S0_S0_fE",
   "name" : "void *(*)(void *, RsSamplerValue, RsSamplerValue, RsSamplerValue, RsSamplerValue, RsSamplerValue, float)",
   "referenced_type" : "_ZTIFPvS_14RsSamplerValueS0_S0_S0_S0_fE",
   "size" : 8,
   "source_file" : "frameworks/rs/cpp/rsDispatch.h"
  },
  {
   "alignment" : 8,
   "linker_set_key" : "_ZTIPFPvS_E",
   "name" : "void *(*)(void *)",
   "referenced_type" : "_ZTIFPvS_E",
   "size" : 8,
   "source_file" : "external/libcxx/include/__threading_support"
  },
  {
   "alignment" : 8,
   "linker_set_key" : "_ZTIPFPvS_PKS_mPPKcmPKmPKjmE",
   "name" : "void *(*)(void *, void *const *, unsigned long, const char **, unsigned long, const unsigned long *, const unsigned int *, unsigned long)",
   "referenced_type" : "_ZTIFPvS_PKS_mPPKcmPKmPKjmE",
   "size" : 8,
   "source_file" : "frameworks/rs/cpp/rsDispatch.h"
  },
  {
   "alignment" : 8,
   "linker_set_key" : "_ZTIPFPvS_PKcE",
   "name" : "void *(*)(void *, const char *)",
   "referenced_type" : "_ZTIFPvS_PKcE",
   "size" : 8,
   "source_file" : "frameworks/rs/cpp/rsDispatch.h"
  },
  {
   "alignment" : 8,
   "linker_set_key" : "_ZTIPFPvS_PKcmPS1_mPKmS4_mE",
   "name" : "void *(*)(void *, const char *, unsigned long, const char **, unsigned long, const unsigned long *, const unsigned long *, unsigned long)",
   "referenced_type" : "_ZTIFPvS_PKcmPS1_mPKmS4_mE",
   "size" : 8,
   "source_file" : "frameworks/rs/cpp/rsDispatch.h"
  },
  {
   "alignment" : 8,
   "linker_set_key" : "_ZTIPFPvS_PKcmS1_mPS_mE",
   "name" : "void *(*)(void *, const char *, unsigned long, const char *, unsigned long, void **, unsigned long)",
   "referenced_type" : "_ZTIFPvS_PKcmS1_mPS_mE",
   "size" : 8,
   "source_file" : "frameworks/rs/cpp/rsDispatch.h"
  },
  {
   "alignment" : 8,
   "linker_set_key" : "_ZTIPFPvS_PKcmS1_mS1_mE",
   "name" : "void *(*)(void *, const char *, unsigned long, const char *, unsigned long, const char *, unsigned long)",
   "referenced_type" : "_ZTIFPvS_PKcmS1_mS1_mE",
   "size" : 8,
   "source_file" : "frameworks/rs/cpp/rsDispatch.h"
  },
  {
   "alignment" : 8,
   "linker_set_key" : "_ZTIPFPvS_PKcmfjE",
   "name" : "void *(*)(void *, const char *, unsigned long, float, unsigned int)",
   "referenced_type" : "_ZTIFPvS_PKcmfjE",
   "size" : 8,
   "source_file" : "frameworks/rs/cpp/rsDispatch.h"
  },
  {
   "alignment" : 8,
   "linker_set_key" : "_ZTIPFPvS_PKcmfjPKvmE",
   "name" : "void *(*)(void *, const char *, unsigned long, float, unsigned int, const void *, unsigned long)",
   "referenced_type" : "_ZTIFPvS_PKcmfjPKvmE",
   "size" : 8,
   "source_file" : "frameworks/rs/cpp/rsDispatch.h"
  },
  {
   "alignment" : 8,
   "linker_set_key" : "_ZTIPFPvS_PKvjE",
   "name" : "void *(*)(void *, const void *, unsigned int)",
   "referenced_type" : "_ZTIFPvS_PKvjE",
   "size" : 8,
   "source_file" : "frameworks/rs/cpp/rsDispatch.h"
  },
  {
   "alignment" : 8,
   "linker_set_key" : "_ZTIPFPvS_PS_mS0_mPjmE",
   "name" : "void *(*)(void *, void **, unsigned long, void **, unsigned long, unsigned int *, unsigned long)",
   "referenced_type" : "_ZTIFPvS_PS_mS0_mPjmE",
   "size" : 8,
   "source_file" : "frameworks/rs/cpp/rsDispatch.h"
  },
  {
   "alignment" : 8,
   "linker_set_key" : "_ZTIPFPvS_PS_mS0_mS0_mS0_mPKS_mE",
   "name" : "void *(*)(void *, void **, unsigned long, void **, unsigned long, void **, unsigned long, void **, unsigned long, void *const *, unsigned long)",
   "referenced_type" : "_ZTIFPvS_PS_mS0_mS0_mS0_mPKS_mE",
   "size" : 8,
   "source_file" : "frameworks/rs/cpp/rsDispatch.h"
  },
  {
   "alignment" : 8,
   "linker_set_key" : "_ZTIPFPvS_S_25RsAllocationMipmapControlPKvmjE",
   "name" : "void *(*)(void *, void *, RsAllocationMipmapControl, const void *, unsigned long, unsigned int)",
   "referenced_type" : "_ZTIFPvS_S_25RsAllocationMipmapControlPKvmjE",
   "size" : 8,
   "source_file" : "frameworks/rs/cpp/rsDispatch.h"
  },
  {
   "alignment" : 8,
   "linker_set_key" : "_ZTIPFPvS_S_25RsAllocationMipmapControljmE",
   "name" : "void *(*)(void *, void *, RsAllocationMipmapControl, unsigned int, unsigned long)",
   "referenced_type" : "_ZTIFPvS_S_25RsAllocationMipmapControljmE",
   "size" : 8,
   "source_file" : "frameworks/rs/cpp/rsDispatch.h"
  },
  {
   "alignment" : 8,
   "linker_set_key" : "_ZTIPFPvS_S_25RsAllocationMipmapControljmmE",
   "name" : "void *(*)(void *, void *, RsAllocationMipmapControl, unsigned int, unsigned long, unsigned long)",
   "referenced_type" : "_ZTIFPvS_S_25RsAllocationMipmapControljmmE",
   "size" : 8,
   "source_file" : "frameworks/rs/cpp/rsDispatch.h"
  },
  {
   "alignment" : 8,
   "linker_set_key" : "_ZTIPFPvS_S_E",
   "name" : "void *(*)(void *, void *)",
   "referenced_type" : "_ZTIFPvS_S_E",
   "size" : 8,
   "source_file" : "frameworks/rs/cpp/rsDispatch.h"
  },
  {
   "alignment" : 8,
   "linker_set_key" : "_ZTIPFPvS_S_PKvmPKS_mPKlmPKimE",
   "name" : "void *(*)(void *, void *, const void *, unsigned long, void *const *, unsigned long, const long *, unsigned long, const int *, unsigned long)",
   "referenced_type" : "_ZTIFPvS_S_PKvmPKS_mPKlmPKimE",
   "size" : 8,
   "source_file" : "frameworks/rs/cpp/rsDispatch.h"
  },
  {
   "alignment" : 8,
   "linker_set_key" : "_ZTIPFPvS_S_S_E",
   "name" : "void *(*)(void *, void *, void *)",
   "referenced_type" : "_ZTIFPvS_S_S_E",
   "size" : 8,
   "source_file" : "frameworks/rs/cpp/rsDispatch.h"
  },
  {
   "alignment" : 8,
   "linker_set_key" : "_ZTIPFPvS_S_S_PS_mPlmPimS0_mS0_mE",
   "name" : "void *(*)(void *, void *, void *, void **, unsigned long, long *, unsigned long, int *, unsigned long, void **, unsigned long, void **, unsigned long)",
   "referenced_type" : "_ZTIFPvS_S_S_PS_mPlmPimS0_mS0_mE",
   "size" : 8,
   "source_file" : "frameworks/rs/cpp/rsDispatch.h"
  },
  {
   "alignment" : 8,
   "linker_set_key" : "_ZTIPFPvS_S_iE",
   "name" : "void *(*)(void *, void *, int)",
   "referenced_type" : "_ZTIFPvS_S_iE",
   "size" : 8,
   "source_file" : "frameworks/rs/cpp/rsDispatch.h"
  },
  {
   "alignment" : 8,
   "linker_set_key" : "_ZTIPFPvS_S_iiE",
   "name" : "void *(*)(void *, void *, int, int)",
   "referenced_type" : "_ZTIFPvS_S_iiE",
   "size" : 8,
   "source_file" : "frameworks/rs/cpp/rsDispatch.h"
  },
  {
   "alignment" : 8,
