{
 "array_types" : [],
 "builtin_types" :
 [
  {
   "alignment" : 4,
   "linker_set_key" : "_ZTIDn",
   "name" : "std::nullptr_t",
   "referenced_type" : "_ZTIDn",
   "self_type" : "_ZTIDn",
   "size" : 4
  },
  {
   "alignment" : 1,
   "is_integral" : true,
   "linker_set_key" : "_ZTIa",
   "name" : "signed char",
   "referenced_type" : "_ZTIa",
   "self_type" : "_ZTIa",
   "size" : 1
  },
  {
   "alignment" : 1,
   "is_integral" : true,
   "is_unsigned" : true,
   "linker_set_key" : "_ZTIb",
   "name" : "bool",
   "referenced_type" : "_ZTIb",
   "self_type" : "_ZTIb",
   "size" : 1
  },
  {
   "alignment" : 1,
   "is_integral" : true,
   "linker_set_key" : "_ZTIc",
   "name" : "char",
   "referenced_type" : "_ZTIc",
   "self_type" : "_ZTIc",
   "size" : 1
  },
  {
   "alignment" : 1,
   "is_integral" : true,
   "is_unsigned" : true,
   "linker_set_key" : "_ZTIh",
   "name" : "unsigned char",
   "referenced_type" : "_ZTIh",
   "self_type" : "_ZTIh",
   "size" : 1
  },
  {
   "alignment" : 4,
   "is_integral" : true,
   "linker_set_key" : "_ZTIi",
   "name" : "int",
   "referenced_type" : "_ZTIi",
   "self_type" : "_ZTIi",
   "size" : 4
  },
  {
   "alignment" : 4,
   "is_integral" : true,
   "is_unsigned" : true,
   "linker_set_key" : "_ZTIj",
   "name" : "unsigned int",
   "referenced_type" : "_ZTIj",
   "self_type" : "_ZTIj",
   "size" : 4
  },
  {
   "linker_set_key" : "_ZTIv",
   "name" : "void",
   "referenced_type" : "_ZTIv",
   "self_type" : "_ZTIv"
  },
  {
   "alignment" : 4,
   "is_integral" : true,
   "linker_set_key" : "_ZTIx",
   "name" : "long long",
   "referenced_type" : "_ZTIx",
   "self_type" : "_ZTIx",
   "size" : 8
  }
 ],
 "elf_functions" :
 [
  {
   "binding" : "weak",
   "name" : "_ZN3ndk12BnCInterfaceIN4aidl7android10frameworks13cameraservice6device17ICameraDeviceUserEE8asBinderEv"
  },
  {
   "binding" : "weak",
   "name" : "_ZN3ndk12BnCInterfaceIN4aidl7android10frameworks13cameraservice6device21ICameraDeviceCallbackEE8asBinderEv"
  },
  {
   "binding" : "weak",
   "name" : "_ZN3ndk12BpCInterfaceIN4aidl7android10frameworks13cameraservice6device17ICameraDeviceUserEE8asBinderEv"
  },
  {
   "binding" : "weak",
   "name" : "_ZN3ndk12BpCInterfaceIN4aidl7android10frameworks13cameraservice6device21ICameraDeviceCallbackEE8asBinderEv"
  },
  {
   "binding" : "weak",
   "name" : "_ZN3ndk38AParcel_readStdVectorParcelableElementIN4aidl7android10frameworks13cameraservice6device14CaptureRequestEEEiPK7AParcelPvj"
  },
  {
   "binding" : "weak",
   "name" : "_ZN3ndk38AParcel_readStdVectorParcelableElementIN4aidl7android10frameworks13cameraservice6device17StreamAndWindowIdEEEiPK7AParcelPvj"
  },
  {
   "binding" : "weak",
   "name" : "_ZN3ndk38AParcel_readStdVectorParcelableElementIN4aidl7android10frameworks13cameraservice6device19OutputConfigurationEEEiPK7AParcelPvj"
  },
  {
   "binding" : "weak",
   "name" : "_ZN3ndk38AParcel_readStdVectorParcelableElementIN4aidl7android10frameworks13cameraservice6device22PhysicalCameraSettingsEEEiPK7AParcelPvj"
  },
  {
   "binding" : "weak",
   "name" : "_ZN3ndk38AParcel_readStdVectorParcelableElementIN4aidl7android10frameworks13cameraservice6device25PhysicalCaptureResultInfoEEEiPK7AParcelPvj"
  },
  {
   "binding" : "weak",
   "name" : "_ZN3ndk38AParcel_readStdVectorParcelableElementIN4aidl7android8hardware6common12NativeHandleEEEiPK7AParcelPvj"
  },
  {
   "binding" : "weak",
   "name" : "_ZN3ndk38AParcel_readStdVectorParcelableElementIN4aidl7android8hardware6common3fmq17GrantorDescriptorEEEiPK7AParcelPvj"
  },
  {
   "binding" : "weak",
   "name" : "_ZN3ndk39AParcel_writeStdVectorParcelableElementIN4aidl7android10frameworks13cameraservice6device14CaptureRequestEEEiP7AParcelPKvj"
  },
  {
   "binding" : "weak",
   "name" : "_ZN3ndk39AParcel_writeStdVectorParcelableElementIN4aidl7android10frameworks13cameraservice6device17StreamAndWindowIdEEEiP7AParcelPKvj"
  },
  {
   "binding" : "weak",
   "name" : "_ZN3ndk39AParcel_writeStdVectorParcelableElementIN4aidl7android10frameworks13cameraservice6device19OutputConfigurationEEEiP7AParcelPKvj"
  },
  {
   "binding" : "weak",
   "name" : "_ZN3ndk39AParcel_writeStdVectorParcelableElementIN4aidl7android10frameworks13cameraservice6device22PhysicalCameraSettingsEEEiP7AParcelPKvj"
  },
  {
   "binding" : "weak",
   "name" : "_ZN3ndk39AParcel_writeStdVectorParcelableElementIN4aidl7android10frameworks13cameraservice6device25PhysicalCaptureResultInfoEEEiP7AParcelPKvj"
  },
  {
   "binding" : "weak",
   "name" : "_ZN3ndk39AParcel_writeStdVectorParcelableElementIN4aidl7android8hardware6common12NativeHandleEEEiP7AParcelPKvj"
  },
  {
   "binding" : "weak",
   "name" : "_ZN3ndk39AParcel_writeStdVectorParcelableElementIN4aidl7android8hardware6common3fmq17GrantorDescriptorEEEiP7AParcelPKvj"
  },
  {
   "name" : "_ZN4aidl7android10frameworks13cameraservice6device10SubmitInfo14readFromParcelEPK7AParcel"
  },
  {
   "name" : "_ZN4aidl7android10frameworks13cameraservice6device14CameraMetadata14readFromParcelEPK7AParcel"
  },
  {
   "name" : "_ZN4aidl7android10frameworks13cameraservice6device14CaptureRequest14readFromParcelEPK7AParcel"
  },
  {
   "name" : "_ZN4aidl7android10frameworks13cameraservice6device17ICameraDeviceUser10fromBinderERKN3ndk10SpAIBinderE"
  },
  {
   "name" : "_ZN4aidl7android10frameworks13cameraservice6device17ICameraDeviceUser13writeToParcelEP7AParcelRKNSt3__110shared_ptrIS4_EE"
  },
  {
   "name" : "_ZN4aidl7android10frameworks13cameraservice6device17ICameraDeviceUser14getDefaultImplEv"
  },
  {
   "name" : "_ZN4aidl7android10frameworks13cameraservice6device17ICameraDeviceUser14readFromParcelEPK7AParcelPNSt3__110shared_ptrIS4_EE"
  },
  {
   "name" : "_ZN4aidl7android10frameworks13cameraservice6device17ICameraDeviceUser14setDefaultImplERKNSt3__110shared_ptrIS4_EE"
  },
  {
   "name" : "_ZN4aidl7android10frameworks13cameraservice6device17ICameraDeviceUserC2Ev"
  },
  {
   "name" : "_ZN4aidl7android10frameworks13cameraservice6device17ICameraDeviceUserD0Ev"
  },
  {
   "name" : "_ZN4aidl7android10frameworks13cameraservice6device17ICameraDeviceUserD1Ev"
  },
  {
   "name" : "_ZN4aidl7android10frameworks13cameraservice6device17ICameraDeviceUserD2Ev"
  },
  {
   "name" : "_ZN4aidl7android10frameworks13cameraservice6device17StreamAndWindowId14readFromParcelEPK7AParcel"
  },
  {
   "name" : "_ZN4aidl7android10frameworks13cameraservice6device18BnCameraDeviceUser12createBinderEv"
  },
  {
   "name" : "_ZN4aidl7android10frameworks13cameraservice6device18BnCameraDeviceUser16getInterfaceHashEPNSt3__112basic_stringIcNS5_11char_traitsIcEENS5_9allocatorIcEEEE"
  },
  {
   "name" : "_ZN4aidl7android10frameworks13cameraservice6device18BnCameraDeviceUser19getInterfaceVersionEPi"
  },
  {
   "name" : "_ZN4aidl7android10frameworks13cameraservice6device18BnCameraDeviceUserC2Ev"
  },
  {
   "name" : "_ZN4aidl7android10frameworks13cameraservice6device18BnCameraDeviceUserD0Ev"
  },
  {
   "name" : "_ZN4aidl7android10frameworks13cameraservice6device18BnCameraDeviceUserD1Ev"
  },
  {
   "name" : "_ZN4aidl7android10frameworks13cameraservice6device18BnCameraDeviceUserD2Ev"
  },
  {
   "name" : "_ZN4aidl7android10frameworks13cameraservice6device18BpCameraDeviceUser10disconnectEv"
  },
  {
   "name" : "_ZN4aidl7android10frameworks13cameraservice6device18BpCameraDeviceUser12createStreamERKNS3_19OutputConfigurationEPi"
  },
  {
   "name" : "_ZN4aidl7android10frameworks13cameraservice6device18BpCameraDeviceUser12deleteStreamEi"
  },
  {
   "name" : "_ZN4aidl7android10frameworks13cameraservice6device18BpCameraDeviceUser12endConfigureENS3_23StreamConfigurationModeERKNS3_14CameraMetadataEx"
  },
  {
   "name" : "_ZN4aidl7android10frameworks13cameraservice6device18BpCameraDeviceUser13waitUntilIdleEv"
  },
  {
   "name" : "_ZN4aidl7android10frameworks13cameraservice6device18BpCameraDeviceUser14beginConfigureEv"
  },
  {
   "name" : "_ZN4aidl7android10frameworks13cameraservice6device18BpCameraDeviceUser16getInterfaceHashEPNSt3__112basic_stringIcNS5_11char_traitsIcEENS5_9allocatorIcEEEE"
  },
  {
   "name" : "_ZN4aidl7android10frameworks13cameraservice6device18BpCameraDeviceUser17submitRequestListERKNSt3__16vectorINS3_14CaptureRequestENS5_9allocatorIS7_EEEEbPNS3_10SubmitInfoE"
  },
  {
   "name" : "_ZN4aidl7android10frameworks13cameraservice6device18BpCameraDeviceUser19getInterfaceVersionEPi"
  },
  {
   "name" : "_ZN4aidl7android10frameworks13cameraservice6device18BpCameraDeviceUser20createDefaultRequestENS3_10TemplateIdEPNS3_14CameraMetadataE"
  },
  {
   "name" : "_ZN4aidl7android10frameworks13cameraservice6device18BpCameraDeviceUser22cancelRepeatingRequestEPx"
  },
  {
   "name" : "_ZN4aidl7android10frameworks13cameraservice6device18BpCameraDeviceUser25updateOutputConfigurationEiRKNS3_19OutputConfigurationE"
  },
  {
   "name" : "_ZN4aidl7android10frameworks13cameraservice6device18BpCameraDeviceUser29getCaptureResultMetadataQueueEPNS0_8hardware6common3fmq12MQDescriptorIaNS7_21SynchronizedReadWriteEEE"
  },
  {
   "name" : "_ZN4aidl7android10frameworks13cameraservice6device18BpCameraDeviceUser30getCaptureRequestMetadataQueueEPNS0_8hardware6common3fmq12MQDescriptorIaNS7_21SynchronizedReadWriteEEE"
  },
  {
   "name" : "_ZN4aidl7android10frameworks13cameraservice6device18BpCameraDeviceUser31isSessionConfigurationSupportedERKNS3_20SessionConfigurationEPb"
  },
  {
   "name" : "_ZN4aidl7android10frameworks13cameraservice6device18BpCameraDeviceUser5flushEPx"
  },
  {
   "name" : "_ZN4aidl7android10frameworks13cameraservice6device18BpCameraDeviceUser7prepareEi"
  },
  {
   "name" : "_ZN4aidl7android10frameworks13cameraservice6device18BpCameraDeviceUserC1ERKN3ndk10SpAIBinderE"
  },
  {
   "name" : "_ZN4aidl7android10frameworks13cameraservice6device18BpCameraDeviceUserC2ERKN3ndk10SpAIBinderE"
  },
  {
   "name" : "_ZN4aidl7android10frameworks13cameraservice6device18BpCameraDeviceUserD0Ev"
  },
  {
   "name" : "_ZN4aidl7android10frameworks13cameraservice6device18BpCameraDeviceUserD1Ev"
  },
  {
   "name" : "_ZN4aidl7android10frameworks13cameraservice6device18BpCameraDeviceUserD2Ev"
  },
  {
   "name" : "_ZN4aidl7android10frameworks13cameraservice6device19CaptureMetadataInfo14readFromParcelEPK7AParcel"
  },
  {
   "name" : "_ZN4aidl7android10frameworks13cameraservice6device19CaptureResultExtras14readFromParcelEPK7AParcel"
  },
  {
   "name" : "_ZN4aidl7android10frameworks13cameraservice6device19OutputConfiguration14readFromParcelEPK7AParcel"
  },
  {
   "name" : "_ZN4aidl7android10frameworks13cameraservice6device20SessionConfiguration14readFromParcelEPK7AParcel"
  },
  {
   "name" : "_ZN4aidl7android10frameworks13cameraservice6device21ICameraDeviceCallback10fromBinderERKN3ndk10SpAIBinderE"
  },
  {
   "name" : "_ZN4aidl7android10frameworks13cameraservice6device21ICameraDeviceCallback13writeToParcelEP7AParcelRKNSt3__110shared_ptrIS4_EE"
  },
  {
   "name" : "_ZN4aidl7android10frameworks13cameraservice6device21ICameraDeviceCallback14getDefaultImplEv"
  },
  {
   "name" : "_ZN4aidl7android10frameworks13cameraservice6device21ICameraDeviceCallback14readFromParcelEPK7AParcelPNSt3__110shared_ptrIS4_EE"
  },
  {
   "name" : "_ZN4aidl7android10frameworks13cameraservice6device21ICameraDeviceCallback14setDefaultImplERKNSt3__110shared_ptrIS4_EE"
  },
  {
   "name" : "_ZN4aidl7android10frameworks13cameraservice6device21ICameraDeviceCallbackC2Ev"
  },
  {
   "name" : "_ZN4aidl7android10frameworks13cameraservice6device21ICameraDeviceCallbackD0Ev"
  },
  {
   "name" : "_ZN4aidl7android10frameworks13cameraservice6device21ICameraDeviceCallbackD1Ev"
  },
  {
   "name" : "_ZN4aidl7android10frameworks13cameraservice6device21ICameraDeviceCallbackD2Ev"
  },
  {
   "name" : "_ZN4aidl7android10frameworks13cameraservice6device22BnCameraDeviceCallback12createBinderEv"
  },
  {
   "name" : "_ZN4aidl7android10frameworks13cameraservice6device22BnCameraDeviceCallback16getInterfaceHashEPNSt3__112basic_stringIcNS5_11char_traitsIcEENS5_9allocatorIcEEEE"
  },
  {
   "name" : "_ZN4aidl7android10frameworks13cameraservice6device22BnCameraDeviceCallback19getInterfaceVersionEPi"
  },
  {
   "name" : "_ZN4aidl7android10frameworks13cameraservice6device22BnCameraDeviceCallbackC2Ev"
  },
  {
   "name" : "_ZN4aidl7android10frameworks13cameraservice6device22BnCameraDeviceCallbackD0Ev"
  },
  {
   "name" : "_ZN4aidl7android10frameworks13cameraservice6device22BnCameraDeviceCallbackD1Ev"
  },
  {
   "name" : "_ZN4aidl7android10frameworks13cameraservice6device22BnCameraDeviceCallbackD2Ev"
  },
  {
   "name" : "_ZN4aidl7android10frameworks13cameraservice6device22BpCameraDeviceCallback10onPreparedEi"
  },
  {
   "name" : "_ZN4aidl7android10frameworks13cameraservice6device22BpCameraDeviceCallback12onDeviceIdleEv"
  },
  {
   "name" : "_ZN4aidl7android10frameworks13cameraservice6device22BpCameraDeviceCallback13onDeviceErrorENS3_9ErrorCodeERKNS3_19CaptureResultExtrasE"
  },
  {
   "name" : "_ZN4aidl7android10frameworks13cameraservice6device22BpCameraDeviceCallback16getInterfaceHashEPNSt3__112basic_stringIcNS5_11char_traitsIcEENS5_9allocatorIcEEEE"
  },
  {
   "name" : "_ZN4aidl7android10frameworks13cameraservice6device22BpCameraDeviceCallback16onCaptureStartedERKNS3_19CaptureResultExtrasEx"
  },
  {
   "name" : "_ZN4aidl7android10frameworks13cameraservice6device22BpCameraDeviceCallback16onResultReceivedERKNS3_19CaptureMetadataInfoERKNS3_19CaptureResultExtrasERKNSt3__16vectorINS3_25PhysicalCaptureResultInfoENSB_9allocatorISD_EEEE"
  },
  {
   "name" : "_ZN4aidl7android10frameworks13cameraservice6device22BpCameraDeviceCallback19getInterfaceVersionEPi"
  },
  {
   "name" : "_ZN4aidl7android10frameworks13cameraservice6device22BpCameraDeviceCallback23onRepeatingRequestErrorExi"
  },
  {
   "name" : "_ZN4aidl7android10frameworks13cameraservice6device22BpCameraDeviceCallbackC1ERKN3ndk10SpAIBinderE"
  },
  {
   "name" : "_ZN4aidl7android10frameworks13cameraservice6device22BpCameraDeviceCallbackC2ERKN3ndk10SpAIBinderE"
  },
  {
   "name" : "_ZN4aidl7android10frameworks13cameraservice6device22BpCameraDeviceCallbackD0Ev"
  },
  {
   "name" : "_ZN4aidl7android10frameworks13cameraservice6device22BpCameraDeviceCallbackD1Ev"
  },
  {
   "name" : "_ZN4aidl7android10frameworks13cameraservice6device22BpCameraDeviceCallbackD2Ev"
  },
  {
   "name" : "_ZN4aidl7android10frameworks13cameraservice6device22PhysicalCameraSettings14readFromParcelEPK7AParcel"
  },
  {
   "name" : "_ZN4aidl7android10frameworks13cameraservice6device24ICameraDeviceUserDefault10disconnectEv"
  },
  {
   "name" : "_ZN4aidl7android10frameworks13cameraservice6device24ICameraDeviceUserDefault12createStreamERKNS3_19OutputConfigurationEPi"
  },
  {
   "name" : "_ZN4aidl7android10frameworks13cameraservice6device24ICameraDeviceUserDefault12deleteStreamEi"
  },
  {
   "name" : "_ZN4aidl7android10frameworks13cameraservice6device24ICameraDeviceUserDefault12endConfigureENS3_23StreamConfigurationModeERKNS3_14CameraMetadataEx"
  },
  {
   "name" : "_ZN4aidl7android10frameworks13cameraservice6device24ICameraDeviceUserDefault13waitUntilIdleEv"
  },
  {
   "name" : "_ZN4aidl7android10frameworks13cameraservice6device24ICameraDeviceUserDefault14beginConfigureEv"
  },
  {
   "name" : "_ZN4aidl7android10frameworks13cameraservice6device24ICameraDeviceUserDefault16getInterfaceHashEPNSt3__112basic_stringIcNS5_11char_traitsIcEENS5_9allocatorIcEEEE"
  },
  {
   "name" : "_ZN4aidl7android10frameworks13cameraservice6device24ICameraDeviceUserDefault17submitRequestListERKNSt3__16vectorINS3_14CaptureRequestENS5_9allocatorIS7_EEEEbPNS3_10SubmitInfoE"
  },
  {
   "name" : "_ZN4aidl7android10frameworks13cameraservice6device24ICameraDeviceUserDefault19getInterfaceVersionEPi"
  },
  {
   "name" : "_ZN4aidl7android10frameworks13cameraservice6device24ICameraDeviceUserDefault20createDefaultRequestENS3_10TemplateIdEPNS3_14CameraMetadataE"
  },
  {
   "name" : "_ZN4aidl7android10frameworks13cameraservice6device24ICameraDeviceUserDefault22cancelRepeatingRequestEPx"
  },
  {
   "name" : "_ZN4aidl7android10frameworks13cameraservice6device24ICameraDeviceUserDefault25updateOutputConfigurationEiRKNS3_19OutputConfigurationE"
  },
  {
   "name" : "_ZN4aidl7android10frameworks13cameraservice6device24ICameraDeviceUserDefault29getCaptureResultMetadataQueueEPNS0_8hardware6common3fmq12MQDescriptorIaNS7_21SynchronizedReadWriteEEE"
  },
  {
   "name" : "_ZN4aidl7android10frameworks13cameraservice6device24ICameraDeviceUserDefault30getCaptureRequestMetadataQueueEPNS0_8hardware6common3fmq12MQDescriptorIaNS7_21SynchronizedReadWriteEEE"
  },
  {
   "name" : "_ZN4aidl7android10frameworks13cameraservice6device24ICameraDeviceUserDefault31isSessionConfigurationSupportedERKNS3_20SessionConfigurationEPb"
  },
  {
   "name" : "_ZN4aidl7android10frameworks13cameraservice6device24ICameraDeviceUserDefault5flushEPx"
  },
  {
   "name" : "_ZN4aidl7android10frameworks13cameraservice6device24ICameraDeviceUserDefault7prepareEi"
  },
  {
   "name" : "_ZN4aidl7android10frameworks13cameraservice6device24ICameraDeviceUserDefault8asBinderEv"
  },
  {
   "name" : "_ZN4aidl7android10frameworks13cameraservice6device24ICameraDeviceUserDefault8isRemoteEv"
  },
  {
   "name" : "_ZN4aidl7android10frameworks13cameraservice6device25PhysicalCaptureResultInfo14readFromParcelEPK7AParcel"
  },
  {
   "name" : "_ZN4aidl7android10frameworks13cameraservice6device28ICameraDeviceCallbackDefault10onPreparedEi"
  },
  {
   "name" : "_ZN4aidl7android10frameworks13cameraservice6device28ICameraDeviceCallbackDefault12onDeviceIdleEv"
  },
  {
   "name" : "_ZN4aidl7android10frameworks13cameraservice6device28ICameraDeviceCallbackDefault13onDeviceErrorENS3_9ErrorCodeERKNS3_19CaptureResultExtrasE"
  },
  {
   "name" : "_ZN4aidl7android10frameworks13cameraservice6device28ICameraDeviceCallbackDefault16getInterfaceHashEPNSt3__112basic_stringIcNS5_11char_traitsIcEENS5_9allocatorIcEEEE"
  },
  {
   "name" : "_ZN4aidl7android10frameworks13cameraservice6device28ICameraDeviceCallbackDefault16onCaptureStartedERKNS3_19CaptureResultExtrasEx"
  },
  {
   "name" : "_ZN4aidl7android10frameworks13cameraservice6device28ICameraDeviceCallbackDefault16onResultReceivedERKNS3_19CaptureMetadataInfoERKNS3_19CaptureResultExtrasERKNSt3__16vectorINS3_25PhysicalCaptureResultInfoENSB_9allocatorISD_EEEE"
  },
  {
   "name" : "_ZN4aidl7android10frameworks13cameraservice6device28ICameraDeviceCallbackDefault19getInterfaceVersionEPi"
  },
  {
   "name" : "_ZN4aidl7android10frameworks13cameraservice6device28ICameraDeviceCallbackDefault23onRepeatingRequestErrorExi"
  },
  {
   "name" : "_ZN4aidl7android10frameworks13cameraservice6device28ICameraDeviceCallbackDefault8asBinderEv"
  },
  {
   "name" : "_ZN4aidl7android10frameworks13cameraservice6device28ICameraDeviceCallbackDefault8isRemoteEv"
  },
  {
   "binding" : "weak",
   "name" : "_ZN4aidl7android8hardware6common3fmq12MQDescriptorIaNS3_21SynchronizedReadWriteEE14readFromParcelEPK7AParcel"
  },
  {
   "name" : "_ZNK4aidl7android10frameworks13cameraservice6device10SubmitInfo13writeToParcelEP7AParcel"
  },
  {
   "name" : "_ZNK4aidl7android10frameworks13cameraservice6device14CameraMetadata13writeToParcelEP7AParcel"
  },
  {
   "name" : "_ZNK4aidl7android10frameworks13cameraservice6device14CaptureRequest13writeToParcelEP7AParcel"
  },
  {
   "name" : "_ZNK4aidl7android10frameworks13cameraservice6device17StreamAndWindowId13writeToParcelEP7AParcel"
  },
  {
   "name" : "_ZNK4aidl7android10frameworks13cameraservice6device19CaptureMetadataInfo13writeToParcelEP7AParcel"
  },
  {
   "name" : "_ZNK4aidl7android10frameworks13cameraservice6device19CaptureResultExtras13writeToParcelEP7AParcel"
  },
  {
   "name" : "_ZNK4aidl7android10frameworks13cameraservice6device19OutputConfiguration13writeToParcelEP7AParcel"
  },
  {
   "name" : "_ZNK4aidl7android10frameworks13cameraservice6device20SessionConfiguration13writeToParcelEP7AParcel"
  },
  {
   "name" : "_ZNK4aidl7android10frameworks13cameraservice6device22PhysicalCameraSettings13writeToParcelEP7AParcel"
  },
  {
   "name" : "_ZNK4aidl7android10frameworks13cameraservice6device25PhysicalCaptureResultInfo13writeToParcelEP7AParcel"
  },
  {
   "binding" : "weak",
   "name" : "_ZNK4aidl7android8hardware6common3fmq12MQDescriptorIaNS3_21SynchronizedReadWriteEE13writeToParcelEP7AParcel"
  },
  {
   "binding" : "weak",
   "name" : "_ZNSt3__110shared_ptrIN4aidl7android10frameworks13cameraservice6device17ICameraDeviceUserEED2Ev"
  },
  {
   "binding" : "weak",
   "name" : "_ZNSt3__110shared_ptrIN4aidl7android10frameworks13cameraservice6device21ICameraDeviceCallbackEED2Ev"
  },
  {
   "binding" : "weak",
   "name" : "_ZNSt3__120__shared_ptr_pointerIPN3ndk13SharedRefBaseENS_14default_deleteIS2_EENS_9allocatorIS2_EEE16__on_zero_sharedEv"
  },
  {
   "binding" : "weak",
   "name" : "_ZNSt3__120__shared_ptr_pointerIPN3ndk13SharedRefBaseENS_14default_deleteIS2_EENS_9allocatorIS2_EEE21__on_zero_shared_weakEv"
  },
  {
   "binding" : "weak",
   "name" : "_ZNSt3__16vectorIN4aidl7android10frameworks13cameraservice6device14CaptureRequestENS_9allocatorIS6_EEE8__appendEj"
  },
  {
   "binding" : "weak",
   "name" : "_ZNSt3__16vectorIN4aidl7android10frameworks13cameraservice6device17StreamAndWindowIdENS_9allocatorIS6_EEE8__appendEj"
  },
  {
   "binding" : "weak",
   "name" : "_ZNSt3__16vectorIN4aidl7android10frameworks13cameraservice6device19OutputConfigurationENS_9allocatorIS6_EEE8__appendEj"
  },
  {
   "binding" : "weak",
   "name" : "_ZNSt3__16vectorIN4aidl7android10frameworks13cameraservice6device22PhysicalCameraSettingsENS_9allocatorIS6_EEE8__appendEj"
  },
  {
   "binding" : "weak",
   "name" : "_ZNSt3__16vectorIN4aidl7android10frameworks13cameraservice6device25PhysicalCaptureResultInfoENS_9allocatorIS6_EEE8__appendEj"
  },
  {
   "binding" : "weak",
   "name" : "_ZNSt3__16vectorIN4aidl7android8hardware6common12NativeHandleENS_9allocatorIS5_EEE8__appendEj"
  },
  {
   "binding" : "weak",
   "name" : "_ZNSt3__16vectorIN4aidl7android8hardware6common3fmq17GrantorDescriptorENS_9allocatorIS6_EEE8__appendEj"
  },
  {
   "binding" : "weak",
   "name" : "_ZNSt3__16vectorIaNS_9allocatorIaEEE8__appendEj"
  }
 ],
 "elf_objects" :
 [
  {
   "binding" : "weak",
   "name" : "_ZGVN4aidl7android10frameworks13cameraservice6device17ICameraDeviceUser4hashE"
  },
  {
   "binding" : "weak",
   "name" : "_ZGVN4aidl7android10frameworks13cameraservice6device21ICameraDeviceCallback4hashE"
  },
  {
   "name" : "_ZN4aidl7android10frameworks13cameraservice6device10SubmitInfo10descriptorE"
  },
  {
   "name" : "_ZN4aidl7android10frameworks13cameraservice6device14CameraMetadata10descriptorE"
  },
  {
   "name" : "_ZN4aidl7android10frameworks13cameraservice6device14CaptureRequest10descriptorE"
  },
  {
   "name" : "_ZN4aidl7android10frameworks13cameraservice6device17ICameraDeviceUser10descriptorE"
  },
  {
   "name" : "_ZN4aidl7android10frameworks13cameraservice6device17ICameraDeviceUser12default_implE"
  },
  {
   "binding" : "weak",
   "name" : "_ZN4aidl7android10frameworks13cameraservice6device17ICameraDeviceUser4hashE"
  },
  {
   "name" : "_ZN4aidl7android10frameworks13cameraservice6device17StreamAndWindowId10descriptorE"
  },
  {
   "name" : "_ZN4aidl7android10frameworks13cameraservice6device19CaptureMetadataInfo10descriptorE"
  },
  {
   "name" : "_ZN4aidl7android10frameworks13cameraservice6device19CaptureResultExtras10descriptorE"
  },
  {
   "name" : "_ZN4aidl7android10frameworks13cameraservice6device19OutputConfiguration10descriptorE"
  },
  {
   "name" : "_ZN4aidl7android10frameworks13cameraservice6device20SessionConfiguration10descriptorE"
  },
  {
   "name" : "_ZN4aidl7android10frameworks13cameraservice6device21ICameraDeviceCallback10descriptorE"
  },
  {
   "name" : "_ZN4aidl7android10frameworks13cameraservice6device21ICameraDeviceCallback12default_implE"
  },
  {
   "binding" : "weak",
   "name" : "_ZN4aidl7android10frameworks13cameraservice6device21ICameraDeviceCallback4hashE"
  },
  {
   "name" : "_ZN4aidl7android10frameworks13cameraservice6device22PhysicalCameraSettings10descriptorE"
  },
  {
   "name" : "_ZN4aidl7android10frameworks13cameraservice6device25PhysicalCaptureResultInfo10descriptorE"
  },
  {
   "binding" : "weak",
   "name" : "_ZTVN3ndk12BnCInterfaceIN4aidl7android10frameworks13cameraservice6device17ICameraDeviceUserEEE"
  },
  {
   "binding" : "weak",
   "name" : "_ZTVN3ndk12BnCInterfaceIN4aidl7android10frameworks13cameraservice6device21ICameraDeviceCallbackEEE"
  },
  {
   "binding" : "weak",
   "name" : "_ZTVN3ndk12BpCInterfaceIN4aidl7android10frameworks13cameraservice6device17ICameraDeviceUserEEE"
  },
  {
   "binding" : "weak",
   "name" : "_ZTVN3ndk12BpCInterfaceIN4aidl7android10frameworks13cameraservice6device21ICameraDeviceCallbackEEE"
  },
  {
   "binding" : "weak",
   "name" : "_ZTVN3ndk13SharedRefBaseE"
  },
  {
   "name" : "_ZTVN4aidl7android10frameworks13cameraservice6device17ICameraDeviceUserE"
  },
  {
   "name" : "_ZTVN4aidl7android10frameworks13cameraservice6device18BnCameraDeviceUserE"
  },
  {
   "name" : "_ZTVN4aidl7android10frameworks13cameraservice6device18BpCameraDeviceUserE"
  },
  {
   "name" : "_ZTVN4aidl7android10frameworks13cameraservice6device21ICameraDeviceCallbackE"
  },
  {
   "name" : "_ZTVN4aidl7android10frameworks13cameraservice6device22BnCameraDeviceCallbackE"
  },
  {
   "name" : "_ZTVN4aidl7android10frameworks13cameraservice6device22BpCameraDeviceCallbackE"
  },
  {
   "name" : "_ZTVN4aidl7android10frameworks13cameraservice6device24ICameraDeviceUserDefaultE"
  },
  {
   "name" : "_ZTVN4aidl7android10frameworks13cameraservice6device28ICameraDeviceCallbackDefaultE"
  },
  {
   "binding" : "weak",
   "name" : "_ZTVNSt3__120__shared_ptr_pointerIPN3ndk13SharedRefBaseENS_14default_deleteIS2_EENS_9allocatorIS2_EEEE"
  }
 ],
 "enum_types" :
 [
  {
   "alignment" : 4,
   "enum_fields" :
   [
    {
     "enum_field_value" : 1,
     "name" : "FLAG_ONEWAY"
    }
   ],
   "linker_set_key" : "_ZTI12$FLAG_ONEWAY",
   "name" : "(unnamed)",
   "referenced_type" : "_ZTI12$FLAG_ONEWAY",
   "self_type" : "_ZTI12$FLAG_ONEWAY",
   "size" : 4,
   "source_file" : "frameworks/native/libs/binder/ndk/include_ndk/android/binder_ibinder.h",
   "underlying_type" : "_ZTIj"
  },
  {
   "alignment" : 4,
   "enum_fields" :
   [
    {
     "enum_field_value" : 0,
     "name" : "EX_NONE"
    },
    {
     "enum_field_value" : -1,
     "name" : "EX_SECURITY"
    },
    {
     "enum_field_value" : -2,
     "name" : "EX_BAD_PARCELABLE"
    },
    {
     "enum_field_value" : -3,
     "name" : "EX_ILLEGAL_ARGUMENT"
    },
    {
     "enum_field_value" : -4,
     "name" : "EX_NULL_POINTER"
    },
    {
     "enum_field_value" : -5,
     "name" : "EX_ILLEGAL_STATE"
    },
    {
     "enum_field_value" : -6,
     "name" : "EX_NETWORK_MAIN_THREAD"
    },
    {
     "enum_field_value" : -7,
     "name" : "EX_UNSUPPORTED_OPERATION"
    },
    {
     "enum_field_value" : -8,
     "name" : "EX_SERVICE_SPECIFIC"
    },
    {
     "enum_field_value" : -9,
     "name" : "EX_PARCELABLE"
    },
    {
     "enum_field_value" : -129,
     "name" : "EX_TRANSACTION_FAILED"
    }
   ],
   "linker_set_key" : "_ZTI18$EX_BAD_PARCELABLE",
   "name" : "(unnamed)",
   "referenced_type" : "_ZTI18$EX_BAD_PARCELABLE",
   "self_type" : "_ZTI18$EX_BAD_PARCELABLE",
   "size" : 4,
   "source_file" : "frameworks/native/libs/binder/ndk/include_ndk/android/binder_status.h",
   "underlying_type" : "_ZTIi"
  },
  {
   "alignment" : 4,
   "enum_fields" :
   [
    {
     "enum_field_value" : 268435456,
     "name" : "FLAG_PRIVATE_LOCAL"
    }
   ],
   "linker_set_key" : "_ZTI19$FLAG_PRIVATE_LOCAL",
   "name" : "(unnamed)",
   "referenced_type" : "_ZTI19$FLAG_PRIVATE_LOCAL",
   "self_type" : "_ZTI19$FLAG_PRIVATE_LOCAL",
   "size" : 4,
   "source_file" : "frameworks/native/libs/binder/ndk/include_platform/android/binder_stability.h",
   "underlying_type" : "_ZTIj"
  },
  {
   "alignment" : 4,
   "enum_fields" :
   [
    {
     "enum_field_value" : 268435456,
     "name" : "FLAG_PRIVATE_VENDOR"
    }
   ],
   "linker_set_key" : "_ZTI20$FLAG_PRIVATE_VENDOR",
   "name" : "(unnamed)",
   "referenced_type" : "_ZTI20$FLAG_PRIVATE_VENDOR",
   "self_type" : "_ZTI20$FLAG_PRIVATE_VENDOR",
   "size" : 4,
   "source_file" : "frameworks/native/libs/binder/ndk/include_platform/android/binder_stability.h",
   "underlying_type" : "_ZTIj"
  },
  {
   "alignment" : 4,
   "enum_fields" :
   [
    {
     "enum_field_value" : 0,
     "name" : "STATUS_OK"
    },
    {
     "enum_field_value" : -2147483648,
     "name" : "STATUS_UNKNOWN_ERROR"
    },
    {
     "enum_field_value" : -12,
     "name" : "STATUS_NO_MEMORY"
    },
    {
     "enum_field_value" : -38,
     "name" : "STATUS_INVALID_OPERATION"
    },
    {
     "enum_field_value" : -22,
     "name" : "STATUS_BAD_VALUE"
    },
    {
     "enum_field_value" : -2147483647,
     "name" : "STATUS_BAD_TYPE"
    },
    {
     "enum_field_value" : -2,
     "name" : "STATUS_NAME_NOT_FOUND"
    },
    {
     "enum_field_value" : -1,
     "name" : "STATUS_PERMISSION_DENIED"
    },
    {
     "enum_field_value" : -19,
     "name" : "STATUS_NO_INIT"
    },
    {
     "enum_field_value" : -17,
     "name" : "STATUS_ALREADY_EXISTS"
    },
    {
     "enum_field_value" : -32,
     "name" : "STATUS_DEAD_OBJECT"
    },
    {
     "enum_field_value" : -2147483646,
     "name" : "STATUS_FAILED_TRANSACTION"
    },
    {
     "enum_field_value" : -75,
     "name" : "STATUS_BAD_INDEX"
    },
    {
     "enum_field_value" : -61,
     "name" : "STATUS_NOT_ENOUGH_DATA"
    },
    {
     "enum_field_value" : -11,
     "name" : "STATUS_WOULD_BLOCK"
    },
    {
     "enum_field_value" : -110,
     "name" : "STATUS_TIMED_OUT"
    },
    {
     "enum_field_value" : -74,
     "name" : "STATUS_UNKNOWN_TRANSACTION"
    },
    {
     "enum_field_value" : -2147483641,
     "name" : "STATUS_FDS_NOT_ALLOWED"
    },
    {
     "enum_field_value" : -2147483640,
     "name" : "STATUS_UNEXPECTED_NULL"
    }
   ],
   "linker_set_key" : "_ZTI22$STATUS_ALREADY_EXISTS",
   "name" : "(unnamed)",
   "referenced_type" : "_ZTI22$STATUS_ALREADY_EXISTS",
   "self_type" : "_ZTI22$STATUS_ALREADY_EXISTS",
   "size" : 4,
   "source_file" : "frameworks/native/libs/binder/ndk/include_ndk/android/binder_status.h",
   "underlying_type" : "_ZTIi"
  },
  {
   "alignment" : 4,
   "enum_fields" :
   [
    {
     "enum_field_value" : 1,
     "name" : "FIRST_CALL_TRANSACTION"
    },
    {
     "enum_field_value" : 16777215,
     "name" : "LAST_CALL_TRANSACTION"
    }
   ],
   "linker_set_key" : "_ZTI23$FIRST_CALL_TRANSACTION",
   "name" : "(unnamed)",
   "referenced_type" : "_ZTI23$FIRST_CALL_TRANSACTION",
   "self_type" : "_ZTI23$FIRST_CALL_TRANSACTION",
   "size" : 4,
   "source_file" : "frameworks/native/libs/binder/ndk/include_ndk/android/binder_ibinder.h",
   "underlying_type" : "_ZTIj"
  },
  {
   "alignment" : 4,
   "enum_fields" :
   [
    {
     "enum_field_value" : 0,
     "name" : "ndk::STABILITY_LOCAL"
    },
    {
     "enum_field_value" : 1,
     "name" : "ndk::STABILITY_VINTF"
    }
   ],
   "linker_set_key" : "_ZTIN3ndk16$STABILITY_LOCALE",
   "name" : "ndk::(unnamed)",
   "referenced_type" : "_ZTIN3ndk16$STABILITY_LOCALE",
   "self_type" : "_ZTIN3ndk16$STABILITY_LOCALE",
   "size" : 4,
   "source_file" : "frameworks/native/libs/binder/ndk/include_cpp/android/binder_parcelable_utils.h",
   "underlying_type" : "_ZTIj"
  },
  {
   "alignment" : 4,
   "enum_fields" :
   [
    {
     "enum_field_value" : 1,
     "name" : "aidl::android::frameworks::cameraservice::device::TemplateId::PREVIEW"
    },
    {
     "enum_field_value" : 2,
     "name" : "aidl::android::frameworks::cameraservice::device::TemplateId::STILL_CAPTURE"
    },
    {
     "enum_field_value" : 3,
     "name" : "aidl::android::frameworks::cameraservice::device::TemplateId::RECORD"
    },
    {
     "enum_field_value" : 4,
     "name" : "aidl::android::frameworks::cameraservice::device::TemplateId::VIDEO_SNAPSHOT"
    },
    {
     "enum_field_value" : 5,
     "name" : "aidl::android::frameworks::cameraservice::device::TemplateId::ZERO_SHUTTER_LAG"
    },
    {
     "enum_field_value" : 6,
     "name" : "aidl::android::frameworks::cameraservice::device::TemplateId::MANUAL"
    }
   ],
   "linker_set_key" : "_ZTIN4aidl7android10frameworks13cameraservice6device10TemplateIdE",
   "name" : "aidl::android::frameworks::cameraservice::device::TemplateId",
   "referenced_type" : "_ZTIN4aidl7android10frameworks13cameraservice6device10TemplateIdE",
   "self_type" : "_ZTIN4aidl7android10frameworks13cameraservice6device10TemplateIdE",
   "size" : 4,
   "source_file" : "out/soong/.intermediates/frameworks/hardware/interfaces/cameraservice/device/aidl/android.frameworks.cameraservice.device-V1-ndk-source/gen/include/aidl/android/frameworks/cameraservice/device/TemplateId.h",
   "underlying_type" : "_ZTIi"
  },
  {
   "alignment" : 4,
   "enum_fields" :
   [
    {
     "enum_field_value" : 0,
     "name" : "aidl::android::frameworks::cameraservice::device::CaptureMetadataInfo::Tag::fmqMetadataSize"
    },
    {
     "enum_field_value" : 1,
     "name" : "aidl::android::frameworks::cameraservice::device::CaptureMetadataInfo::Tag::metadata"
    }
   ],
   "linker_set_key" : "_ZTIN4aidl7android10frameworks13cameraservice6device19CaptureMetadataInfo3TagE",
   "name" : "aidl::android::frameworks::cameraservice::device::CaptureMetadataInfo::Tag",
   "referenced_type" : "_ZTIN4aidl7android10frameworks13cameraservice6device19CaptureMetadataInfo3TagE",
   "self_type" : "_ZTIN4aidl7android10frameworks13cameraservice6device19CaptureMetadataInfo3TagE",
   "size" : 4,
   "source_file" : "out/soong/.intermediates/frameworks/hardware/interfaces/cameraservice/device/aidl/android.frameworks.cameraservice.device-V1-ndk-source/gen/include/aidl/android/frameworks/cameraservice/device/CaptureMetadataInfo.h",
   "underlying_type" : "_ZTIi"
  },
  {
   "alignment" : 4,
   "enum_fields" :
   [
    {
     "enum_field_value" : -1,
     "name" : "aidl::android::frameworks::cameraservice::device::OutputConfiguration::WindowGroupId::NONE"
    }
   ],
   "linker_set_key" : "_ZTIN4aidl7android10frameworks13cameraservice6device19OutputConfiguration13WindowGroupIdE",
   "name" : "aidl::android::frameworks::cameraservice::device::OutputConfiguration::WindowGroupId",
   "referenced_type" : "_ZTIN4aidl7android10frameworks13cameraservice6device19OutputConfiguration13WindowGroupIdE",
   "self_type" : "_ZTIN4aidl7android10frameworks13cameraservice6device19OutputConfiguration13WindowGroupIdE",
   "size" : 4,
   "source_file" : "out/soong/.intermediates/frameworks/hardware/interfaces/cameraservice/device/aidl/android.frameworks.cameraservice.device-V1-ndk-source/gen/include/aidl/android/frameworks/cameraservice/device/OutputConfiguration.h",
   "underlying_type" : "_ZTIi"
  },
  {
   "alignment" : 4,
   "enum_fields" :
   [
    {
     "enum_field_value" : 0,
     "name" : "aidl::android::frameworks::cameraservice::device::OutputConfiguration::Rotation::R0"
    },
    {
     "enum_field_value" : 1,
     "name" : "aidl::android::frameworks::cameraservice::device::OutputConfiguration::Rotation::R90"
    },
    {
     "enum_field_value" : 2,
     "name" : "aidl::android::frameworks::cameraservice::device::OutputConfiguration::Rotation::R180"
    },
    {
     "enum_field_value" : 3,
     "name" : "aidl::android::frameworks::cameraservice::device::OutputConfiguration::Rotation::R270"
    }
   ],
   "linker_set_key" : "_ZTIN4aidl7android10frameworks13cameraservice6device19OutputConfiguration8RotationE",
   "name" : "aidl::android::frameworks::cameraservice::device::OutputConfiguration::Rotation",
   "referenced_type" : "_ZTIN4aidl7android10frameworks13cameraservice6device19OutputConfiguration8RotationE",
   "self_type" : "_ZTIN4aidl7android10frameworks13cameraservice6device19OutputConfiguration8RotationE",
   "size" : 4,
   "source_file" : "out/soong/.intermediates/frameworks/hardware/interfaces/cameraservice/device/aidl/android.frameworks.cameraservice.device-V1-ndk-source/gen/include/aidl/android/frameworks/cameraservice/device/OutputConfiguration.h",
   "underlying_type" : "_ZTIi"
  },
  {
   "alignment" : 4,
   "enum_fields" :
   [
    {
     "enum_field_value" : 0,
     "name" : "aidl::android::frameworks::cameraservice::device::StreamConfigurationMode::NORMAL_MODE"
    },
    {
     "enum_field_value" : 1,
     "name" : "aidl::android::frameworks::cameraservice::device::StreamConfigurationMode::CONSTRAINED_HIGH_SPEED_MODE"
    },
    {
     "enum_field_value" : 32768,
     "name" : "aidl::android::frameworks::cameraservice::device::StreamConfigurationMode::VENDOR_MODE_0"
    },
    {
     "enum_field_value" : 32769,
     "name" : "aidl::android::frameworks::cameraservice::device::StreamConfigurationMode::VENDOR_MODE_1"
    },
    {
     "enum_field_value" : 32770,
     "name" : "aidl::android::frameworks::cameraservice::device::StreamConfigurationMode::VENDOR_MODE_2"
    },
    {
     "enum_field_value" : 32771,
     "name" : "aidl::android::frameworks::cameraservice::device::StreamConfigurationMode::VENDOR_MODE_3"
    },
    {
     "enum_field_value" : 32772,
     "name" : "aidl::android::frameworks::cameraservice::device::StreamConfigurationMode::VENDOR_MODE_4"
    },
    {
     "enum_field_value" : 32773,
     "name" : "aidl::android::frameworks::cameraservice::device::StreamConfigurationMode::VENDOR_MODE_5"
    },
    {
     "enum_field_value" : 32774,
     "name" : "aidl::android::frameworks::cameraservice::device::StreamConfigurationMode::VENDOR_MODE_6"
    },
    {
     "enum_field_value" : 32775,
     "name" : "aidl::android::frameworks::cameraservice::device::StreamConfigurationMode::VENDOR_MODE_7"
    }
   ],
   "linker_set_key" : "_ZTIN4aidl7android10frameworks13cameraservice6device23StreamConfigurationModeE",
   "name" : "aidl::android::frameworks::cameraservice::device::StreamConfigurationMode",
   "referenced_type" : "_ZTIN4aidl7android10frameworks13cameraservice6device23StreamConfigurationModeE",
   "self_type" : "_ZTIN4aidl7android10frameworks13cameraservice6device23StreamConfigurationModeE",
   "size" : 4,
   "source_file" : "out/soong/.intermediates/frameworks/hardware/interfaces/cameraservice/device/aidl/android.frameworks.cameraservice.device-V1-ndk-source/gen/include/aidl/android/frameworks/cameraservice/device/StreamConfigurationMode.h",
   "underlying_type" : "_ZTIi"
  },
  {
   "alignment" : 4,
   "enum_fields" :
   [
    {
     "enum_field_value" : -1,
     "name" : "aidl::android::frameworks::cameraservice::device::ErrorCode::CAMERA_INVALID_ERROR"
    },
    {
     "enum_field_value" : 0,
     "name" : "aidl::android::frameworks::cameraservice::device::ErrorCode::CAMERA_DISCONNECTED"
    },
    {
     "enum_field_value" : 1,
     "name" : "aidl::android::frameworks::cameraservice::device::ErrorCode::CAMERA_DEVICE"
    },
    {
     "enum_field_value" : 2,
     "name" : "aidl::android::frameworks::cameraservice::device::ErrorCode::CAMERA_SERVICE"
    },
    {
     "enum_field_value" : 3,
     "name" : "aidl::android::frameworks::cameraservice::device::ErrorCode::CAMERA_REQUEST"
    },
    {
     "enum_field_value" : 4,
     "name" : "aidl::android::frameworks::cameraservice::device::ErrorCode::CAMERA_RESULT"
    },
    {
     "enum_field_value" : 5,
     "name" : "aidl::android::frameworks::cameraservice::device::ErrorCode::CAMERA_BUFFER"
    },
    {
     "enum_field_value" : 6,
     "name" : "aidl::android::frameworks::cameraservice::device::ErrorCode::CAMERA_DISABLED"
    },
    {
     "enum_field_value" : 7,
     "name" : "aidl::android::frameworks::cameraservice::device::ErrorCode::CAMERA_UNKNOWN_ERROR"
    }
   ],
   "linker_set_key" : "_ZTIN4aidl7android10frameworks13cameraservice6device9ErrorCodeE",
   "name" : "aidl::android::frameworks::cameraservice::device::ErrorCode",
   "referenced_type" : "_ZTIN4aidl7android10frameworks13cameraservice6device9ErrorCodeE",
   "self_type" : "_ZTIN4aidl7android10frameworks13cameraservice6device9ErrorCodeE",
   "size" : 4,
   "source_file" : "out/soong/.intermediates/frameworks/hardware/interfaces/cameraservice/device/aidl/android.frameworks.cameraservice.device-V1-ndk-source/gen/include/aidl/android/frameworks/cameraservice/device/ErrorCode.h",
   "underlying_type" : "_ZTIi"
  },
  {
   "alignment" : 1,
   "enum_fields" :
   [
    {
     "enum_field_value" : 0,
     "name" : "aidl::android::hardware::common::fmq::SynchronizedReadWrite::EMPTY"
    }
   ],
   "linker_set_key" : "_ZTIN4aidl7android8hardware6common3fmq21SynchronizedReadWriteE",
   "name" : "aidl::android::hardware::common::fmq::SynchronizedReadWrite",
   "referenced_type" : "_ZTIN4aidl7android8hardware6common3fmq21SynchronizedReadWriteE",
   "self_type" : "_ZTIN4aidl7android8hardware6common3fmq21SynchronizedReadWriteE",
   "size" : 1,
   "source_file" : "out/soong/.intermediates/hardware/interfaces/common/fmq/aidl/android.hardware.common.fmq-V1-ndk-source/gen/include/aidl/android/hardware/common/fmq/SynchronizedReadWrite.h",
   "underlying_type" : "_ZTIa"
  },
  {
   "alignment" : 4,
   "enum_fields" :
   [
    {
     "enum_field_value" : 1,
     "name" : "android::internal::details::IsIterable<std::vector<ndk::ScopedFileDescriptor>>::value"
    }
   ],
   "linker_set_key" : "_ZTIN7android8internal7details10IsIterableINSt3__16vectorIN3ndk20ScopedFileDescriptorENS3_9allocatorIS6_EEEEE6$valueE",
   "name" : "android::internal::details::IsIterable<std::vector<ndk::ScopedFileDescriptor, std::allocator<ndk::ScopedFileDescriptor>>>::(unnamed)",
   "referenced_type" : "_ZTIN7android8internal7details10IsIterableINSt3__16vectorIN3ndk20ScopedFileDescriptorENS3_9allocatorIS6_EEEEE6$valueE",
   "self_type" : "_ZTIN7android8internal7details10IsIterableINSt3__16vectorIN3ndk20ScopedFileDescriptorENS3_9allocatorIS6_EEEEE6$valueE",
   "size" : 4,
   "source_file" : "frameworks/native/libs/binder/ndk/include_cpp/android/binder_to_string.h",
   "underlying_type" : "_ZTIj"
  },
  {
   "alignment" : 4,
   "enum_fields" :
   [
    {
     "enum_field_value" : 1,
     "name" : "android::internal::details::IsIterable<std::vector<aidl::android::frameworks::cameraservice::device::StreamAndWindowId>>::value"
    }
   ],
   "linker_set_key" : "_ZTIN7android8internal7details10IsIterableINSt3__16vectorIN4aidl7android10frameworks13cameraservice6device17StreamAndWindowIdENS3_9allocatorISA_EEEEE6$valueE",
   "name" : "android::internal::details::IsIterable<std::vector<aidl::android::frameworks::cameraservice::device::StreamAndWindowId, std::allocator<aidl::android::frameworks::cameraservice::device::StreamAndWindowId>>>::(unnamed)",
   "referenced_type" : "_ZTIN7android8internal7details10IsIterableINSt3__16vectorIN4aidl7android10frameworks13cameraservice6device17StreamAndWindowIdENS3_9allocatorISA_EEEEE6$valueE",
   "self_type" : "_ZTIN7android8internal7details10IsIterableINSt3__16vectorIN4aidl7android10frameworks13cameraservice6device17StreamAndWindowIdENS3_9allocatorISA_EEEEE6$valueE",
   "size" : 4,
   "source_file" : "frameworks/native/libs/binder/ndk/include_cpp/android/binder_to_string.h",
   "underlying_type" : "_ZTIj"
  },
  {
   "alignment" : 4,
   "enum_fields" :
   [
    {
     "enum_field_value" : 1,
     "name" : "android::internal::details::IsIterable<std::vector<aidl::android::frameworks::cameraservice::device::OutputConfiguration>>::value"
    }
   ],
   "linker_set_key" : "_ZTIN7android8internal7details10IsIterableINSt3__16vectorIN4aidl7android10frameworks13cameraservice6device19OutputConfigurationENS3_9allocatorISA_EEEEE6$valueE",
   "name" : "android::internal::details::IsIterable<std::vector<aidl::android::frameworks::cameraservice::device::OutputConfiguration, std::allocator<aidl::android::frameworks::cameraservice::device::OutputConfiguration>>>::(unnamed)",
   "referenced_type" : "_ZTIN7android8internal7details10IsIterableINSt3__16vectorIN4aidl7android10frameworks13cameraservice6device19OutputConfigurationENS3_9allocatorISA_EEEEE6$valueE",
   "self_type" : "_ZTIN7android8internal7details10IsIterableINSt3__16vectorIN4aidl7android10frameworks13cameraservice6device19OutputConfigurationENS3_9allocatorISA_EEEEE6$valueE",
   "size" : 4,
   "source_file" : "frameworks/native/libs/binder/ndk/include_cpp/android/binder_to_string.h",
   "underlying_type" : "_ZTIj"
  },
  {
   "alignment" : 4,
   "enum_fields" :
   [
    {
     "enum_field_value" : 1,
     "name" : "android::internal::details::IsIterable<std::vector<aidl::android::frameworks::cameraservice::device::PhysicalCameraSettings>>::value"
    }
   ],
   "linker_set_key" : "_ZTIN7android8internal7details10IsIterableINSt3__16vectorIN4aidl7android10frameworks13cameraservice6device22PhysicalCameraSettingsENS3_9allocatorISA_EEEEE6$valueE",
   "name" : "android::internal::details::IsIterable<std::vector<aidl::android::frameworks::cameraservice::device::PhysicalCameraSettings, std::allocator<aidl::android::frameworks::cameraservice::device::PhysicalCameraSettings>>>::(unnamed)",
   "referenced_type" : "_ZTIN7android8internal7details10IsIterableINSt3__16vectorIN4aidl7android10frameworks13cameraservice6device22PhysicalCameraSettingsENS3_9allocatorISA_EEEEE6$valueE",
   "self_type" : "_ZTIN7android8internal7details10IsIterableINSt3__16vectorIN4aidl7android10frameworks13cameraservice6device22PhysicalCameraSettingsENS3_9allocatorISA_EEEEE6$valueE",
   "size" : 4,
   "source_file" : "frameworks/native/libs/binder/ndk/include_cpp/android/binder_to_string.h",
   "underlying_type" : "_ZTIj"
  },
  {
   "alignment" : 4,
   "enum_fields" :
   [
    {
     "enum_field_value" : 1,
     "name" : "android::internal::details::IsIterable<std::vector<aidl::android::hardware::common::NativeHandle>>::value"
    }
   ],
   "linker_set_key" : "_ZTIN7android8internal7details10IsIterableINSt3__16vectorIN4aidl7android8hardware6common12NativeHandleENS3_9allocatorIS9_EEEEE6$valueE",
   "name" : "android::internal::details::IsIterable<std::vector<aidl::android::hardware::common::NativeHandle, std::allocator<aidl::android::hardware::common::NativeHandle>>>::(unnamed)",
   "referenced_type" : "_ZTIN7android8internal7details10IsIterableINSt3__16vectorIN4aidl7android8hardware6common12NativeHandleENS3_9allocatorIS9_EEEEE6$valueE",
   "self_type" : "_ZTIN7android8internal7details10IsIterableINSt3__16vectorIN4aidl7android8hardware6common12NativeHandleENS3_9allocatorIS9_EEEEE6$valueE",
   "size" : 4,
   "source_file" : "frameworks/native/libs/binder/ndk/include_cpp/android/binder_to_string.h",
   "underlying_type" : "_ZTIj"
  },
  {
   "alignment" : 4,
   "enum_fields" :
   [
    {
     "enum_field_value" : 1,
     "name" : "android::internal::details::IsIterable<std::vector<unsigned char>>::value"
    }
   ],
   "linker_set_key" : "_ZTIN7android8internal7details10IsIterableINSt3__16vectorIhNS3_9allocatorIhEEEEE6$valueE",
   "name" : "android::internal::details::IsIterable<std::vector<unsigned char, std::allocator<unsigned char>>>::(unnamed)",
   "referenced_type" : "_ZTIN7android8internal7details10IsIterableINSt3__16vectorIhNS3_9allocatorIhEEEEE6$valueE",
   "self_type" : "_ZTIN7android8internal7details10IsIterableINSt3__16vectorIhNS3_9allocatorIhEEEEE6$valueE",
   "size" : 4,
   "source_file" : "frameworks/native/libs/binder/ndk/include_cpp/android/binder_to_string.h",
   "underlying_type" : "_ZTIj"
  },
  {
   "alignment" : 4,
   "enum_fields" :
   [
    {
     "enum_field_value" : 1,
     "name" : "android::internal::details::IsIterable<std::vector<int>>::value"
    }
   ],
   "linker_set_key" : "_ZTIN7android8internal7details10IsIterableINSt3__16vectorIiNS3_9allocatorIiEEEEE6$valueE",
   "name" : "android::internal::details::IsIterable<std::vector<int, std::allocator<int>>>::(unnamed)",
   "referenced_type" : "_ZTIN7android8internal7details10IsIterableINSt3__16vectorIiNS3_9allocatorIiEEEEE6$valueE",
   "self_type" : "_ZTIN7android8internal7details10IsIterableINSt3__16vectorIiNS3_9allocatorIiEEEEE6$valueE",
   "size" : 4,
   "source_file" : "frameworks/native/libs/binder/ndk/include_cpp/android/binder_to_string.h",
   "underlying_type" : "_ZTIj"
  },
  {
   "alignment" : 4,
   "enum_fields" :
   [
    {
     "enum_field_value" : 0,
     "name" : "android::internal::details::IsPointerLike<aidl::android::frameworks::cameraservice::device::CameraMetadata>::value"
    }
   ],
   "linker_set_key" : "_ZTIN7android8internal7details13IsPointerLikeIN4aidl7android10frameworks13cameraservice6device14CameraMetadataEE6$valueE",
   "name" : "android::internal::details::IsPointerLike<aidl::android::frameworks::cameraservice::device::CameraMetadata>::(unnamed)",
   "referenced_type" : "_ZTIN7android8internal7details13IsPointerLikeIN4aidl7android10frameworks13cameraservice6device14CameraMetadataEE6$valueE",
   "self_type" : "_ZTIN7android8internal7details13IsPointerLikeIN4aidl7android10frameworks13cameraservice6device14CameraMetadataEE6$valueE",
   "size" : 4,
   "source_file" : "frameworks/native/libs/binder/ndk/include_cpp/android/binder_to_string.h",
   "underlying_type" : "_ZTIj"
  },
  {
   "alignment" : 4,
   "enum_fields" :
   [
    {
     "enum_field_value" : 0,
     "name" : "android::internal::details::IsPointerLike<aidl::android::frameworks::cameraservice::device::StreamAndWindowId>::value"
    }
   ],
   "linker_set_key" : "_ZTIN7android8internal7details13IsPointerLikeIN4aidl7android10frameworks13cameraservice6device17StreamAndWindowIdEE6$valueE",
   "name" : "android::internal::details::IsPointerLike<aidl::android::frameworks::cameraservice::device::StreamAndWindowId>::(unnamed)",
   "referenced_type" : "_ZTIN7android8internal7details13IsPointerLikeIN4aidl7android10frameworks13cameraservice6device17StreamAndWindowIdEE6$valueE",
   "self_type" : "_ZTIN7android8internal7details13IsPointerLikeIN4aidl7android10frameworks13cameraservice6device17StreamAndWindowIdEE6$valueE",
   "size" : 4,
   "source_file" : "frameworks/native/libs/binder/ndk/include_cpp/android/binder_to_string.h",
   "underlying_type" : "_ZTIj"
  },
  {
   "alignment" : 4,
   "enum_fields" :
   [
    {
     "enum_field_value" : 0,
     "name" : "android::internal::details::IsPointerLike<aidl::android::frameworks::cameraservice::device::CaptureMetadataInfo>::value"
    }
   ],
   "linker_set_key" : "_ZTIN7android8internal7details13IsPointerLikeIN4aidl7android10frameworks13cameraservice6device19CaptureMetadataInfoEE6$valueE",
   "name" : "android::internal::details::IsPointerLike<aidl::android::frameworks::cameraservice::device::CaptureMetadataInfo>::(unnamed)",
   "referenced_type" : "_ZTIN7android8internal7details13IsPointerLikeIN4aidl7android10frameworks13cameraservice6device19CaptureMetadataInfoEE6$valueE",
   "self_type" : "_ZTIN7android8internal7details13IsPointerLikeIN4aidl7android10frameworks13cameraservice6device19CaptureMetadataInfoEE6$valueE",
   "size" : 4,
   "source_file" : "frameworks/native/libs/binder/ndk/include_cpp/android/binder_to_string.h",
   "underlying_type" : "_ZTIj"
  },
  {
   "alignment" : 4,
   "enum_fields" :
   [
    {
     "enum_field_value" : 0,
     "name" : "android::internal::details::IsPointerLike<aidl::android::frameworks::cameraservice::device::OutputConfiguration::Rotation>::value"
    }
   ],
   "linker_set_key" : "_ZTIN7android8internal7details13IsPointerLikeIN4aidl7android10frameworks13cameraservice6device19OutputConfiguration8RotationEE6$valueE",
   "name" : "android::internal::details::IsPointerLike<aidl::android::frameworks::cameraservice::device::OutputConfiguration::Rotation>::(unnamed)",
   "referenced_type" : "_ZTIN7android8internal7details13IsPointerLikeIN4aidl7android10frameworks13cameraservice6device19OutputConfiguration8RotationEE6$valueE",
   "self_type" : "_ZTIN7android8internal7details13IsPointerLikeIN4aidl7android10frameworks13cameraservice6device19OutputConfiguration8RotationEE6$valueE",
   "size" : 4,
   "source_file" : "frameworks/native/libs/binder/ndk/include_cpp/android/binder_to_string.h",
   "underlying_type" : "_ZTIj"
  },
  {
   "alignment" : 4,
   "enum_fields" :
   [
    {
     "enum_field_value" : 0,
     "name" : "android::internal::details::IsPointerLike<aidl::android::frameworks::cameraservice::device::OutputConfiguration>::value"
    }
   ],
   "linker_set_key" : "_ZTIN7android8internal7details13IsPointerLikeIN4aidl7android10frameworks13cameraservice6device19OutputConfigurationEE6$valueE",
   "name" : "android::internal::details::IsPointerLike<aidl::android::frameworks::cameraservice::device::OutputConfiguration>::(unnamed)",
   "referenced_type" : "_ZTIN7android8internal7details13IsPointerLikeIN4aidl7android10frameworks13cameraservice6device19OutputConfigurationEE6$valueE",
   "self_type" : "_ZTIN7android8internal7details13IsPointerLikeIN4aidl7android10frameworks13cameraservice6device19OutputConfigurationEE6$valueE",
   "size" : 4,
   "source_file" : "frameworks/native/libs/binder/ndk/include_cpp/android/binder_to_string.h",
   "underlying_type" : "_ZTIj"
  },
  {
   "alignment" : 4,
   "enum_fields" :
   [
    {
     "enum_field_value" : 0,
     "name" : "android::internal::details::IsPointerLike<aidl::android::frameworks::cameraservice::device::PhysicalCameraSettings>::value"
    }
   ],
   "linker_set_key" : "_ZTIN7android8internal7details13IsPointerLikeIN4aidl7android10frameworks13cameraservice6device22PhysicalCameraSettingsEE6$valueE",
   "name" : "android::internal::details::IsPointerLike<aidl::android::frameworks::cameraservice::device::PhysicalCameraSettings>::(unnamed)",
   "referenced_type" : "_ZTIN7android8internal7details13IsPointerLikeIN4aidl7android10frameworks13cameraservice6device22PhysicalCameraSettingsEE6$valueE",
   "self_type" : "_ZTIN7android8internal7details13IsPointerLikeIN4aidl7android10frameworks13cameraservice6device22PhysicalCameraSettingsEE6$valueE",
   "size" : 4,
   "source_file" : "frameworks/native/libs/binder/ndk/include_cpp/android/binder_to_string.h",
   "underlying_type" : "_ZTIj"
  },
  {
   "alignment" : 4,
   "enum_fields" :
   [
    {
     "enum_field_value" : 0,
     "name" : "android::internal::details::IsPointerLike<aidl::android::frameworks::cameraservice::device::StreamConfigurationMode>::value"
    }
   ],
   "linker_set_key" : "_ZTIN7android8internal7details13IsPointerLikeIN4aidl7android10frameworks13cameraservice6device23StreamConfigurationModeEE6$valueE",
   "name" : "android::internal::details::IsPointerLike<aidl::android::frameworks::cameraservice::device::StreamConfigurationMode>::(unnamed)",
   "referenced_type" : "_ZTIN7android8internal7details13IsPointerLikeIN4aidl7android10frameworks13cameraservice6device23StreamConfigurationModeEE6$valueE",
   "self_type" : "_ZTIN7android8internal7details13IsPointerLikeIN4aidl7android10frameworks13cameraservice6device23StreamConfigurationModeEE6$valueE",
   "size" : 4,
   "source_file" : "frameworks/native/libs/binder/ndk/include_cpp/android/binder_to_string.h",
   "underlying_type" : "_ZTIj"
  },
  {
   "alignment" : 4,
   "enum_fields" :
   [
    {
     "enum_field_value" : 0,
     "name" : "android::internal::details::IsPointerLike<aidl::android::hardware::common::NativeHandle>::value"
    }
   ],
   "linker_set_key" : "_ZTIN7android8internal7details13IsPointerLikeIN4aidl7android8hardware6common12NativeHandleEE6$valueE",
   "name" : "android::internal::details::IsPointerLike<aidl::android::hardware::common::NativeHandle>::(unnamed)",
   "referenced_type" : "_ZTIN7android8internal7details13IsPointerLikeIN4aidl7android8hardware6common12NativeHandleEE6$valueE",
   "self_type" : "_ZTIN7android8internal7details13IsPointerLikeIN4aidl7android8hardware6common12NativeHandleEE6$valueE",
   "size" : 4,
   "source_file" : "frameworks/native/libs/binder/ndk/include_cpp/android/binder_to_string.h",
   "underlying_type" : "_ZTIj"
  },
  {
   "alignment" : 4,
   "enum_fields" :
   [
    {
     "enum_field_value" : 0,
     "name" : "android::internal::details::IsPointerLike<std::vector<ndk::ScopedFileDescriptor>>::value"
    }
   ],
   "linker_set_key" : "_ZTIN7android8internal7details13IsPointerLikeINSt3__16vectorIN3ndk20ScopedFileDescriptorENS3_9allocatorIS6_EEEEE6$valueE",
   "name" : "android::internal::details::IsPointerLike<std::vector<ndk::ScopedFileDescriptor, std::allocator<ndk::ScopedFileDescriptor>>>::(unnamed)",
   "referenced_type" : "_ZTIN7android8internal7details13IsPointerLikeINSt3__16vectorIN3ndk20ScopedFileDescriptorENS3_9allocatorIS6_EEEEE6$valueE",
   "self_type" : "_ZTIN7android8internal7details13IsPointerLikeINSt3__16vectorIN3ndk20ScopedFileDescriptorENS3_9allocatorIS6_EEEEE6$valueE",
   "size" : 4,
   "source_file" : "frameworks/native/libs/binder/ndk/include_cpp/android/binder_to_string.h",
   "underlying_type" : "_ZTIj"
  },
  {
   "alignment" : 4,
   "enum_fields" :
   [
    {
     "enum_field_value" : 0,
     "name" : "android::internal::details::IsPointerLike<std::vector<aidl::android::frameworks::cameraservice::device::StreamAndWindowId>>::value"
    }
   ],
   "linker_set_key" : "_ZTIN7android8internal7details13IsPointerLikeINSt3__16vectorIN4aidl7android10frameworks13cameraservice6device17StreamAndWindowIdENS3_9allocatorISA_EEEEE6$valueE",
   "name" : "android::internal::details::IsPointerLike<std::vector<aidl::android::frameworks::cameraservice::device::StreamAndWindowId, std::allocator<aidl::android::frameworks::cameraservice::device::StreamAndWindowId>>>::(unnamed)",
   "referenced_type" : "_ZTIN7android8internal7details13IsPointerLikeINSt3__16vectorIN4aidl7android10frameworks13cameraservice6device17StreamAndWindowIdENS3_9allocatorISA_EEEEE6$valueE",
   "self_type" : "_ZTIN7android8internal7details13IsPointerLikeINSt3__16vectorIN4aidl7android10frameworks13cameraservice6device17StreamAndWindowIdENS3_9allocatorISA_EEEEE6$valueE",
   "size" : 4,
   "source_file" : "frameworks/native/libs/binder/ndk/include_cpp/android/binder_to_string.h",
   "underlying_type" : "_ZTIj"
  },
  {
   "alignment" : 4,
   "enum_fields" :
   [
    {
     "enum_field_value" : 0,
     "name" : "android::internal::details::IsPointerLike<std::vector<aidl::android::frameworks::cameraservice::device::OutputConfiguration>>::value"
    }
   ],
   "linker_set_key" : "_ZTIN7android8internal7details13IsPointerLikeINSt3__16vectorIN4aidl7android10frameworks13cameraservice6device19OutputConfigurationENS3_9allocatorISA_EEEEE6$valueE",
   "name" : "android::internal::details::IsPointerLike<std::vector<aidl::android::frameworks::cameraservice::device::OutputConfiguration, std::allocator<aidl::android::frameworks::cameraservice::device::OutputConfiguration>>>::(unnamed)",
   "referenced_type" : "_ZTIN7android8internal7details13IsPointerLikeINSt3__16vectorIN4aidl7android10frameworks13cameraservice6device19OutputConfigurationENS3_9allocatorISA_EEEEE6$valueE",
   "self_type" : "_ZTIN7android8internal7details13IsPointerLikeINSt3__16vectorIN4aidl7android10frameworks13cameraservice6device19OutputConfigurationENS3_9allocatorISA_EEEEE6$valueE",
   "size" : 4,
   "source_file" : "frameworks/native/libs/binder/ndk/include_cpp/android/binder_to_string.h",
   "underlying_type" : "_ZTIj"
  },
  {
   "alignment" : 4,
   "enum_fields" :
   [
    {
     "enum_field_value" : 0,
     "name" : "android::internal::details::IsPointerLike<std::vector<aidl::android::frameworks::cameraservice::device::PhysicalCameraSettings>>::value"
    }
   ],
   "linker_set_key" : "_ZTIN7android8internal7details13IsPointerLikeINSt3__16vectorIN4aidl7android10frameworks13cameraservice6device22PhysicalCameraSettingsENS3_9allocatorISA_EEEEE6$valueE",
   "name" : "android::internal::details::IsPointerLike<std::vector<aidl::android::frameworks::cameraservice::device::PhysicalCameraSettings, std::allocator<aidl::android::frameworks::cameraservice::device::PhysicalCameraSettings>>>::(unnamed)",
   "referenced_type" : "_ZTIN7android8internal7details13IsPointerLikeINSt3__16vectorIN4aidl7android10frameworks13cameraservice6device22PhysicalCameraSettingsENS3_9allocatorISA_EEEEE6$valueE",
   "self_type" : "_ZTIN7android8internal7details13IsPointerLikeINSt3__16vectorIN4aidl7android10frameworks13cameraservice6device22PhysicalCameraSettingsENS3_9allocatorISA_EEEEE6$valueE",
   "size" : 4,
   "source_file" : "frameworks/native/libs/binder/ndk/include_cpp/android/binder_to_string.h",
   "underlying_type" : "_ZTIj"
  },
  {
   "alignment" : 4,
   "enum_fields" :
   [
    {
     "enum_field_value" : 0,
     "name" : "android::internal::details::IsPointerLike<std::vector<aidl::android::hardware::common::NativeHandle>>::value"
    }
   ],
   "linker_set_key" : "_ZTIN7android8internal7details13IsPointerLikeINSt3__16vectorIN4aidl7android8hardware6common12NativeHandleENS3_9allocatorIS9_EEEEE6$valueE",
   "name" : "android::internal::details::IsPointerLike<std::vector<aidl::android::hardware::common::NativeHandle, std::allocator<aidl::android::hardware::common::NativeHandle>>>::(unnamed)",
   "referenced_type" : "_ZTIN7android8internal7details13IsPointerLikeINSt3__16vectorIN4aidl7android8hardware6common12NativeHandleENS3_9allocatorIS9_EEEEE6$valueE",
   "self_type" : "_ZTIN7android8internal7details13IsPointerLikeINSt3__16vectorIN4aidl7android8hardware6common12NativeHandleENS3_9allocatorIS9_EEEEE6$valueE",
   "size" : 4,
   "source_file" : "frameworks/native/libs/binder/ndk/include_cpp/android/binder_to_string.h",
   "underlying_type" : "_ZTIj"
  },
  {
   "alignment" : 4,
   "enum_fields" :
   [
    {
     "enum_field_value" : 0,
     "name" : "android::internal::details::IsPointerLike<std::vector<unsigned char>>::value"
    }
   ],
   "linker_set_key" : "_ZTIN7android8internal7details13IsPointerLikeINSt3__16vectorIhNS3_9allocatorIhEEEEE6$valueE",
   "name" : "android::internal::details::IsPointerLike<std::vector<unsigned char, std::allocator<unsigned char>>>::(unnamed)",
   "referenced_type" : "_ZTIN7android8internal7details13IsPointerLikeINSt3__16vectorIhNS3_9allocatorIhEEEEE6$valueE",
   "self_type" : "_ZTIN7android8internal7details13IsPointerLikeINSt3__16vectorIhNS3_9allocatorIhEEEEE6$valueE",
   "size" : 4,
   "source_file" : "frameworks/native/libs/binder/ndk/include_cpp/android/binder_to_string.h",
   "underlying_type" : "_ZTIj"
  },
  {
   "alignment" : 4,
   "enum_fields" :
   [
    {
     "enum_field_value" : 0,
     "name" : "android::internal::details::IsPointerLike<std::vector<int>>::value"
    }
   ],
   "linker_set_key" : "_ZTIN7android8internal7details13IsPointerLikeINSt3__16vectorIiNS3_9allocatorIiEEEEE6$valueE",
   "name" : "android::internal::details::IsPointerLike<std::vector<int, std::allocator<int>>>::(unnamed)",
   "referenced_type" : "_ZTIN7android8internal7details13IsPointerLikeINSt3__16vectorIiNS3_9allocatorIiEEEEE6$valueE",
   "self_type" : "_ZTIN7android8internal7details13IsPointerLikeINSt3__16vectorIiNS3_9allocatorIiEEEEE6$valueE",
   "size" : 4,
   "source_file" : "frameworks/native/libs/binder/ndk/include_cpp/android/binder_to_string.h",
   "underlying_type" : "_ZTIj"
  },
  {
   "alignment" : 4,
   "enum_fields" :
   [
    {
     "enum_field_value" : 1,
     "name" : "android::internal::details::HasToStringMethod<aidl::android::frameworks::cameraservice::device::CameraMetadata>::value"
    }
   ],
   "linker_set_key" : "_ZTIN7android8internal7details17HasToStringMethodIN4aidl7android10frameworks13cameraservice6device14CameraMetadataEE6$valueE",
   "name" : "android::internal::details::HasToStringMethod<aidl::android::frameworks::cameraservice::device::CameraMetadata>::(unnamed)",
   "referenced_type" : "_ZTIN7android8internal7details17HasToStringMethodIN4aidl7android10frameworks13cameraservice6device14CameraMetadataEE6$valueE",
   "self_type" : "_ZTIN7android8internal7details17HasToStringMethodIN4aidl7android10frameworks13cameraservice6device14CameraMetadataEE6$valueE",
   "size" : 4,
   "source_file" : "frameworks/native/libs/binder/ndk/include_cpp/android/binder_to_string.h",
   "underlying_type" : "_ZTIj"
  },
  {
   "alignment" : 4,
   "enum_fields" :
   [
    {
     "enum_field_value" : 1,
     "name" : "android::internal::details::HasToStringMethod<aidl::android::frameworks::cameraservice::device::StreamAndWindowId>::value"
    }
   ],
   "linker_set_key" : "_ZTIN7android8internal7details17HasToStringMethodIN4aidl7android10frameworks13cameraservice6device17StreamAndWindowIdEE6$valueE",
   "name" : "android::internal::details::HasToStringMethod<aidl::android::frameworks::cameraservice::device::StreamAndWindowId>::(unnamed)",
   "referenced_type" : "_ZTIN7android8internal7details17HasToStringMethodIN4aidl7android10frameworks13cameraservice6device17StreamAndWindowIdEE6$valueE",
   "self_type" : "_ZTIN7android8internal7details17HasToStringMethodIN4aidl7android10frameworks13cameraservice6device17StreamAndWindowIdEE6$valueE",
   "size" : 4,
   "source_file" : "frameworks/native/libs/binder/ndk/include_cpp/android/binder_to_string.h",
   "underlying_type" : "_ZTIj"
  },
  {
   "alignment" : 4,
   "enum_fields" :
   [
    {
     "enum_field_value" : 1,
     "name" : "android::internal::details::HasToStringMethod<aidl::android::frameworks::cameraservice::device::CaptureMetadataInfo>::value"
    }
   ],
   "linker_set_key" : "_ZTIN7android8internal7details17HasToStringMethodIN4aidl7android10frameworks13cameraservice6device19CaptureMetadataInfoEE6$valueE",
   "name" : "android::internal::details::HasToStringMethod<aidl::android::frameworks::cameraservice::device::CaptureMetadataInfo>::(unnamed)",
   "referenced_type" : "_ZTIN7android8internal7details17HasToStringMethodIN4aidl7android10frameworks13cameraservice6device19CaptureMetadataInfoEE6$valueE",
   "self_type" : "_ZTIN7android8internal7details17HasToStringMethodIN4aidl7android10frameworks13cameraservice6device19CaptureMetadataInfoEE6$valueE",
   "size" : 4,
   "source_file" : "frameworks/native/libs/binder/ndk/include_cpp/android/binder_to_string.h",
   "underlying_type" : "_ZTIj"
  },
  {
   "alignment" : 4,
   "enum_fields" :
   [
    {
     "enum_field_value" : 0,
     "name" : "android::internal::details::HasToStringMethod<aidl::android::frameworks::cameraservice::device::OutputConfiguration::Rotation>::value"
    }
   ],
   "linker_set_key" : "_ZTIN7android8internal7details17HasToStringMethodIN4aidl7android10frameworks13cameraservice6device19OutputConfiguration8RotationEE6$valueE",
   "name" : "android::internal::details::HasToStringMethod<aidl::android::frameworks::cameraservice::device::OutputConfiguration::Rotation>::(unnamed)",
   "referenced_type" : "_ZTIN7android8internal7details17HasToStringMethodIN4aidl7android10frameworks13cameraservice6device19OutputConfiguration8RotationEE6$valueE",
   "self_type" : "_ZTIN7android8internal7details17HasToStringMethodIN4aidl7android10frameworks13cameraservice6device19OutputConfiguration8RotationEE6$valueE",
   "size" : 4,
   "source_file" : "frameworks/native/libs/binder/ndk/include_cpp/android/binder_to_string.h",
   "underlying_type" : "_ZTIj"
  },
  {
   "alignment" : 4,
   "enum_fields" :
   [
    {
     "enum_field_value" : 1,
     "name" : "android::internal::details::HasToStringMethod<aidl::android::frameworks::cameraservice::device::OutputConfiguration>::value"
    }
   ],
   "linker_set_key" : "_ZTIN7android8internal7details17HasToStringMethodIN4aidl7android10frameworks13cameraservice6device19OutputConfigurationEE6$valueE",
   "name" : "android::internal::details::HasToStringMethod<aidl::android::frameworks::cameraservice::device::OutputConfiguration>::(unnamed)",
   "referenced_type" : "_ZTIN7android8internal7details17HasToStringMethodIN4aidl7android10frameworks13cameraservice6device19OutputConfigurationEE6$valueE",
   "self_type" : "_ZTIN7android8internal7details17HasToStringMethodIN4aidl7android10frameworks13cameraservice6device19OutputConfigurationEE6$valueE",
   "size" : 4,
   "source_file" : "frameworks/native/libs/binder/ndk/include_cpp/android/binder_to_string.h",
   "underlying_type" : "_ZTIj"
  },
  {
   "alignment" : 4,
   "enum_fields" :
   [
    {
     "enum_field_value" : 1,
     "name" : "android::internal::details::HasToStringMethod<aidl::android::frameworks::cameraservice::device::PhysicalCameraSettings>::value"
    }
   ],
   "linker_set_key" : "_ZTIN7android8internal7details17HasToStringMethodIN4aidl7android10frameworks13cameraservice6device22PhysicalCameraSettingsEE6$valueE",
   "name" : "android::internal::details::HasToStringMethod<aidl::android::frameworks::cameraservice::device::PhysicalCameraSettings>::(unnamed)",
   "referenced_type" : "_ZTIN7android8internal7details17HasToStringMethodIN4aidl7android10frameworks13cameraservice6device22PhysicalCameraSettingsEE6$valueE",
   "self_type" : "_ZTIN7android8internal7details17HasToStringMethodIN4aidl7android10frameworks13cameraservice6device22PhysicalCameraSettingsEE6$valueE",
   "size" : 4,
   "source_file" : "frameworks/native/libs/binder/ndk/include_cpp/android/binder_to_string.h",
   "underlying_type" : "_ZTIj"
  },
  {
   "alignment" : 4,
   "enum_fields" :
   [
    {
     "enum_field_value" : 0,
     "name" : "android::internal::details::HasToStringMethod<aidl::android::frameworks::cameraservice::device::StreamConfigurationMode>::value"
    }
   ],
   "linker_set_key" : "_ZTIN7android8internal7details17HasToStringMethodIN4aidl7android10frameworks13cameraservice6device23StreamConfigurationModeEE6$valueE",
   "name" : "android::internal::details::HasToStringMethod<aidl::android::frameworks::cameraservice::device::StreamConfigurationMode>::(unnamed)",
   "referenced_type" : "_ZTIN7android8internal7details17HasToStringMethodIN4aidl7android10frameworks13cameraservice6device23StreamConfigurationModeEE6$valueE",
   "self_type" : "_ZTIN7android8internal7details17HasToStringMethodIN4aidl7android10frameworks13cameraservice6device23StreamConfigurationModeEE6$valueE",
   "size" : 4,
   "source_file" : "frameworks/native/libs/binder/ndk/include_cpp/android/binder_to_string.h",
   "underlying_type" : "_ZTIj"
  },
  {
   "alignment" : 4,
   "enum_fields" :
   [
    {
     "enum_field_value" : 1,
     "name" : "android::internal::details::HasToStringMethod<aidl::android::hardware::common::NativeHandle>::value"
    }
   ],
   "linker_set_key" : "_ZTIN7android8internal7details17HasToStringMethodIN4aidl7android8hardware6common12NativeHandleEE6$valueE",
   "name" : "android::internal::details::HasToStringMethod<aidl::android::hardware::common::NativeHandle>::(unnamed)",
   "referenced_type" : "_ZTIN7android8internal7details17HasToStringMethodIN4aidl7android8hardware6common12NativeHandleEE6$valueE",
   "self_type" : "_ZTIN7android8internal7details17HasToStringMethodIN4aidl7android8hardware6common12NativeHandleEE6$valueE",
   "size" : 4,
   "source_file" : "frameworks/native/libs/binder/ndk/include_cpp/android/binder_to_string.h",
   "underlying_type" : "_ZTIj"
  },
  {
   "alignment" : 4,
   "enum_fields" :
   [
    {
     "enum_field_value" : 0,
     "name" : "android::internal::details::HasToStringMethod<std::vector<ndk::ScopedFileDescriptor>>::value"
    }
   ],
   "linker_set_key" : "_ZTIN7android8internal7details17HasToStringMethodINSt3__16vectorIN3ndk20ScopedFileDescriptorENS3_9allocatorIS6_EEEEE6$valueE",
   "name" : "android::internal::details::HasToStringMethod<std::vector<ndk::ScopedFileDescriptor, std::allocator<ndk::ScopedFileDescriptor>>>::(unnamed)",
   "referenced_type" : "_ZTIN7android8internal7details17HasToStringMethodINSt3__16vectorIN3ndk20ScopedFileDescriptorENS3_9allocatorIS6_EEEEE6$valueE",
   "self_type" : "_ZTIN7android8internal7details17HasToStringMethodINSt3__16vectorIN3ndk20ScopedFileDescriptorENS3_9allocatorIS6_EEEEE6$valueE",
   "size" : 4,
   "source_file" : "frameworks/native/libs/binder/ndk/include_cpp/android/binder_to_string.h",
   "underlying_type" : "_ZTIj"
  },
  {
   "alignment" : 4,
   "enum_fields" :
   [
    {
     "enum_field_value" : 0,
     "name" : "android::internal::details::HasToStringMethod<std::vector<aidl::android::frameworks::cameraservice::device::StreamAndWindowId>>::value"
    }
   ],
   "linker_set_key" : "_ZTIN7android8internal7details17HasToStringMethodINSt3__16vectorIN4aidl7android10frameworks13cameraservice6device17StreamAndWindowIdENS3_9allocatorISA_EEEEE6$valueE",
   "name" : "android::internal::details::HasToStringMethod<std::vector<aidl::android::frameworks::cameraservice::device::StreamAndWindowId, std::allocator<aidl::android::frameworks::cameraservice::device::StreamAndWindowId>>>::(unnamed)",
   "referenced_type" : "_ZTIN7android8internal7details17HasToStringMethodINSt3__16vectorIN4aidl7android10frameworks13cameraservice6device17StreamAndWindowIdENS3_9allocatorISA_EEEEE6$valueE",
   "self_type" : "_ZTIN7android8internal7details17HasToStringMethodINSt3__16vectorIN4aidl7android10frameworks13cameraservice6device17StreamAndWindowIdENS3_9allocatorISA_EEEEE6$valueE",
   "size" : 4,
   "source_file" : "frameworks/native/libs/binder/ndk/include_cpp/android/binder_to_string.h",
   "underlying_type" : "_ZTIj"
  },
  {
   "alignment" : 4,
   "enum_fields" :
   [
    {
     "enum_field_value" : 0,
     "name" : "android::internal::details::HasToStringMethod<std::vector<aidl::android::frameworks::cameraservice::device::OutputConfiguration>>::value"
    }
   ],
   "linker_set_key" : "_ZTIN7android8internal7details17HasToStringMethodINSt3__16vectorIN4aidl7android10frameworks13cameraservice6device19OutputConfigurationENS3_9allocatorISA_EEEEE6$valueE",
   "name" : "android::internal::details::HasToStringMethod<std::vector<aidl::android::frameworks::cameraservice::device::OutputConfiguration, std::allocator<aidl::android::frameworks::cameraservice::device::OutputConfiguration>>>::(unnamed)",
   "referenced_type" : "_ZTIN7android8internal7details17HasToStringMethodINSt3__16vectorIN4aidl7android10frameworks13cameraservice6device19OutputConfigurationENS3_9allocatorISA_EEEEE6$valueE",
   "self_type" : "_ZTIN7android8internal7details17HasToStringMethodINSt3__16vectorIN4aidl7android10frameworks13cameraservice6device19OutputConfigurationENS3_9allocatorISA_EEEEE6$valueE",
   "size" : 4,
   "source_file" : "frameworks/native/libs/binder/ndk/include_cpp/android/binder_to_string.h",
   "underlying_type" : "_ZTIj"
  },
  {
   "alignment" : 4,
   "enum_fields" :
   [
    {
     "enum_field_value" : 0,
     "name" : "android::internal::details::HasToStringMethod<std::vector<aidl::android::frameworks::cameraservice::device::PhysicalCameraSettings>>::value"
    }
   ],
   "linker_set_key" : "_ZTIN7android8internal7details17HasToStringMethodINSt3__16vectorIN4aidl7android10frameworks13cameraservice6device22PhysicalCameraSettingsENS3_9allocatorISA_EEEEE6$valueE",
   "name" : "android::internal::details::HasToStringMethod<std::vector<aidl::android::frameworks::cameraservice::device::PhysicalCameraSettings, std::allocator<aidl::android::frameworks::cameraservice::device::PhysicalCameraSettings>>>::(unnamed)",
   "referenced_type" : "_ZTIN7android8internal7details17HasToStringMethodINSt3__16vectorIN4aidl7android10frameworks13cameraservice6device22PhysicalCameraSettingsENS3_9allocatorISA_EEEEE6$valueE",
   "self_type" : "_ZTIN7android8internal7details17HasToStringMethodINSt3__16vectorIN4aidl7android10frameworks13cameraservice6device22PhysicalCameraSettingsENS3_9allocatorISA_EEEEE6$valueE",
   "size" : 4,
   "source_file" : "frameworks/native/libs/binder/ndk/include_cpp/android/binder_to_string.h",
   "underlying_type" : "_ZTIj"
  },
  {
   "alignment" : 4,
   "enum_fields" :
   [
    {
     "enum_field_value" : 0,
     "name" : "android::internal::details::HasToStringMethod<std::vector<aidl::android::hardware::common::NativeHandle>>::value"
    }
   ],
   "linker_set_key" : "_ZTIN7android8internal7details17HasToStringMethodINSt3__16vectorIN4aidl7android8hardware6common12NativeHandleENS3_9allocatorIS9_EEEEE6$valueE",
   "name" : "android::internal::details::HasToStringMethod<std::vector<aidl::android::hardware::common::NativeHandle, std::allocator<aidl::android::hardware::common::NativeHandle>>>::(unnamed)",
   "referenced_type" : "_ZTIN7android8internal7details17HasToStringMethodINSt3__16vectorIN4aidl7android8hardware6common12NativeHandleENS3_9allocatorIS9_EEEEE6$valueE",
   "self_type" : "_ZTIN7android8internal7details17HasToStringMethodINSt3__16vectorIN4aidl7android8hardware6common12NativeHandleENS3_9allocatorIS9_EEEEE6$valueE",
   "size" : 4,
   "source_file" : "frameworks/native/libs/binder/ndk/include_cpp/android/binder_to_string.h",
   "underlying_type" : "_ZTIj"
  },
  {
   "alignment" : 4,
   "enum_fields" :
   [
    {
     "enum_field_value" : 0,
     "name" : "android::internal::details::HasToStringMethod<std::vector<unsigned char>>::value"
    }
   ],
   "linker_set_key" : "_ZTIN7android8internal7details17HasToStringMethodINSt3__16vectorIhNS3_9allocatorIhEEEEE6$valueE",
   "name" : "android::internal::details::HasToStringMethod<std::vector<unsigned char, std::allocator<unsigned char>>>::(unnamed)",
   "referenced_type" : "_ZTIN7android8internal7details17HasToStringMethodINSt3__16vectorIhNS3_9allocatorIhEEEEE6$valueE",
   "self_type" : "_ZTIN7android8internal7details17HasToStringMethodINSt3__16vectorIhNS3_9allocatorIhEEEEE6$valueE",
   "size" : 4,
   "source_file" : "frameworks/native/libs/binder/ndk/include_cpp/android/binder_to_string.h",
   "underlying_type" : "_ZTIj"
  },
  {
   "alignment" : 4,
   "enum_fields" :
   [
    {
     "enum_field_value" : 0,
     "name" : "android::internal::details::HasToStringMethod<std::vector<int>>::value"
    }
   ],
   "linker_set_key" : "_ZTIN7android8internal7details17HasToStringMethodINSt3__16vectorIiNS3_9allocatorIiEEEEE6$valueE",
   "name" : "android::internal::details::HasToStringMethod<std::vector<int, std::allocator<int>>>::(unnamed)",
   "referenced_type" : "_ZTIN7android8internal7details17HasToStringMethodINSt3__16vectorIiNS3_9allocatorIiEEEEE6$valueE",
   "self_type" : "_ZTIN7android8internal7details17HasToStringMethodINSt3__16vectorIiNS3_9allocatorIiEEEEE6$valueE",
   "size" : 4,
   "source_file" : "frameworks/native/libs/binder/ndk/include_cpp/android/binder_to_string.h",
   "underlying_type" : "_ZTIj"
  },
  {
   "alignment" : 4,
   "enum_fields" :
   [
    {
     "enum_field_value" : 1,
     "name" : "android::internal::details::HasToStringFunction<aidl::android::frameworks::cameraservice::device::OutputConfiguration::Rotation>::value"
    }
   ],
   "linker_set_key" : "_ZTIN7android8internal7details19HasToStringFunctionIN4aidl7android10frameworks13cameraservice6device19OutputConfiguration8RotationEE6$valueE",
   "name" : "android::internal::details::HasToStringFunction<aidl::android::frameworks::cameraservice::device::OutputConfiguration::Rotation>::(unnamed)",
   "referenced_type" : "_ZTIN7android8internal7details19HasToStringFunctionIN4aidl7android10frameworks13cameraservice6device19OutputConfiguration8RotationEE6$valueE",
   "self_type" : "_ZTIN7android8internal7details19HasToStringFunctionIN4aidl7android10frameworks13cameraservice6device19OutputConfiguration8RotationEE6$valueE",
   "size" : 4,
   "source_file" : "frameworks/native/libs/binder/ndk/include_cpp/android/binder_to_string.h",
   "underlying_type" : "_ZTIj"
  },
  {
   "alignment" : 4,
   "enum_fields" :
   [
    {
     "enum_field_value" : 1,
     "name" : "android::internal::details::HasToStringFunction<aidl::android::frameworks::cameraservice::device::StreamConfigurationMode>::value"
    }
   ],
   "linker_set_key" : "_ZTIN7android8internal7details19HasToStringFunctionIN4aidl7android10frameworks13cameraservice6device23StreamConfigurationModeEE6$valueE",
   "name" : "android::internal::details::HasToStringFunction<aidl::android::frameworks::cameraservice::device::StreamConfigurationMode>::(unnamed)",
   "referenced_type" : "_ZTIN7android8internal7details19HasToStringFunctionIN4aidl7android10frameworks13cameraservice6device23StreamConfigurationModeEE6$valueE",
   "self_type" : "_ZTIN7android8internal7details19HasToStringFunctionIN4aidl7android10frameworks13cameraservice6device23StreamConfigurationModeEE6$valueE",
   "size" : 4,
   "source_file" : "frameworks/native/libs/binder/ndk/include_cpp/android/binder_to_string.h",
   "underlying_type" : "_ZTIj"
  },
  {
   "alignment" : 4,
   "enum_fields" :
   [
    {
     "enum_field_value" : 0,
     "name" : "android::internal::details::HasToStringFunction<std::vector<ndk::ScopedFileDescriptor>>::value"
    }
   ],
   "linker_set_key" : "_ZTIN7android8internal7details19HasToStringFunctionINSt3__16vectorIN3ndk20ScopedFileDescriptorENS3_9allocatorIS6_EEEEE6$valueE",
   "name" : "android::internal::details::HasToStringFunction<std::vector<ndk::ScopedFileDescriptor, std::allocator<ndk::ScopedFileDescriptor>>>::(unnamed)",
   "referenced_type" : "_ZTIN7android8internal7details19HasToStringFunctionINSt3__16vectorIN3ndk20ScopedFileDescriptorENS3_9allocatorIS6_EEEEE6$valueE",
   "self_type" : "_ZTIN7android8internal7details19HasToStringFunctionINSt3__16vectorIN3ndk20ScopedFileDescriptorENS3_9allocatorIS6_EEEEE6$valueE",
   "size" : 4,
   "source_file" : "frameworks/native/libs/binder/ndk/include_cpp/android/binder_to_string.h",
   "underlying_type" : "_ZTIj"
  },
  {
   "alignment" : 4,
   "enum_fields" :
   [
    {
     "enum_field_value" : 0,
     "name" : "android::internal::details::HasToStringFunction<std::vector<aidl::android::frameworks::cameraservice::device::StreamAndWindowId>>::value"
    }
   ],
   "linker_set_key" : "_ZTIN7android8internal7details19HasToStringFunctionINSt3__16vectorIN4aidl7android10frameworks13cameraservice6device17StreamAndWindowIdENS3_9allocatorISA_EEEEE6$valueE",
   "name" : "android::internal::details::HasToStringFunction<std::vector<aidl::android::frameworks::cameraservice::device::StreamAndWindowId, std::allocator<aidl::android::frameworks::cameraservice::device::StreamAndWindowId>>>::(unnamed)",
   "referenced_type" : "_ZTIN7android8internal7details19HasToStringFunctionINSt3__16vectorIN4aidl7android10frameworks13cameraservice6device17StreamAndWindowIdENS3_9allocatorISA_EEEEE6$valueE",
   "self_type" : "_ZTIN7android8internal7details19HasToStringFunctionINSt3__16vectorIN4aidl7android10frameworks13cameraservice6device17StreamAndWindowIdENS3_9allocatorISA_EEEEE6$valueE",
   "size" : 4,
   "source_file" : "frameworks/native/libs/binder/ndk/include_cpp/android/binder_to_string.h",
   "underlying_type" : "_ZTIj"
  },
  {
   "alignment" : 4,
   "enum_fields" :
   [
    {
     "enum_field_value" : 0,
     "name" : "android::internal::details::HasToStringFunction<std::vector<aidl::android::frameworks::cameraservice::device::OutputConfiguration>>::value"
    }
   ],
   "linker_set_key" : "_ZTIN7android8internal7details19HasToStringFunctionINSt3__16vectorIN4aidl7android10frameworks13cameraservice6device19OutputConfigurationENS3_9allocatorISA_EEEEE6$valueE",
   "name" : "android::internal::details::HasToStringFunction<std::vector<aidl::android::frameworks::cameraservice::device::OutputConfiguration, std::allocator<aidl::android::frameworks::cameraservice::device::OutputConfiguration>>>::(unnamed)",
   "referenced_type" : "_ZTIN7android8internal7details19HasToStringFunctionINSt3__16vectorIN4aidl7android10frameworks13cameraservice6device19OutputConfigurationENS3_9allocatorISA_EEEEE6$valueE",
   "self_type" : "_ZTIN7android8internal7details19HasToStringFunctionINSt3__16vectorIN4aidl7android10frameworks13cameraservice6device19OutputConfigurationENS3_9allocatorISA_EEEEE6$valueE",
   "size" : 4,
   "source_file" : "frameworks/native/libs/binder/ndk/include_cpp/android/binder_to_string.h",
   "underlying_type" : "_ZTIj"
  },
  {
   "alignment" : 4,
   "enum_fields" :
   [
    {
     "enum_field_value" : 0,
     "name" : "android::internal::details::HasToStringFunction<std::vector<aidl::android::frameworks::cameraservice::device::PhysicalCameraSettings>>::value"
    }
   ],
   "linker_set_key" : "_ZTIN7android8internal7details19HasToStringFunctionINSt3__16vectorIN4aidl7android10frameworks13cameraservice6device22PhysicalCameraSettingsENS3_9allocatorISA_EEEEE6$valueE",
   "name" : "android::internal::details::HasToStringFunction<std::vector<aidl::android::frameworks::cameraservice::device::PhysicalCameraSettings, std::allocator<aidl::android::frameworks::cameraservice::device::PhysicalCameraSettings>>>::(unnamed)",
   "referenced_type" : "_ZTIN7android8internal7details19HasToStringFunctionINSt3__16vectorIN4aidl7android10frameworks13cameraservice6device22PhysicalCameraSettingsENS3_9allocatorISA_EEEEE6$valueE",
   "self_type" : "_ZTIN7android8internal7details19HasToStringFunctionINSt3__16vectorIN4aidl7android10frameworks13cameraservice6device22PhysicalCameraSettingsENS3_9allocatorISA_EEEEE6$valueE",
   "size" : 4,
   "source_file" : "frameworks/native/libs/binder/ndk/include_cpp/android/binder_to_string.h",
   "underlying_type" : "_ZTIj"
  },
  {
   "alignment" : 4,
   "enum_fields" :
   [
    {
     "enum_field_value" : 0,
     "name" : "android::internal::details::HasToStringFunction<std::vector<aidl::android::hardware::common::NativeHandle>>::value"
    }
   ],
   "linker_set_key" : "_ZTIN7android8internal7details19HasToStringFunctionINSt3__16vectorIN4aidl7android8hardware6common12NativeHandleENS3_9allocatorIS9_EEEEE6$valueE",
   "name" : "android::internal::details::HasToStringFunction<std::vector<aidl::android::hardware::common::NativeHandle, std::allocator<aidl::android::hardware::common::NativeHandle>>>::(unnamed)",
   "referenced_type" : "_ZTIN7android8internal7details19HasToStringFunctionINSt3__16vectorIN4aidl7android8hardware6common12NativeHandleENS3_9allocatorIS9_EEEEE6$valueE",
   "self_type" : "_ZTIN7android8internal7details19HasToStringFunctionINSt3__16vectorIN4aidl7android8hardware6common12NativeHandleENS3_9allocatorIS9_EEEEE6$valueE",
   "size" : 4,
   "source_file" : "frameworks/native/libs/binder/ndk/include_cpp/android/binder_to_string.h",
   "underlying_type" : "_ZTIj"
  },
  {
   "alignment" : 4,
   "enum_fields" :
   [
    {
     "enum_field_value" : 0,
     "name" : "android::internal::details::HasToStringFunction<std::vector<unsigned char>>::value"
    }
   ],
   "linker_set_key" : "_ZTIN7android8internal7details19HasToStringFunctionINSt3__16vectorIhNS3_9allocatorIhEEEEE6$valueE",
   "name" : "android::internal::details::HasToStringFunction<std::vector<unsigned char, std::allocator<unsigned char>>>::(unnamed)",
   "referenced_type" : "_ZTIN7android8internal7details19HasToStringFunctionINSt3__16vectorIhNS3_9allocatorIhEEEEE6$valueE",
   "self_type" : "_ZTIN7android8internal7details19HasToStringFunctionINSt3__16vectorIhNS3_9allocatorIhEEEEE6$valueE",
   "size" : 4,
   "source_file" : "frameworks/native/libs/binder/ndk/include_cpp/android/binder_to_string.h",
   "underlying_type" : "_ZTIj"
  },
  {
   "alignment" : 4,
   "enum_fields" :
   [
    {
     "enum_field_value" : 0,
     "name" : "android::internal::details::HasToStringFunction<std::vector<int>>::value"
    }
   ],
   "linker_set_key" : "_ZTIN7android8internal7details19HasToStringFunctionINSt3__16vectorIiNS3_9allocatorIiEEEEE6$valueE",
   "name" : "android::internal::details::HasToStringFunction<std::vector<int, std::allocator<int>>>::(unnamed)",
   "referenced_type" : "_ZTIN7android8internal7details19HasToStringFunctionINSt3__16vectorIiNS3_9allocatorIiEEEEE6$valueE",
   "self_type" : "_ZTIN7android8internal7details19HasToStringFunctionINSt3__16vectorIiNS3_9allocatorIiEEEEE6$valueE",
   "size" : 4,
   "source_file" : "frameworks/native/libs/binder/ndk/include_cpp/android/binder_to_string.h",
   "underlying_type" : "_ZTIj"
  }
 ],
 "function_types" :
 [
  {
   "alignment" : 4,
   "linker_set_key" : "_ZTIFiP8AIBinderjPK7AParcelPS1_E",
   "name" : "int (AIBinder *, unsigned int, const AParcel *, AParcel *)",
   "parameters" :
   [
    {
     "referenced_type" : "_ZTIP8AIBinder"
    },
    {
     "referenced_type" : "_ZTIj"
    },
    {
     "referenced_type" : "_ZTIPK7AParcel"
    },
    {
     "referenced_type" : "_ZTIP7AParcel"
    }
   ],
   "referenced_type" : "_ZTIFiP8AIBinderjPK7AParcelPS1_E",
   "return_type" : "_ZTIi",
   "self_type" : "_ZTIFiP8AIBinderjPK7AParcelPS1_E",
   "source_file" : "frameworks/native/libs/binder/ndk/include_cpp/android/binder_interface_utils.h"
  }
 ],
 "functions" :
 [
  {
   "function_name" : "ndk::BnCInterface<aidl::android::frameworks::cameraservice::device::ICameraDeviceUser>::asBinder",
   "linker_set_key" : "_ZN3ndk12BnCInterfaceIN4aidl7android10frameworks13cameraservice6device17ICameraDeviceUserEE8asBinderEv",
   "parameters" :
   [
    {
     "is_this_ptr" : true,
     "referenced_type" : "_ZTIPN3ndk12BnCInterfaceIN4aidl7android10frameworks13cameraservice6device17ICameraDeviceUserEEE"
    }
   ],
   "return_type" : "_ZTIN3ndk10SpAIBinderE",
   "source_file" : "frameworks/native/libs/binder/ndk/include_cpp/android/binder_interface_utils.h"
  },
  {
   "function_name" : "ndk::BnCInterface<aidl::android::frameworks::cameraservice::device::ICameraDeviceCallback>::asBinder",
   "linker_set_key" : "_ZN3ndk12BnCInterfaceIN4aidl7android10frameworks13cameraservice6device21ICameraDeviceCallbackEE8asBinderEv",
   "parameters" :
   [
    {
     "is_this_ptr" : true,
     "referenced_type" : "_ZTIPN3ndk12BnCInterfaceIN4aidl7android10frameworks13cameraservice6device21ICameraDeviceCallbackEEE"
    }
   ],
   "return_type" : "_ZTIN3ndk10SpAIBinderE",
   "source_file" : "frameworks/native/libs/binder/ndk/include_cpp/android/binder_interface_utils.h"
  },
  {
   "function_name" : "ndk::BpCInterface<aidl::android::frameworks::cameraservice::device::ICameraDeviceUser>::asBinder",
   "linker_set_key" : "_ZN3ndk12BpCInterfaceIN4aidl7android10frameworks13cameraservice6device17ICameraDeviceUserEE8asBinderEv",
   "parameters" :
   [
    {
     "is_this_ptr" : true,
     "referenced_type" : "_ZTIPN3ndk12BpCInterfaceIN4aidl7android10frameworks13cameraservice6device17ICameraDeviceUserEEE"
    }
   ],
   "return_type" : "_ZTIN3ndk10SpAIBinderE",
   "source_file" : "frameworks/native/libs/binder/ndk/include_cpp/android/binder_interface_utils.h"
  },
  {
   "function_name" : "ndk::BpCInterface<aidl::android::frameworks::cameraservice::device::ICameraDeviceCallback>::asBinder",
   "linker_set_key" : "_ZN3ndk12BpCInterfaceIN4aidl7android10frameworks13cameraservice6device21ICameraDeviceCallbackEE8asBinderEv",
   "parameters" :
   [
    {
     "is_this_ptr" : true,
     "referenced_type" : "_ZTIPN3ndk12BpCInterfaceIN4aidl7android10frameworks13cameraservice6device21ICameraDeviceCallbackEEE"
    }
   ],
   "return_type" : "_ZTIN3ndk10SpAIBinderE",
   "source_file" : "frameworks/native/libs/binder/ndk/include_cpp/android/binder_interface_utils.h"
  },
  {
   "function_name" : "ndk::AParcel_readStdVectorParcelableElement",
   "linker_set_key" : "_ZN3ndk38AParcel_readStdVectorParcelableElementIN4aidl7android10frameworks13cameraservice6device14CaptureRequestEEEiPK7AParcelPvj",
   "parameters" :
   [
    {
     "referenced_type" : "_ZTIPK7AParcel"
    },
    {
     "referenced_type" : "_ZTIPv"
    },
    {
     "referenced_type" : "_ZTIj"
    }
   ],
   "return_type" : "_ZTIi",
   "source_file" : "frameworks/native/libs/binder/ndk/include_cpp/android/binder_parcel_utils.h",
   "template_args" :
   [
    "_ZTIN4aidl7android10frameworks13cameraservice6device14CaptureRequestE"
   ]
  },
  {
   "function_name" : "ndk::AParcel_readStdVectorParcelableElement",
   "linker_set_key" : "_ZN3ndk38AParcel_readStdVectorParcelableElementIN4aidl7android10frameworks13cameraservice6device17StreamAndWindowIdEEEiPK7AParcelPvj",
   "parameters" :
   [
    {
     "referenced_type" : "_ZTIPK7AParcel"
    },
    {
     "referenced_type" : "_ZTIPv"
    },
    {
     "referenced_type" : "_ZTIj"
    }
   ],
   "return_type" : "_ZTIi",
   "source_file" : "frameworks/native/libs/binder/ndk/include_cpp/android/binder_parcel_utils.h",
   "template_args" :
   [
    "_ZTIN4aidl7android10frameworks13cameraservice6device17StreamAndWindowIdE"
   ]
  },
  {
   "function_name" : "ndk::AParcel_readStdVectorParcelableElement",
   "linker_set_key" : "_ZN3ndk38AParcel_readStdVectorParcelableElementIN4aidl7android10frameworks13cameraservice6device19OutputConfigurationEEEiPK7AParcelPvj",
   "parameters" :
   [
    {
     "referenced_type" : "_ZTIPK7AParcel"
    },
    {
     "referenced_type" : "_ZTIPv"
    },
    {
     "referenced_type" : "_ZTIj"
    }
   ],
   "return_type" : "_ZTIi",
   "source_file" : "frameworks/native/libs/binder/ndk/include_cpp/android/binder_parcel_utils.h",
   "template_args" :
   [
    "_ZTIN4aidl7android10frameworks13cameraservice6device19OutputConfigurationE"
   ]
  },
  {
   "function_name" : "ndk::AParcel_readStdVectorParcelableElement",
   "linker_set_key" : "_ZN3ndk38AParcel_readStdVectorParcelableElementIN4aidl7android10frameworks13cameraservice6device22PhysicalCameraSettingsEEEiPK7AParcelPvj",
   "parameters" :
   [
    {
     "referenced_type" : "_ZTIPK7AParcel"
    },
    {
     "referenced_type" : "_ZTIPv"
    },
    {
     "referenced_type" : "_ZTIj"
    }
   ],
   "return_type" : "_ZTIi",
   "source_file" : "frameworks/native/libs/binder/ndk/include_cpp/android/binder_parcel_utils.h",
   "template_args" :
   [
    "_ZTIN4aidl7android10frameworks13cameraservice6device22PhysicalCameraSettingsE"
   ]
  },
  {
   "function_name" : "ndk::AParcel_readStdVectorParcelableElement",
   "linker_set_key" : "_ZN3ndk38AParcel_readStdVectorParcelableElementIN4aidl7android10frameworks13cameraservice6device25PhysicalCaptureResultInfoEEEiPK7AParcelPvj",
   "parameters" :
   [
    {
     "referenced_type" : "_ZTIPK7AParcel"
    },
    {
     "referenced_type" : "_ZTIPv"
    },
    {
     "referenced_type" : "_ZTIj"
    }
   ],
   "return_type" : "_ZTIi",
   "source_file" : "frameworks/native/libs/binder/ndk/include_cpp/android/binder_parcel_utils.h",
   "template_args" :
   [
    "_ZTIN4aidl7android10frameworks13cameraservice6device25PhysicalCaptureResultInfoE"
   ]
  },
  {
   "function_name" : "ndk::AParcel_readStdVectorParcelableElement",
   "linker_set_key" : "_ZN3ndk38AParcel_readStdVectorParcelableElementIN4aidl7android8hardware6common12NativeHandleEEEiPK7AParcelPvj",
   "parameters" :
   [
    {
     "referenced_type" : "_ZTIPK7AParcel"
    },
    {
     "referenced_type" : "_ZTIPv"
    },
    {
     "referenced_type" : "_ZTIj"
    }
   ],
   "return_type" : "_ZTIi",
   "source_file" : "frameworks/native/libs/binder/ndk/include_cpp/android/binder_parcel_utils.h",
   "template_args" :
   [
    "_ZTIN4aidl7android8hardware6common12NativeHandleE"
   ]
  },
  {
   "function_name" : "ndk::AParcel_readStdVectorParcelableElement",
   "linker_set_key" : "_ZN3ndk38AParcel_readStdVectorParcelableElementIN4aidl7android8hardware6common3fmq17GrantorDescriptorEEEiPK7AParcelPvj",
   "parameters" :
   [
    {
     "referenced_type" : "_ZTIPK7AParcel"
    },
    {
     "referenced_type" : "_ZTIPv"
    },
    {
     "referenced_type" : "_ZTIj"
    }
   ],
   "return_type" : "_ZTIi",
   "source_file" : "frameworks/native/libs/binder/ndk/include_cpp/android/binder_parcel_utils.h",
   "template_args" :
   [
    "_ZTIN4aidl7android8hardware6common3fmq17GrantorDescriptorE"
   ]
  },
  {
   "function_name" : "ndk::AParcel_writeStdVectorParcelableElement",
   "linker_set_key" : "_ZN3ndk39AParcel_writeStdVectorParcelableElementIN4aidl7android10frameworks13cameraservice6device14CaptureRequestEEEiP7AParcelPKvj",
   "parameters" :
   [
    {
     "referenced_type" : "_ZTIP7AParcel"
    },
    {
     "referenced_type" : "_ZTIPKv"
    },
    {
     "referenced_type" : "_ZTIj"
    }
   ],
   "return_type" : "_ZTIi",
   "source_file" : "frameworks/native/libs/binder/ndk/include_cpp/android/binder_parcel_utils.h",
   "template_args" :
   [
    "_ZTIN4aidl7android10frameworks13cameraservice6device14CaptureRequestE"
   ]
  },
  {
   "function_name" : "ndk::AParcel_writeStdVectorParcelableElement",
   "linker_set_key" : "_ZN3ndk39AParcel_writeStdVectorParcelableElementIN4aidl7android10frameworks13cameraservice6device17StreamAndWindowIdEEEiP7AParcelPKvj",
   "parameters" :
   [
    {
     "referenced_type" : "_ZTIP7AParcel"
    },
    {
     "referenced_type" : "_ZTIPKv"
    },
    {
     "referenced_type" : "_ZTIj"
    }
   ],
   "return_type" : "_ZTIi",
   "source_file" : "frameworks/native/libs/binder/ndk/include_cpp/android/binder_parcel_utils.h",
   "template_args" :
   [
    "_ZTIN4aidl7android10frameworks13cameraservice6device17StreamAndWindowIdE"
   ]
  },
  {
   "function_name" : "ndk::AParcel_writeStdVectorParcelableElement",
   "linker_set_key" : "_ZN3ndk39AParcel_writeStdVectorParcelableElementIN4aidl7android10frameworks13cameraservice6device19OutputConfigurationEEEiP7AParcelPKvj",
   "parameters" :
   [
    {
     "referenced_type" : "_ZTIP7AParcel"
    },
    {
     "referenced_type" : "_ZTIPKv"
    },
    {
     "referenced_type" : "_ZTIj"
    }
   ],
   "return_type" : "_ZTIi",
   "source_file" : "frameworks/native/libs/binder/ndk/include_cpp/android/binder_parcel_utils.h",
   "template_args" :
   [
    "_ZTIN4aidl7android10frameworks13cameraservice6device19OutputConfigurationE"
   ]
  },
  {
   "function_name" : "ndk::AParcel_writeStdVectorParcelableElement",
   "linker_set_key" : "_ZN3ndk39AParcel_writeStdVectorParcelableElementIN4aidl7android10frameworks13cameraservice6device22PhysicalCameraSettingsEEEiP7AParcelPKvj",
   "parameters" :
   [
    {
     "referenced_type" : "_ZTIP7AParcel"
    },
    {
     "referenced_type" : "_ZTIPKv"
    },
    {
     "referenced_type" : "_ZTIj"
    }
   ],
   "return_type" : "_ZTIi",
   "source_file" : "frameworks/native/libs/binder/ndk/include_cpp/android/binder_parcel_utils.h",
   "template_args" :
   [
    "_ZTIN4aidl7android10frameworks13cameraservice6device22PhysicalCameraSettingsE"
   ]
  },
  {
   "function_name" : "ndk::AParcel_writeStdVectorParcelableElement",
   "linker_set_key" : "_ZN3ndk39AParcel_writeStdVectorParcelableElementIN4aidl7android10frameworks13cameraservice6device25PhysicalCaptureResultInfoEEEiP7AParcelPKvj",
   "parameters" :
   [
    {
     "referenced_type" : "_ZTIP7AParcel"
    },
    {
     "referenced_type" : "_ZTIPKv"
    },
    {
     "referenced_type" : "_ZTIj"
    }
   ],
   "return_type" : "_ZTIi",
   "source_file" : "frameworks/native/libs/binder/ndk/include_cpp/android/binder_parcel_utils.h",
   "template_args" :
   [
    "_ZTIN4aidl7android10frameworks13cameraservice6device25PhysicalCaptureResultInfoE"
   ]
  },
  {
   "function_name" : "ndk::AParcel_writeStdVectorParcelableElement",
   "linker_set_key" : "_ZN3ndk39AParcel_writeStdVectorParcelableElementIN4aidl7android8hardware6common12NativeHandleEEEiP7AParcelPKvj",
   "parameters" :
   [
    {
     "referenced_type" : "_ZTIP7AParcel"
    },
    {
     "referenced_type" : "_ZTIPKv"
    },
    {
     "referenced_type" : "_ZTIj"
    }
   ],
   "return_type" : "_ZTIi",
   "source_file" : "frameworks/native/libs/binder/ndk/include_cpp/android/binder_parcel_utils.h",
   "template_args" :
   [
    "_ZTIN4aidl7android8hardware6common12NativeHandleE"
   ]
  },
  {
   "function_name" : "ndk::AParcel_writeStdVectorParcelableElement",
   "linker_set_key" : "_ZN3ndk39AParcel_writeStdVectorParcelableElementIN4aidl7android8hardware6common3fmq17GrantorDescriptorEEEiP7AParcelPKvj",
   "parameters" :
   [
    {
     "referenced_type" : "_ZTIP7AParcel"
    },
    {
     "referenced_type" : "_ZTIPKv"
    },
    {
     "referenced_type" : "_ZTIj"
    }
   ],
   "return_type" : "_ZTIi",
   "source_file" : "frameworks/native/libs/binder/ndk/include_cpp/android/binder_parcel_utils.h",
   "template_args" :
   [
    "_ZTIN4aidl7android8hardware6common3fmq17GrantorDescriptorE"
   ]
  },
  {
   "function_name" : "aidl::android::frameworks::cameraservice::device::SubmitInfo::readFromParcel",
   "linker_set_key" : "_ZN4aidl7android10frameworks13cameraservice6device10SubmitInfo14readFromParcelEPK7AParcel",
   "parameters" :
   [
    {
     "is_this_ptr" : true,
     "referenced_type" : "_ZTIPN4aidl7android10frameworks13cameraservice6device10SubmitInfoE"
    },
    {
     "referenced_type" : "_ZTIPK7AParcel"
    }
   ],
   "return_type" : "_ZTIi",
   "source_file" : "out/soong/.intermediates/frameworks/hardware/interfaces/cameraservice/device/aidl/android.frameworks.cameraservice.device-V1-ndk-source/gen/include/aidl/android/frameworks/cameraservice/device/SubmitInfo.h"
  },
  {
   "function_name" : "aidl::android::frameworks::cameraservice::device::CameraMetadata::readFromParcel",
   "linker_set_key" : "_ZN4aidl7android10frameworks13cameraservice6device14CameraMetadata14readFromParcelEPK7AParcel",
   "parameters" :
   [
    {
     "is_this_ptr" : true,
     "referenced_type" : "_ZTIPN4aidl7android10frameworks13cameraservice6device14CameraMetadataE"
    },
    {
     "referenced_type" : "_ZTIPK7AParcel"
    }
   ],
   "return_type" : "_ZTIi",
   "source_file" : "out/soong/.intermediates/frameworks/hardware/interfaces/cameraservice/device/aidl/android.frameworks.cameraservice.device-V1-ndk-source/gen/include/aidl/android/frameworks/cameraservice/device/CameraMetadata.h"
  },
  {
   "function_name" : "aidl::android::frameworks::cameraservice::device::CaptureRequest::readFromParcel",
   "linker_set_key" : "_ZN4aidl7android10frameworks13cameraservice6device14CaptureRequest14readFromParcelEPK7AParcel",
   "parameters" :
   [
    {
     "is_this_ptr" : true,
     "referenced_type" : "_ZTIPN4aidl7android10frameworks13cameraservice6device14CaptureRequestE"
    },
    {
     "referenced_type" : "_ZTIPK7AParcel"
    }
   ],
   "return_type" : "_ZTIi",
   "source_file" : "out/soong/.intermediates/frameworks/hardware/interfaces/cameraservice/device/aidl/android.frameworks.cameraservice.device-V1-ndk-source/gen/include/aidl/android/frameworks/cameraservice/device/CaptureRequest.h"
  },
  {
   "function_name" : "aidl::android::frameworks::cameraservice::device::ICameraDeviceUser::fromBinder",
   "linker_set_key" : "_ZN4aidl7android10frameworks13cameraservice6device17ICameraDeviceUser10fromBinderERKN3ndk10SpAIBinderE",
   "parameters" :
   [
    {
     "referenced_type" : "_ZTIRKN3ndk10SpAIBinderE"
    }
   ],
   "return_type" : "_ZTINSt3__110shared_ptrIN4aidl7android10frameworks13cameraservice6device17ICameraDeviceUserEEE",
   "source_file" : "out/soong/.intermediates/frameworks/hardware/interfaces/cameraservice/device/aidl/android.frameworks.cameraservice.device-V1-ndk-source/gen/include/aidl/android/frameworks/cameraservice/device/ICameraDeviceUser.h"
  },
  {
   "function_name" : "aidl::android::frameworks::cameraservice::device::ICameraDeviceUser::writeToParcel",
   "linker_set_key" : "_ZN4aidl7android10frameworks13cameraservice6device17ICameraDeviceUser13writeToParcelEP7AParcelRKNSt3__110shared_ptrIS4_EE",
   "parameters" :
   [
    {
     "referenced_type" : "_ZTIP7AParcel"
    },
    {
     "referenced_type" : "_ZTIRKNSt3__110shared_ptrIN4aidl7android10frameworks13cameraservice6device17ICameraDeviceUserEEE"
    }
   ],
   "return_type" : "_ZTIi",
   "source_file" : "out/soong/.intermediates/frameworks/hardware/interfaces/cameraservice/device/aidl/android.frameworks.cameraservice.device-V1-ndk-source/gen/include/aidl/android/frameworks/cameraservice/device/ICameraDeviceUser.h"
  },
  {
   "function_name" : "aidl::android::frameworks::cameraservice::device::ICameraDeviceUser::getDefaultImpl",
   "linker_set_key" : "_ZN4aidl7android10frameworks13cameraservice6device17ICameraDeviceUser14getDefaultImplEv",
   "return_type" : "_ZTIRKNSt3__110shared_ptrIN4aidl7android10frameworks13cameraservice6device17ICameraDeviceUserEEE",
   "source_file" : "out/soong/.intermediates/frameworks/hardware/interfaces/cameraservice/device/aidl/android.frameworks.cameraservice.device-V1-ndk-source/gen/include/aidl/android/frameworks/cameraservice/device/ICameraDeviceUser.h"
  },
  {
   "function_name" : "aidl::android::frameworks::cameraservice::device::ICameraDeviceUser::readFromParcel",
   "linker_set_key" : "_ZN4aidl7android10frameworks13cameraservice6device17ICameraDeviceUser14readFromParcelEPK7AParcelPNSt3__110shared_ptrIS4_EE",
   "parameters" :
   [
    {
     "referenced_type" : "_ZTIPK7AParcel"
    },
    {
     "referenced_type" : "_ZTIPNSt3__110shared_ptrIN4aidl7android10frameworks13cameraservice6device17ICameraDeviceUserEEE"
    }
   ],
   "return_type" : "_ZTIi",
   "source_file" : "out/soong/.intermediates/frameworks/hardware/interfaces/cameraservice/device/aidl/android.frameworks.cameraservice.device-V1-ndk-source/gen/include/aidl/android/frameworks/cameraservice/device/ICameraDeviceUser.h"
  },
  {
   "function_name" : "aidl::android::frameworks::cameraservice::device::ICameraDeviceUser::setDefaultImpl",
   "linker_set_key" : "_ZN4aidl7android10frameworks13cameraservice6device17ICameraDeviceUser14setDefaultImplERKNSt3__110shared_ptrIS4_EE",
   "parameters" :
   [
    {
     "referenced_type" : "_ZTIRKNSt3__110shared_ptrIN4aidl7android10frameworks13cameraservice6device17ICameraDeviceUserEEE"
    }
   ],
   "return_type" : "_ZTIb",
   "source_file" : "out/soong/.intermediates/frameworks/hardware/interfaces/cameraservice/device/aidl/android.frameworks.cameraservice.device-V1-ndk-source/gen/include/aidl/android/frameworks/cameraservice/device/ICameraDeviceUser.h"
  },
  {
   "function_name" : "aidl::android::frameworks::cameraservice::device::ICameraDeviceUser::ICameraDeviceUser",
   "linker_set_key" : "_ZN4aidl7android10frameworks13cameraservice6device17ICameraDeviceUserC2Ev",
   "parameters" :
   [
    {
     "is_this_ptr" : true,
     "referenced_type" : "_ZTIPN4aidl7android10frameworks13cameraservice6device17ICameraDeviceUserE"
    }
   ],
   "return_type" : "_ZTIv",
   "source_file" : "out/soong/.intermediates/frameworks/hardware/interfaces/cameraservice/device/aidl/android.frameworks.cameraservice.device-V1-ndk-source/gen/include/aidl/android/frameworks/cameraservice/device/ICameraDeviceUser.h"
  },
  {
   "function_name" : "aidl::android::frameworks::cameraservice::device::ICameraDeviceUser::~ICameraDeviceUser",
   "linker_set_key" : "_ZN4aidl7android10frameworks13cameraservice6device17ICameraDeviceUserD0Ev",
   "parameters" :
   [
    {
     "is_this_ptr" : true,
     "referenced_type" : "_ZTIPN4aidl7android10frameworks13cameraservice6device17ICameraDeviceUserE"
    }
   ],
   "return_type" : "_ZTIv",
   "source_file" : "out/soong/.intermediates/frameworks/hardware/interfaces/cameraservice/device/aidl/android.frameworks.cameraservice.device-V1-ndk-source/gen/include/aidl/android/frameworks/cameraservice/device/ICameraDeviceUser.h"
  },
  {
   "function_name" : "aidl::android::frameworks::cameraservice::device::ICameraDeviceUser::~ICameraDeviceUser",
   "linker_set_key" : "_ZN4aidl7android10frameworks13cameraservice6device17ICameraDeviceUserD1Ev",
   "parameters" :
   [
    {
     "is_this_ptr" : true,
     "referenced_type" : "_ZTIPN4aidl7android10frameworks13cameraservice6device17ICameraDeviceUserE"
    }
   ],
   "return_type" : "_ZTIv",
   "source_file" : "out/soong/.intermediates/frameworks/hardware/interfaces/cameraservice/device/aidl/android.frameworks.cameraservice.device-V1-ndk-source/gen/include/aidl/android/frameworks/cameraservice/device/ICameraDeviceUser.h"
  },
  {
   "function_name" : "aidl::android::frameworks::cameraservice::device::ICameraDeviceUser::~ICameraDeviceUser",
   "linker_set_key" : "_ZN4aidl7android10frameworks13cameraservice6device17ICameraDeviceUserD2Ev",
   "parameters" :
   [
    {
     "is_this_ptr" : true,
     "referenced_type" : "_ZTIPN4aidl7android10frameworks13cameraservice6device17ICameraDeviceUserE"
    }
   ],
   "return_type" : "_ZTIv",
   "source_file" : "out/soong/.intermediates/frameworks/hardware/interfaces/cameraservice/device/aidl/android.frameworks.cameraservice.device-V1-ndk-source/gen/include/aidl/android/frameworks/cameraservice/device/ICameraDeviceUser.h"
  },
  {
   "function_name" : "aidl::android::frameworks::cameraservice::device::StreamAndWindowId::readFromParcel",
   "linker_set_key" : "_ZN4aidl7android10frameworks13cameraservice6device17StreamAndWindowId14readFromParcelEPK7AParcel",
   "parameters" :
   [
    {
     "is_this_ptr" : true,
     "referenced_type" : "_ZTIPN4aidl7android10frameworks13cameraservice6device17StreamAndWindowIdE"
    },
    {
     "referenced_type" : "_ZTIPK7AParcel"
    }
   ],
   "return_type" : "_ZTIi",
   "source_file" : "out/soong/.intermediates/frameworks/hardware/interfaces/cameraservice/device/aidl/android.frameworks.cameraservice.device-V1-ndk-source/gen/include/aidl/android/frameworks/cameraservice/device/StreamAndWindowId.h"
  },
  {
   "access" : "protected",
   "function_name" : "aidl::android::frameworks::cameraservice::device::BnCameraDeviceUser::createBinder",
   "linker_set_key" : "_ZN4aidl7android10frameworks13cameraservice6device18BnCameraDeviceUser12createBinderEv",
   "parameters" :
   [
    {
     "is_this_ptr" : true,
     "referenced_type" : "_ZTIPN4aidl7android10frameworks13cameraservice6device18BnCameraDeviceUserE"
    }
   ],
   "return_type" : "_ZTIN3ndk10SpAIBinderE",
   "source_file" : "out/soong/.intermediates/frameworks/hardware/interfaces/cameraservice/device/aidl/android.frameworks.cameraservice.device-V1-ndk-source/gen/include/aidl/android/frameworks/cameraservice/device/BnCameraDeviceUser.h"
  },
  {
   "function_name" : "aidl::android::frameworks::cameraservice::device::BnCameraDeviceUser::getInterfaceHash",
   "linker_set_key" : "_ZN4aidl7android10frameworks13cameraservice6device18BnCameraDeviceUser16getInterfaceHashEPNSt3__112basic_stringIcNS5_11char_traitsIcEENS5_9allocatorIcEEEE",
   "parameters" :
   [
    {
     "is_this_ptr" : true,
     "referenced_type" : "_ZTIPN4aidl7android10frameworks13cameraservice6device18BnCameraDeviceUserE"
    },
    {
     "referenced_type" : "_ZTIPNSt3__112basic_stringIcNS_11char_traitsIcEENS_9allocatorIcEEEE"
    }
   ],
   "return_type" : "_ZTIN3ndk13ScopedAStatusE",
   "source_file" : "out/soong/.intermediates/frameworks/hardware/interfaces/cameraservice/device/aidl/android.frameworks.cameraservice.device-V1-ndk-source/gen/include/aidl/android/frameworks/cameraservice/device/BnCameraDeviceUser.h"
  },
  {
   "function_name" : "aidl::android::frameworks::cameraservice::device::BnCameraDeviceUser::getInterfaceVersion",
   "linker_set_key" : "_ZN4aidl7android10frameworks13cameraservice6device18BnCameraDeviceUser19getInterfaceVersionEPi",
   "parameters" :
   [
    {
     "is_this_ptr" : true,
     "referenced_type" : "_ZTIPN4aidl7android10frameworks13cameraservice6device18BnCameraDeviceUserE"
    },
    {
     "referenced_type" : "_ZTIPi"
    }
   ],
   "return_type" : "_ZTIN3ndk13ScopedAStatusE",
   "source_file" : "out/soong/.intermediates/frameworks/hardware/interfaces/cameraservice/device/aidl/android.frameworks.cameraservice.device-V1-ndk-source/gen/include/aidl/android/frameworks/cameraservice/device/BnCameraDeviceUser.h"
  },
  {
   "function_name" : "aidl::android::frameworks::cameraservice::device::BnCameraDeviceUser::BnCameraDeviceUser",
   "linker_set_key" : "_ZN4aidl7android10frameworks13cameraservice6device18BnCameraDeviceUserC2Ev",
   "parameters" :
   [
    {
     "is_this_ptr" : true,
     "referenced_type" : "_ZTIPN4aidl7android10frameworks13cameraservice6device18BnCameraDeviceUserE"
    }
   ],
   "return_type" : "_ZTIv",
   "source_file" : "out/soong/.intermediates/frameworks/hardware/interfaces/cameraservice/device/aidl/android.frameworks.cameraservice.device-V1-ndk-source/gen/include/aidl/android/frameworks/cameraservice/device/BnCameraDeviceUser.h"
  },
  {
   "function_name" : "aidl::android::frameworks::cameraservice::device::BnCameraDeviceUser::~BnCameraDeviceUser",
   "linker_set_key" : "_ZN4aidl7android10frameworks13cameraservice6device18BnCameraDeviceUserD0Ev",
   "parameters" :
   [
    {
     "is_this_ptr" : true,
     "referenced_type" : "_ZTIPN4aidl7android10frameworks13cameraservice6device18BnCameraDeviceUserE"
    }
   ],
   "return_type" : "_ZTIv",
   "source_file" : "out/soong/.intermediates/frameworks/hardware/interfaces/cameraservice/device/aidl/android.frameworks.cameraservice.device-V1-ndk-source/gen/include/aidl/android/frameworks/cameraservice/device/BnCameraDeviceUser.h"
  },
  {
   "function_name" : "aidl::android::frameworks::cameraservice::device::BnCameraDeviceUser::~BnCameraDeviceUser",
   "linker_set_key" : "_ZN4aidl7android10frameworks13cameraservice6device18BnCameraDeviceUserD1Ev",
   "parameters" :
   [
    {
     "is_this_ptr" : true,
     "referenced_type" : "_ZTIPN4aidl7android10frameworks13cameraservice6device18BnCameraDeviceUserE"
    }
   ],
   "return_type" : "_ZTIv",
   "source_file" : "out/soong/.intermediates/frameworks/hardware/interfaces/cameraservice/device/aidl/android.frameworks.cameraservice.device-V1-ndk-source/gen/include/aidl/android/frameworks/cameraservice/device/BnCameraDeviceUser.h"
  },
  {
   "function_name" : "aidl::android::frameworks::cameraservice::device::BnCameraDeviceUser::~BnCameraDeviceUser",
   "linker_set_key" : "_ZN4aidl7android10frameworks13cameraservice6device18BnCameraDeviceUserD2Ev",
   "parameters" :
   [
    {
     "is_this_ptr" : true,
     "referenced_type" : "_ZTIPN4aidl7android10frameworks13cameraservice6device18BnCameraDeviceUserE"
    }
   ],
   "return_type" : "_ZTIv",
   "source_file" : "out/soong/.intermediates/frameworks/hardware/interfaces/cameraservice/device/aidl/android.frameworks.cameraservice.device-V1-ndk-source/gen/include/aidl/android/frameworks/cameraservice/device/BnCameraDeviceUser.h"
  },
  {
   "function_name" : "aidl::android::frameworks::cameraservice::device::BpCameraDeviceUser::disconnect",
   "linker_set_key" : "_ZN4aidl7android10frameworks13cameraservice6device18BpCameraDeviceUser10disconnectEv",
   "parameters" :
   [
    {
     "is_this_ptr" : true,
     "referenced_type" : "_ZTIPN4aidl7android10frameworks13cameraservice6device18BpCameraDeviceUserE"
    }
   ],
   "return_type" : "_ZTIN3ndk13ScopedAStatusE",
   "source_file" : "out/soong/.intermediates/frameworks/hardware/interfaces/cameraservice/device/aidl/android.frameworks.cameraservice.device-V1-ndk-source/gen/include/aidl/android/frameworks/cameraservice/device/BpCameraDeviceUser.h"
  },
  {
   "function_name" : "aidl::android::frameworks::cameraservice::device::BpCameraDeviceUser::createStream",
   "linker_set_key" : "_ZN4aidl7android10frameworks13cameraservice6device18BpCameraDeviceUser12createStreamERKNS3_19OutputConfigurationEPi",
   "parameters" :
   [
    {
     "is_this_ptr" : true,
     "referenced_type" : "_ZTIPN4aidl7android10frameworks13cameraservice6device18BpCameraDeviceUserE"
    },
    {
     "referenced_type" : "_ZTIRKN4aidl7android10frameworks13cameraservice6device19OutputConfigurationE"
    },
    {
     "referenced_type" : "_ZTIPi"
    }
   ],
   "return_type" : "_ZTIN3ndk13ScopedAStatusE",
   "source_file" : "out/soong/.intermediates/frameworks/hardware/interfaces/cameraservice/device/aidl/android.frameworks.cameraservice.device-V1-ndk-source/gen/include/aidl/android/frameworks/cameraservice/device/BpCameraDeviceUser.h"
  },
  {
   "function_name" : "aidl::android::frameworks::cameraservice::device::BpCameraDeviceUser::deleteStream",
   "linker_set_key" : "_ZN4aidl7android10frameworks13cameraservice6device18BpCameraDeviceUser12deleteStreamEi",
   "parameters" :
   [
    {
     "is_this_ptr" : true,
     "referenced_type" : "_ZTIPN4aidl7android10frameworks13cameraservice6device18BpCameraDeviceUserE"
    },
    {
     "referenced_type" : "_ZTIi"
    }
   ],
   "return_type" : "_ZTIN3ndk13ScopedAStatusE",
   "source_file" : "out/soong/.intermediates/frameworks/hardware/interfaces/cameraservice/device/aidl/android.frameworks.cameraservice.device-V1-ndk-source/gen/include/aidl/android/frameworks/cameraservice/device/BpCameraDeviceUser.h"
  },
  {
   "function_name" : "aidl::android::frameworks::cameraservice::device::BpCameraDeviceUser::endConfigure",
   "linker_set_key" : "_ZN4aidl7android10frameworks13cameraservice6device18BpCameraDeviceUser12endConfigureENS3_23StreamConfigurationModeERKNS3_14CameraMetadataEx",
   "parameters" :
   [
    {
     "is_this_ptr" : true,
     "referenced_type" : "_ZTIPN4aidl7android10frameworks13cameraservice6device18BpCameraDeviceUserE"
    },
    {
     "referenced_type" : "_ZTIN4aidl7android10frameworks13cameraservice6device23StreamConfigurationModeE"
    },
    {
     "referenced_type" : "_ZTIRKN4aidl7android10frameworks13cameraservice6device14CameraMetadataE"
    },
    {
     "referenced_type" : "_ZTIx"
    }
   ],
   "return_type" : "_ZTIN3ndk13ScopedAStatusE",
   "source_file" : "out/soong/.intermediates/frameworks/hardware/interfaces/cameraservice/device/aidl/android.frameworks.cameraservice.device-V1-ndk-source/gen/include/aidl/android/frameworks/cameraservice/device/BpCameraDeviceUser.h"
  },
  {
   "function_name" : "aidl::android::frameworks::cameraservice::device::BpCameraDeviceUser::waitUntilIdle",
   "linker_set_key" : "_ZN4aidl7android10frameworks13cameraservice6device18BpCameraDeviceUser13waitUntilIdleEv",
   "parameters" :
   [
    {
     "is_this_ptr" : true,
     "referenced_type" : "_ZTIPN4aidl7android10frameworks13cameraservice6device18BpCameraDeviceUserE"
    }
   ],
   "return_type" : "_ZTIN3ndk13ScopedAStatusE",
   "source_file" : "out/soong/.intermediates/frameworks/hardware/interfaces/cameraservice/device/aidl/android.frameworks.cameraservice.device-V1-ndk-source/gen/include/aidl/android/frameworks/cameraservice/device/BpCameraDeviceUser.h"
  },
  {
   "function_name" : "aidl::android::frameworks::cameraservice::device::BpCameraDeviceUser::beginConfigure",
   "linker_set_key" : "_ZN4aidl7android10frameworks13cameraservice6device18BpCameraDeviceUser14beginConfigureEv",
   "parameters" :
   [
    {
     "is_this_ptr" : true,
     "referenced_type" : "_ZTIPN4aidl7android10frameworks13cameraservice6device18BpCameraDeviceUserE"
    }
   ],
   "return_type" : "_ZTIN3ndk13ScopedAStatusE",
   "source_file" : "out/soong/.intermediates/frameworks/hardware/interfaces/cameraservice/device/aidl/android.frameworks.cameraservice.device-V1-ndk-source/gen/include/aidl/android/frameworks/cameraservice/device/BpCameraDeviceUser.h"
  },
  {
   "function_name" : "aidl::android::frameworks::cameraservice::device::BpCameraDeviceUser::getInterfaceHash",
   "linker_set_key" : "_ZN4aidl7android10frameworks13cameraservice6device18BpCameraDeviceUser16getInterfaceHashEPNSt3__112basic_stringIcNS5_11char_traitsIcEENS5_9allocatorIcEEEE",
   "parameters" :
   [
    {
     "is_this_ptr" : true,
     "referenced_type" : "_ZTIPN4aidl7android10frameworks13cameraservice6device18BpCameraDeviceUserE"
    },
    {
     "referenced_type" : "_ZTIPNSt3__112basic_stringIcNS_11char_traitsIcEENS_9allocatorIcEEEE"
    }
   ],
   "return_type" : "_ZTIN3ndk13ScopedAStatusE",
   "source_file" : "out/soong/.intermediates/frameworks/hardware/interfaces/cameraservice/device/aidl/android.frameworks.cameraservice.device-V1-ndk-source/gen/include/aidl/android/frameworks/cameraservice/device/BpCameraDeviceUser.h"
  },
  {
   "function_name" : "aidl::android::frameworks::cameraservice::device::BpCameraDeviceUser::submitRequestList",
   "linker_set_key" : "_ZN4aidl7android10frameworks13cameraservice6device18BpCameraDeviceUser17submitRequestListERKNSt3__16vectorINS3_14CaptureRequestENS5_9allocatorIS7_EEEEbPNS3_10SubmitInfoE",
   "parameters" :
   [
    {
     "is_this_ptr" : true,
     "referenced_type" : "_ZTIPN4aidl7android10frameworks13cameraservice6device18BpCameraDeviceUserE"
    },
    {
     "referenced_type" : "_ZTIRKNSt3__16vectorIN4aidl7android10frameworks13cameraservice6device14CaptureRequestENS_9allocatorIS6_EEEE"
    },
    {
     "referenced_type" : "_ZTIb"
    },
    {
     "referenced_type" : "_ZTIPN4aidl7android10frameworks13cameraservice6device10SubmitInfoE"
    }
   ],
   "return_type" : "_ZTIN3ndk13ScopedAStatusE",
   "source_file" : "out/soong/.intermediates/frameworks/hardware/interfaces/cameraservice/device/aidl/android.frameworks.cameraservice.device-V1-ndk-source/gen/include/aidl/android/frameworks/cameraservice/device/BpCameraDeviceUser.h"
  },
  {
   "function_name" : "aidl::android::frameworks::cameraservice::device::BpCameraDeviceUser::getInterfaceVersion",
   "linker_set_key" : "_ZN4aidl7android10frameworks13cameraservice6device18BpCameraDeviceUser19getInterfaceVersionEPi",
   "parameters" :
   [
    {
     "is_this_ptr" : true,
     "referenced_type" : "_ZTIPN4aidl7android10frameworks13cameraservice6device18BpCameraDeviceUserE"
    },
    {
     "referenced_type" : "_ZTIPi"
    }
   ],
   "return_type" : "_ZTIN3ndk13ScopedAStatusE",
   "source_file" : "out/soong/.intermediates/frameworks/hardware/interfaces/cameraservice/device/aidl/android.frameworks.cameraservice.device-V1-ndk-source/gen/include/aidl/android/frameworks/cameraservice/device/BpCameraDeviceUser.h"
  },
  {
   "function_name" : "aidl::android::frameworks::cameraservice::device::BpCameraDeviceUser::createDefaultRequest",
   "linker_set_key" : "_ZN4aidl7android10frameworks13cameraservice6device18BpCameraDeviceUser20createDefaultRequestENS3_10TemplateIdEPNS3_14CameraMetadataE",
   "parameters" :
   [
    {
     "is_this_ptr" : true,
     "referenced_type" : "_ZTIPN4aidl7android10frameworks13cameraservice6device18BpCameraDeviceUserE"
    },
    {
     "referenced_type" : "_ZTIN4aidl7android10frameworks13cameraservice6device10TemplateIdE"
    },
    {
     "referenced_type" : "_ZTIPN4aidl7android10frameworks13cameraservice6device14CameraMetadataE"
    }
   ],
   "return_type" : "_ZTIN3ndk13ScopedAStatusE",
   "source_file" : "out/soong/.intermediates/frameworks/hardware/interfaces/cameraservice/device/aidl/android.frameworks.cameraservice.device-V1-ndk-source/gen/include/aidl/android/frameworks/cameraservice/device/BpCameraDeviceUser.h"
  },
  {
   "function_name" : "aidl::android::frameworks::cameraservice::device::BpCameraDeviceUser::cancelRepeatingRequest",
   "linker_set_key" : "_ZN4aidl7android10frameworks13cameraservice6device18BpCameraDeviceUser22cancelRepeatingRequestEPx",
   "parameters" :
   [
    {
     "is_this_ptr" : true,
     "referenced_type" : "_ZTIPN4aidl7android10frameworks13cameraservice6device18BpCameraDeviceUserE"
    },
    {
     "referenced_type" : "_ZTIPx"
    }
   ],
   "return_type" : "_ZTIN3ndk13ScopedAStatusE",
   "source_file" : "out/soong/.intermediates/frameworks/hardware/interfaces/cameraservice/device/aidl/android.frameworks.cameraservice.device-V1-ndk-source/gen/include/aidl/android/frameworks/cameraservice/device/BpCameraDeviceUser.h"
  },
  {
   "function_name" : "aidl::android::frameworks::cameraservice::device::BpCameraDeviceUser::updateOutputConfiguration",
   "linker_set_key" : "_ZN4aidl7android10frameworks13cameraservice6device18BpCameraDeviceUser25updateOutputConfigurationEiRKNS3_19OutputConfigurationE",
   "parameters" :
   [
    {
     "is_this_ptr" : true,
     "referenced_type" : "_ZTIPN4aidl7android10frameworks13cameraservice6device18BpCameraDeviceUserE"
    },
    {
     "referenced_type" : "_ZTIi"
    },
    {
     "referenced_type" : "_ZTIRKN4aidl7android10frameworks13cameraservice6device19OutputConfigurationE"
    }
   ],
   "return_type" : "_ZTIN3ndk13ScopedAStatusE",
   "source_file" : "out/soong/.intermediates/frameworks/hardware/interfaces/cameraservice/device/aidl/android.frameworks.cameraservice.device-V1-ndk-source/gen/include/aidl/android/frameworks/cameraservice/device/BpCameraDeviceUser.h"
  },
  {
   "function_name" : "aidl::android::frameworks::cameraservice::device::BpCameraDeviceUser::getCaptureResultMetadataQueue",
   "linker_set_key" : "_ZN4aidl7android10frameworks13cameraservice6device18BpCameraDeviceUser29getCaptureResultMetadataQueueEPNS0_8hardware6common3fmq12MQDescriptorIaNS7_21SynchronizedReadWriteEEE",
   "parameters" :
   [
    {
     "is_this_ptr" : true,
     "referenced_type" : "_ZTIPN4aidl7android10frameworks13cameraservice6device18BpCameraDeviceUserE"
    },
    {
     "referenced_type" : "_ZTIPN4aidl7android8hardware6common3fmq12MQDescriptorIaNS3_21SynchronizedReadWriteEEE"
    }
   ],
   "return_type" : "_ZTIN3ndk13ScopedAStatusE",
   "source_file" : "out/soong/.intermediates/frameworks/hardware/interfaces/cameraservice/device/aidl/android.frameworks.cameraservice.device-V1-ndk-source/gen/include/aidl/android/frameworks/cameraservice/device/BpCameraDeviceUser.h"
  },
  {
   "function_name" : "aidl::android::frameworks::cameraservice::device::BpCameraDeviceUser::getCaptureRequestMetadataQueue",
   "linker_set_key" : "_ZN4aidl7android10frameworks13cameraservice6device18BpCameraDeviceUser30getCaptureRequestMetadataQueueEPNS0_8hardware6common3fmq12MQDescriptorIaNS7_21SynchronizedReadWriteEEE",
   "parameters" :
   [
    {
     "is_this_ptr" : true,
     "referenced_type" : "_ZTIPN4aidl7android10frameworks13cameraservice6device18BpCameraDeviceUserE"
    },
    {
     "referenced_type" : "_ZTIPN4aidl7android8hardware6common3fmq12MQDescriptorIaNS3_21SynchronizedReadWriteEEE"
    }
   ],
   "return_type" : "_ZTIN3ndk13ScopedAStatusE",
   "source_file" : "out/soong/.intermediates/frameworks/hardware/interfaces/cameraservice/device/aidl/android.frameworks.cameraservice.device-V1-ndk-source/gen/include/aidl/android/frameworks/cameraservice/device/BpCameraDeviceUser.h"
  },
  {
   "function_name" : "aidl::android::frameworks::cameraservice::device::BpCameraDeviceUser::isSessionConfigurationSupported",
   "linker_set_key" : "_ZN4aidl7android10frameworks13cameraservice6device18BpCameraDeviceUser31isSessionConfigurationSupportedERKNS3_20SessionConfigurationEPb",
   "parameters" :
   [
    {
     "is_this_ptr" : true,
     "referenced_type" : "_ZTIPN4aidl7android10frameworks13cameraservice6device18BpCameraDeviceUserE"
    },
    {
     "referenced_type" : "_ZTIRKN4aidl7android10frameworks13cameraservice6device20SessionConfigurationE"
    },
    {
     "referenced_type" : "_ZTIPb"
    }
   ],
   "return_type" : "_ZTIN3ndk13ScopedAStatusE",
   "source_file" : "out/soong/.intermediates/frameworks/hardware/interfaces/cameraservice/device/aidl/android.frameworks.cameraservice.device-V1-ndk-source/gen/include/aidl/android/frameworks/cameraservice/device/BpCameraDeviceUser.h"
  },
  {
   "function_name" : "aidl::android::frameworks::cameraservice::device::BpCameraDeviceUser::flush",
   "linker_set_key" : "_ZN4aidl7android10frameworks13cameraservice6device18BpCameraDeviceUser5flushEPx",
   "parameters" :
   [
    {
     "is_this_ptr" : true,
     "referenced_type" : "_ZTIPN4aidl7android10frameworks13cameraservice6device18BpCameraDeviceUserE"
    },
    {
     "referenced_type" : "_ZTIPx"
    }
   ],
   "return_type" : "_ZTIN3ndk13ScopedAStatusE",
   "source_file" : "out/soong/.intermediates/frameworks/hardware/interfaces/cameraservice/device/aidl/android.frameworks.cameraservice.device-V1-ndk-source/gen/include/aidl/android/frameworks/cameraservice/device/BpCameraDeviceUser.h"
  },
  {
   "function_name" : "aidl::android::frameworks::cameraservice::device::BpCameraDeviceUser::prepare",
   "linker_set_key" : "_ZN4aidl7android10frameworks13cameraservice6device18BpCameraDeviceUser7prepareEi",
   "parameters" :
   [
    {
     "is_this_ptr" : true,
     "referenced_type" : "_ZTIPN4aidl7android10frameworks13cameraservice6device18BpCameraDeviceUserE"
    },
    {
     "referenced_type" : "_ZTIi"
    }
   ],
   "return_type" : "_ZTIN3ndk13ScopedAStatusE",
   "source_file" : "out/soong/.intermediates/frameworks/hardware/interfaces/cameraservice/device/aidl/android.frameworks.cameraservice.device-V1-ndk-source/gen/include/aidl/android/frameworks/cameraservice/device/BpCameraDeviceUser.h"
  },
  {
   "function_name" : "aidl::android::frameworks::cameraservice::device::BpCameraDeviceUser::BpCameraDeviceUser",
   "linker_set_key" : "_ZN4aidl7android10frameworks13cameraservice6device18BpCameraDeviceUserC1ERKN3ndk10SpAIBinderE",
   "parameters" :
   [
    {
     "is_this_ptr" : true,
     "referenced_type" : "_ZTIPN4aidl7android10frameworks13cameraservice6device18BpCameraDeviceUserE"
    },
    {
     "referenced_type" : "_ZTIRKN3ndk10SpAIBinderE"
    }
   ],
   "return_type" : "_ZTIv",
   "source_file" : "out/soong/.intermediates/frameworks/hardware/interfaces/cameraservice/device/aidl/android.frameworks.cameraservice.device-V1-ndk-source/gen/include/aidl/android/frameworks/cameraservice/device/BpCameraDeviceUser.h"
  },
  {
   "function_name" : "aidl::android::frameworks::cameraservice::device::BpCameraDeviceUser::BpCameraDeviceUser",
   "linker_set_key" : "_ZN4aidl7android10frameworks13cameraservice6device18BpCameraDeviceUserC2ERKN3ndk10SpAIBinderE",
   "parameters" :
   [
    {
     "is_this_ptr" : true,
     "referenced_type" : "_ZTIPN4aidl7android10frameworks13cameraservice6device18BpCameraDeviceUserE"
    },
    {
     "referenced_type" : "_ZTIRKN3ndk10SpAIBinderE"
    }
   ],
   "return_type" : "_ZTIv",
   "source_file" : "out/soong/.intermediates/frameworks/hardware/interfaces/cameraservice/device/aidl/android.frameworks.cameraservice.device-V1-ndk-source/gen/include/aidl/android/frameworks/cameraservice/device/BpCameraDeviceUser.h"
  },
  {
   "function_name" : "aidl::android::frameworks::cameraservice::device::BpCameraDeviceUser::~BpCameraDeviceUser",
   "linker_set_key" : "_ZN4aidl7android10frameworks13cameraservice6device18BpCameraDeviceUserD0Ev",
   "parameters" :
   [
    {
     "is_this_ptr" : true,
     "referenced_type" : "_ZTIPN4aidl7android10frameworks13cameraservice6device18BpCameraDeviceUserE"
    }
   ],
   "return_type" : "_ZTIv",
   "source_file" : "out/soong/.intermediates/frameworks/hardware/interfaces/cameraservice/device/aidl/android.frameworks.cameraservice.device-V1-ndk-source/gen/include/aidl/android/frameworks/cameraservice/device/BpCameraDeviceUser.h"
  },
  {
   "function_name" : "aidl::android::frameworks::cameraservice::device::BpCameraDeviceUser::~BpCameraDeviceUser",
   "linker_set_key" : "_ZN4aidl7android10frameworks13cameraservice6device18BpCameraDeviceUserD1Ev",
   "parameters" :
   [
    {
     "is_this_ptr" : true,
     "referenced_type" : "_ZTIPN4aidl7android10frameworks13cameraservice6device18BpCameraDeviceUserE"
    }
   ],
   "return_type" : "_ZTIv",
   "source_file" : "out/soong/.intermediates/frameworks/hardware/interfaces/cameraservice/device/aidl/android.frameworks.cameraservice.device-V1-ndk-source/gen/include/aidl/android/frameworks/cameraservice/device/BpCameraDeviceUser.h"
  },
  {
   "function_name" : "aidl::android::frameworks::cameraservice::device::BpCameraDeviceUser::~BpCameraDeviceUser",
   "linker_set_key" : "_ZN4aidl7android10frameworks13cameraservice6device18BpCameraDeviceUserD2Ev",
   "parameters" :
   [
    {
     "is_this_ptr" : true,
     "referenced_type" : "_ZTIPN4aidl7android10frameworks13cameraservice6device18BpCameraDeviceUserE"
    }
   ],
   "return_type" : "_ZTIv",
   "source_file" : "out/soong/.intermediates/frameworks/hardware/interfaces/cameraservice/device/aidl/android.frameworks.cameraservice.device-V1-ndk-source/gen/include/aidl/android/frameworks/cameraservice/device/BpCameraDeviceUser.h"
  },
  {
   "function_name" : "aidl::android::frameworks::cameraservice::device::CaptureMetadataInfo::readFromParcel",
   "linker_set_key" : "_ZN4aidl7android10frameworks13cameraservice6device19CaptureMetadataInfo14readFromParcelEPK7AParcel",
   "parameters" :
   [
    {
     "is_this_ptr" : true,
     "referenced_type" : "_ZTIPN4aidl7android10frameworks13cameraservice6device19CaptureMetadataInfoE"
    },
    {
     "referenced_type" : "_ZTIPK7AParcel"
    }
   ],
   "return_type" : "_ZTIi",
   "source_file" : "out/soong/.intermediates/frameworks/hardware/interfaces/cameraservice/device/aidl/android.frameworks.cameraservice.device-V1-ndk-source/gen/include/aidl/android/frameworks/cameraservice/device/CaptureMetadataInfo.h"
  },
  {
   "function_name" : "aidl::android::frameworks::cameraservice::device::CaptureResultExtras::readFromParcel",
   "linker_set_key" : "_ZN4aidl7android10frameworks13cameraservice6device19CaptureResultExtras14readFromParcelEPK7AParcel",
   "parameters" :
   [
    {
     "is_this_ptr" : true,
     "referenced_type" : "_ZTIPN4aidl7android10frameworks13cameraservice6device19CaptureResultExtrasE"
    },
    {
     "referenced_type" : "_ZTIPK7AParcel"
    }
   ],
   "return_type" : "_ZTIi",
   "source_file" : "out/soong/.intermediates/frameworks/hardware/interfaces/cameraservice/device/aidl/android.frameworks.cameraservice.device-V1-ndk-source/gen/include/aidl/android/frameworks/cameraservice/device/CaptureResultExtras.h"
  },
  {
   "function_name" : "aidl::android::frameworks::cameraservice::device::OutputConfiguration::readFromParcel",
   "linker_set_key" : "_ZN4aidl7android10frameworks13cameraservice6device19OutputConfiguration14readFromParcelEPK7AParcel",
   "parameters" :
   [
    {
     "is_this_ptr" : true,
     "referenced_type" : "_ZTIPN4aidl7android10frameworks13cameraservice6device19OutputConfigurationE"
    },
    {
     "referenced_type" : "_ZTIPK7AParcel"
    }
   ],
   "return_type" : "_ZTIi",
   "source_file" : "out/soong/.intermediates/frameworks/hardware/interfaces/cameraservice/device/aidl/android.frameworks.cameraservice.device-V1-ndk-source/gen/include/aidl/android/frameworks/cameraservice/device/OutputConfiguration.h"
  },
  {
   "function_name" : "aidl::android::frameworks::cameraservice::device::SessionConfiguration::readFromParcel",
   "linker_set_key" : "_ZN4aidl7android10frameworks13cameraservice6device20SessionConfiguration14readFromParcelEPK7AParcel",
   "parameters" :
   [
    {
     "is_this_ptr" : true,
     "referenced_type" : "_ZTIPN4aidl7android10frameworks13cameraservice6device20SessionConfigurationE"
    },
    {
     "referenced_type" : "_ZTIPK7AParcel"
    }
   ],
   "return_type" : "_ZTIi",
   "source_file" : "out/soong/.intermediates/frameworks/hardware/interfaces/cameraservice/device/aidl/android.frameworks.cameraservice.device-V1-ndk-source/gen/include/aidl/android/frameworks/cameraservice/device/SessionConfiguration.h"
  },
  {
   "function_name" : "aidl::android::frameworks::cameraservice::device::ICameraDeviceCallback::fromBinder",
   "linker_set_key" : "_ZN4aidl7android10frameworks13cameraservice6device21ICameraDeviceCallback10fromBinderERKN3ndk10SpAIBinderE",
   "parameters" :
   [
    {
     "referenced_type" : "_ZTIRKN3ndk10SpAIBinderE"
    }
   ],
   "return_type" : "_ZTINSt3__110shared_ptrIN4aidl7android10frameworks13cameraservice6device21ICameraDeviceCallbackEEE",
   "source_file" : "out/soong/.intermediates/frameworks/hardware/interfaces/cameraservice/device/aidl/android.frameworks.cameraservice.device-V1-ndk-source/gen/include/aidl/android/frameworks/cameraservice/device/ICameraDeviceCallback.h"
  },
  {
   "function_name" : "aidl::android::frameworks::cameraservice::device::ICameraDeviceCallback::writeToParcel",
   "linker_set_key" : "_ZN4aidl7android10frameworks13cameraservice6device21ICameraDeviceCallback13writeToParcelEP7AParcelRKNSt3__110shared_ptrIS4_EE",
   "parameters" :
   [
    {
     "referenced_type" : "_ZTIP7AParcel"
    },
    {
     "referenced_type" : "_ZTIRKNSt3__110shared_ptrIN4aidl7android10frameworks13cameraservice6device21ICameraDeviceCallbackEEE"
    }
   ],
   "return_type" : "_ZTIi",
   "source_file" : "out/soong/.intermediates/frameworks/hardware/interfaces/cameraservice/device/aidl/android.frameworks.cameraservice.device-V1-ndk-source/gen/include/aidl/android/frameworks/cameraservice/device/ICameraDeviceCallback.h"
  },
  {
   "function_name" : "aidl::android::frameworks::cameraservice::device::ICameraDeviceCallback::getDefaultImpl",
   "linker_set_key" : "_ZN4aidl7android10frameworks13cameraservice6device21ICameraDeviceCallback14getDefaultImplEv",
   "return_type" : "_ZTIRKNSt3__110shared_ptrIN4aidl7android10frameworks13cameraservice6device21ICameraDeviceCallbackEEE",
   "source_file" : "out/soong/.intermediates/frameworks/hardware/interfaces/cameraservice/device/aidl/android.frameworks.cameraservice.device-V1-ndk-source/gen/include/aidl/android/frameworks/cameraservice/device/ICameraDeviceCallback.h"
  },
  {
   "function_name" : "aidl::android::frameworks::cameraservice::device::ICameraDeviceCallback::readFromParcel",
   "linker_set_key" : "_ZN4aidl7android10frameworks13cameraservice6device21ICameraDeviceCallback14readFromParcelEPK7AParcelPNSt3__110shared_ptrIS4_EE",
   "parameters" :
   [
    {
     "referenced_type" : "_ZTIPK7AParcel"
    },
    {
     "referenced_type" : "_ZTIPNSt3__110shared_ptrIN4aidl7android10frameworks13cameraservice6device21ICameraDeviceCallbackEEE"
    }
   ],
   "return_type" : "_ZTIi",
   "source_file" : "out/soong/.intermediates/frameworks/hardware/interfaces/cameraservice/device/aidl/android.frameworks.cameraservice.device-V1-ndk-source/gen/include/aidl/android/frameworks/cameraservice/device/ICameraDeviceCallback.h"
  },
  {
   "function_name" : "aidl::android::frameworks::cameraservice::device::ICameraDeviceCallback::setDefaultImpl",
   "linker_set_key" : "_ZN4aidl7android10frameworks13cameraservice6device21ICameraDeviceCallback14setDefaultImplERKNSt3__110shared_ptrIS4_EE",
   "parameters" :
   [
    {
     "referenced_type" : "_ZTIRKNSt3__110shared_ptrIN4aidl7android10frameworks13cameraservice6device21ICameraDeviceCallbackEEE"
    }
   ],
   "return_type" : "_ZTIb",
   "source_file" : "out/soong/.intermediates/frameworks/hardware/interfaces/cameraservice/device/aidl/android.frameworks.cameraservice.device-V1-ndk-source/gen/include/aidl/android/frameworks/cameraservice/device/ICameraDeviceCallback.h"
  },
  {
   "function_name" : "aidl::android::frameworks::cameraservice::device::ICameraDeviceCallback::ICameraDeviceCallback",
   "linker_set_key" : "_ZN4aidl7android10frameworks13cameraservice6device21ICameraDeviceCallbackC2Ev",
   "parameters" :
   [
    {
     "is_this_ptr" : true,
     "referenced_type" : "_ZTIPN4aidl7android10frameworks13cameraservice6device21ICameraDeviceCallbackE"
    }
   ],
   "return_type" : "_ZTIv",
   "source_file" : "out/soong/.intermediates/frameworks/hardware/interfaces/cameraservice/device/aidl/android.frameworks.cameraservice.device-V1-ndk-source/gen/include/aidl/android/frameworks/cameraservice/device/ICameraDeviceCallback.h"
  },
  {
   "function_name" : "aidl::android::frameworks::cameraservice::device::ICameraDeviceCallback::~ICameraDeviceCallback",
   "linker_set_key" : "_ZN4aidl7android10frameworks13cameraservice6device21ICameraDeviceCallbackD0Ev",
   "parameters" :
   [
    {
     "is_this_ptr" : true,
     "referenced_type" : "_ZTIPN4aidl7android10frameworks13cameraservice6device21ICameraDeviceCallbackE"
    }
   ],
   "return_type" : "_ZTIv",
   "source_file" : "out/soong/.intermediates/frameworks/hardware/interfaces/cameraservice/device/aidl/android.frameworks.cameraservice.device-V1-ndk-source/gen/include/aidl/android/frameworks/cameraservice/device/ICameraDeviceCallback.h"
  },
  {
   "function_name" : "aidl::android::frameworks::cameraservice::device::ICameraDeviceCallback::~ICameraDeviceCallback",
   "linker_set_key" : "_ZN4aidl7android10frameworks13cameraservice6device21ICameraDeviceCallbackD1Ev",
   "parameters" :
   [
    {
     "is_this_ptr" : true,
     "referenced_type" : "_ZTIPN4aidl7android10frameworks13cameraservice6device21ICameraDeviceCallbackE"
    }
   ],
   "return_type" : "_ZTIv",
   "source_file" : "out/soong/.intermediates/frameworks/hardware/interfaces/cameraservice/device/aidl/android.frameworks.cameraservice.device-V1-ndk-source/gen/include/aidl/android/frameworks/cameraservice/device/ICameraDeviceCallback.h"
  },
  {
   "function_name" : "aidl::android::frameworks::cameraservice::device::ICameraDeviceCallback::~ICameraDeviceCallback",
   "linker_set_key" : "_ZN4aidl7android10frameworks13cameraservice6device21ICameraDeviceCallbackD2Ev",
   "parameters" :
   [
    {
     "is_this_ptr" : true,
     "referenced_type" : "_ZTIPN4aidl7android10frameworks13cameraservice6device21ICameraDeviceCallbackE"
    }
   ],
   "return_type" : "_ZTIv",
   "source_file" : "out/soong/.intermediates/frameworks/hardware/interfaces/cameraservice/device/aidl/android.frameworks.cameraservice.device-V1-ndk-source/gen/include/aidl/android/frameworks/cameraservice/device/ICameraDeviceCallback.h"
  },
  {
   "access" : "protected",
   "function_name" : "aidl::android::frameworks::cameraservice::device::BnCameraDeviceCallback::createBinder",
   "linker_set_key" : "_ZN4aidl7android10frameworks13cameraservice6device22BnCameraDeviceCallback12createBinderEv",
   "parameters" :
   [
    {
     "is_this_ptr" : true,
     "referenced_type" : "_ZTIPN4aidl7android10frameworks13cameraservice6device22BnCameraDeviceCallbackE"
    }
   ],
   "return_type" : "_ZTIN3ndk10SpAIBinderE",
   "source_file" : "out/soong/.intermediates/frameworks/hardware/interfaces/cameraservice/device/aidl/android.frameworks.cameraservice.device-V1-ndk-source/gen/include/aidl/android/frameworks/cameraservice/device/BnCameraDeviceCallback.h"
  },
  {
   "function_name" : "aidl::android::frameworks::cameraservice::device::BnCameraDeviceCallback::getInterfaceHash",
   "linker_set_key" : "_ZN4aidl7android10frameworks13cameraservice6device22BnCameraDeviceCallback16getInterfaceHashEPNSt3__112basic_stringIcNS5_11char_traitsIcEENS5_9allocatorIcEEEE",
   "parameters" :
   [
    {
     "is_this_ptr" : true,
     "referenced_type" : "_ZTIPN4aidl7android10frameworks13cameraservice6device22BnCameraDeviceCallbackE"
    },
    {
     "referenced_type" : "_ZTIPNSt3__112basic_stringIcNS_11char_traitsIcEENS_9allocatorIcEEEE"
    }
   ],
   "return_type" : "_ZTIN3ndk13ScopedAStatusE",
   "source_file" : "out/soong/.intermediates/frameworks/hardware/interfaces/cameraservice/device/aidl/android.frameworks.cameraservice.device-V1-ndk-source/gen/include/aidl/android/frameworks/cameraservice/device/BnCameraDeviceCallback.h"
  },
  {
   "function_name" : "aidl::android::frameworks::cameraservice::device::BnCameraDeviceCallback::getInterfaceVersion",
   "linker_set_key" : "_ZN4aidl7android10frameworks13cameraservice6device22BnCameraDeviceCallback19getInterfaceVersionEPi",
   "parameters" :
   [
    {
     "is_this_ptr" : true,
     "referenced_type" : "_ZTIPN4aidl7android10frameworks13cameraservice6device22BnCameraDeviceCallbackE"
    },
    {
     "referenced_type" : "_ZTIPi"
    }
   ],
   "return_type" : "_ZTIN3ndk13ScopedAStatusE",
   "source_file" : "out/soong/.intermediates/frameworks/hardware/interfaces/cameraservice/device/aidl/android.frameworks.cameraservice.device-V1-ndk-source/gen/include/aidl/android/frameworks/cameraservice/device/BnCameraDeviceCallback.h"
  },
  {
   "function_name" : "aidl::android::frameworks::cameraservice::device::BnCameraDeviceCallback::BnCameraDeviceCallback",
   "linker_set_key" : "_ZN4aidl7android10frameworks13cameraservice6device22BnCameraDeviceCallbackC2Ev",
   "parameters" :
   [
    {
     "is_this_ptr" : true,
     "referenced_type" : "_ZTIPN4aidl7android10frameworks13cameraservice6device22BnCameraDeviceCallbackE"
    }
   ],
   "return_type" : "_ZTIv",
   "source_file" : "out/soong/.intermediates/frameworks/hardware/interfaces/cameraservice/device/aidl/android.frameworks.cameraservice.device-V1-ndk-source/gen/include/aidl/android/frameworks/cameraservice/device/BnCameraDeviceCallback.h"
  },
  {
   "function_name" : "aidl::android::frameworks::cameraservice::device::BnCameraDeviceCallback::~BnCameraDeviceCallback",
   "linker_set_key" : "_ZN4aidl7android10frameworks13cameraservice6device22BnCameraDeviceCallbackD0Ev",
   "parameters" :
   [
    {
     "is_this_ptr" : true,
     "referenced_type" : "_ZTIPN4aidl7android10frameworks13cameraservice6device22BnCameraDeviceCallbackE"
    }
   ],
   "return_type" : "_ZTIv",
   "source_file" : "out/soong/.intermediates/frameworks/hardware/interfaces/cameraservice/device/aidl/android.frameworks.cameraservice.device-V1-ndk-source/gen/include/aidl/android/frameworks/cameraservice/device/BnCameraDeviceCallback.h"
  },
  {
   "function_name" : "aidl::android::frameworks::cameraservice::device::BnCameraDeviceCallback::~BnCameraDeviceCallback",
   "linker_set_key" : "_ZN4aidl7android10frameworks13cameraservice6device22BnCameraDeviceCallbackD1Ev",
   "parameters" :
   [
    {
     "is_this_ptr" : true,
     "referenced_type" : "_ZTIPN4aidl7android10frameworks13cameraservice6device22BnCameraDeviceCallbackE"
    }
   ],
   "return_type" : "_ZTIv",
   "source_file" : "out/soong/.intermediates/frameworks/hardware/interfaces/cameraservice/device/aidl/android.frameworks.cameraservice.device-V1-ndk-source/gen/include/aidl/android/frameworks/cameraservice/device/BnCameraDeviceCallback.h"
  },
  {
   "function_name" : "aidl::android::frameworks::cameraservice::device::BnCameraDeviceCallback::~BnCameraDeviceCallback",
   "linker_set_key" : "_ZN4aidl7android10frameworks13cameraservice6device22BnCameraDeviceCallbackD2Ev",
   "parameters" :
   [
    {
     "is_this_ptr" : true,
     "referenced_type" : "_ZTIPN4aidl7android10frameworks13cameraservice6device22BnCameraDeviceCallbackE"
    }
   ],
   "return_type" : "_ZTIv",
   "source_file" : "out/soong/.intermediates/frameworks/hardware/interfaces/cameraservice/device/aidl/android.frameworks.cameraservice.device-V1-ndk-source/gen/include/aidl/android/frameworks/cameraservice/device/BnCameraDeviceCallback.h"
  },
  {
   "function_name" : "aidl::android::frameworks::cameraservice::device::BpCameraDeviceCallback::onPrepared",
   "linker_set_key" : "_ZN4aidl7android10frameworks13cameraservice6device22BpCameraDeviceCallback10onPreparedEi",
   "parameters" :
   [
    {
     "is_this_ptr" : true,
     "referenced_type" : "_ZTIPN4aidl7android10frameworks13cameraservice6device22BpCameraDeviceCallbackE"
    },
    {
     "referenced_type" : "_ZTIi"
    }
   ],
   "return_type" : "_ZTIN3ndk13ScopedAStatusE",
   "source_file" : "out/soong/.intermediates/frameworks/hardware/interfaces/cameraservice/device/aidl/android.frameworks.cameraservice.device-V1-ndk-source/gen/include/aidl/android/frameworks/cameraservice/device/BpCameraDeviceCallback.h"
  },
  {
   "function_name" : "aidl::android::frameworks::cameraservice::device::BpCameraDeviceCallback::onDeviceIdle",
   "linker_set_key" : "_ZN4aidl7android10frameworks13cameraservice6device22BpCameraDeviceCallback12onDeviceIdleEv",
   "parameters" :
   [
    {
     "is_this_ptr" : true,
     "referenced_type" : "_ZTIPN4aidl7android10frameworks13cameraservice6device22BpCameraDeviceCallbackE"
    }
   ],
   "return_type" : "_ZTIN3ndk13ScopedAStatusE",
   "source_file" : "out/soong/.intermediates/frameworks/hardware/interfaces/cameraservice/device/aidl/android.frameworks.cameraservice.device-V1-ndk-source/gen/include/aidl/android/frameworks/cameraservice/device/BpCameraDeviceCallback.h"
  },
  {
   "function_name" : "aidl::android::frameworks::cameraservice::device::BpCameraDeviceCallback::onDeviceError",
   "linker_set_key" : "_ZN4aidl7android10frameworks13cameraservice6device22BpCameraDeviceCallback13onDeviceErrorENS3_9ErrorCodeERKNS3_19CaptureResultExtrasE",
   "parameters" :
   [
    {
     "is_this_ptr" : true,
     "referenced_type" : "_ZTIPN4aidl7android10frameworks13cameraservice6device22BpCameraDeviceCallbackE"
    },
    {
     "referenced_type" : "_ZTIN4aidl7android10frameworks13cameraservice6device9ErrorCodeE"
    },
    {
     "referenced_type" : "_ZTIRKN4aidl7android10frameworks13cameraservice6device19CaptureResultExtrasE"
    }
   ],
   "return_type" : "_ZTIN3ndk13ScopedAStatusE",
   "source_file" : "out/soong/.intermediates/frameworks/hardware/interfaces/cameraservice/device/aidl/android.frameworks.cameraservice.device-V1-ndk-source/gen/include/aidl/android/frameworks/cameraservice/device/BpCameraDeviceCallback.h"
  },
  {
   "function_name" : "aidl::android::frameworks::cameraservice::device::BpCameraDeviceCallback::getInterfaceHash",
   "linker_set_key" : "_ZN4aidl7android10frameworks13cameraservice6device22BpCameraDeviceCallback16getInterfaceHashEPNSt3__112basic_stringIcNS5_11char_traitsIcEENS5_9allocatorIcEEEE",
   "parameters" :
   [
    {
     "is_this_ptr" : true,
     "referenced_type" : "_ZTIPN4aidl7android10frameworks13cameraservice6device22BpCameraDeviceCallbackE"
    },
    {
     "referenced_type" : "_ZTIPNSt3__112basic_stringIcNS_11char_traitsIcEENS_9allocatorIcEEEE"
    }
   ],
   "return_type" : "_ZTIN3ndk13ScopedAStatusE",
   "source_file" : "out/soong/.intermediates/frameworks/hardware/interfaces/cameraservice/device/aidl/android.frameworks.cameraservice.device-V1-ndk-source/gen/include/aidl/android/frameworks/cameraservice/device/BpCameraDeviceCallback.h"
  },
  {
   "function_name" : "aidl::android::frameworks::cameraservice::device::BpCameraDeviceCallback::onCaptureStarted",
   "linker_set_key" : "_ZN4aidl7android10frameworks13cameraservice6device22BpCameraDeviceCallback16onCaptureStartedERKNS3_19CaptureResultExtrasEx",
   "parameters" :
   [
    {
     "is_this_ptr" : true,
     "referenced_type" : "_ZTIPN4aidl7android10frameworks13cameraservice6device22BpCameraDeviceCallbackE"
    },
    {
     "referenced_type" : "_ZTIRKN4aidl7android10frameworks13cameraservice6device19CaptureResultExtrasE"
    },
    {
     "referenced_type" : "_ZTIx"
    }
   ],
   "return_type" : "_ZTIN3ndk13ScopedAStatusE",
   "source_file" : "out/soong/.intermediates/frameworks/hardware/interfaces/cameraservice/device/aidl/android.frameworks.cameraservice.device-V1-ndk-source/gen/include/aidl/android/frameworks/cameraservice/device/BpCameraDeviceCallback.h"
  },
  {
   "function_name" : "aidl::android::frameworks::cameraservice::device::BpCameraDeviceCallback::onResultReceived",
   "linker_set_key" : "_ZN4aidl7android10frameworks13cameraservice6device22BpCameraDeviceCallback16onResultReceivedERKNS3_19CaptureMetadataInfoERKNS3_19CaptureResultExtrasERKNSt3__16vectorINS3_25PhysicalCaptureResultInfoENSB_9allocatorISD_EEEE",
   "parameters" :
   [
    {
     "is_this_ptr" : true,
     "referenced_type" : "_ZTIPN4aidl7android10frameworks13cameraservice6device22BpCameraDeviceCallbackE"
    },
    {
     "referenced_type" : "_ZTIRKN4aidl7android10frameworks13cameraservice6device19CaptureMetadataInfoE"
    },
    {
     "referenced_type" : "_ZTIRKN4aidl7android10frameworks13cameraservice6device19CaptureResultExtrasE"
    },
    {
     "referenced_type" : "_ZTIRKNSt3__16vectorIN4aidl7android10frameworks13cameraservice6device25PhysicalCaptureResultInfoENS_9allocatorIS6_EEEE"
    }
   ],
   "return_type" : "_ZTIN3ndk13ScopedAStatusE",
   "source_file" : "out/soong/.intermediates/frameworks/hardware/interfaces/cameraservice/device/aidl/android.frameworks.cameraservice.device-V1-ndk-source/gen/include/aidl/android/frameworks/cameraservice/device/BpCameraDeviceCallback.h"
  },
  {
   "function_name" : "aidl::android::frameworks::cameraservice::device::BpCameraDeviceCallback::getInterfaceVersion",
   "linker_set_key" : "_ZN4aidl7android10frameworks13cameraservice6device22BpCameraDeviceCallback19getInterfaceVersionEPi",
   "parameters" :
   [
    {
     "is_this_ptr" : true,
     "referenced_type" : "_ZTIPN4aidl7android10frameworks13cameraservice6device22BpCameraDeviceCallbackE"
    },
    {
     "referenced_type" : "_ZTIPi"
    }
   ],
   "return_type" : "_ZTIN3ndk13ScopedAStatusE",
   "source_file" : "out/soong/.intermediates/frameworks/hardware/interfaces/cameraservice/device/aidl/android.frameworks.cameraservice.device-V1-ndk-source/gen/include/aidl/android/frameworks/cameraservice/device/BpCameraDeviceCallback.h"
  },
  {
   "function_name" : "aidl::android::frameworks::cameraservice::device::BpCameraDeviceCallback::onRepeatingRequestError",
   "linker_set_key" : "_ZN4aidl7android10frameworks13cameraservice6device22BpCameraDeviceCallback23onRepeatingRequestErrorExi",
   "parameters" :
   [
    {
     "is_this_ptr" : true,
     "referenced_type" : "_ZTIPN4aidl7android10frameworks13cameraservice6device22BpCameraDeviceCallbackE"
    },
    {
     "referenced_type" : "_ZTIx"
    },
    {
     "referenced_type" : "_ZTIi"
    }
   ],
   "return_type" : "_ZTIN3ndk13ScopedAStatusE",
   "source_file" : "out/soong/.intermediates/frameworks/hardware/interfaces/cameraservice/device/aidl/android.frameworks.cameraservice.device-V1-ndk-source/gen/include/aidl/android/frameworks/cameraservice/device/BpCameraDeviceCallback.h"
  },
  {
   "function_name" : "aidl::android::frameworks::cameraservice::device::BpCameraDeviceCallback::BpCameraDeviceCallback",
   "linker_set_key" : "_ZN4aidl7android10frameworks13cameraservice6device22BpCameraDeviceCallbackC1ERKN3ndk10SpAIBinderE",
   "parameters" :
   [
    {
     "is_this_ptr" : true,
     "referenced_type" : "_ZTIPN4aidl7android10frameworks13cameraservice6device22BpCameraDeviceCallbackE"
    },
    {
     "referenced_type" : "_ZTIRKN3ndk10SpAIBinderE"
    }
   ],
   "return_type" : "_ZTIv",
   "source_file" : "out/soong/.intermediates/frameworks/hardware/interfaces/cameraservice/device/aidl/android.frameworks.cameraservice.device-V1-ndk-source/gen/include/aidl/android/frameworks/cameraservice/device/BpCameraDeviceCallback.h"
  },
  {
   "function_name" : "aidl::android::frameworks::cameraservice::device::BpCameraDeviceCallback::BpCameraDeviceCallback",
   "linker_set_key" : "_ZN4aidl7android10frameworks13cameraservice6device22BpCameraDeviceCallbackC2ERKN3ndk10SpAIBinderE",
   "parameters" :
   [
    {
     "is_this_ptr" : true,
     "referenced_type" : "_ZTIPN4aidl7android10frameworks13cameraservice6device22BpCameraDeviceCallbackE"
    },
    {
     "referenced_type" : "_ZTIRKN3ndk10SpAIBinderE"
    }
   ],
   "return_type" : "_ZTIv",
   "source_file" : "out/soong/.intermediates/frameworks/hardware/interfaces/cameraservice/device/aidl/android.frameworks.cameraservice.device-V1-ndk-source/gen/include/aidl/android/frameworks/cameraservice/device/BpCameraDeviceCallback.h"
  },
  {
   "function_name" : "aidl::android::frameworks::cameraservice::device::BpCameraDeviceCallback::~BpCameraDeviceCallback",
   "linker_set_key" : "_ZN4aidl7android10frameworks13cameraservice6device22BpCameraDeviceCallbackD0Ev",
   "parameters" :
   [
    {
     "is_this_ptr" : true,
     "referenced_type" : "_ZTIPN4aidl7android10frameworks13cameraservice6device22BpCameraDeviceCallbackE"
    }
   ],
   "return_type" : "_ZTIv",
   "source_file" : "out/soong/.intermediates/frameworks/hardware/interfaces/cameraservice/device/aidl/android.frameworks.cameraservice.device-V1-ndk-source/gen/include/aidl/android/frameworks/cameraservice/device/BpCameraDeviceCallback.h"
  },
  {
   "function_name" : "aidl::android::frameworks::cameraservice::device::BpCameraDeviceCallback::~BpCameraDeviceCallback",
   "linker_set_key" : "_ZN4aidl7android10frameworks13cameraservice6device22BpCameraDeviceCallbackD1Ev",
   "parameters" :
   [
    {
     "is_this_ptr" : true,
     "referenced_type" : "_ZTIPN4aidl7android10frameworks13cameraservice6device22BpCameraDeviceCallbackE"
    }
   ],
   "return_type" : "_ZTIv",
   "source_file" : "out/soong/.intermediates/frameworks/hardware/interfaces/cameraservice/device/aidl/android.frameworks.cameraservice.device-V1-ndk-source/gen/include/aidl/android/frameworks/cameraservice/device/BpCameraDeviceCallback.h"
  },
  {
   "function_name" : "aidl::android::frameworks::cameraservice::device::BpCameraDeviceCallback::~BpCameraDeviceCallback",
   "linker_set_key" : "_ZN4aidl7android10frameworks13cameraservice6device22BpCameraDeviceCallbackD2Ev",
   "parameters" :
   [
    {
     "is_this_ptr" : true,
     "referenced_type" : "_ZTIPN4aidl7android10frameworks13cameraservice6device22BpCameraDeviceCallbackE"
    }
   ],
   "return_type" : "_ZTIv",
   "source_file" : "out/soong/.intermediates/frameworks/hardware/interfaces/cameraservice/device/aidl/android.frameworks.cameraservice.device-V1-ndk-source/gen/include/aidl/android/frameworks/cameraservice/device/BpCameraDeviceCallback.h"
  },
  {
   "function_name" : "aidl::android::frameworks::cameraservice::device::PhysicalCameraSettings::readFromParcel",
   "linker_set_key" : "_ZN4aidl7android10frameworks13cameraservice6device22PhysicalCameraSettings14readFromParcelEPK7AParcel",
   "parameters" :
   [
    {
     "is_this_ptr" : true,
     "referenced_type" : "_ZTIPN4aidl7android10frameworks13cameraservice6device22PhysicalCameraSettingsE"
    },
    {
     "referenced_type" : "_ZTIPK7AParcel"
    }
   ],
   "return_type" : "_ZTIi",
   "source_file" : "out/soong/.intermediates/frameworks/hardware/interfaces/cameraservice/device/aidl/android.frameworks.cameraservice.device-V1-ndk-source/gen/include/aidl/android/frameworks/cameraservice/device/PhysicalCameraSettings.h"
  },
  {
   "function_name" : "aidl::android::frameworks::cameraservice::device::ICameraDeviceUserDefault::disconnect",
   "linker_set_key" : "_ZN4aidl7android10frameworks13cameraservice6device24ICameraDeviceUserDefault10disconnectEv",
   "parameters" :
   [
    {
     "is_this_ptr" : true,
     "referenced_type" : "_ZTIPN4aidl7android10frameworks13cameraservice6device24ICameraDeviceUserDefaultE"
    }
   ],
   "return_type" : "_ZTIN3ndk13ScopedAStatusE",
   "source_file" : "out/soong/.intermediates/frameworks/hardware/interfaces/cameraservice/device/aidl/android.frameworks.cameraservice.device-V1-ndk-source/gen/include/aidl/android/frameworks/cameraservice/device/ICameraDeviceUser.h"
  },
  {
   "function_name" : "aidl::android::frameworks::cameraservice::device::ICameraDeviceUserDefault::createStream",
   "linker_set_key" : "_ZN4aidl7android10frameworks13cameraservice6device24ICameraDeviceUserDefault12createStreamERKNS3_19OutputConfigurationEPi",
   "parameters" :
   [
    {
     "is_this_ptr" : true,
     "referenced_type" : "_ZTIPN4aidl7android10frameworks13cameraservice6device24ICameraDeviceUserDefaultE"
    },
    {
     "referenced_type" : "_ZTIRKN4aidl7android10frameworks13cameraservice6device19OutputConfigurationE"
    },
    {
     "referenced_type" : "_ZTIPi"
    }
   ],
   "return_type" : "_ZTIN3ndk13ScopedAStatusE",
   "source_file" : "out/soong/.intermediates/frameworks/hardware/interfaces/cameraservice/device/aidl/android.frameworks.cameraservice.device-V1-ndk-source/gen/include/aidl/android/frameworks/cameraservice/device/ICameraDeviceUser.h"
  },
  {
   "function_name" : "aidl::android::frameworks::cameraservice::device::ICameraDeviceUserDefault::deleteStream",
   "linker_set_key" : "_ZN4aidl7android10frameworks13cameraservice6device24ICameraDeviceUserDefault12deleteStreamEi",
   "parameters" :
   [
    {
     "is_this_ptr" : true,
     "referenced_type" : "_ZTIPN4aidl7android10frameworks13cameraservice6device24ICameraDeviceUserDefaultE"
    },
    {
     "referenced_type" : "_ZTIi"
    }
   ],
   "return_type" : "_ZTIN3ndk13ScopedAStatusE",
   "source_file" : "out/soong/.intermediates/frameworks/hardware/interfaces/cameraservice/device/aidl/android.frameworks.cameraservice.device-V1-ndk-source/gen/include/aidl/android/frameworks/cameraservice/device/ICameraDeviceUser.h"
  },
  {
   "function_name" : "aidl::android::frameworks::cameraservice::device::ICameraDeviceUserDefault::endConfigure",
   "linker_set_key" : "_ZN4aidl7android10frameworks13cameraservice6device24ICameraDeviceUserDefault12endConfigureENS3_23StreamConfigurationModeERKNS3_14CameraMetadataEx",
   "parameters" :
   [
    {
     "is_this_ptr" : true,
     "referenced_type" : "_ZTIPN4aidl7android10frameworks13cameraservice6device24ICameraDeviceUserDefaultE"
    },
    {
     "referenced_type" : "_ZTIN4aidl7android10frameworks13cameraservice6device23StreamConfigurationModeE"
    },
    {
     "referenced_type" : "_ZTIRKN4aidl7android10frameworks13cameraservice6device14CameraMetadataE"
    },
    {
     "referenced_type" : "_ZTIx"
    }
   ],
   "return_type" : "_ZTIN3ndk13ScopedAStatusE",
   "source_file" : "out/soong/.intermediates/frameworks/hardware/interfaces/cameraservice/device/aidl/android.frameworks.cameraservice.device-V1-ndk-source/gen/include/aidl/android/frameworks/cameraservice/device/ICameraDeviceUser.h"
  },
  {
   "function_name" : "aidl::android::frameworks::cameraservice::device::ICameraDeviceUserDefault::waitUntilIdle",
   "linker_set_key" : "_ZN4aidl7android10frameworks13cameraservice6device24ICameraDeviceUserDefault13waitUntilIdleEv",
   "parameters" :
   [
    {
     "is_this_ptr" : true,
     "referenced_type" : "_ZTIPN4aidl7android10frameworks13cameraservice6device24ICameraDeviceUserDefaultE"
    }
   ],
   "return_type" : "_ZTIN3ndk13ScopedAStatusE",
   "source_file" : "out/soong/.intermediates/frameworks/hardware/interfaces/cameraservice/device/aidl/android.frameworks.cameraservice.device-V1-ndk-source/gen/include/aidl/android/frameworks/cameraservice/device/ICameraDeviceUser.h"
  },
  {
   "function_name" : "aidl::android::frameworks::cameraservice::device::ICameraDeviceUserDefault::beginConfigure",
   "linker_set_key" : "_ZN4aidl7android10frameworks13cameraservice6device24ICameraDeviceUserDefault14beginConfigureEv",
   "parameters" :
   [
    {
     "is_this_ptr" : true,
     "referenced_type" : "_ZTIPN4aidl7android10frameworks13cameraservice6device24ICameraDeviceUserDefaultE"
    }
   ],
   "return_type" : "_ZTIN3ndk13ScopedAStatusE",
   "source_file" : "out/soong/.intermediates/frameworks/hardware/interfaces/cameraservice/device/aidl/android.frameworks.cameraservice.device-V1-ndk-source/gen/include/aidl/android/frameworks/cameraservice/device/ICameraDeviceUser.h"
  },
  {
   "function_name" : "aidl::android::frameworks::cameraservice::device::ICameraDeviceUserDefault::getInterfaceHash",
   "linker_set_key" : "_ZN4aidl7android10frameworks13cameraservice6device24ICameraDeviceUserDefault16getInterfaceHashEPNSt3__112basic_stringIcNS5_11char_traitsIcEENS5_9allocatorIcEEEE",
   "parameters" :
   [
    {
     "is_this_ptr" : true,
     "referenced_type" : "_ZTIPN4aidl7android10frameworks13cameraservice6device24ICameraDeviceUserDefaultE"
    },
    {
     "referenced_type" : "_ZTIPNSt3__112basic_stringIcNS_11char_traitsIcEENS_9allocatorIcEEEE"
    }
   ],
   "return_type" : "_ZTIN3ndk13ScopedAStatusE",
   "source_file" : "out/soong/.intermediates/frameworks/hardware/interfaces/cameraservice/device/aidl/android.frameworks.cameraservice.device-V1-ndk-source/gen/include/aidl/android/frameworks/cameraservice/device/ICameraDeviceUser.h"
  },
  {
   "function_name" : "aidl::android::frameworks::cameraservice::device::ICameraDeviceUserDefault::submitRequestList",
   "linker_set_key" : "_ZN4aidl7android10frameworks13cameraservice6device24ICameraDeviceUserDefault17submitRequestListERKNSt3__16vectorINS3_14CaptureRequestENS5_9allocatorIS7_EEEEbPNS3_10SubmitInfoE",
   "parameters" :
   [
    {
     "is_this_ptr" : true,
     "referenced_type" : "_ZTIPN4aidl7android10frameworks13cameraservice6device24ICameraDeviceUserDefaultE"
    },
    {
     "referenced_type" : "_ZTIRKNSt3__16vectorIN4aidl7android10frameworks13cameraservice6device14CaptureRequestENS_9allocatorIS6_EEEE"
    },
    {
     "referenced_type" : "_ZTIb"
    },
    {
     "referenced_type" : "_ZTIPN4aidl7android10frameworks13cameraservice6device10SubmitInfoE"
    }
   ],
   "return_type" : "_ZTIN3ndk13ScopedAStatusE",
   "source_file" : "out/soong/.intermediates/frameworks/hardware/interfaces/cameraservice/device/aidl/android.frameworks.cameraservice.device-V1-ndk-source/gen/include/aidl/android/frameworks/cameraservice/device/ICameraDeviceUser.h"
  },
  {
   "function_name" : "aidl::android::frameworks::cameraservice::device::ICameraDeviceUserDefault::getInterfaceVersion",
   "linker_set_key" : "_ZN4aidl7android10frameworks13cameraservice6device24ICameraDeviceUserDefault19getInterfaceVersionEPi",
   "parameters" :
   [
    {
     "is_this_ptr" : true,
     "referenced_type" : "_ZTIPN4aidl7android10frameworks13cameraservice6device24ICameraDeviceUserDefaultE"
    },
    {
     "referenced_type" : "_ZTIPi"
    }
   ],
   "return_type" : "_ZTIN3ndk13ScopedAStatusE",
   "source_file" : "out/soong/.intermediates/frameworks/hardware/interfaces/cameraservice/device/aidl/android.frameworks.cameraservice.device-V1-ndk-source/gen/include/aidl/android/frameworks/cameraservice/device/ICameraDeviceUser.h"
  },
  {
   "function_name" : "aidl::android::frameworks::cameraservice::device::ICameraDeviceUserDefault::createDefaultRequest",
   "linker_set_key" : "_ZN4aidl7android10frameworks13cameraservice6device24ICameraDeviceUserDefault20createDefaultRequestENS3_10TemplateIdEPNS3_14CameraMetadataE",
   "parameters" :
   [
    {
     "is_this_ptr" : true,
     "referenced_type" : "_ZTIPN4aidl7android10frameworks13cameraservice6device24ICameraDeviceUserDefaultE"
    },
    {
     "referenced_type" : "_ZTIN4aidl7android10frameworks13cameraservice6device10TemplateIdE"
    },
    {
     "referenced_type" : "_ZTIPN4aidl7android10frameworks13cameraservice6device14CameraMetadataE"
    }
   ],
   "return_type" : "_ZTIN3ndk13ScopedAStatusE",
   "source_file" : "out/soong/.intermediates/frameworks/hardware/interfaces/cameraservice/device/aidl/android.frameworks.cameraservice.device-V1-ndk-source/gen/include/aidl/android/frameworks/cameraservice/device/ICameraDeviceUser.h"
  },
  {
   "function_name" : "aidl::android::frameworks::cameraservice::device::ICameraDeviceUserDefault::cancelRepeatingRequest",
   "linker_set_key" : "_ZN4aidl7android10frameworks13cameraservice6device24ICameraDeviceUserDefault22cancelRepeatingRequestEPx",
   "parameters" :
   [
    {
     "is_this_ptr" : true,
     "referenced_type" : "_ZTIPN4aidl7android10frameworks13cameraservice6device24ICameraDeviceUserDefaultE"
    },
    {
     "referenced_type" : "_ZTIPx"
    }
   ],
   "return_type" : "_ZTIN3ndk13ScopedAStatusE",
   "source_file" : "out/soong/.intermediates/frameworks/hardware/interfaces/cameraservice/device/aidl/android.frameworks.cameraservice.device-V1-ndk-source/gen/include/aidl/android/frameworks/cameraservice/device/ICameraDeviceUser.h"
  },
  {
   "function_name" : "aidl::android::frameworks::cameraservice::device::ICameraDeviceUserDefault::updateOutputConfiguration",
   "linker_set_key" : "_ZN4aidl7android10frameworks13cameraservice6device24ICameraDeviceUserDefault25updateOutputConfigurationEiRKNS3_19OutputConfigurationE",
   "parameters" :
   [
    {
     "is_this_ptr" : true,
     "referenced_type" : "_ZTIPN4aidl7android10frameworks13cameraservice6device24ICameraDeviceUserDefaultE"
    },
    {
     "referenced_type" : "_ZTIi"
    },
    {
     "referenced_type" : "_ZTIRKN4aidl7android10frameworks13cameraservice6device19OutputConfigurationE"
    }
   ],
   "return_type" : "_ZTIN3ndk13ScopedAStatusE",
   "source_file" : "out/soong/.intermediates/frameworks/hardware/interfaces/cameraservice/device/aidl/android.frameworks.cameraservice.device-V1-ndk-source/gen/include/aidl/android/frameworks/cameraservice/device/ICameraDeviceUser.h"
  },
  {
   "function_name" : "aidl::android::frameworks::cameraservice::device::ICameraDeviceUserDefault::getCaptureResultMetadataQueue",
   "linker_set_key" : "_ZN4aidl7android10frameworks13cameraservice6device24ICameraDeviceUserDefault29getCaptureResultMetadataQueueEPNS0_8hardware6common3fmq12MQDescriptorIaNS7_21SynchronizedReadWriteEEE",
   "parameters" :
   [
    {
     "is_this_ptr" : true,
     "referenced_type" : "_ZTIPN4aidl7android10frameworks13cameraservice6device24ICameraDeviceUserDefaultE"
    },
    {
     "referenced_type" : "_ZTIPN4aidl7android8hardware6common3fmq12MQDescriptorIaNS3_21SynchronizedReadWriteEEE"
    }
   ],
   "return_type" : "_ZTIN3ndk13ScopedAStatusE",
   "source_file" : "out/soong/.intermediates/frameworks/hardware/interfaces/cameraservice/device/aidl/android.frameworks.cameraservice.device-V1-ndk-source/gen/include/aidl/android/frameworks/cameraservice/device/ICameraDeviceUser.h"
  },
  {
   "function_name" : "aidl::android::frameworks::cameraservice::device::ICameraDeviceUserDefault::getCaptureRequestMetadataQueue",
   "linker_set_key" : "_ZN4aidl7android10frameworks13cameraservice6device24ICameraDeviceUserDefault30getCaptureRequestMetadataQueueEPNS0_8hardware6common3fmq12MQDescriptorIaNS7_21SynchronizedReadWriteEEE",
   "parameters" :
   [
    {
     "is_this_ptr" : true,
     "referenced_type" : "_ZTIPN4aidl7android10frameworks13cameraservice6device24ICameraDeviceUserDefaultE"
    },
    {
     "referenced_type" : "_ZTIPN4aidl7android8hardware6common3fmq12MQDescriptorIaNS3_21SynchronizedReadWriteEEE"
    }
   ],
   "return_type" : "_ZTIN3ndk13ScopedAStatusE",
   "source_file" : "out/soong/.intermediates/frameworks/hardware/interfaces/cameraservice/device/aidl/android.frameworks.cameraservice.device-V1-ndk-source/gen/include/aidl/android/frameworks/cameraservice/device/ICameraDeviceUser.h"
  },
  {
   "function_name" : "aidl::android::frameworks::cameraservice::device::ICameraDeviceUserDefault::isSessionConfigurationSupported",
   "linker_set_key" : "_ZN4aidl7android10frameworks13cameraservice6device24ICameraDeviceUserDefault31isSessionConfigurationSupportedERKNS3_20SessionConfigurationEPb",
   "parameters" :
   [
    {
     "is_this_ptr" : true,
     "referenced_type" : "_ZTIPN4aidl7android10frameworks13cameraservice6device24ICameraDeviceUserDefaultE"
    },
    {
     "referenced_type" : "_ZTIRKN4aidl7android10frameworks13cameraservice6device20SessionConfigurationE"
    },
    {
     "referenced_type" : "_ZTIPb"
    }
   ],
   "return_type" : "_ZTIN3ndk13ScopedAStatusE",
   "source_file" : "out/soong/.intermediates/frameworks/hardware/interfaces/cameraservice/device/aidl/android.frameworks.cameraservice.device-V1-ndk-source/gen/include/aidl/android/frameworks/cameraservice/device/ICameraDeviceUser.h"
  },
  {
   "function_name" : "aidl::android::frameworks::cameraservice::device::ICameraDeviceUserDefault::flush",
   "linker_set_key" : "_ZN4aidl7android10frameworks13cameraservice6device24ICameraDeviceUserDefault5flushEPx",
   "parameters" :
   [
    {
     "is_this_ptr" : true,
     "referenced_type" : "_ZTIPN4aidl7android10frameworks13cameraservice6device24ICameraDeviceUserDefaultE"
    },
    {
     "referenced_type" : "_ZTIPx"
    }
   ],
   "return_type" : "_ZTIN3ndk13ScopedAStatusE",
   "source_file" : "out/soong/.intermediates/frameworks/hardware/interfaces/cameraservice/device/aidl/android.frameworks.cameraservice.device-V1-ndk-source/gen/include/aidl/android/frameworks/cameraservice/device/ICameraDeviceUser.h"
  },
  {
   "function_name" : "aidl::android::frameworks::cameraservice::device::ICameraDeviceUserDefault::prepare",
   "linker_set_key" : "_ZN4aidl7android10frameworks13cameraservice6device24ICameraDeviceUserDefault7prepareEi",
   "parameters" :
   [
    {
     "is_this_ptr" : true,
     "referenced_type" : "_ZTIPN4aidl7android10frameworks13cameraservice6device24ICameraDeviceUserDefaultE"
    },
    {
     "referenced_type" : "_ZTIi"
    }
   ],
   "return_type" : "_ZTIN3ndk13ScopedAStatusE",
   "source_file" : "out/soong/.intermediates/frameworks/hardware/interfaces/cameraservice/device/aidl/android.frameworks.cameraservice.device-V1-ndk-source/gen/include/aidl/android/frameworks/cameraservice/device/ICameraDeviceUser.h"
  },
  {
   "function_name" : "aidl::android::frameworks::cameraservice::device::ICameraDeviceUserDefault::asBinder",
   "linker_set_key" : "_ZN4aidl7android10frameworks13cameraservice6device24ICameraDeviceUserDefault8asBinderEv",
   "parameters" :
   [
    {
     "is_this_ptr" : true,
     "referenced_type" : "_ZTIPN4aidl7android10frameworks13cameraservice6device24ICameraDeviceUserDefaultE"
    }
   ],
   "return_type" : "_ZTIN3ndk10SpAIBinderE",
   "source_file" : "out/soong/.intermediates/frameworks/hardware/interfaces/cameraservice/device/aidl/android.frameworks.cameraservice.device-V1-ndk-source/gen/include/aidl/android/frameworks/cameraservice/device/ICameraDeviceUser.h"
  },
  {
   "function_name" : "aidl::android::frameworks::cameraservice::device::ICameraDeviceUserDefault::isRemote",
   "linker_set_key" : "_ZN4aidl7android10frameworks13cameraservice6device24ICameraDeviceUserDefault8isRemoteEv",
   "parameters" :
   [
    {
     "is_this_ptr" : true,
     "referenced_type" : "_ZTIPN4aidl7android10frameworks13cameraservice6device24ICameraDeviceUserDefaultE"
    }
   ],
   "return_type" : "_ZTIb",
   "source_file" : "out/soong/.intermediates/frameworks/hardware/interfaces/cameraservice/device/aidl/android.frameworks.cameraservice.device-V1-ndk-source/gen/include/aidl/android/frameworks/cameraservice/device/ICameraDeviceUser.h"
  },
  {
   "function_name" : "aidl::android::frameworks::cameraservice::device::PhysicalCaptureResultInfo::readFromParcel",
   "linker_set_key" : "_ZN4aidl7android10frameworks13cameraservice6device25PhysicalCaptureResultInfo14readFromParcelEPK7AParcel",
   "parameters" :
   [
    {
     "is_this_ptr" : true,
     "referenced_type" : "_ZTIPN4aidl7android10frameworks13cameraservice6device25PhysicalCaptureResultInfoE"
    },
    {
     "referenced_type" : "_ZTIPK7AParcel"
    }
   ],
   "return_type" : "_ZTIi",
   "source_file" : "out/soong/.intermediates/frameworks/hardware/interfaces/cameraservice/device/aidl/android.frameworks.cameraservice.device-V1-ndk-source/gen/include/aidl/android/frameworks/cameraservice/device/PhysicalCaptureResultInfo.h"
  },
  {
   "function_name" : "aidl::android::frameworks::cameraservice::device::ICameraDeviceCallbackDefault::onPrepared",
   "linker_set_key" : "_ZN4aidl7android10frameworks13cameraservice6device28ICameraDeviceCallbackDefault10onPreparedEi",
   "parameters" :
   [
    {
     "is_this_ptr" : true,
     "referenced_type" : "_ZTIPN4aidl7android10frameworks13cameraservice6device28ICameraDeviceCallbackDefaultE"
    },
    {
     "referenced_type" : "_ZTIi"
    }
   ],
   "return_type" : "_ZTIN3ndk13ScopedAStatusE",
   "source_file" : "out/soong/.intermediates/frameworks/hardware/interfaces/cameraservice/device/aidl/android.frameworks.cameraservice.device-V1-ndk-source/gen/include/aidl/android/frameworks/cameraservice/device/ICameraDeviceCallback.h"
  },
  {
   "function_name" : "aidl::android::frameworks::cameraservice::device::ICameraDeviceCallbackDefault::onDeviceIdle",
   "linker_set_key" : "_ZN4aidl7android10frameworks13cameraservice6device28ICameraDeviceCallbackDefault12onDeviceIdleEv",
   "parameters" :
   [
    {
     "is_this_ptr" : true,
     "referenced_type" : "_ZTIPN4aidl7android10frameworks13cameraservice6device28ICameraDeviceCallbackDefaultE"
    }
   ],
   "return_type" : "_ZTIN3ndk13ScopedAStatusE",
   "source_file" : "out/soong/.intermediates/frameworks/hardware/interfaces/cameraservice/device/aidl/android.frameworks.cameraservice.device-V1-ndk-source/gen/include/aidl/android/frameworks/cameraservice/device/ICameraDeviceCallback.h"
  },
  {
   "function_name" : "aidl::android::frameworks::cameraservice::device::ICameraDeviceCallbackDefault::onDeviceError",
   "linker_set_key" : "_ZN4aidl7android10frameworks13cameraservice6device28ICameraDeviceCallbackDefault13onDeviceErrorENS3_9ErrorCodeERKNS3_19CaptureResultExtrasE",
   "parameters" :
   [
    {
     "is_this_ptr" : true,
     "referenced_type" : "_ZTIPN4aidl7android10frameworks13cameraservice6device28ICameraDeviceCallbackDefaultE"
    },
    {
     "referenced_type" : "_ZTIN4aidl7android10frameworks13cameraservice6device9ErrorCodeE"
    },
    {
     "referenced_type" : "_ZTIRKN4aidl7android10frameworks13cameraservice6device19CaptureResultExtrasE"
    }
   ],
   "return_type" : "_ZTIN3ndk13ScopedAStatusE",
   "source_file" : "out/soong/.intermediates/frameworks/hardware/interfaces/cameraservice/device/aidl/android.frameworks.cameraservice.device-V1-ndk-source/gen/include/aidl/android/frameworks/cameraservice/device/ICameraDeviceCallback.h"
  },
  {
   "function_name" : "aidl::android::frameworks::cameraservice::device::ICameraDeviceCallbackDefault::getInterfaceHash",
   "linker_set_key" : "_ZN4aidl7android10frameworks13cameraservice6device28ICameraDeviceCallbackDefault16getInterfaceHashEPNSt3__112basic_stringIcNS5_11char_traitsIcEENS5_9allocatorIcEEEE",
   "parameters" :
   [
    {
     "is_this_ptr" : true,
     "referenced_type" : "_ZTIPN4aidl7android10frameworks13cameraservice6device28ICameraDeviceCallbackDefaultE"
    },
    {
     "referenced_type" : "_ZTIPNSt3__112basic_stringIcNS_11char_traitsIcEENS_9allocatorIcEEEE"
    }
   ],
   "return_type" : "_ZTIN3ndk13ScopedAStatusE",
   "source_file" : "out/soong/.intermediates/frameworks/hardware/interfaces/cameraservice/device/aidl/android.frameworks.cameraservice.device-V1-ndk-source/gen/include/aidl/android/frameworks/cameraservice/device/ICameraDeviceCallback.h"
  },
  {
   "function_name" : "aidl::android::frameworks::cameraservice::device::ICameraDeviceCallbackDefault::onCaptureStarted",
   "linker_set_key" : "_ZN4aidl7android10frameworks13cameraservice6device28ICameraDeviceCallbackDefault16onCaptureStartedERKNS3_19CaptureResultExtrasEx",
   "parameters" :
   [
    {
     "is_this_ptr" : true,
     "referenced_type" : "_ZTIPN4aidl7android10frameworks13cameraservice6device28ICameraDeviceCallbackDefaultE"
    },
    {
     "referenced_type" : "_ZTIRKN4aidl7android10frameworks13cameraservice6device19CaptureResultExtrasE"
    },
    {
     "referenced_type" : "_ZTIx"
    }
   ],
   "return_type" : "_ZTIN3ndk13ScopedAStatusE",
   "source_file" : "out/soong/.intermediates/frameworks/hardware/interfaces/cameraservice/device/aidl/android.frameworks.cameraservice.device-V1-ndk-source/gen/include/aidl/android/frameworks/cameraservice/device/ICameraDeviceCallback.h"
  },
  {
   "function_name" : "aidl::android::frameworks::cameraservice::device::ICameraDeviceCallbackDefault::onResultReceived",
   "linker_set_key" : "_ZN4aidl7android10frameworks13cameraservice6device28ICameraDeviceCallbackDefault16onResultReceivedERKNS3_19CaptureMetadataInfoERKNS3_19CaptureResultExtrasERKNSt3__16vectorINS3_25PhysicalCaptureResultInfoENSB_9allocatorISD_EEEE",
   "parameters" :
   [
    {
     "is_this_ptr" : true,
     "referenced_type" : "_ZTIPN4aidl7android10frameworks13cameraservice6device28ICameraDeviceCallbackDefaultE"
    },
    {
     "referenced_type" : "_ZTIRKN4aidl7android10frameworks13cameraservice6device19CaptureMetadataInfoE"
    },
    {
     "referenced_type" : "_ZTIRKN4aidl7android10frameworks13cameraservice6device19CaptureResultExtrasE"
    },
    {
     "referenced_type" : "_ZTIRKNSt3__16vectorIN4aidl7android10frameworks13cameraservice6device25PhysicalCaptureResultInfoENS_9allocatorIS6_EEEE"
    }
   ],
   "return_type" : "_ZTIN3ndk13ScopedAStatusE",
   "source_file" : "out/soong/.intermediates/frameworks/hardware/interfaces/cameraservice/device/aidl/android.frameworks.cameraservice.device-V1-ndk-source/gen/include/aidl/android/frameworks/cameraservice/device/ICameraDeviceCallback.h"
  },
  {
   "function_name" : "aidl::android::frameworks::cameraservice::device::ICameraDeviceCallbackDefault::getInterfaceVersion",
   "linker_set_key" : "_ZN4aidl7android10frameworks13cameraservice6device28ICameraDeviceCallbackDefault19getInterfaceVersionEPi",
   "parameters" :
   [
    {
     "is_this_ptr" : true,
     "referenced_type" : "_ZTIPN4aidl7android10frameworks13cameraservice6device28ICameraDeviceCallbackDefaultE"
    },
    {
     "referenced_type" : "_ZTIPi"
    }
   ],
   "return_type" : "_ZTIN3ndk13ScopedAStatusE",
   "source_file" : "out/soong/.intermediates/frameworks/hardware/interfaces/cameraservice/device/aidl/android.frameworks.cameraservice.device-V1-ndk-source/gen/include/aidl/android/frameworks/cameraservice/device/ICameraDeviceCallback.h"
  },
  {
   "function_name" : "aidl::android::frameworks::cameraservice::device::ICameraDeviceCallbackDefault::onRepeatingRequestError",
   "linker_set_key" : "_ZN4aidl7android10frameworks13cameraservice6device28ICameraDeviceCallbackDefault23onRepeatingRequestErrorExi",
   "parameters" :
   [
    {
     "is_this_ptr" : true,
     "referenced_type" : "_ZTIPN4aidl7android10frameworks13cameraservice6device28ICameraDeviceCallbackDefaultE"
    },
    {
     "referenced_type" : "_ZTIx"
    },
    {
     "referenced_type" : "_ZTIi"
    }
   ],
   "return_type" : "_ZTIN3ndk13ScopedAStatusE",
   "source_file" : "out/soong/.intermediates/frameworks/hardware/interfaces/cameraservice/device/aidl/android.frameworks.cameraservice.device-V1-ndk-source/gen/include/aidl/android/frameworks/cameraservice/device/ICameraDeviceCallback.h"
  },
  {
   "function_name" : "aidl::android::frameworks::cameraservice::device::ICameraDeviceCallbackDefault::asBinder",
   "linker_set_key" : "_ZN4aidl7android10frameworks13cameraservice6device28ICameraDeviceCallbackDefault8asBinderEv",
   "parameters" :
   [
    {
     "is_this_ptr" : true,
     "referenced_type" : "_ZTIPN4aidl7android10frameworks13cameraservice6device28ICameraDeviceCallbackDefaultE"
    }
   ],
   "return_type" : "_ZTIN3ndk10SpAIBinderE",
   "source_file" : "out/soong/.intermediates/frameworks/hardware/interfaces/cameraservice/device/aidl/android.frameworks.cameraservice.device-V1-ndk-source/gen/include/aidl/android/frameworks/cameraservice/device/ICameraDeviceCallback.h"
  },
  {
   "function_name" : "aidl::android::frameworks::cameraservice::device::ICameraDeviceCallbackDefault::isRemote",
   "linker_set_key" : "_ZN4aidl7android10frameworks13cameraservice6device28ICameraDeviceCallbackDefault8isRemoteEv",
   "parameters" :
   [
    {
     "is_this_ptr" : true,
     "referenced_type" : "_ZTIPN4aidl7android10frameworks13cameraservice6device28ICameraDeviceCallbackDefaultE"
    }
   ],
   "return_type" : "_ZTIb",
   "source_file" : "out/soong/.intermediates/frameworks/hardware/interfaces/cameraservice/device/aidl/android.frameworks.cameraservice.device-V1-ndk-source/gen/include/aidl/android/frameworks/cameraservice/device/ICameraDeviceCallback.h"
  },
  {
   "function_name" : "aidl::android::hardware::common::fmq::MQDescriptor<signed char, aidl::android::hardware::common::fmq::SynchronizedReadWrite>::readFromParcel",
   "linker_set_key" : "_ZN4aidl7android8hardware6common3fmq12MQDescriptorIaNS3_21SynchronizedReadWriteEE14readFromParcelEPK7AParcel",
   "parameters" :
   [
    {
     "is_this_ptr" : true,
     "referenced_type" : "_ZTIPN4aidl7android8hardware6common3fmq12MQDescriptorIaNS3_21SynchronizedReadWriteEEE"
    },
    {
     "referenced_type" : "_ZTIPK7AParcel"
    }
   ],
   "return_type" : "_ZTIi",
   "source_file" : "out/soong/.intermediates/hardware/interfaces/common/fmq/aidl/android.hardware.common.fmq-V1-ndk-source/gen/include/aidl/android/hardware/common/fmq/MQDescriptor.h"
  },
  {
   "function_name" : "aidl::android::frameworks::cameraservice::device::SubmitInfo::writeToParcel",
   "linker_set_key" : "_ZNK4aidl7android10frameworks13cameraservice6device10SubmitInfo13writeToParcelEP7AParcel",
   "parameters" :
   [
    {
     "is_this_ptr" : true,
     "referenced_type" : "_ZTIPKN4aidl7android10frameworks13cameraservice6device10SubmitInfoE"
    },
    {
     "referenced_type" : "_ZTIP7AParcel"
    }
   ],
   "return_type" : "_ZTIi",
   "source_file" : "out/soong/.intermediates/frameworks/hardware/interfaces/cameraservice/device/aidl/android.frameworks.cameraservice.device-V1-ndk-source/gen/include/aidl/android/frameworks/cameraservice/device/SubmitInfo.h"
  },
  {
   "function_name" : "aidl::android::frameworks::cameraservice::device::CameraMetadata::writeToParcel",
   "linker_set_key" : "_ZNK4aidl7android10frameworks13cameraservice6device14CameraMetadata13writeToParcelEP7AParcel",
   "parameters" :
   [
    {
     "is_this_ptr" : true,
     "referenced_type" : "_ZTIPKN4aidl7android10frameworks13cameraservice6device14CameraMetadataE"
    },
    {
     "referenced_type" : "_ZTIP7AParcel"
    }
   ],
   "return_type" : "_ZTIi",
   "source_file" : "out/soong/.intermediates/frameworks/hardware/interfaces/cameraservice/device/aidl/android.frameworks.cameraservice.device-V1-ndk-source/gen/include/aidl/android/frameworks/cameraservice/device/CameraMetadata.h"
  },
  {
   "function_name" : "aidl::android::frameworks::cameraservice::device::CaptureRequest::writeToParcel",
   "linker_set_key" : "_ZNK4aidl7android10frameworks13cameraservice6device14CaptureRequest13writeToParcelEP7AParcel",
   "parameters" :
   [
    {
     "is_this_ptr" : true,
     "referenced_type" : "_ZTIPKN4aidl7android10frameworks13cameraservice6device14CaptureRequestE"
    },
    {
     "referenced_type" : "_ZTIP7AParcel"
    }
   ],
   "return_type" : "_ZTIi",
   "source_file" : "out/soong/.intermediates/frameworks/hardware/interfaces/cameraservice/device/aidl/android.frameworks.cameraservice.device-V1-ndk-source/gen/include/aidl/android/frameworks/cameraservice/device/CaptureRequest.h"
  },
  {
   "function_name" : "aidl::android::frameworks::cameraservice::device::StreamAndWindowId::writeToParcel",
   "linker_set_key" : "_ZNK4aidl7android10frameworks13cameraservice6device17StreamAndWindowId13writeToParcelEP7AParcel",
   "parameters" :
   [
    {
     "is_this_ptr" : true,
     "referenced_type" : "_ZTIPKN4aidl7android10frameworks13cameraservice6device17StreamAndWindowIdE"
    },
    {
     "referenced_type" : "_ZTIP7AParcel"
    }
   ],
   "return_type" : "_ZTIi",
   "source_file" : "out/soong/.intermediates/frameworks/hardware/interfaces/cameraservice/device/aidl/android.frameworks.cameraservice.device-V1-ndk-source/gen/include/aidl/android/frameworks/cameraservice/device/StreamAndWindowId.h"
  },
  {
   "function_name" : "aidl::android::frameworks::cameraservice::device::CaptureMetadataInfo::writeToParcel",
   "linker_set_key" : "_ZNK4aidl7android10frameworks13cameraservice6device19CaptureMetadataInfo13writeToParcelEP7AParcel",
   "parameters" :
   [
    {
     "is_this_ptr" : true,
     "referenced_type" : "_ZTIPKN4aidl7android10frameworks13cameraservice6device19CaptureMetadataInfoE"
    },
    {
     "referenced_type" : "_ZTIP7AParcel"
    }
   ],
   "return_type" : "_ZTIi",
   "source_file" : "out/soong/.intermediates/frameworks/hardware/interfaces/cameraservice/device/aidl/android.frameworks.cameraservice.device-V1-ndk-source/gen/include/aidl/android/frameworks/cameraservice/device/CaptureMetadataInfo.h"
  },
  {
   "function_name" : "aidl::android::frameworks::cameraservice::device::CaptureResultExtras::writeToParcel",
   "linker_set_key" : "_ZNK4aidl7android10frameworks13cameraservice6device19CaptureResultExtras13writeToParcelEP7AParcel",
   "parameters" :
   [
    {
     "is_this_ptr" : true,
     "referenced_type" : "_ZTIPKN4aidl7android10frameworks13cameraservice6device19CaptureResultExtrasE"
    },
    {
     "referenced_type" : "_ZTIP7AParcel"
    }
   ],
   "return_type" : "_ZTIi",
   "source_file" : "out/soong/.intermediates/frameworks/hardware/interfaces/cameraservice/device/aidl/android.frameworks.cameraservice.device-V1-ndk-source/gen/include/aidl/android/frameworks/cameraservice/device/CaptureResultExtras.h"
  },
  {
   "function_name" : "aidl::android::frameworks::cameraservice::device::OutputConfiguration::writeToParcel",
   "linker_set_key" : "_ZNK4aidl7android10frameworks13cameraservice6device19OutputConfiguration13writeToParcelEP7AParcel",
   "parameters" :
   [
    {
     "is_this_ptr" : true,
     "referenced_type" : "_ZTIPKN4aidl7android10frameworks13cameraservice6device19OutputConfigurationE"
    },
    {
     "referenced_type" : "_ZTIP7AParcel"
    }
   ],
   "return_type" : "_ZTIi",
   "source_file" : "out/soong/.intermediates/frameworks/hardware/interfaces/cameraservice/device/aidl/android.frameworks.cameraservice.device-V1-ndk-source/gen/include/aidl/android/frameworks/cameraservice/device/OutputConfiguration.h"
  },
  {
   "function_name" : "aidl::android::frameworks::cameraservice::device::SessionConfiguration::writeToParcel",
   "linker_set_key" : "_ZNK4aidl7android10frameworks13cameraservice6device20SessionConfiguration13writeToParcelEP7AParcel",
   "parameters" :
   [
    {
     "is_this_ptr" : true,
     "referenced_type" : "_ZTIPKN4aidl7android10frameworks13cameraservice6device20SessionConfigurationE"
    },
    {
     "referenced_type" : "_ZTIP7AParcel"
    }
   ],
   "return_type" : "_ZTIi",
   "source_file" : "out/soong/.intermediates/frameworks/hardware/interfaces/cameraservice/device/aidl/android.frameworks.cameraservice.device-V1-ndk-source/gen/include/aidl/android/frameworks/cameraservice/device/SessionConfiguration.h"
  },
  {
   "function_name" : "aidl::android::frameworks::cameraservice::device::PhysicalCameraSettings::writeToParcel",
   "linker_set_key" : "_ZNK4aidl7android10frameworks13cameraservice6device22PhysicalCameraSettings13writeToParcelEP7AParcel",
   "parameters" :
   [
    {
     "is_this_ptr" : true,
     "referenced_type" : "_ZTIPKN4aidl7android10frameworks13cameraservice6device22PhysicalCameraSettingsE"
    },
    {
     "referenced_type" : "_ZTIP7AParcel"
    }
   ],
   "return_type" : "_ZTIi",
   "source_file" : "out/soong/.intermediates/frameworks/hardware/interfaces/cameraservice/device/aidl/android.frameworks.cameraservice.device-V1-ndk-source/gen/include/aidl/android/frameworks/cameraservice/device/PhysicalCameraSettings.h"
  },
  {
   "function_name" : "aidl::android::frameworks::cameraservice::device::PhysicalCaptureResultInfo::writeToParcel",
   "linker_set_key" : "_ZNK4aidl7android10frameworks13cameraservice6device25PhysicalCaptureResultInfo13writeToParcelEP7AParcel",
   "parameters" :
   [
    {
     "is_this_ptr" : true,
     "referenced_type" : "_ZTIPKN4aidl7android10frameworks13cameraservice6device25PhysicalCaptureResultInfoE"
    },
    {
     "referenced_type" : "_ZTIP7AParcel"
    }
   ],
   "return_type" : "_ZTIi",
   "source_file" : "out/soong/.intermediates/frameworks/hardware/interfaces/cameraservice/device/aidl/android.frameworks.cameraservice.device-V1-ndk-source/gen/include/aidl/android/frameworks/cameraservice/device/PhysicalCaptureResultInfo.h"
  },
  {
   "function_name" : "aidl::android::hardware::common::fmq::MQDescriptor<signed char, aidl::android::hardware::common::fmq::SynchronizedReadWrite>::writeToParcel",
   "linker_set_key" : "_ZNK4aidl7android8hardware6common3fmq12MQDescriptorIaNS3_21SynchronizedReadWriteEE13writeToParcelEP7AParcel",
   "parameters" :
   [
    {
     "is_this_ptr" : true,
     "referenced_type" : "_ZTIPKN4aidl7android8hardware6common3fmq12MQDescriptorIaNS3_21SynchronizedReadWriteEEE"
    },
    {
     "referenced_type" : "_ZTIP7AParcel"
    }
   ],
   "return_type" : "_ZTIi",
   "source_file" : "out/soong/.intermediates/hardware/interfaces/common/fmq/aidl/android.hardware.common.fmq-V1-ndk-source/gen/include/aidl/android/hardware/common/fmq/MQDescriptor.h"
  }
 ],
 "global_vars" :
 [
  {
   "linker_set_key" : "_ZN4aidl7android10frameworks13cameraservice6device10SubmitInfo10descriptorE",
   "name" : "aidl::android::frameworks::cameraservice::device::SubmitInfo::descriptor",
   "referenced_type" : "_ZTIPKc",
   "source_file" : "out/soong/.intermediates/frameworks/hardware/interfaces/cameraservice/device/aidl/android.frameworks.cameraservice.device-V1-ndk-source/gen/include/aidl/android/frameworks/cameraservice/device/SubmitInfo.h"
  },
  {
   "linker_set_key" : "_ZN4aidl7android10frameworks13cameraservice6device14CameraMetadata10descriptorE",
   "name" : "aidl::android::frameworks::cameraservice::device::CameraMetadata::descriptor",
   "referenced_type" : "_ZTIPKc",
   "source_file" : "out/soong/.intermediates/frameworks/hardware/interfaces/cameraservice/device/aidl/android.frameworks.cameraservice.device-V1-ndk-source/gen/include/aidl/android/frameworks/cameraservice/device/CameraMetadata.h"
  },
  {
   "linker_set_key" : "_ZN4aidl7android10frameworks13cameraservice6device14CaptureRequest10descriptorE",
   "name" : "aidl::android::frameworks::cameraservice::device::CaptureRequest::descriptor",
   "referenced_type" : "_ZTIPKc",
   "source_file" : "out/soong/.intermediates/frameworks/hardware/interfaces/cameraservice/device/aidl/android.frameworks.cameraservice.device-V1-ndk-source/gen/include/aidl/android/frameworks/cameraservice/device/CaptureRequest.h"
  },
  {
   "linker_set_key" : "_ZN4aidl7android10frameworks13cameraservice6device17ICameraDeviceUser10descriptorE",
   "name" : "aidl::android::frameworks::cameraservice::device::ICameraDeviceUser::descriptor",
   "referenced_type" : "_ZTIPKc",
   "source_file" : "out/soong/.intermediates/frameworks/hardware/interfaces/cameraservice/device/aidl/android.frameworks.cameraservice.device-V1-ndk-source/gen/include/aidl/android/frameworks/cameraservice/device/ICameraDeviceUser.h"
  },
  {
   "access" : "private",
   "linker_set_key" : "_ZN4aidl7android10frameworks13cameraservice6device17ICameraDeviceUser12default_implE",
   "name" : "aidl::android::frameworks::cameraservice::device::ICameraDeviceUser::default_impl",
   "referenced_type" : "_ZTINSt3__110shared_ptrIN4aidl7android10frameworks13cameraservice6device17ICameraDeviceUserEEE",
   "source_file" : "out/soong/.intermediates/frameworks/hardware/interfaces/cameraservice/device/aidl/android.frameworks.cameraservice.device-V1-ndk-source/gen/include/aidl/android/frameworks/cameraservice/device/ICameraDeviceUser.h"
  },
  {
   "linker_set_key" : "_ZN4aidl7android10frameworks13cameraservice6device17ICameraDeviceUser4hashE",
   "name" : "aidl::android::frameworks::cameraservice::device::ICameraDeviceUser::hash",
   "referenced_type" : "_ZTIKNSt3__112basic_stringIcNS_11char_traitsIcEENS_9allocatorIcEEEE",
   "source_file" : "out/soong/.intermediates/frameworks/hardware/interfaces/cameraservice/device/aidl/android.frameworks.cameraservice.device-V1-ndk-source/gen/include/aidl/android/frameworks/cameraservice/device/ICameraDeviceUser.h"
  },
  {
   "linker_set_key" : "_ZN4aidl7android10frameworks13cameraservice6device17StreamAndWindowId10descriptorE",
   "name" : "aidl::android::frameworks::cameraservice::device::StreamAndWindowId::descriptor",
   "referenced_type" : "_ZTIPKc",
   "source_file" : "out/soong/.intermediates/frameworks/hardware/interfaces/cameraservice/device/aidl/android.frameworks.cameraservice.device-V1-ndk-source/gen/include/aidl/android/frameworks/cameraservice/device/StreamAndWindowId.h"
  },
  {
   "linker_set_key" : "_ZN4aidl7android10frameworks13cameraservice6device19CaptureMetadataInfo10descriptorE",
   "name" : "aidl::android::frameworks::cameraservice::device::CaptureMetadataInfo::descriptor",
   "referenced_type" : "_ZTIPKc",
   "source_file" : "out/soong/.intermediates/frameworks/hardware/interfaces/cameraservice/device/aidl/android.frameworks.cameraservice.device-V1-ndk-source/gen/include/aidl/android/frameworks/cameraservice/device/CaptureMetadataInfo.h"
  },
  {
   "linker_set_key" : "_ZN4aidl7android10frameworks13cameraservice6device19CaptureResultExtras10descriptorE",
   "name" : "aidl::android::frameworks::cameraservice::device::CaptureResultExtras::descriptor",
   "referenced_type" : "_ZTIPKc",
   "source_file" : "out/soong/.intermediates/frameworks/hardware/interfaces/cameraservice/device/aidl/android.frameworks.cameraservice.device-V1-ndk-source/gen/include/aidl/android/frameworks/cameraservice/device/CaptureResultExtras.h"
  },
  {
   "linker_set_key" : "_ZN4aidl7android10frameworks13cameraservice6device19OutputConfiguration10descriptorE",
   "name" : "aidl::android::frameworks::cameraservice::device::OutputConfiguration::descriptor",
   "referenced_type" : "_ZTIPKc",
   "source_file" : "out/soong/.intermediates/frameworks/hardware/interfaces/cameraservice/device/aidl/android.frameworks.cameraservice.device-V1-ndk-source/gen/include/aidl/android/frameworks/cameraservice/device/OutputConfiguration.h"
  },
  {
   "linker_set_key" : "_ZN4aidl7android10frameworks13cameraservice6device20SessionConfiguration10descriptorE",
   "name" : "aidl::android::frameworks::cameraservice::device::SessionConfiguration::descriptor",
   "referenced_type" : "_ZTIPKc",
   "source_file" : "out/soong/.intermediates/frameworks/hardware/interfaces/cameraservice/device/aidl/android.frameworks.cameraservice.device-V1-ndk-source/gen/include/aidl/android/frameworks/cameraservice/device/SessionConfiguration.h"
  },
  {
   "linker_set_key" : "_ZN4aidl7android10frameworks13cameraservice6device21ICameraDeviceCallback10descriptorE",
   "name" : "aidl::android::frameworks::cameraservice::device::ICameraDeviceCallback::descriptor",
   "referenced_type" : "_ZTIPKc",
   "source_file" : "out/soong/.intermediates/frameworks/hardware/interfaces/cameraservice/device/aidl/android.frameworks.cameraservice.device-V1-ndk-source/gen/include/aidl/android/frameworks/cameraservice/device/ICameraDeviceCallback.h"
  },
  {
   "access" : "private",
   "linker_set_key" : "_ZN4aidl7android10frameworks13cameraservice6device21ICameraDeviceCallback12default_implE",
   "name" : "aidl::android::frameworks::cameraservice::device::ICameraDeviceCallback::default_impl",
   "referenced_type" : "_ZTINSt3__110shared_ptrIN4aidl7android10frameworks13cameraservice6device21ICameraDeviceCallbackEEE",
   "source_file" : "out/soong/.intermediates/frameworks/hardware/interfaces/cameraservice/device/aidl/android.frameworks.cameraservice.device-V1-ndk-source/gen/include/aidl/android/frameworks/cameraservice/device/ICameraDeviceCallback.h"
  },
  {
   "linker_set_key" : "_ZN4aidl7android10frameworks13cameraservice6device21ICameraDeviceCallback4hashE",
   "name" : "aidl::android::frameworks::cameraservice::device::ICameraDeviceCallback::hash",
   "referenced_type" : "_ZTIKNSt3__112basic_stringIcNS_11char_traitsIcEENS_9allocatorIcEEEE",
   "source_file" : "out/soong/.intermediates/frameworks/hardware/interfaces/cameraservice/device/aidl/android.frameworks.cameraservice.device-V1-ndk-source/gen/include/aidl/android/frameworks/cameraservice/device/ICameraDeviceCallback.h"
  },
  {
   "linker_set_key" : "_ZN4aidl7android10frameworks13cameraservice6device22PhysicalCameraSettings10descriptorE",
   "name" : "aidl::android::frameworks::cameraservice::device::PhysicalCameraSettings::descriptor",
   "referenced_type" : "_ZTIPKc",
   "source_file" : "out/soong/.intermediates/frameworks/hardware/interfaces/cameraservice/device/aidl/android.frameworks.cameraservice.device-V1-ndk-source/gen/include/aidl/android/frameworks/cameraservice/device/PhysicalCameraSettings.h"
  },
  {
   "linker_set_key" : "_ZN4aidl7android10frameworks13cameraservice6device25PhysicalCaptureResultInfo10descriptorE",
   "name" : "aidl::android::frameworks::cameraservice::device::PhysicalCaptureResultInfo::descriptor",
   "referenced_type" : "_ZTIPKc",
   "source_file" : "out/soong/.intermediates/frameworks/hardware/interfaces/cameraservice/device/aidl/android.frameworks.cameraservice.device-V1-ndk-source/gen/include/aidl/android/frameworks/cameraservice/device/PhysicalCaptureResultInfo.h"
  }
 ],
 "lvalue_reference_types" :
 [
  {
   "alignment" : 4,
   "linker_set_key" : "_ZTIRKN3ndk10SpAIBinderE",
   "name" : "const ndk::SpAIBinder &",
   "referenced_type" : "_ZTIKN3ndk10SpAIBinderE",
   "self_type" : "_ZTIRKN3ndk10SpAIBinderE",
   "size" : 4,
   "source_file" : "frameworks/native/libs/binder/ndk/include_cpp/android/binder_auto_utils.h"
  },
  {
   "alignment" : 4,
   "linker_set_key" : "_ZTIRKN3ndk13ScopedAParcelE",
   "name" : "const ndk::ScopedAParcel &",
   "referenced_type" : "_ZTIKN3ndk13ScopedAParcelE",
   "self_type" : "_ZTIRKN3ndk13ScopedAParcelE",
   "size" : 4,
   "source_file" : "frameworks/native/libs/binder/ndk/include_cpp/android/binder_auto_utils.h"
  },
  {
   "alignment" : 4,
   "linker_set_key" : "_ZTIRKN3ndk17AParcelableHolderE",
   "name" : "const ndk::AParcelableHolder &",
   "referenced_type" : "_ZTIKN3ndk17AParcelableHolderE",
   "self_type" : "_ZTIRKN3ndk17AParcelableHolderE",
   "size" : 4,
   "source_file" : "frameworks/native/libs/binder/ndk/include_cpp/android/binder_parcelable_utils.h"
  },
  {
   "alignment" : 4,
   "linker_set_key" : "_ZTIRKN3ndk20ScopedFileDescriptorE",
   "name" : "const ndk::ScopedFileDescriptor &",
   "referenced_type" : "_ZTIKN3ndk20ScopedFileDescriptorE",
   "self_type" : "_ZTIRKN3ndk20ScopedFileDescriptorE",
   "size" : 4,
   "source_file" : "frameworks/native/libs/binder/ndk/include_cpp/android/binder_auto_utils.h"
  },
  {
   "alignment" : 4,
   "linker_set_key" : "_ZTIRKN4aidl7android10frameworks13cameraservice6device10SubmitInfoE",
   "name" : "const aidl::android::frameworks::cameraservice::device::SubmitInfo &",
   "referenced_type" : "_ZTIKN4aidl7android10frameworks13cameraservice6device10SubmitInfoE",
   "self_type" : "_ZTIRKN4aidl7android10frameworks13cameraservice6device10SubmitInfoE",
   "size" : 4,
   "source_file" : "out/soong/.intermediates/frameworks/hardware/interfaces/cameraservice/device/aidl/android.frameworks.cameraservice.device-V1-ndk-source/gen/include/aidl/android/frameworks/cameraservice/device/SubmitInfo.h"
  },
  {
   "alignment" : 4,
   "linker_set_key" : "_ZTIRKN4aidl7android10frameworks13cameraservice6device14CameraMetadataE",
   "name" : "const aidl::android::frameworks::cameraservice::device::CameraMetadata &",
   "referenced_type" : "_ZTIKN4aidl7android10frameworks13cameraservice6device14CameraMetadataE",
   "self_type" : "_ZTIRKN4aidl7android10frameworks13cameraservice6device14CameraMetadataE",
   "size" : 4,
   "source_file" : "out/soong/.intermediates/frameworks/hardware/interfaces/cameraservice/device/aidl/android.frameworks.cameraservice.device-V1-ndk-source/gen/include/aidl/android/frameworks/cameraservice/device/CameraMetadata.h"
  },
  {
   "alignment" : 4,
   "linker_set_key" : "_ZTIRKN4aidl7android10frameworks13cameraservice6device14CaptureRequestE",
   "name" : "const aidl::android::frameworks::cameraservice::device::CaptureRequest &",
   "referenced_type" : "_ZTIKN4aidl7android10frameworks13cameraservice6device14CaptureRequestE",
   "self_type" : "_ZTIRKN4aidl7android10frameworks13cameraservice6device14CaptureRequestE",
   "size" : 4,
   "source_file" : "out/soong/.intermediates/frameworks/hardware/interfaces/cameraservice/device/aidl/android.frameworks.cameraservice.device-V1-ndk-source/gen/include/aidl/android/frameworks/cameraservice/device/CaptureRequest.h"
  },
  {
   "alignment" : 4,
   "linker_set_key" : "_ZTIRKN4aidl7android10frameworks13cameraservice6device17StreamAndWindowIdE",
   "name" : "const aidl::android::frameworks::cameraservice::device::StreamAndWindowId &",
   "referenced_type" : "_ZTIKN4aidl7android10frameworks13cameraservice6device17StreamAndWindowIdE",
   "self_type" : "_ZTIRKN4aidl7android10frameworks13cameraservice6device17StreamAndWindowIdE",
   "size" : 4,
   "source_file" : "frameworks/native/libs/binder/ndk/include_cpp/android/binder_to_string.h"
  },
  {
   "alignment" : 4,
   "linker_set_key" : "_ZTIRKN4aidl7android10frameworks13cameraservice6device19CaptureMetadataInfoE",
   "name" : "const aidl::android::frameworks::cameraservice::device::CaptureMetadataInfo &",
   "referenced_type" : "_ZTIKN4aidl7android10frameworks13cameraservice6device19CaptureMetadataInfoE",
   "self_type" : "_ZTIRKN4aidl7android10frameworks13cameraservice6device19CaptureMetadataInfoE",
   "size" : 4,
   "source_file" : "out/soong/.intermediates/frameworks/hardware/interfaces/cameraservice/device/aidl/android.frameworks.cameraservice.device-V1-ndk-source/gen/include/aidl/android/frameworks/cameraservice/device/CaptureMetadataInfo.h"
  },
  {
   "alignment" : 4,
   "linker_set_key" : "_ZTIRKN4aidl7android10frameworks13cameraservice6device19CaptureResultExtrasE",
   "name" : "const aidl::android::frameworks::cameraservice::device::CaptureResultExtras &",
   "referenced_type" : "_ZTIKN4aidl7android10frameworks13cameraservice6device19CaptureResultExtrasE",
   "self_type" : "_ZTIRKN4aidl7android10frameworks13cameraservice6device19CaptureResultExtrasE",
   "size" : 4,
   "source_file" : "out/soong/.intermediates/frameworks/hardware/interfaces/cameraservice/device/aidl/android.frameworks.cameraservice.device-V1-ndk-source/gen/include/aidl/android/frameworks/cameraservice/device/CaptureResultExtras.h"
  },
  {
   "alignment" : 4,
   "linker_set_key" : "_ZTIRKN4aidl7android10frameworks13cameraservice6device19OutputConfiguration8RotationE",
   "name" : "const aidl::android::frameworks::cameraservice::device::OutputConfiguration::Rotation &",
   "referenced_type" : "_ZTIKN4aidl7android10frameworks13cameraservice6device19OutputConfiguration8RotationE",
   "self_type" : "_ZTIRKN4aidl7android10frameworks13cameraservice6device19OutputConfiguration8RotationE",
   "size" : 4,
   "source_file" : "frameworks/native/libs/binder/ndk/include_cpp/android/binder_to_string.h"
  },
  {
   "alignment" : 4,
   "linker_set_key" : "_ZTIRKN4aidl7android10frameworks13cameraservice6device19OutputConfigurationE",
   "name" : "const aidl::android::frameworks::cameraservice::device::OutputConfiguration &",
   "referenced_type" : "_ZTIKN4aidl7android10frameworks13cameraservice6device19OutputConfigurationE",
   "self_type" : "_ZTIRKN4aidl7android10frameworks13cameraservice6device19OutputConfigurationE",
   "size" : 4,
   "source_file" : "frameworks/native/libs/binder/ndk/include_cpp/android/binder_to_string.h"
  },
  {
   "alignment" : 4,
   "linker_set_key" : "_ZTIRKN4aidl7android10frameworks13cameraservice6device20SessionConfigurationE",
   "name" : "const aidl::android::frameworks::cameraservice::device::SessionConfiguration &",
   "referenced_type" : "_ZTIKN4aidl7android10frameworks13cameraservice6device20SessionConfigurationE",
   "self_type" : "_ZTIRKN4aidl7android10frameworks13cameraservice6device20SessionConfigurationE",
   "size" : 4,
   "source_file" : "out/soong/.intermediates/frameworks/hardware/interfaces/cameraservice/device/aidl/android.frameworks.cameraservice.device-V1-ndk-source/gen/include/aidl/android/frameworks/cameraservice/device/SessionConfiguration.h"
  },
  {
   "alignment" : 4,
   "linker_set_key" : "_ZTIRKN4aidl7android10frameworks13cameraservice6device22PhysicalCameraSettingsE",
   "name" : "const aidl::android::frameworks::cameraservice::device::PhysicalCameraSettings &",
   "referenced_type" : "_ZTIKN4aidl7android10frameworks13cameraservice6device22PhysicalCameraSettingsE",
   "self_type" : "_ZTIRKN4aidl7android10frameworks13cameraservice6device22PhysicalCameraSettingsE",
   "size" : 4,
   "source_file" : "frameworks/native/libs/binder/ndk/include_cpp/android/binder_to_string.h"
  },
  {
   "alignment" : 4,
   "linker_set_key" : "_ZTIRKN4aidl7android10frameworks13cameraservice6device23StreamConfigurationModeE",
   "name" : "const aidl::android::frameworks::cameraservice::device::StreamConfigurationMode &",
   "referenced_type" : "_ZTIKN4aidl7android10frameworks13cameraservice6device23StreamConfigurationModeE",
   "self_type" : "_ZTIRKN4aidl7android10frameworks13cameraservice6device23StreamConfigurationModeE",
   "size" : 4,
   "source_file" : "frameworks/native/libs/binder/ndk/include_cpp/android/binder_to_string.h"
  },
  {
   "alignment" : 4,
   "linker_set_key" : "_ZTIRKN4aidl7android10frameworks13cameraservice6device25PhysicalCaptureResultInfoE",
   "name" : "const aidl::android::frameworks::cameraservice::device::PhysicalCaptureResultInfo &",
   "referenced_type" : "_ZTIKN4aidl7android10frameworks13cameraservice6device25PhysicalCaptureResultInfoE",
   "self_type" : "_ZTIRKN4aidl7android10frameworks13cameraservice6device25PhysicalCaptureResultInfoE",
   "size" : 4,
   "source_file" : "out/soong/.intermediates/frameworks/hardware/interfaces/cameraservice/device/aidl/android.frameworks.cameraservice.device-V1-ndk-source/gen/include/aidl/android/frameworks/cameraservice/device/PhysicalCaptureResultInfo.h"
  },
  {
   "alignment" : 4,
   "linker_set_key" : "_ZTIRKN4aidl7android8hardware6common12NativeHandleE",
   "name" : "const aidl::android::hardware::common::NativeHandle &",
   "referenced_type" : "_ZTIKN4aidl7android8hardware6common12NativeHandleE",
   "self_type" : "_ZTIRKN4aidl7android8hardware6common12NativeHandleE",
   "size" : 4,
   "source_file" : "frameworks/native/libs/binder/ndk/include_cpp/android/binder_to_string.h"
  },
  {
   "alignment" : 4,
   "linker_set_key" : "_ZTIRKN4aidl7android8hardware6common3fmq17GrantorDescriptorE",
   "name" : "const aidl::android::hardware::common::fmq::GrantorDescriptor &",
   "referenced_type" : "_ZTIKN4aidl7android8hardware6common3fmq17GrantorDescriptorE",
   "self_type" : "_ZTIRKN4aidl7android8hardware6common3fmq17GrantorDescriptorE",
   "size" : 4,
   "source_file" : "out/soong/.intermediates/hardware/interfaces/common/fmq/aidl/android.hardware.common.fmq-V1-ndk-source/gen/include/aidl/android/hardware/common/fmq/GrantorDescriptor.h"
  },
  {
   "alignment" : 4,
   "linker_set_key" : "_ZTIRKNSt3__110shared_ptrIN4aidl7android10frameworks13cameraservice6device17ICameraDeviceUserEEE",
   "name" : "const std::shared_ptr<aidl::android::frameworks::cameraservice::device::ICameraDeviceUser> &",
   "referenced_type" : "_ZTIKNSt3__110shared_ptrIN4aidl7android10frameworks13cameraservice6device17ICameraDeviceUserEEE",
   "self_type" : "_ZTIRKNSt3__110shared_ptrIN4aidl7android10frameworks13cameraservice6device17ICameraDeviceUserEEE",
   "size" : 4,
   "source_file" : "out/soong/.intermediates/frameworks/hardware/interfaces/cameraservice/device/aidl/android.frameworks.cameraservice.device-V1-ndk-source/gen/include/aidl/android/frameworks/cameraservice/device/ICameraDeviceUser.h"
  },
  {
   "alignment" : 4,
   "linker_set_key" : "_ZTIRKNSt3__110shared_ptrIN4aidl7android10frameworks13cameraservice6device21ICameraDeviceCallbackEEE",
   "name" : "const std::shared_ptr<aidl::android::frameworks::cameraservice::device::ICameraDeviceCallback> &",
   "referenced_type" : "_ZTIKNSt3__110shared_ptrIN4aidl7android10frameworks13cameraservice6device21ICameraDeviceCallbackEEE",
   "self_type" : "_ZTIRKNSt3__110shared_ptrIN4aidl7android10frameworks13cameraservice6device21ICameraDeviceCallbackEEE",
   "size" : 4,
   "source_file" : "out/soong/.intermediates/frameworks/hardware/interfaces/cameraservice/device/aidl/android.frameworks.cameraservice.device-V1-ndk-source/gen/include/aidl/android/frameworks/cameraservice/device/ICameraDeviceCallback.h"
  },
  {
   "alignment" : 4,
   "linker_set_key" : "_ZTIRKNSt3__112basic_stringIcNS_11char_traitsIcEENS_9allocatorIcEEEE",
   "name" : "const std::basic_string<char, std::char_traits<char>, std::allocator<char>> &",
   "referenced_type" : "_ZTIKNSt3__112basic_stringIcNS_11char_traitsIcEENS_9allocatorIcEEEE",
   "self_type" : "_ZTIRKNSt3__112basic_stringIcNS_11char_traitsIcEENS_9allocatorIcEEEE",
   "size" : 4,
   "source_file" : "frameworks/native/libs/binder/ndk/include_cpp/android/binder_to_string.h"
  },
  {
   "alignment" : 4,
   "linker_set_key" : "_ZTIRKNSt3__16vectorIDsNS_9allocatorIDsEEEE",
   "name" : "const std::vector<char16_t, std::allocator<char16_t>> &",
   "referenced_type" : "_ZTIKNSt3__16vectorIDsNS_9allocatorIDsEEEE",
   "self_type" : "_ZTIRKNSt3__16vectorIDsNS_9allocatorIDsEEEE",
   "size" : 4,
   "source_file" : "frameworks/native/libs/binder/ndk/include_cpp/android/binder_parcel_utils.h"
  },
  {
   "alignment" : 4,
   "linker_set_key" : "_ZTIRKNSt3__16vectorIN3ndk20ScopedFileDescriptorENS_9allocatorIS2_EEEE",
   "name" : "const std::vector<ndk::ScopedFileDescriptor, std::allocator<ndk::ScopedFileDescriptor>> &",
   "referenced_type" : "_ZTIKNSt3__16vectorIN3ndk20ScopedFileDescriptorENS_9allocatorIS2_EEEE",
   "self_type" : "_ZTIRKNSt3__16vectorIN3ndk20ScopedFileDescriptorENS_9allocatorIS2_EEEE",
   "size" : 4,
   "source_file" : "frameworks/native/libs/binder/ndk/include_cpp/android/binder_to_string.h"
  },
  {
   "alignment" : 4,
   "linker_set_key" : "_ZTIRKNSt3__16vectorIN4aidl7android10frameworks13cameraservice6device14CaptureRequestENS_9allocatorIS6_EEEE",
   "name" : "const std::vector<aidl::android::frameworks::cameraservice::device::CaptureRequest, std::allocator<aidl::android::frameworks::cameraservice::device::CaptureRequest>> &",
   "referenced_type" : "_ZTIKNSt3__16vectorIN4aidl7android10frameworks13cameraservice6device14CaptureRequestENS_9allocatorIS6_EEEE",
   "self_type" : "_ZTIRKNSt3__16vectorIN4aidl7android10frameworks13cameraservice6device14CaptureRequestENS_9allocatorIS6_EEEE",
   "size" : 4,
   "source_file" : "out/soong/.intermediates/frameworks/hardware/interfaces/cameraservice/device/aidl/android.frameworks.cameraservice.device-V1-ndk-source/gen/include/aidl/android/frameworks/cameraservice/device/ICameraDeviceUser.h"
  },
  {
   "alignment" : 4,
   "linker_set_key" : "_ZTIRKNSt3__16vectorIN4aidl7android10frameworks13cameraservice6device17StreamAndWindowIdENS_9allocatorIS6_EEEE",
   "name" : "const std::vector<aidl::android::frameworks::cameraservice::device::StreamAndWindowId, std::allocator<aidl::android::frameworks::cameraservice::device::StreamAndWindowId>> &",
   "referenced_type" : "_ZTIKNSt3__16vectorIN4aidl7android10frameworks13cameraservice6device17StreamAndWindowIdENS_9allocatorIS6_EEEE",
   "self_type" : "_ZTIRKNSt3__16vectorIN4aidl7android10frameworks13cameraservice6device17StreamAndWindowIdENS_9allocatorIS6_EEEE",
   "size" : 4,
   "source_file" : "frameworks/native/libs/binder/ndk/include_cpp/android/binder_to_string.h"
  },
  {
   "alignment" : 4,
   "linker_set_key" : "_ZTIRKNSt3__16vectorIN4aidl7android10frameworks13cameraservice6device19OutputConfigurationENS_9allocatorIS6_EEEE",
   "name" : "const std::vector<aidl::android::frameworks::cameraservice::device::OutputConfiguration, std::allocator<aidl::android::frameworks::cameraservice::device::OutputConfiguration>> &",
   "referenced_type" : "_ZTIKNSt3__16vectorIN4aidl7android10frameworks13cameraservice6device19OutputConfigurationENS_9allocatorIS6_EEEE",
   "self_type" : "_ZTIRKNSt3__16vectorIN4aidl7android10frameworks13cameraservice6device19OutputConfigurationENS_9allocatorIS6_EEEE",
   "size" : 4,
   "source_file" : "frameworks/native/libs/binder/ndk/include_cpp/android/binder_to_string.h"
  },
  {
   "alignment" : 4,
   "linker_set_key" : "_ZTIRKNSt3__16vectorIN4aidl7android10frameworks13cameraservice6device22PhysicalCameraSettingsENS_9allocatorIS6_EEEE",
   "name" : "const std::vector<aidl::android::frameworks::cameraservice::device::PhysicalCameraSettings, std::allocator<aidl::android::frameworks::cameraservice::device::PhysicalCameraSettings>> &",
   "referenced_type" : "_ZTIKNSt3__16vectorIN4aidl7android10frameworks13cameraservice6device22PhysicalCameraSettingsENS_9allocatorIS6_EEEE",
   "self_type" : "_ZTIRKNSt3__16vectorIN4aidl7android10frameworks13cameraservice6device22PhysicalCameraSettingsENS_9allocatorIS6_EEEE",
   "size" : 4,
   "source_file" : "frameworks/native/libs/binder/ndk/include_cpp/android/binder_to_string.h"
  },
  {
   "alignment" : 4,
   "linker_set_key" : "_ZTIRKNSt3__16vectorIN4aidl7android10frameworks13cameraservice6device25PhysicalCaptureResultInfoENS_9allocatorIS6_EEEE",
   "name" : "const std::vector<aidl::android::frameworks::cameraservice::device::PhysicalCaptureResultInfo, std::allocator<aidl::android::frameworks::cameraservice::device::PhysicalCaptureResultInfo>> &",
   "referenced_type" : "_ZTIKNSt3__16vectorIN4aidl7android10frameworks13cameraservice6device25PhysicalCaptureResultInfoENS_9allocatorIS6_EEEE",
   "self_type" : "_ZTIRKNSt3__16vectorIN4aidl7android10frameworks13cameraservice6device25PhysicalCaptureResultInfoENS_9allocatorIS6_EEEE",
   "size" : 4,
   "source_file" : "out/soong/.intermediates/frameworks/hardware/interfaces/cameraservice/device/aidl/android.frameworks.cameraservice.device-V1-ndk-source/gen/include/aidl/android/frameworks/cameraservice/device/ICameraDeviceCallback.h"
  },
  {
   "alignment" : 4,
   "linker_set_key" : "_ZTIRKNSt3__16vectorIN4aidl7android8hardware6common12NativeHandleENS_9allocatorIS5_EEEE",
   "name" : "const std::vector<aidl::android::hardware::common::NativeHandle, std::allocator<aidl::android::hardware::common::NativeHandle>> &",
   "referenced_type" : "_ZTIKNSt3__16vectorIN4aidl7android8hardware6common12NativeHandleENS_9allocatorIS5_EEEE",
   "self_type" : "_ZTIRKNSt3__16vectorIN4aidl7android8hardware6common12NativeHandleENS_9allocatorIS5_EEEE",
   "size" : 4,
   "source_file" : "frameworks/native/libs/binder/ndk/include_cpp/android/binder_to_string.h"
  },
  {
   "alignment" : 4,
   "linker_set_key" : "_ZTIRKNSt3__16vectorIbNS_9allocatorIbEEEE",
   "name" : "const std::vector<bool, std::allocator<bool>> &",
   "referenced_type" : "_ZTIKNSt3__16vectorIbNS_9allocatorIbEEEE",
   "self_type" : "_ZTIRKNSt3__16vectorIbNS_9allocatorIbEEEE",
   "size" : 4,
   "source_file" : "frameworks/native/libs/binder/ndk/include_cpp/android/binder_parcel_utils.h"
  },
  {
   "alignment" : 4,
   "linker_set_key" : "_ZTIRKNSt3__16vectorIdNS_9allocatorIdEEEE",
   "name" : "const std::vector<double, std::allocator<double>> &",
   "referenced_type" : "_ZTIKNSt3__16vectorIdNS_9allocatorIdEEEE",
   "self_type" : "_ZTIRKNSt3__16vectorIdNS_9allocatorIdEEEE",
   "size" : 4,
   "source_file" : "frameworks/native/libs/binder/ndk/include_cpp/android/binder_parcel_utils.h"
  },
  {
   "alignment" : 4,
   "linker_set_key" : "_ZTIRKNSt3__16vectorIfNS_9allocatorIfEEEE",
   "name" : "const std::vector<float, std::allocator<float>> &",
   "referenced_type" : "_ZTIKNSt3__16vectorIfNS_9allocatorIfEEEE",
   "self_type" : "_ZTIRKNSt3__16vectorIfNS_9allocatorIfEEEE",
   "size" : 4,
   "source_file" : "frameworks/native/libs/binder/ndk/include_cpp/android/binder_parcel_utils.h"
  },
  {
   "alignment" : 4,
   "linker_set_key" : "_ZTIRKNSt3__16vectorIhNS_9allocatorIhEEEE",
   "name" : "const std::vector<unsigned char, std::allocator<unsigned char>> &",
   "referenced_type" : "_ZTIKNSt3__16vectorIhNS_9allocatorIhEEEE",
   "self_type" : "_ZTIRKNSt3__16vectorIhNS_9allocatorIhEEEE",
   "size" : 4,
   "source_file" : "frameworks/native/libs/binder/ndk/include_cpp/android/binder_parcel_utils.h"
  },
  {
   "alignment" : 4,
   "linker_set_key" : "_ZTIRKNSt3__16vectorIiNS_9allocatorIiEEEE",
   "name" : "const std::vector<int, std::allocator<int>> &",
   "referenced_type" : "_ZTIKNSt3__16vectorIiNS_9allocatorIiEEEE",
   "self_type" : "_ZTIRKNSt3__16vectorIiNS_9allocatorIiEEEE",
   "size" : 4,
   "source_file" : "frameworks/native/libs/binder/ndk/include_cpp/android/binder_parcel_utils.h"
  },
  {
   "alignment" : 4,
   "linker_set_key" : "_ZTIRKNSt3__16vectorIjNS_9allocatorIjEEEE",
   "name" : "const std::vector<unsigned int, std::allocator<unsigned int>> &",
   "referenced_type" : "_ZTIKNSt3__16vectorIjNS_9allocatorIjEEEE",
   "self_type" : "_ZTIRKNSt3__16vectorIjNS_9allocatorIjEEEE",
   "size" : 4,
   "source_file" : "frameworks/native/libs/binder/ndk/include_cpp/android/binder_parcel_utils.h"
  },
  {
   "alignment" : 4,
   "linker_set_key" : "_ZTIRKNSt3__16vectorIxNS_9allocatorIxEEEE",
   "name" : "const std::vector<long long, std::allocator<long long>> &",
   "referenced_type" : "_ZTIKNSt3__16vectorIxNS_9allocatorIxEEEE",
   "self_type" : "_ZTIRKNSt3__16vectorIxNS_9allocatorIxEEEE",
   "size" : 4,
   "source_file" : "frameworks/native/libs/binder/ndk/include_cpp/android/binder_parcel_utils.h"
  },
  {
   "alignment" : 4,
   "linker_set_key" : "_ZTIRKNSt3__16vectorIyNS_9allocatorIyEEEE",
   "name" : "const std::vector<unsigned long long, std::allocator<unsigned long long>> &",
   "referenced_type" : "_ZTIKNSt3__16vectorIyNS_9allocatorIyEEEE",
   "self_type" : "_ZTIRKNSt3__16vectorIyNS_9allocatorIyEEEE",
   "size" : 4,
   "source_file" : "frameworks/native/libs/binder/ndk/include_cpp/android/binder_parcel_utils.h"
  },
  {
   "alignment" : 4,
   "linker_set_key" : "_ZTIRKNSt3__18optionalINS_6vectorIDsNS_9allocatorIDsEEEEEE",
   "name" : "const std::optional<std::vector<char16_t, std::allocator<char16_t>>> &",
   "referenced_type" : "_ZTIKNSt3__18optionalINS_6vectorIDsNS_9allocatorIDsEEEEEE",
   "self_type" : "_ZTIRKNSt3__18optionalINS_6vectorIDsNS_9allocatorIDsEEEEEE",
   "size" : 4,
   "source_file" : "frameworks/native/libs/binder/ndk/include_cpp/android/binder_parcel_utils.h"
  },
  {
   "alignment" : 4,
   "linker_set_key" : "_ZTIRKNSt3__18optionalINS_6vectorIbNS_9allocatorIbEEEEEE",
   "name" : "const std::optional<std::vector<bool, std::allocator<bool>>> &",
   "referenced_type" : "_ZTIKNSt3__18optionalINS_6vectorIbNS_9allocatorIbEEEEEE",
   "self_type" : "_ZTIRKNSt3__18optionalINS_6vectorIbNS_9allocatorIbEEEEEE",
   "size" : 4,
   "source_file" : "frameworks/native/libs/binder/ndk/include_cpp/android/binder_parcel_utils.h"
  },
  {
   "alignment" : 4,
   "linker_set_key" : "_ZTIRKNSt3__18optionalINS_6vectorIdNS_9allocatorIdEEEEEE",
   "name" : "const std::optional<std::vector<double, std::allocator<double>>> &",
   "referenced_type" : "_ZTIKNSt3__18optionalINS_6vectorIdNS_9allocatorIdEEEEEE",
   "self_type" : "_ZTIRKNSt3__18optionalINS_6vectorIdNS_9allocatorIdEEEEEE",
   "size" : 4,
   "source_file" : "frameworks/native/libs/binder/ndk/include_cpp/android/binder_parcel_utils.h"
  },
  {
   "alignment" : 4,
   "linker_set_key" : "_ZTIRKNSt3__18optionalINS_6vectorIfNS_9allocatorIfEEEEEE",
   "name" : "const std::optional<std::vector<float, std::allocator<float>>> &",
   "referenced_type" : "_ZTIKNSt3__18optionalINS_6vectorIfNS_9allocatorIfEEEEEE",
   "self_type" : "_ZTIRKNSt3__18optionalINS_6vectorIfNS_9allocatorIfEEEEEE",
   "size" : 4,
   "source_file" : "frameworks/native/libs/binder/ndk/include_cpp/android/binder_parcel_utils.h"
  },
  {
   "alignment" : 4,
   "linker_set_key" : "_ZTIRKNSt3__18optionalINS_6vectorIhNS_9allocatorIhEEEEEE",
   "name" : "const std::optional<std::vector<unsigned char, std::allocator<unsigned char>>> &",
   "referenced_type" : "_ZTIKNSt3__18optionalINS_6vectorIhNS_9allocatorIhEEEEEE",
   "self_type" : "_ZTIRKNSt3__18optionalINS_6vectorIhNS_9allocatorIhEEEEEE",
   "size" : 4,
   "source_file" : "frameworks/native/libs/binder/ndk/include_cpp/android/binder_parcel_utils.h"
  },
  {
   "alignment" : 4,
   "linker_set_key" : "_ZTIRKNSt3__18optionalINS_6vectorIiNS_9allocatorIiEEEEEE",
   "name" : "const std::optional<std::vector<int, std::allocator<int>>> &",
   "referenced_type" : "_ZTIKNSt3__18optionalINS_6vectorIiNS_9allocatorIiEEEEEE",
   "self_type" : "_ZTIRKNSt3__18optionalINS_6vectorIiNS_9allocatorIiEEEEEE",
   "size" : 4,
   "source_file" : "frameworks/native/libs/binder/ndk/include_cpp/android/binder_parcel_utils.h"
  },
  {
   "alignment" : 4,
   "linker_set_key" : "_ZTIRKNSt3__18optionalINS_6vectorIjNS_9allocatorIjEEEEEE",
   "name" : "const std::optional<std::vector<unsigned int, std::allocator<unsigned int>>> &",
   "referenced_type" : "_ZTIKNSt3__18optionalINS_6vectorIjNS_9allocatorIjEEEEEE",
   "self_type" : "_ZTIRKNSt3__18optionalINS_6vectorIjNS_9allocatorIjEEEEEE",
   "size" : 4,
   "source_file" : "frameworks/native/libs/binder/ndk/include_cpp/android/binder_parcel_utils.h"
  },
  {
   "alignment" : 4,
   "linker_set_key" : "_ZTIRKNSt3__18optionalINS_6vectorIxNS_9allocatorIxEEEEEE",
   "name" : "const std::optional<std::vector<long long, std::allocator<long long>>> &",
   "referenced_type" : "_ZTIKNSt3__18optionalINS_6vectorIxNS_9allocatorIxEEEEEE",
   "self_type" : "_ZTIRKNSt3__18optionalINS_6vectorIxNS_9allocatorIxEEEEEE",
   "size" : 4,
   "source_file" : "frameworks/native/libs/binder/ndk/include_cpp/android/binder_parcel_utils.h"
  },
  {
   "alignment" : 4,
   "linker_set_key" : "_ZTIRKNSt3__18optionalINS_6vectorIyNS_9allocatorIyEEEEEE",
   "name" : "const std::optional<std::vector<unsigned long long, std::allocator<unsigned long long>>> &",
   "referenced_type" : "_ZTIKNSt3__18optionalINS_6vectorIyNS_9allocatorIyEEEEEE",
   "self_type" : "_ZTIRKNSt3__18optionalINS_6vectorIyNS_9allocatorIyEEEEEE",
   "size" : 4,
   "source_file" : "frameworks/native/libs/binder/ndk/include_cpp/android/binder_parcel_utils.h"
  },
  {
   "alignment" : 4,
   "linker_set_key" : "_ZTIRKb",
   "name" : "const bool &",
   "referenced_type" : "_ZTIKb",
   "self_type" : "_ZTIRKb",
   "size" : 4,
   "source_file" : "frameworks/native/libs/binder/ndk/include_cpp/android/binder_to_string.h"
  },
  {
   "alignment" : 4,
   "linker_set_key" : "_ZTIRKh",
   "name" : "const unsigned char &",
   "referenced_type" : "_ZTIKh",
   "self_type" : "_ZTIRKh",
   "size" : 4,
   "source_file" : "frameworks/native/libs/binder/ndk/include_cpp/android/binder_to_string.h"
  },
  {
   "alignment" : 4,
   "linker_set_key" : "_ZTIRKi",
   "name" : "const int &",
   "referenced_type" : "_ZTIKi",
   "self_type" : "_ZTIRKi",
   "size" : 4,
   "source_file" : "frameworks/native/libs/binder/ndk/include_cpp/android/binder_to_string.h"
  },
  {
   "alignment" : 4,
   "linker_set_key" : "_ZTIRKx",
   "name" : "const long long &",
   "referenced_type" : "_ZTIKx",
   "self_type" : "_ZTIRKx",
   "size" : 4,
   "source_file" : "frameworks/native/libs/binder/ndk/include_cpp/android/binder_to_string.h"
  },
  {
   "alignment" : 4,
   "linker_set_key" : "_ZTIRN3ndk10SpAIBinderE",
   "name" : "ndk::SpAIBinder &",
   "referenced_type" : "_ZTIN3ndk10SpAIBinderE",
   "self_type" : "_ZTIRN3ndk10SpAIBinderE",
   "size" : 4,
   "source_file" : "frameworks/native/libs/binder/ndk/include_cpp/android/binder_auto_utils.h"
  },
  {
   "alignment" : 4,
   "linker_set_key" : "_ZTIRN3ndk13ScopedAParcelE",
   "name" : "ndk::ScopedAParcel &",
   "referenced_type" : "_ZTIN3ndk13ScopedAParcelE",
   "self_type" : "_ZTIRN3ndk13ScopedAParcelE",
   "size" : 4,
   "source_file" : "frameworks/native/libs/binder/ndk/include_cpp/android/binder_auto_utils.h"
  },
  {
   "alignment" : 4,
   "linker_set_key" : "_ZTIRN3ndk13ScopedAStatusE",
   "name" : "ndk::ScopedAStatus &",
   "referenced_type" : "_ZTIN3ndk13ScopedAStatusE",
   "self_type" : "_ZTIRN3ndk13ScopedAStatusE",
   "size" : 4,
   "source_file" : "frameworks/native/libs/binder/ndk/include_cpp/android/binder_auto_utils.h"
  },
  {
   "alignment" : 4,
   "linker_set_key" : "_ZTIRN3ndk17AParcelableHolderE",
   "name" : "ndk::AParcelableHolder &",
   "referenced_type" : "_ZTIN3ndk17AParcelableHolderE",
   "self_type" : "_ZTIRN3ndk17AParcelableHolderE",
   "size" : 4,
   "source_file" : "frameworks/native/libs/binder/ndk/include_cpp/android/binder_parcelable_utils.h"
  },
  {
   "alignment" : 4,
   "linker_set_key" : "_ZTIRN3ndk19ScopedAIBinder_WeakE",
   "name" : "ndk::ScopedAIBinder_Weak &",
   "referenced_type" : "_ZTIN3ndk19ScopedAIBinder_WeakE",
   "self_type" : "_ZTIRN3ndk19ScopedAIBinder_WeakE",
   "size" : 4,
   "source_file" : "frameworks/native/libs/binder/ndk/include_cpp/android/binder_auto_utils.h"
  },
  {
   "alignment" : 4,
   "linker_set_key" : "_ZTIRN3ndk20ScopedFileDescriptorE",
   "name" : "ndk::ScopedFileDescriptor &",
   "referenced_type" : "_ZTIN3ndk20ScopedFileDescriptorE",
   "self_type" : "_ZTIRN3ndk20ScopedFileDescriptorE",
   "size" : 4,
   "source_file" : "frameworks/native/libs/binder/ndk/include_cpp/android/binder_auto_utils.h"
  },
  {
   "alignment" : 4,
   "linker_set_key" : "_ZTIRN3ndk29ScopedAIBinder_DeathRecipientE",
   "name" : "ndk::ScopedAIBinder_DeathRecipient &",
   "referenced_type" : "_ZTIN3ndk29ScopedAIBinder_DeathRecipientE",
   "self_type" : "_ZTIRN3ndk29ScopedAIBinder_DeathRecipientE",
   "size" : 4,
   "source_file" : "frameworks/native/libs/binder/ndk/include_cpp/android/binder_auto_utils.h"
  },
  {
   "alignment" : 4,
   "linker_set_key" : "_ZTIRN3ndk4impl15ScopedAResourceIP7AStatusXadL_Z14AStatus_deleteEELS3_0EEE",
   "name" : "ndk::impl::ScopedAResource<AStatus *, &AStatus_delete, nullptr> &",
   "referenced_type" : "_ZTIN3ndk4impl15ScopedAResourceIP7AStatusXadL_Z14AStatus_deleteEELS3_0EEE",
   "self_type" : "_ZTIRN3ndk4impl15ScopedAResourceIP7AStatusXadL_Z14AStatus_deleteEELS3_0EEE",
   "size" : 4,
   "source_file" : "frameworks/native/libs/binder/ndk/include_cpp/android/binder_auto_utils.h"
  },
  {
   "alignment" : 4,
   "linker_set_key" : "_ZTIRx",
   "name" : "long long &",
   "referenced_type" : "_ZTIx",
   "self_type" : "_ZTIRx",
   "size" : 4,
   "source_file" : "out/soong/.intermediates/frameworks/hardware/interfaces/cameraservice/device/aidl/android.frameworks.cameraservice.device-V1-ndk-source/gen/include/aidl/android/frameworks/cameraservice/device/CaptureMetadataInfo.h"
  }
 ],
 "pointer_types" :
 [
  {
   "alignment" : 4,
   "linker_set_key" : "_ZTIP13AIBinder_Weak",
   "name" : "AIBinder_Weak *",
   "referenced_type" : "_ZTI13AIBinder_Weak",
   "self_type" : "_ZTIP13AIBinder_Weak",
   "size" : 4,
   "source_file" : "frameworks/native/libs/binder/ndk/include_cpp/android/binder_auto_utils.h"
  },
  {
   "alignment" : 4,
   "linker_set_key" : "_ZTIP14AIBinder_Class",
   "name" : "AIBinder_Class *",
   "referenced_type" : "_ZTI14AIBinder_Class",
   "self_type" : "_ZTIP14AIBinder_Class",
   "size" : 4,
   "source_file" : "frameworks/native/libs/binder/ndk/include_cpp/android/binder_interface_utils.h"
  },
  {
   "alignment" : 4,
   "linker_set_key" : "_ZTIP23AIBinder_DeathRecipient",
   "name" : "AIBinder_DeathRecipient *",
   "referenced_type" : "_ZTI23AIBinder_DeathRecipient",
   "self_type" : "_ZTIP23AIBinder_DeathRecipient",
   "size" : 4,
   "source_file" : "frameworks/native/libs/binder/ndk/include_cpp/android/binder_auto_utils.h"
  },
  {
   "alignment" : 4,
   "linker_set_key" : "_ZTIP7AParcel",
   "name" : "AParcel *",
   "referenced_type" : "_ZTI7AParcel",
   "self_type" : "_ZTIP7AParcel",
   "size" : 4,
   "source_file" : "frameworks/native/libs/binder/ndk/include_cpp/android/binder_auto_utils.h"
  },
  {
   "alignment" : 4,
   "linker_set_key" : "_ZTIP7AStatus",
   "name" : "AStatus *",
   "referenced_type" : "_ZTI7AStatus",
   "self_type" : "_ZTIP7AStatus",
   "size" : 4,
   "source_file" : "frameworks/native/libs/binder/ndk/include_cpp/android/binder_auto_utils.h"
  },
  {
   "alignment" : 4,
   "linker_set_key" : "_ZTIP8AIBinder",
   "name" : "AIBinder *",
   "referenced_type" : "_ZTI8AIBinder",
   "self_type" : "_ZTIP8AIBinder",
   "size" : 4,
   "source_file" : "frameworks/native/libs/binder/ndk/include_cpp/android/binder_auto_utils.h"
  },
  {
   "alignment" : 4,
   "linker_set_key" : "_ZTIPFiP8AIBinderjPK7AParcelPS1_E",
   "name" : "int (*)(AIBinder *, unsigned int, const AParcel *, AParcel *)",
   "referenced_type" : "_ZTIFiP8AIBinderjPK7AParcelPS1_E",
   "self_type" : "_ZTIPFiP8AIBinderjPK7AParcelPS1_E",
   "size" : 4,
   "source_file" : "frameworks/native/libs/binder/ndk/include_cpp/android/binder_interface_utils.h"
  },
  {
   "alignment" : 4,
   "linker_set_key" : "_ZTIPK7AParcel",
   "name" : "const AParcel *",
   "referenced_type" : "_ZTIK7AParcel",
   "self_type" : "_ZTIPK7AParcel",
   "size" : 4,
   "source_file" : "frameworks/native/libs/binder/ndk/include_cpp/android/binder_interface_utils.h"
  },
  {
   "alignment" : 4,
   "linker_set_key" : "_ZTIPKN3ndk10SpAIBinderE",
   "name" : "const ndk::SpAIBinder *",
   "referenced_type" : "_ZTIKN3ndk10SpAIBinderE",
   "self_type" : "_ZTIPKN3ndk10SpAIBinderE",
   "size" : 4,
   "source_file" : "frameworks/native/libs/binder/ndk/include_cpp/android/binder_auto_utils.h"
  },
  {
   "alignment" : 4,
   "linker_set_key" : "_ZTIPKN3ndk13ScopedAParcelE",
   "name" : "const ndk::ScopedAParcel *",
   "referenced_type" : "_ZTIKN3ndk13ScopedAParcelE",
   "self_type" : "_ZTIPKN3ndk13ScopedAParcelE",
   "size" : 4,
   "source_file" : "frameworks/native/libs/binder/ndk/include_cpp/android/binder_auto_utils.h"
  },
  {
   "alignment" : 4,
   "linker_set_key" : "_ZTIPKN3ndk13ScopedAStatusE",
   "name" : "const ndk::ScopedAStatus *",
   "referenced_type" : "_ZTIKN3ndk13ScopedAStatusE",
   "self_type" : "_ZTIPKN3ndk13ScopedAStatusE",
   "size" : 4,
   "source_file" : "frameworks/native/libs/binder/ndk/include_cpp/android/binder_auto_utils.h"
  },
  {
   "alignment" : 4,
   "linker_set_key" : "_ZTIPKN3ndk17AParcelableHolderE",
   "name" : "const ndk::AParcelableHolder *",
   "referenced_type" : "_ZTIKN3ndk17AParcelableHolderE",
   "self_type" : "_ZTIPKN3ndk17AParcelableHolderE",
   "size" : 4,
   "source_file" : "frameworks/native/libs/binder/ndk/include_cpp/android/binder_parcelable_utils.h"
  },
  {
   "alignment" : 4,
   "linker_set_key" : "_ZTIPKN3ndk19ScopedAIBinder_WeakE",
   "name" : "const ndk::ScopedAIBinder_Weak *",
   "referenced_type" : "_ZTIKN3ndk19ScopedAIBinder_WeakE",
   "self_type" : "_ZTIPKN3ndk19ScopedAIBinder_WeakE",
   "size" : 4,
   "source_file" : "frameworks/native/libs/binder/ndk/include_cpp/android/binder_auto_utils.h"
  },
  {
   "alignment" : 4,
   "linker_set_key" : "_ZTIPKN3ndk20ScopedFileDescriptorE",
   "name" : "const ndk::ScopedFileDescriptor *",
   "referenced_type" : "_ZTIKN3ndk20ScopedFileDescriptorE",
   "self_type" : "_ZTIPKN3ndk20ScopedFileDescriptorE",
   "size" : 4,
   "source_file" : "frameworks/native/libs/binder/ndk/include_cpp/android/binder_auto_utils.h"
  },
  {
   "alignment" : 4,
   "linker_set_key" : "_ZTIPKN3ndk4impl15ScopedAResourceIP13AIBinder_WeakXadL_Z20AIBinder_Weak_deleteEELS3_0EEE",
   "name" : "const ndk::impl::ScopedAResource<AIBinder_Weak *, &AIBinder_Weak_delete, nullptr> *",
   "referenced_type" : "_ZTIKN3ndk4impl15ScopedAResourceIP13AIBinder_WeakXadL_Z20AIBinder_Weak_deleteEELS3_0EEE",
   "self_type" : "_ZTIPKN3ndk4impl15ScopedAResourceIP13AIBinder_WeakXadL_Z20AIBinder_Weak_deleteEELS3_0EEE",
   "size" : 4,
   "source_file" : "frameworks/native/libs/binder/ndk/include_cpp/android/binder_auto_utils.h"
  },
  {
   "alignment" : 4,
   "linker_set_key" : "_ZTIPKN3ndk4impl15ScopedAResourceIP7AParcelXadL_Z14AParcel_deleteEELS3_0EEE",
   "name" : "const ndk::impl::ScopedAResource<AParcel *, &AParcel_delete, nullptr> *",
   "referenced_type" : "_ZTIKN3ndk4impl15ScopedAResourceIP7AParcelXadL_Z14AParcel_deleteEELS3_0EEE",
   "self_type" : "_ZTIPKN3ndk4impl15ScopedAResourceIP7AParcelXadL_Z14AParcel_deleteEELS3_0EEE",
   "size" : 4,
   "source_file" : "frameworks/native/libs/binder/ndk/include_cpp/android/binder_auto_utils.h"
  },
  {
   "alignment" : 4,
   "linker_set_key" : "_ZTIPKN3ndk4impl15ScopedAResourceIP7AStatusXadL_Z14AStatus_deleteEELS3_0EEE",
   "name" : "const ndk::impl::ScopedAResource<AStatus *, &AStatus_delete, nullptr> *",
   "referenced_type" : "_ZTIKN3ndk4impl15ScopedAResourceIP7AStatusXadL_Z14AStatus_deleteEELS3_0EEE",
   "self_type" : "_ZTIPKN3ndk4impl15ScopedAResourceIP7AStatusXadL_Z14AStatus_deleteEELS3_0EEE",
   "size" : 4,
   "source_file" : "frameworks/native/libs/binder/ndk/include_cpp/android/binder_auto_utils.h"
  },
  {
   "alignment" : 4,
   "linker_set_key" : "_ZTIPKN4aidl7android10frameworks13cameraservice6device10SubmitInfoE",
   "name" : "const aidl::android::frameworks::cameraservice::device::SubmitInfo *",
   "referenced_type" : "_ZTIKN4aidl7android10frameworks13cameraservice6device10SubmitInfoE",
   "self_type" : "_ZTIPKN4aidl7android10frameworks13cameraservice6device10SubmitInfoE",
   "size" : 4,
   "source_file" : "out/soong/.intermediates/frameworks/hardware/interfaces/cameraservice/device/aidl/android.frameworks.cameraservice.device-V1-ndk-source/gen/include/aidl/android/frameworks/cameraservice/device/SubmitInfo.h"
  },
  {
   "alignment" : 4,
   "linker_set_key" : "_ZTIPKN4aidl7android10frameworks13cameraservice6device14CameraMetadataE",
   "name" : "const aidl::android::frameworks::cameraservice::device::CameraMetadata *",
   "referenced_type" : "_ZTIKN4aidl7android10frameworks13cameraservice6device14CameraMetadataE",
   "self_type" : "_ZTIPKN4aidl7android10frameworks13cameraservice6device14CameraMetadataE",
   "size" : 4,
   "source_file" : "out/soong/.intermediates/frameworks/hardware/interfaces/cameraservice/device/aidl/android.frameworks.cameraservice.device-V1-ndk-source/gen/include/aidl/android/frameworks/cameraservice/device/CameraMetadata.h"
  },
  {
   "alignment" : 4,
   "linker_set_key" : "_ZTIPKN4aidl7android10frameworks13cameraservice6device14CaptureRequestE",
   "name" : "const aidl::android::frameworks::cameraservice::device::CaptureRequest *",
   "referenced_type" : "_ZTIKN4aidl7android10frameworks13cameraservice6device14CaptureRequestE",
   "self_type" : "_ZTIPKN4aidl7android10frameworks13cameraservice6device14CaptureRequestE",
   "size" : 4,
   "source_file" : "out/soong/.intermediates/frameworks/hardware/interfaces/cameraservice/device/aidl/android.frameworks.cameraservice.device-V1-ndk-source/gen/include/aidl/android/frameworks/cameraservice/device/CaptureRequest.h"
  },
  {
   "alignment" : 4,
   "linker_set_key" : "_ZTIPKN4aidl7android10frameworks13cameraservice6device17StreamAndWindowIdE",
   "name" : "const aidl::android::frameworks::cameraservice::device::StreamAndWindowId *",
   "referenced_type" : "_ZTIKN4aidl7android10frameworks13cameraservice6device17StreamAndWindowIdE",
   "self_type" : "_ZTIPKN4aidl7android10frameworks13cameraservice6device17StreamAndWindowIdE",
   "size" : 4,
   "source_file" : "out/soong/.intermediates/frameworks/hardware/interfaces/cameraservice/device/aidl/android.frameworks.cameraservice.device-V1-ndk-source/gen/include/aidl/android/frameworks/cameraservice/device/StreamAndWindowId.h"
  },
  {
   "alignment" : 4,
   "linker_set_key" : "_ZTIPKN4aidl7android10frameworks13cameraservice6device19CaptureMetadataInfoE",
   "name" : "const aidl::android::frameworks::cameraservice::device::CaptureMetadataInfo *",
   "referenced_type" : "_ZTIKN4aidl7android10frameworks13cameraservice6device19CaptureMetadataInfoE",
   "self_type" : "_ZTIPKN4aidl7android10frameworks13cameraservice6device19CaptureMetadataInfoE",
   "size" : 4,
   "source_file" : "out/soong/.intermediates/frameworks/hardware/interfaces/cameraservice/device/aidl/android.frameworks.cameraservice.device-V1-ndk-source/gen/include/aidl/android/frameworks/cameraservice/device/CaptureMetadataInfo.h"
  },
  {
   "alignment" : 4,
   "linker_set_key" : "_ZTIPKN4aidl7android10frameworks13cameraservice6device19CaptureResultExtrasE",
   "name" : "const aidl::android::frameworks::cameraservice::device::CaptureResultExtras *",
   "referenced_type" : "_ZTIKN4aidl7android10frameworks13cameraservice6device19CaptureResultExtrasE",
   "self_type" : "_ZTIPKN4aidl7android10frameworks13cameraservice6device19CaptureResultExtrasE",
   "size" : 4,
   "source_file" : "out/soong/.intermediates/frameworks/hardware/interfaces/cameraservice/device/aidl/android.frameworks.cameraservice.device-V1-ndk-source/gen/include/aidl/android/frameworks/cameraservice/device/CaptureResultExtras.h"
  },
  {
   "alignment" : 4,
   "linker_set_key" : "_ZTIPKN4aidl7android10frameworks13cameraservice6device19OutputConfigurationE",
   "name" : "const aidl::android::frameworks::cameraservice::device::OutputConfiguration *",
   "referenced_type" : "_ZTIKN4aidl7android10frameworks13cameraservice6device19OutputConfigurationE",
   "self_type" : "_ZTIPKN4aidl7android10frameworks13cameraservice6device19OutputConfigurationE",
   "size" : 4,
   "source_file" : "out/soong/.intermediates/frameworks/hardware/interfaces/cameraservice/device/aidl/android.frameworks.cameraservice.device-V1-ndk-source/gen/include/aidl/android/frameworks/cameraservice/device/OutputConfiguration.h"
  },
  {
   "alignment" : 4,
   "linker_set_key" : "_ZTIPKN4aidl7android10frameworks13cameraservice6device20SessionConfigurationE",
   "name" : "const aidl::android::frameworks::cameraservice::device::SessionConfiguration *",
   "referenced_type" : "_ZTIKN4aidl7android10frameworks13cameraservice6device20SessionConfigurationE",
   "self_type" : "_ZTIPKN4aidl7android10frameworks13cameraservice6device20SessionConfigurationE",
   "size" : 4,
   "source_file" : "out/soong/.intermediates/frameworks/hardware/interfaces/cameraservice/device/aidl/android.frameworks.cameraservice.device-V1-ndk-source/gen/include/aidl/android/frameworks/cameraservice/device/SessionConfiguration.h"
  },
  {
   "alignment" : 4,
   "linker_set_key" : "_ZTIPKN4aidl7android10frameworks13cameraservice6device22PhysicalCameraSettingsE",
   "name" : "const aidl::android::frameworks::cameraservice::device::PhysicalCameraSettings *",
   "referenced_type" : "_ZTIKN4aidl7android10frameworks13cameraservice6device22PhysicalCameraSettingsE",
   "self_type" : "_ZTIPKN4aidl7android10frameworks13cameraservice6device22PhysicalCameraSettingsE",
   "size" : 4,
   "source_file" : "out/soong/.intermediates/frameworks/hardware/interfaces/cameraservice/device/aidl/android.frameworks.cameraservice.device-V1-ndk-source/gen/include/aidl/android/frameworks/cameraservice/device/PhysicalCameraSettings.h"
  },
  {
   "alignment" : 4,
   "linker_set_key" : "_ZTIPKN4aidl7android10frameworks13cameraservice6device25PhysicalCaptureResultInfoE",
   "name" : "const aidl::android::frameworks::cameraservice::device::PhysicalCaptureResultInfo *",
   "referenced_type" : "_ZTIKN4aidl7android10frameworks13cameraservice6device25PhysicalCaptureResultInfoE",
   "self_type" : "_ZTIPKN4aidl7android10frameworks13cameraservice6device25PhysicalCaptureResultInfoE",
   "size" : 4,
   "source_file" : "out/soong/.intermediates/frameworks/hardware/interfaces/cameraservice/device/aidl/android.frameworks.cameraservice.device-V1-ndk-source/gen/include/aidl/android/frameworks/cameraservice/device/PhysicalCaptureResultInfo.h"
  },
  {
   "alignment" : 4,
   "linker_set_key" : "_ZTIPKN4aidl7android8hardware6common12NativeHandleE",
   "name" : "const aidl::android::hardware::common::NativeHandle *",
   "referenced_type" : "_ZTIKN4aidl7android8hardware6common12NativeHandleE",
   "self_type" : "_ZTIPKN4aidl7android8hardware6common12NativeHandleE",
   "size" : 4,
   "source_file" : "out/soong/.intermediates/hardware/interfaces/common/aidl/android.hardware.common-V2-ndk-source/gen/include/aidl/android/hardware/common/NativeHandle.h"
  },
  {
   "alignment" : 4,
   "linker_set_key" : "_ZTIPKN4aidl7android8hardware6common3fmq12MQDescriptorIaNS3_21SynchronizedReadWriteEEE",
   "name" : "const aidl::android::hardware::common::fmq::MQDescriptor<signed char, aidl::android::hardware::common::fmq::SynchronizedReadWrite> *",
   "referenced_type" : "_ZTIKN4aidl7android8hardware6common3fmq12MQDescriptorIaNS3_21SynchronizedReadWriteEEE",
   "self_type" : "_ZTIPKN4aidl7android8hardware6common3fmq12MQDescriptorIaNS3_21SynchronizedReadWriteEEE",
   "size" : 4,
   "source_file" : "out/soong/.intermediates/hardware/interfaces/common/fmq/aidl/android.hardware.common.fmq-V1-ndk-source/gen/include/aidl/android/hardware/common/fmq/MQDescriptor.h"
  },
  {
   "alignment" : 4,
   "linker_set_key" : "_ZTIPKN4aidl7android8hardware6common3fmq17GrantorDescriptorE",
   "name" : "const aidl::android::hardware::common::fmq::GrantorDescriptor *",
   "referenced_type" : "_ZTIKN4aidl7android8hardware6common3fmq17GrantorDescriptorE",
   "self_type" : "_ZTIPKN4aidl7android8hardware6common3fmq17GrantorDescriptorE",
   "size" : 4,
   "source_file" : "out/soong/.intermediates/hardware/interfaces/common/fmq/aidl/android.hardware.common.fmq-V1-ndk-source/gen/include/aidl/android/hardware/common/fmq/GrantorDescriptor.h"
  },
  {
   "alignment" : 4,
   "linker_set_key" : "_ZTIPKc",
   "name" : "const char *",
   "referenced_type" : "_ZTIKc",
   "self_type" : "_ZTIPKc",
   "size" : 4,
   "source_file" : "frameworks/native/libs/binder/ndk/include_cpp/android/binder_auto_utils.h"
  },
  {
   "alignment" : 4,
   "linker_set_key" : "_ZTIPKv",
   "name" : "const void *",
   "referenced_type" : "_ZTIKv",
   "self_type" : "_ZTIPKv",
   "size" : 4,
   "source_file" : "frameworks/native/libs/binder/ndk/include_cpp/android/binder_parcel_utils.h"
  },
  {
   "alignment" : 4,
   "linker_set_key" : "_ZTIPN3ndk10SpAIBinderE",
   "name" : "ndk::SpAIBinder *",
   "referenced_type" : "_ZTIN3ndk10SpAIBinderE",
   "self_type" : "_ZTIPN3ndk10SpAIBinderE",
   "size" : 4,
   "source_file" : "frameworks/native/libs/binder/ndk/include_cpp/android/binder_auto_utils.h"
  },
  {
   "alignment" : 4,
   "linker_set_key" : "_ZTIPN3ndk11ICInterfaceE",
   "name" : "ndk::ICInterface *",
   "referenced_type" : "_ZTIN3ndk11ICInterfaceE",
   "self_type" : "_ZTIPN3ndk11ICInterfaceE",
   "size" : 4,
   "source_file" : "frameworks/native/libs/binder/ndk/include_cpp/android/binder_interface_utils.h"
  },
  {
   "alignment" : 4,
   "linker_set_key" : "_ZTIPN3ndk12BnCInterfaceIN4aidl7android10frameworks13cameraservice6device17ICameraDeviceUserEEE",
   "name" : "ndk::BnCInterface<aidl::android::frameworks::cameraservice::device::ICameraDeviceUser> *",
   "referenced_type" : "_ZTIN3ndk12BnCInterfaceIN4aidl7android10frameworks13cameraservice6device17ICameraDeviceUserEEE",
   "self_type" : "_ZTIPN3ndk12BnCInterfaceIN4aidl7android10frameworks13cameraservice6device17ICameraDeviceUserEEE",
   "size" : 4,
   "source_file" : "frameworks/native/libs/binder/ndk/include_cpp/android/binder_interface_utils.h"
  },
  {
   "alignment" : 4,
   "linker_set_key" : "_ZTIPN3ndk12BnCInterfaceIN4aidl7android10frameworks13cameraservice6device21ICameraDeviceCallbackEEE",
   "name" : "ndk::BnCInterface<aidl::android::frameworks::cameraservice::device::ICameraDeviceCallback> *",
   "referenced_type" : "_ZTIN3ndk12BnCInterfaceIN4aidl7android10frameworks13cameraservice6device21ICameraDeviceCallbackEEE",
   "self_type" : "_ZTIPN3ndk12BnCInterfaceIN4aidl7android10frameworks13cameraservice6device21ICameraDeviceCallbackEEE",
   "size" : 4,
   "source_file" : "frameworks/native/libs/binder/ndk/include_cpp/android/binder_interface_utils.h"
  },
  {
   "alignment" : 4,
   "linker_set_key" : "_ZTIPN3ndk12BpCInterfaceIN4aidl7android10frameworks13cameraservice6device17ICameraDeviceUserEEE",
   "name" : "ndk::BpCInterface<aidl::android::frameworks::cameraservice::device::ICameraDeviceUser> *",
   "referenced_type" : "_ZTIN3ndk12BpCInterfaceIN4aidl7android10frameworks13cameraservice6device17ICameraDeviceUserEEE",
   "self_type" : "_ZTIPN3ndk12BpCInterfaceIN4aidl7android10frameworks13cameraservice6device17ICameraDeviceUserEEE",
   "size" : 4,
   "source_file" : "frameworks/native/libs/binder/ndk/include_cpp/android/binder_interface_utils.h"
  },
  {
   "alignment" : 4,
   "linker_set_key" : "_ZTIPN3ndk12BpCInterfaceIN4aidl7android10frameworks13cameraservice6device21ICameraDeviceCallbackEEE",
   "name" : "ndk::BpCInterface<aidl::android::frameworks::cameraservice::device::ICameraDeviceCallback> *",
   "referenced_type" : "_ZTIN3ndk12BpCInterfaceIN4aidl7android10frameworks13cameraservice6device21ICameraDeviceCallbackEEE",
   "self_type" : "_ZTIPN3ndk12BpCInterfaceIN4aidl7android10frameworks13cameraservice6device21ICameraDeviceCallbackEEE",
   "size" : 4,
   "source_file" : "frameworks/native/libs/binder/ndk/include_cpp/android/binder_interface_utils.h"
  },
  {
   "alignment" : 4,
   "linker_set_key" : "_ZTIPN3ndk13ScopedAParcelE",
   "name" : "ndk::ScopedAParcel *",
   "referenced_type" : "_ZTIN3ndk13ScopedAParcelE",
   "self_type" : "_ZTIPN3ndk13ScopedAParcelE",
   "size" : 4,
   "source_file" : "frameworks/native/libs/binder/ndk/include_cpp/android/binder_auto_utils.h"
  },
  {
   "alignment" : 4,
   "linker_set_key" : "_ZTIPN3ndk13ScopedAStatusE",
   "name" : "ndk::ScopedAStatus *",
   "referenced_type" : "_ZTIN3ndk13ScopedAStatusE",
   "self_type" : "_ZTIPN3ndk13ScopedAStatusE",
   "size" : 4,
   "source_file" : "frameworks/native/libs/binder/ndk/include_cpp/android/binder_auto_utils.h"
  },
  {
   "alignment" : 4,
   "linker_set_key" : "_ZTIPN3ndk13SharedRefBaseE",
   "name" : "ndk::SharedRefBase *",
   "referenced_type" : "_ZTIN3ndk13SharedRefBaseE",
   "self_type" : "_ZTIPN3ndk13SharedRefBaseE",
   "size" : 4,
   "source_file" : "frameworks/native/libs/binder/ndk/include_cpp/android/binder_interface_utils.h"
  },
  {
   "alignment" : 4,
   "linker_set_key" : "_ZTIPN3ndk17AParcelableHolderE",
   "name" : "ndk::AParcelableHolder *",
   "referenced_type" : "_ZTIN3ndk17AParcelableHolderE",
   "self_type" : "_ZTIPN3ndk17AParcelableHolderE",
   "size" : 4,
   "source_file" : "frameworks/native/libs/binder/ndk/include_cpp/android/binder_parcelable_utils.h"
  },
  {
   "alignment" : 4,
   "linker_set_key" : "_ZTIPN3ndk19ScopedAIBinder_WeakE",
   "name" : "ndk::ScopedAIBinder_Weak *",
   "referenced_type" : "_ZTIN3ndk19ScopedAIBinder_WeakE",
   "self_type" : "_ZTIPN3ndk19ScopedAIBinder_WeakE",
   "size" : 4,
   "source_file" : "frameworks/native/libs/binder/ndk/include_cpp/android/binder_auto_utils.h"
  },
  {
   "alignment" : 4,
   "linker_set_key" : "_ZTIPN3ndk20ScopedFileDescriptorE",
   "name" : "ndk::ScopedFileDescriptor *",
   "referenced_type" : "_ZTIN3ndk20ScopedFileDescriptorE",
   "self_type" : "_ZTIPN3ndk20ScopedFileDescriptorE",
   "size" : 4,
   "source_file" : "frameworks/native/libs/binder/ndk/include_cpp/android/binder_auto_utils.h"
  },
  {
   "alignment" : 4,
   "linker_set_key" : "_ZTIPN3ndk29ScopedAIBinder_DeathRecipientE",
   "name" : "ndk::ScopedAIBinder_DeathRecipient *",
   "referenced_type" : "_ZTIN3ndk29ScopedAIBinder_DeathRecipientE",
   "self_type" : "_ZTIPN3ndk29ScopedAIBinder_DeathRecipientE",
   "size" : 4,
   "source_file" : "frameworks/native/libs/binder/ndk/include_cpp/android/binder_auto_utils.h"
  },
  {
   "alignment" : 4,
   "linker_set_key" : "_ZTIPN3ndk4impl15ScopedAResourceIP13AIBinder_WeakXadL_Z20AIBinder_Weak_deleteEELS3_0EEE",
   "name" : "ndk::impl::ScopedAResource<AIBinder_Weak *, &AIBinder_Weak_delete, nullptr> *",
   "referenced_type" : "_ZTIN3ndk4impl15ScopedAResourceIP13AIBinder_WeakXadL_Z20AIBinder_Weak_deleteEELS3_0EEE",
   "self_type" : "_ZTIPN3ndk4impl15ScopedAResourceIP13AIBinder_WeakXadL_Z20AIBinder_Weak_deleteEELS3_0EEE",
   "size" : 4,
   "source_file" : "frameworks/native/libs/binder/ndk/include_cpp/android/binder_auto_utils.h"
  },
  {
   "alignment" : 4,
   "linker_set_key" : "_ZTIPN3ndk4impl15ScopedAResourceIP23AIBinder_DeathRecipientXadL_Z30AIBinder_DeathRecipient_deleteEELS3_0EEE",
   "name" : "ndk::impl::ScopedAResource<AIBinder_DeathRecipient *, &AIBinder_DeathRecipient_delete, nullptr> *",
   "referenced_type" : "_ZTIN3ndk4impl15ScopedAResourceIP23AIBinder_DeathRecipientXadL_Z30AIBinder_DeathRecipient_deleteEELS3_0EEE",
   "self_type" : "_ZTIPN3ndk4impl15ScopedAResourceIP23AIBinder_DeathRecipientXadL_Z30AIBinder_DeathRecipient_deleteEELS3_0EEE",
   "size" : 4,
   "source_file" : "frameworks/native/libs/binder/ndk/include_cpp/android/binder_auto_utils.h"
  },
  {
   "alignment" : 4,
   "linker_set_key" : "_ZTIPN3ndk4impl15ScopedAResourceIP7AParcelXadL_Z14AParcel_deleteEELS3_0EEE",
   "name" : "ndk::impl::ScopedAResource<AParcel *, &AParcel_delete, nullptr> *",
   "referenced_type" : "_ZTIN3ndk4impl15ScopedAResourceIP7AParcelXadL_Z14AParcel_deleteEELS3_0EEE",
   "self_type" : "_ZTIPN3ndk4impl15ScopedAResourceIP7AParcelXadL_Z14AParcel_deleteEELS3_0EEE",
   "size" : 4,
   "source_file" : "frameworks/native/libs/binder/ndk/include_cpp/android/binder_auto_utils.h"
  },
  {
   "alignment" : 4,
   "linker_set_key" : "_ZTIPN3ndk4impl15ScopedAResourceIP7AStatusXadL_Z14AStatus_deleteEELS3_0EEE",
   "name" : "ndk::impl::ScopedAResource<AStatus *, &AStatus_delete, nullptr> *",
   "referenced_type" : "_ZTIN3ndk4impl15ScopedAResourceIP7AStatusXadL_Z14AStatus_deleteEELS3_0EEE",
   "self_type" : "_ZTIPN3ndk4impl15ScopedAResourceIP7AStatusXadL_Z14AStatus_deleteEELS3_0EEE",
   "size" : 4,
   "source_file" : "frameworks/native/libs/binder/ndk/include_cpp/android/binder_auto_utils.h"
  },
  {
   "alignment" : 4,
   "linker_set_key" : "_ZTIPN4aidl7android10frameworks13cameraservice6device10SubmitInfoE",
   "name" : "aidl::android::frameworks::cameraservice::device::SubmitInfo *",
   "referenced_type" : "_ZTIN4aidl7android10frameworks13cameraservice6device10SubmitInfoE",
   "self_type" : "_ZTIPN4aidl7android10frameworks13cameraservice6device10SubmitInfoE",
   "size" : 4,
   "source_file" : "out/soong/.intermediates/frameworks/hardware/interfaces/cameraservice/device/aidl/android.frameworks.cameraservice.device-V1-ndk-source/gen/include/aidl/android/frameworks/cameraservice/device/ICameraDeviceUser.h"
  },
  {
   "alignment" : 4,
   "linker_set_key" : "_ZTIPN4aidl7android10frameworks13cameraservice6device14CameraMetadataE",
   "name" : "aidl::android::frameworks::cameraservice::device::CameraMetadata *",
   "referenced_type" : "_ZTIN4aidl7android10frameworks13cameraservice6device14CameraMetadataE",
   "self_type" : "_ZTIPN4aidl7android10frameworks13cameraservice6device14CameraMetadataE",
   "size" : 4,
   "source_file" : "out/soong/.intermediates/frameworks/hardware/interfaces/cameraservice/device/aidl/android.frameworks.cameraservice.device-V1-ndk-source/gen/include/aidl/android/frameworks/cameraservice/device/CameraMetadata.h"
  },
  {
   "alignment" : 4,
   "linker_set_key" : "_ZTIPN4aidl7android10frameworks13cameraservice6device14CaptureRequestE",
   "name" : "aidl::android::frameworks::cameraservice::device::CaptureRequest *",
   "referenced_type" : "_ZTIN4aidl7android10frameworks13cameraservice6device14CaptureRequestE",
   "self_type" : "_ZTIPN4aidl7android10frameworks13cameraservice6device14CaptureRequestE",
   "size" : 4,
   "source_file" : "out/soong/.intermediates/frameworks/hardware/interfaces/cameraservice/device/aidl/android.frameworks.cameraservice.device-V1-ndk-source/gen/include/aidl/android/frameworks/cameraservice/device/CaptureRequest.h"
  },
  {
   "alignment" : 4,
   "linker_set_key" : "_ZTIPN4aidl7android10frameworks13cameraservice6device17ICameraDeviceUserE",
   "name" : "aidl::android::frameworks::cameraservice::device::ICameraDeviceUser *",
   "referenced_type" : "_ZTIN4aidl7android10frameworks13cameraservice6device17ICameraDeviceUserE",
   "self_type" : "_ZTIPN4aidl7android10frameworks13cameraservice6device17ICameraDeviceUserE",
   "size" : 4,
   "source_file" : "out/soong/.intermediates/frameworks/hardware/interfaces/cameraservice/device/aidl/android.frameworks.cameraservice.device-V1-ndk-source/gen/include/aidl/android/frameworks/cameraservice/device/ICameraDeviceUser.h"
  },
  {
   "alignment" : 4,
   "linker_set_key" : "_ZTIPN4aidl7android10frameworks13cameraservice6device17StreamAndWindowIdE",
   "name" : "aidl::android::frameworks::cameraservice::device::StreamAndWindowId *",
   "referenced_type" : "_ZTIN4aidl7android10frameworks13cameraservice6device17StreamAndWindowIdE",
   "self_type" : "_ZTIPN4aidl7android10frameworks13cameraservice6device17StreamAndWindowIdE",
   "size" : 4,
   "source_file" : "out/soong/.intermediates/frameworks/hardware/interfaces/cameraservice/device/aidl/android.frameworks.cameraservice.device-V1-ndk-source/gen/include/aidl/android/frameworks/cameraservice/device/StreamAndWindowId.h"
  },
  {
   "alignment" : 4,
   "linker_set_key" : "_ZTIPN4aidl7android10frameworks13cameraservice6device18BnCameraDeviceUserE",
   "name" : "aidl::android::frameworks::cameraservice::device::BnCameraDeviceUser *",
   "referenced_type" : "_ZTIN4aidl7android10frameworks13cameraservice6device18BnCameraDeviceUserE",
   "self_type" : "_ZTIPN4aidl7android10frameworks13cameraservice6device18BnCameraDeviceUserE",
   "size" : 4,
   "source_file" : "out/soong/.intermediates/frameworks/hardware/interfaces/cameraservice/device/aidl/android.frameworks.cameraservice.device-V1-ndk-source/gen/include/aidl/android/frameworks/cameraservice/device/BnCameraDeviceUser.h"
  },
  {
   "alignment" : 4,
   "linker_set_key" : "_ZTIPN4aidl7android10frameworks13cameraservice6device18BpCameraDeviceUserE",
   "name" : "aidl::android::frameworks::cameraservice::device::BpCameraDeviceUser *",
   "referenced_type" : "_ZTIN4aidl7android10frameworks13cameraservice6device18BpCameraDeviceUserE",
   "self_type" : "_ZTIPN4aidl7android10frameworks13cameraservice6device18BpCameraDeviceUserE",
   "size" : 4,
   "source_file" : "out/soong/.intermediates/frameworks/hardware/interfaces/cameraservice/device/aidl/android.frameworks.cameraservice.device-V1-ndk-source/gen/include/aidl/android/frameworks/cameraservice/device/BpCameraDeviceUser.h"
  },
  {
   "alignment" : 4,
   "linker_set_key" : "_ZTIPN4aidl7android10frameworks13cameraservice6device19CaptureMetadataInfoE",
   "name" : "aidl::android::frameworks::cameraservice::device::CaptureMetadataInfo *",
   "referenced_type" : "_ZTIN4aidl7android10frameworks13cameraservice6device19CaptureMetadataInfoE",
   "self_type" : "_ZTIPN4aidl7android10frameworks13cameraservice6device19CaptureMetadataInfoE",
   "size" : 4,
   "source_file" : "out/soong/.intermediates/frameworks/hardware/interfaces/cameraservice/device/aidl/android.frameworks.cameraservice.device-V1-ndk-source/gen/include/aidl/android/frameworks/cameraservice/device/CaptureMetadataInfo.h"
  },
  {
   "alignment" : 4,
   "linker_set_key" : "_ZTIPN4aidl7android10frameworks13cameraservice6device19CaptureResultExtrasE",
   "name" : "aidl::android::frameworks::cameraservice::device::CaptureResultExtras *",
   "referenced_type" : "_ZTIN4aidl7android10frameworks13cameraservice6device19CaptureResultExtrasE",
   "self_type" : "_ZTIPN4aidl7android10frameworks13cameraservice6device19CaptureResultExtrasE",
   "size" : 4,
   "source_file" : "out/soong/.intermediates/frameworks/hardware/interfaces/cameraservice/device/aidl/android.frameworks.cameraservice.device-V1-ndk-source/gen/include/aidl/android/frameworks/cameraservice/device/CaptureResultExtras.h"
  },
  {
   "alignment" : 4,
   "linker_set_key" : "_ZTIPN4aidl7android10frameworks13cameraservice6device19OutputConfigurationE",
   "name" : "aidl::android::frameworks::cameraservice::device::OutputConfiguration *",
   "referenced_type" : "_ZTIN4aidl7android10frameworks13cameraservice6device19OutputConfigurationE",
   "self_type" : "_ZTIPN4aidl7android10frameworks13cameraservice6device19OutputConfigurationE",
   "size" : 4,
   "source_file" : "out/soong/.intermediates/frameworks/hardware/interfaces/cameraservice/device/aidl/android.frameworks.cameraservice.device-V1-ndk-source/gen/include/aidl/android/frameworks/cameraservice/device/OutputConfiguration.h"
  },
  {
   "alignment" : 4,
   "linker_set_key" : "_ZTIPN4aidl7android10frameworks13cameraservice6device20SessionConfigurationE",
   "name" : "aidl::android::frameworks::cameraservice::device::SessionConfiguration *",
   "referenced_type" : "_ZTIN4aidl7android10frameworks13cameraservice6device20SessionConfigurationE",
   "self_type" : "_ZTIPN4aidl7android10frameworks13cameraservice6device20SessionConfigurationE",
   "size" : 4,
   "source_file" : "out/soong/.intermediates/frameworks/hardware/interfaces/cameraservice/device/aidl/android.frameworks.cameraservice.device-V1-ndk-source/gen/include/aidl/android/frameworks/cameraservice/device/SessionConfiguration.h"
  },
  {
   "alignment" : 4,
   "linker_set_key" : "_ZTIPN4aidl7android10frameworks13cameraservice6device21ICameraDeviceCallbackE",
   "name" : "aidl::android::frameworks::cameraservice::device::ICameraDeviceCallback *",
   "referenced_type" : "_ZTIN4aidl7android10frameworks13cameraservice6device21ICameraDeviceCallbackE",
   "self_type" : "_ZTIPN4aidl7android10frameworks13cameraservice6device21ICameraDeviceCallbackE",
   "size" : 4,
   "source_file" : "out/soong/.intermediates/frameworks/hardware/interfaces/cameraservice/device/aidl/android.frameworks.cameraservice.device-V1-ndk-source/gen/include/aidl/android/frameworks/cameraservice/device/ICameraDeviceCallback.h"
  },
  {
   "alignment" : 4,
   "linker_set_key" : "_ZTIPN4aidl7android10frameworks13cameraservice6device22BnCameraDeviceCallbackE",
   "name" : "aidl::android::frameworks::cameraservice::device::BnCameraDeviceCallback *",
   "referenced_type" : "_ZTIN4aidl7android10frameworks13cameraservice6device22BnCameraDeviceCallbackE",
   "self_type" : "_ZTIPN4aidl7android10frameworks13cameraservice6device22BnCameraDeviceCallbackE",
   "size" : 4,
   "source_file" : "out/soong/.intermediates/frameworks/hardware/interfaces/cameraservice/device/aidl/android.frameworks.cameraservice.device-V1-ndk-source/gen/include/aidl/android/frameworks/cameraservice/device/BnCameraDeviceCallback.h"
  },
  {
   "alignment" : 4,
   "linker_set_key" : "_ZTIPN4aidl7android10frameworks13cameraservice6device22BpCameraDeviceCallbackE",
   "name" : "aidl::android::frameworks::cameraservice::device::BpCameraDeviceCallback *",
   "referenced_type" : "_ZTIN4aidl7android10frameworks13cameraservice6device22BpCameraDeviceCallbackE",
   "self_type" : "_ZTIPN4aidl7android10frameworks13cameraservice6device22BpCameraDeviceCallbackE",
   "size" : 4,
   "source_file" : "out/soong/.intermediates/frameworks/hardware/interfaces/cameraservice/device/aidl/android.frameworks.cameraservice.device-V1-ndk-source/gen/include/aidl/android/frameworks/cameraservice/device/BpCameraDeviceCallback.h"
  },
  {
   "alignment" : 4,
   "linker_set_key" : "_ZTIPN4aidl7android10frameworks13cameraservice6device22PhysicalCameraSettingsE",
   "name" : "aidl::android::frameworks::cameraservice::device::PhysicalCameraSettings *",
   "referenced_type" : "_ZTIN4aidl7android10frameworks13cameraservice6device22PhysicalCameraSettingsE",
   "self_type" : "_ZTIPN4aidl7android10frameworks13cameraservice6device22PhysicalCameraSettingsE",
   "size" : 4,
   "source_file" : "out/soong/.intermediates/frameworks/hardware/interfaces/cameraservice/device/aidl/android.frameworks.cameraservice.device-V1-ndk-source/gen/include/aidl/android/frameworks/cameraservice/device/PhysicalCameraSettings.h"
  },
  {
   "alignment" : 4,
   "linker_set_key" : "_ZTIPN4aidl7android10frameworks13cameraservice6device24ICameraDeviceUserDefaultE",
   "name" : "aidl::android::frameworks::cameraservice::device::ICameraDeviceUserDefault *",
   "referenced_type" : "_ZTIN4aidl7android10frameworks13cameraservice6device24ICameraDeviceUserDefaultE",
   "self_type" : "_ZTIPN4aidl7android10frameworks13cameraservice6device24ICameraDeviceUserDefaultE",
   "size" : 4,
   "source_file" : "out/soong/.intermediates/frameworks/hardware/interfaces/cameraservice/device/aidl/android.frameworks.cameraservice.device-V1-ndk-source/gen/include/aidl/android/frameworks/cameraservice/device/ICameraDeviceUser.h"
  },
  {
   "alignment" : 4,
   "linker_set_key" : "_ZTIPN4aidl7android10frameworks13cameraservice6device25PhysicalCaptureResultInfoE",
   "name" : "aidl::android::frameworks::cameraservice::device::PhysicalCaptureResultInfo *",
   "referenced_type" : "_ZTIN4aidl7android10frameworks13cameraservice6device25PhysicalCaptureResultInfoE",
   "self_type" : "_ZTIPN4aidl7android10frameworks13cameraservice6device25PhysicalCaptureResultInfoE",
   "size" : 4,
   "source_file" : "out/soong/.intermediates/frameworks/hardware/interfaces/cameraservice/device/aidl/android.frameworks.cameraservice.device-V1-ndk-source/gen/include/aidl/android/frameworks/cameraservice/device/PhysicalCaptureResultInfo.h"
  },
  {
   "alignment" : 4,
   "linker_set_key" : "_ZTIPN4aidl7android10frameworks13cameraservice6device26ICameraDeviceUserDelegatorE",
   "name" : "aidl::android::frameworks::cameraservice::device::ICameraDeviceUserDelegator *",
   "referenced_type" : "_ZTIN4aidl7android10frameworks13cameraservice6device26ICameraDeviceUserDelegatorE",
   "self_type" : "_ZTIPN4aidl7android10frameworks13cameraservice6device26ICameraDeviceUserDelegatorE",
   "size" : 4,
   "source_file" : "out/soong/.intermediates/frameworks/hardware/interfaces/cameraservice/device/aidl/android.frameworks.cameraservice.device-V1-ndk-source/gen/include/aidl/android/frameworks/cameraservice/device/BnCameraDeviceUser.h"
  },
  {
   "alignment" : 4,
   "linker_set_key" : "_ZTIPN4aidl7android10frameworks13cameraservice6device28ICameraDeviceCallbackDefaultE",
   "name" : "aidl::android::frameworks::cameraservice::device::ICameraDeviceCallbackDefault *",
   "referenced_type" : "_ZTIN4aidl7android10frameworks13cameraservice6device28ICameraDeviceCallbackDefaultE",
   "self_type" : "_ZTIPN4aidl7android10frameworks13cameraservice6device28ICameraDeviceCallbackDefaultE",
   "size" : 4,
   "source_file" : "out/soong/.intermediates/frameworks/hardware/interfaces/cameraservice/device/aidl/android.frameworks.cameraservice.device-V1-ndk-source/gen/include/aidl/android/frameworks/cameraservice/device/ICameraDeviceCallback.h"
  },
  {
   "alignment" : 4,
   "linker_set_key" : "_ZTIPN4aidl7android10frameworks13cameraservice6device30ICameraDeviceCallbackDelegatorE",
   "name" : "aidl::android::frameworks::cameraservice::device::ICameraDeviceCallbackDelegator *",
   "referenced_type" : "_ZTIN4aidl7android10frameworks13cameraservice6device30ICameraDeviceCallbackDelegatorE",
   "self_type" : "_ZTIPN4aidl7android10frameworks13cameraservice6device30ICameraDeviceCallbackDelegatorE",
   "size" : 4,
   "source_file" : "out/soong/.intermediates/frameworks/hardware/interfaces/cameraservice/device/aidl/android.frameworks.cameraservice.device-V1-ndk-source/gen/include/aidl/android/frameworks/cameraservice/device/BnCameraDeviceCallback.h"
  },
  {
   "alignment" : 4,
   "linker_set_key" : "_ZTIPN4aidl7android8hardware6common3fmq12MQDescriptorIaNS3_21SynchronizedReadWriteEEE",
   "name" : "aidl::android::hardware::common::fmq::MQDescriptor<signed char, aidl::android::hardware::common::fmq::SynchronizedReadWrite> *",
   "referenced_type" : "_ZTIN4aidl7android8hardware6common3fmq12MQDescriptorIaNS3_21SynchronizedReadWriteEEE",
   "self_type" : "_ZTIPN4aidl7android8hardware6common3fmq12MQDescriptorIaNS3_21SynchronizedReadWriteEEE",
   "size" : 4,
   "source_file" : "out/soong/.intermediates/hardware/interfaces/common/fmq/aidl/android.hardware.common.fmq-V1-ndk-source/gen/include/aidl/android/hardware/common/fmq/MQDescriptor.h"
  },
  {
   "alignment" : 4,
   "linker_set_key" : "_ZTIPNSt3__110shared_ptrIN4aidl7android10frameworks13cameraservice6device17ICameraDeviceUserEEE",
   "name" : "std::shared_ptr<aidl::android::frameworks::cameraservice::device::ICameraDeviceUser> *",
   "referenced_type" : "_ZTINSt3__110shared_ptrIN4aidl7android10frameworks13cameraservice6device17ICameraDeviceUserEEE",
   "self_type" : "_ZTIPNSt3__110shared_ptrIN4aidl7android10frameworks13cameraservice6device17ICameraDeviceUserEEE",
   "size" : 4,
   "source_file" : "out/soong/.intermediates/frameworks/hardware/interfaces/cameraservice/device/aidl/android.frameworks.cameraservice.device-V1-ndk-source/gen/include/aidl/android/frameworks/cameraservice/device/ICameraDeviceUser.h"
  },
  {
   "alignment" : 4,
   "linker_set_key" : "_ZTIPNSt3__110shared_ptrIN4aidl7android10frameworks13cameraservice6device21ICameraDeviceCallbackEEE",
   "name" : "std::shared_ptr<aidl::android::frameworks::cameraservice::device::ICameraDeviceCallback> *",
   "referenced_type" : "_ZTINSt3__110shared_ptrIN4aidl7android10frameworks13cameraservice6device21ICameraDeviceCallbackEEE",
   "self_type" : "_ZTIPNSt3__110shared_ptrIN4aidl7android10frameworks13cameraservice6device21ICameraDeviceCallbackEEE",
   "size" : 4,
   "source_file" : "out/soong/.intermediates/frameworks/hardware/interfaces/cameraservice/device/aidl/android.frameworks.cameraservice.device-V1-ndk-source/gen/include/aidl/android/frameworks/cameraservice/device/ICameraDeviceCallback.h"
  },
  {
   "alignment" : 4,
   "linker_set_key" : "_ZTIPNSt3__112basic_stringIcNS_11char_traitsIcEENS_9allocatorIcEEEE",
   "name" : "std::basic_string<char, std::char_traits<char>, std::allocator<char>> *",
   "referenced_type" : "_ZTINSt3__112basic_stringIcNS_11char_traitsIcEENS_9allocatorIcEEEE",
   "self_type" : "_ZTIPNSt3__112basic_stringIcNS_11char_traitsIcEENS_9allocatorIcEEEE",
   "size" : 4,
   "source_file" : "out/soong/.intermediates/frameworks/hardware/interfaces/cameraservice/device/aidl/android.frameworks.cameraservice.device-V1-ndk-source/gen/include/aidl/android/frameworks/cameraservice/device/ICameraDeviceCallback.h"
  },
  {
   "alignment" : 4,
   "linker_set_key" : "_ZTIPNSt3__16vectorIDsNS_9allocatorIDsEEEE",
   "name" : "std::vector<char16_t, std::allocator<char16_t>> *",
   "referenced_type" : "_ZTINSt3__16vectorIDsNS_9allocatorIDsEEEE",
   "self_type" : "_ZTIPNSt3__16vectorIDsNS_9allocatorIDsEEEE",
   "size" : 4,
   "source_file" : "frameworks/native/libs/binder/ndk/include_cpp/android/binder_parcel_utils.h"
  },
  {
   "alignment" : 4,
   "linker_set_key" : "_ZTIPNSt3__16vectorIbNS_9allocatorIbEEEE",
   "name" : "std::vector<bool, std::allocator<bool>> *",
   "referenced_type" : "_ZTINSt3__16vectorIbNS_9allocatorIbEEEE",
   "self_type" : "_ZTIPNSt3__16vectorIbNS_9allocatorIbEEEE",
   "size" : 4,
   "source_file" : "frameworks/native/libs/binder/ndk/include_cpp/android/binder_parcel_utils.h"
  },
  {
   "alignment" : 4,
   "linker_set_key" : "_ZTIPNSt3__16vectorIdNS_9allocatorIdEEEE",
   "name" : "std::vector<double, std::allocator<double>> *",
   "referenced_type" : "_ZTINSt3__16vectorIdNS_9allocatorIdEEEE",
   "self_type" : "_ZTIPNSt3__16vectorIdNS_9allocatorIdEEEE",
   "size" : 4,
   "source_file" : "frameworks/native/libs/binder/ndk/include_cpp/android/binder_parcel_utils.h"
  },
  {
   "alignment" : 4,
   "linker_set_key" : "_ZTIPNSt3__16vectorIfNS_9allocatorIfEEEE",
   "name" : "std::vector<float, std::allocator<float>> *",
   "referenced_type" : "_ZTINSt3__16vectorIfNS_9allocatorIfEEEE",
   "self_type" : "_ZTIPNSt3__16vectorIfNS_9allocatorIfEEEE",
   "size" : 4,
   "source_file" : "frameworks/native/libs/binder/ndk/include_cpp/android/binder_parcel_utils.h"
  },
  {
   "alignment" : 4,
   "linker_set_key" : "_ZTIPNSt3__16vectorIhNS_9allocatorIhEEEE",
   "name" : "std::vector<unsigned char, std::allocator<unsigned char>> *",
   "referenced_type" : "_ZTINSt3__16vectorIhNS_9allocatorIhEEEE",
   "self_type" : "_ZTIPNSt3__16vectorIhNS_9allocatorIhEEEE",
   "size" : 4,
   "source_file" : "frameworks/native/libs/binder/ndk/include_cpp/android/binder_parcel_utils.h"
  },
  {
   "alignment" : 4,
   "linker_set_key" : "_ZTIPNSt3__16vectorIiNS_9allocatorIiEEEE",
   "name" : "std::vector<int, std::allocator<int>> *",
   "referenced_type" : "_ZTINSt3__16vectorIiNS_9allocatorIiEEEE",
   "self_type" : "_ZTIPNSt3__16vectorIiNS_9allocatorIiEEEE",
   "size" : 4,
   "source_file" : "frameworks/native/libs/binder/ndk/include_cpp/android/binder_parcel_utils.h"
  },
  {
   "alignment" : 4,
   "linker_set_key" : "_ZTIPNSt3__16vectorIjNS_9allocatorIjEEEE",
   "name" : "std::vector<unsigned int, std::allocator<unsigned int>> *",
   "referenced_type" : "_ZTINSt3__16vectorIjNS_9allocatorIjEEEE",
   "self_type" : "_ZTIPNSt3__16vectorIjNS_9allocatorIjEEEE",
   "size" : 4,
   "source_file" : "frameworks/native/libs/binder/ndk/include_cpp/android/binder_parcel_utils.h"
  },
  {
   "alignment" : 4,
   "linker_set_key" : "_ZTIPNSt3__16vectorIxNS_9allocatorIxEEEE",
   "name" : "std::vector<long long, std::allocator<long long>> *",
   "referenced_type" : "_ZTINSt3__16vectorIxNS_9allocatorIxEEEE",
   "self_type" : "_ZTIPNSt3__16vectorIxNS_9allocatorIxEEEE",
   "size" : 4,
   "source_file" : "frameworks/native/libs/binder/ndk/include_cpp/android/binder_parcel_utils.h"
  },
  {
   "alignment" : 4,
   "linker_set_key" : "_ZTIPNSt3__16vectorIyNS_9allocatorIyEEEE",
   "name" : "std::vector<unsigned long long, std::allocator<unsigned long long>> *",
   "referenced_type" : "_ZTINSt3__16vectorIyNS_9allocatorIyEEEE",
   "self_type" : "_ZTIPNSt3__16vectorIyNS_9allocatorIyEEEE",
   "size" : 4,
   "source_file" : "frameworks/native/libs/binder/ndk/include_cpp/android/binder_parcel_utils.h"
  },
  {
   "alignment" : 4,
   "linker_set_key" : "_ZTIPNSt3__18optionalINS_6vectorIDsNS_9allocatorIDsEEEEEE",
   "name" : "std::optional<std::vector<char16_t, std::allocator<char16_t>>> *",
   "referenced_type" : "_ZTINSt3__18optionalINS_6vectorIDsNS_9allocatorIDsEEEEEE",
   "self_type" : "_ZTIPNSt3__18optionalINS_6vectorIDsNS_9allocatorIDsEEEEEE",
   "size" : 4,
   "source_file" : "frameworks/native/libs/binder/ndk/include_cpp/android/binder_parcel_utils.h"
  },
  {
   "alignment" : 4,
   "linker_set_key" : "_ZTIPNSt3__18optionalINS_6vectorIbNS_9allocatorIbEEEEEE",
   "name" : "std::optional<std::vector<bool, std::allocator<bool>>> *",
   "referenced_type" : "_ZTINSt3__18optionalINS_6vectorIbNS_9allocatorIbEEEEEE",
   "self_type" : "_ZTIPNSt3__18optionalINS_6vectorIbNS_9allocatorIbEEEEEE",
   "size" : 4,
   "source_file" : "frameworks/native/libs/binder/ndk/include_cpp/android/binder_parcel_utils.h"
  },
  {
   "alignment" : 4,
   "linker_set_key" : "_ZTIPNSt3__18optionalINS_6vectorIdNS_9allocatorIdEEEEEE",
   "name" : "std::optional<std::vector<double, std::allocator<double>>> *",
   "referenced_type" : "_ZTINSt3__18optionalINS_6vectorIdNS_9allocatorIdEEEEEE",
   "self_type" : "_ZTIPNSt3__18optionalINS_6vectorIdNS_9allocatorIdEEEEEE",
   "size" : 4,
   "source_file" : "frameworks/native/libs/binder/ndk/include_cpp/android/binder_parcel_utils.h"
  },
  {
   "alignment" : 4,
   "linker_set_key" : "_ZTIPNSt3__18optionalINS_6vectorIfNS_9allocatorIfEEEEEE",
   "name" : "std::optional<std::vector<float, std::allocator<float>>> *",
   "referenced_type" : "_ZTINSt3__18optionalINS_6vectorIfNS_9allocatorIfEEEEEE",
   "self_type" : "_ZTIPNSt3__18optionalINS_6vectorIfNS_9allocatorIfEEEEEE",
   "size" : 4,
   "source_file" : "frameworks/native/libs/binder/ndk/include_cpp/android/binder_parcel_utils.h"
  },
  {
   "alignment" : 4,
   "linker_set_key" : "_ZTIPNSt3__18optionalINS_6vectorIhNS_9allocatorIhEEEEEE",
   "name" : "std::optional<std::vector<unsigned char, std::allocator<unsigned char>>> *",
   "referenced_type" : "_ZTINSt3__18optionalINS_6vectorIhNS_9allocatorIhEEEEEE",
   "self_type" : "_ZTIPNSt3__18optionalINS_6vectorIhNS_9allocatorIhEEEEEE",
   "size" : 4,
   "source_file" : "frameworks/native/libs/binder/ndk/include_cpp/android/binder_parcel_utils.h"
  },
  {
   "alignment" : 4,
   "linker_set_key" : "_ZTIPNSt3__18optionalINS_6vectorIiNS_9allocatorIiEEEEEE",
   "name" : "std::optional<std::vector<int, std::allocator<int>>> *",
   "referenced_type" : "_ZTINSt3__18optionalINS_6vectorIiNS_9allocatorIiEEEEEE",
   "self_type" : "_ZTIPNSt3__18optionalINS_6vectorIiNS_9allocatorIiEEEEEE",
   "size" : 4,
   "source_file" : "frameworks/native/libs/binder/ndk/include_cpp/android/binder_parcel_utils.h"
  },
  {
   "alignment" : 4,
   "linker_set_key" : "_ZTIPNSt3__18optionalINS_6vectorIjNS_9allocatorIjEEEEEE",
   "name" : "std::optional<std::vector<unsigned int, std::allocator<unsigned int>>> *",
   "referenced_type" : "_ZTINSt3__18optionalINS_6vectorIjNS_9allocatorIjEEEEEE",
   "self_type" : "_ZTIPNSt3__18optionalINS_6vectorIjNS_9allocatorIjEEEEEE",
   "size" : 4,
   "source_file" : "frameworks/native/libs/binder/ndk/include_cpp/android/binder_parcel_utils.h"
  },
  {
   "alignment" : 4,
   "linker_set_key" : "_ZTIPNSt3__18optionalINS_6vectorIxNS_9allocatorIxEEEEEE",
   "name" : "std::optional<std::vector<long long, std::allocator<long long>>> *",
   "referenced_type" : "_ZTINSt3__18optionalINS_6vectorIxNS_9allocatorIxEEEEEE",
   "self_type" : "_ZTIPNSt3__18optionalINS_6vectorIxNS_9allocatorIxEEEEEE",
   "size" : 4,
   "source_file" : "frameworks/native/libs/binder/ndk/include_cpp/android/binder_parcel_utils.h"
  },
  {
   "alignment" : 4,
   "linker_set_key" : "_ZTIPNSt3__18optionalINS_6vectorIyNS_9allocatorIyEEEEEE",
   "name" : "std::optional<std::vector<unsigned long long, std::allocator<unsigned long long>>> *",
   "referenced_type" : "_ZTINSt3__18optionalINS_6vectorIyNS_9allocatorIyEEEEEE",
   "self_type" : "_ZTIPNSt3__18optionalINS_6vectorIyNS_9allocatorIyEEEEEE",
   "size" : 4,
   "source_file" : "frameworks/native/libs/binder/ndk/include_cpp/android/binder_parcel_utils.h"
  },
  {
   "alignment" : 4,
   "linker_set_key" : "_ZTIPP7AParcel",
   "name" : "AParcel **",
   "referenced_type" : "_ZTIP7AParcel",
   "self_type" : "_ZTIPP7AParcel",
   "size" : 4,
   "source_file" : "frameworks/native/libs/binder/ndk/include_cpp/android/binder_auto_utils.h"
  },
  {
   "alignment" : 4,
   "linker_set_key" : "_ZTIPP7AStatus",
   "name" : "AStatus **",
   "referenced_type" : "_ZTIP7AStatus",
   "self_type" : "_ZTIPP7AStatus",
   "size" : 4,
   "source_file" : "frameworks/native/libs/binder/ndk/include_cpp/android/binder_auto_utils.h"
  },
  {
   "alignment" : 4,
   "linker_set_key" : "_ZTIPP8AIBinder",
   "name" : "AIBinder **",
   "referenced_type" : "_ZTIP8AIBinder",
   "self_type" : "_ZTIPP8AIBinder",
   "size" : 4,
   "source_file" : "frameworks/native/libs/binder/ndk/include_cpp/android/binder_auto_utils.h"
  },
  {
   "alignment" : 4,
   "linker_set_key" : "_ZTIPPKc",
   "name" : "const char **",
   "referenced_type" : "_ZTIPKc",
   "self_type" : "_ZTIPPKc",
   "size" : 4,
   "source_file" : "frameworks/native/libs/binder/ndk/include_cpp/android/binder_interface_utils.h"
  },
  {
   "alignment" : 4,
   "linker_set_key" : "_ZTIPb",
   "name" : "bool *",
   "referenced_type" : "_ZTIb",
   "self_type" : "_ZTIPb",
   "size" : 4,
   "source_file" : "out/soong/.intermediates/frameworks/hardware/interfaces/cameraservice/device/aidl/android.frameworks.cameraservice.device-V1-ndk-source/gen/include/aidl/android/frameworks/cameraservice/device/ICameraDeviceUser.h"
  },
  {
   "alignment" : 4,
   "linker_set_key" : "_ZTIPi",
   "name" : "int *",
   "referenced_type" : "_ZTIi",
   "self_type" : "_ZTIPi",
   "size" : 4,
   "source_file" : "out/soong/.intermediates/frameworks/hardware/interfaces/cameraservice/device/aidl/android.frameworks.cameraservice.device-V1-ndk-source/gen/include/aidl/android/frameworks/cameraservice/device/ICameraDeviceCallback.h"
  },
  {
   "alignment" : 4,
   "linker_set_key" : "_ZTIPv",
   "name" : "void *",
   "referenced_type" : "_ZTIv",
   "self_type" : "_ZTIPv",
   "size" : 4,
   "source_file" : "frameworks/native/libs/binder/ndk/include_cpp/android/binder_interface_utils.h"
  },
  {
   "alignment" : 4,
   "linker_set_key" : "_ZTIPx",
   "name" : "long long *",
   "referenced_type" : "_ZTIx",
   "self_type" : "_ZTIPx",
   "size" : 4,
   "source_file" : "out/soong/.intermediates/frameworks/hardware/interfaces/cameraservice/device/aidl/android.frameworks.cameraservice.device-V1-ndk-source/gen/include/aidl/android/frameworks/cameraservice/device/ICameraDeviceUser.h"
  }
 ],
 "qualified_types" :
 [
  {
   "is_const" : true,
   "linker_set_key" : "_ZTIK7AParcel",
   "name" : "const AParcel",
   "referenced_type" : "_ZTI7AParcel",
   "self_type" : "_ZTIK7AParcel",
   "source_file" : "frameworks/native/libs/binder/ndk/include_cpp/android/binder_interface_utils.h"
  },
  {
   "alignment" : 4,
   "is_const" : true,
   "linker_set_key" : "_ZTIKN3ndk10SpAIBinderE",
   "name" : "const ndk::SpAIBinder",
   "referenced_type" : "_ZTIN3ndk10SpAIBinderE",
   "self_type" : "_ZTIKN3ndk10SpAIBinderE",
   "size" : 4,
   "source_file" : "frameworks/native/libs/binder/ndk/include_cpp/android/binder_auto_utils.h"
  },
  {
   "alignment" : 4,
   "is_const" : true,
   "linker_set_key" : "_ZTIKN3ndk13ScopedAParcelE",
   "name" : "const ndk::ScopedAParcel",
   "referenced_type" : "_ZTIN3ndk13ScopedAParcelE",
   "self_type" : "_ZTIKN3ndk13ScopedAParcelE",
   "size" : 4,
   "source_file" : "frameworks/native/libs/binder/ndk/include_cpp/android/binder_auto_utils.h"
  },
  {
   "alignment" : 4,
   "is_const" : true,
   "linker_set_key" : "_ZTIKN3ndk13ScopedAStatusE",
   "name" : "const ndk::ScopedAStatus",
   "referenced_type" : "_ZTIN3ndk13ScopedAStatusE",
   "self_type" : "_ZTIKN3ndk13ScopedAStatusE",
   "size" : 4,
   "source_file" : "frameworks/native/libs/binder/ndk/include_cpp/android/binder_auto_utils.h"
  },
  {
   "alignment" : 4,
   "is_const" : true,
   "linker_set_key" : "_ZTIKN3ndk17AParcelableHolderE",
   "name" : "const ndk::AParcelableHolder",
   "referenced_type" : "_ZTIN3ndk17AParcelableHolderE",
   "self_type" : "_ZTIKN3ndk17AParcelableHolderE",
   "size" : 12,
   "source_file" : "frameworks/native/libs/binder/ndk/include_cpp/android/binder_parcelable_utils.h"
  },
  {
   "alignment" : 4,
   "is_const" : true,
   "linker_set_key" : "_ZTIKN3ndk19ScopedAIBinder_WeakE",
   "name" : "const ndk::ScopedAIBinder_Weak",
   "referenced_type" : "_ZTIN3ndk19ScopedAIBinder_WeakE",
   "self_type" : "_ZTIKN3ndk19ScopedAIBinder_WeakE",
   "size" : 4,
   "source_file" : "frameworks/native/libs/binder/ndk/include_cpp/android/binder_auto_utils.h"
  },
  {
   "alignment" : 4,
   "is_const" : true,
   "linker_set_key" : "_ZTIKN3ndk20ScopedFileDescriptorE",
   "name" : "const ndk::ScopedFileDescriptor",
   "referenced_type" : "_ZTIN3ndk20ScopedFileDescriptorE",
   "self_type" : "_ZTIKN3ndk20ScopedFileDescriptorE",
   "size" : 4,
   "source_file" : "frameworks/native/libs/binder/ndk/include_cpp/android/binder_auto_utils.h"
  },
  {
   "alignment" : 4,
   "is_const" : true,
   "linker_set_key" : "_ZTIKN3ndk4impl15ScopedAResourceIP13AIBinder_WeakXadL_Z20AIBinder_Weak_deleteEELS3_0EEE",
   "name" : "const ndk::impl::ScopedAResource<AIBinder_Weak *, &AIBinder_Weak_delete, nullptr>",
   "referenced_type" : "_ZTIN3ndk4impl15ScopedAResourceIP13AIBinder_WeakXadL_Z20AIBinder_Weak_deleteEELS3_0EEE",
   "self_type" : "_ZTIKN3ndk4impl15ScopedAResourceIP13AIBinder_WeakXadL_Z20AIBinder_Weak_deleteEELS3_0EEE",
   "size" : 4,
   "source_file" : "frameworks/native/libs/binder/ndk/include_cpp/android/binder_auto_utils.h"
  },
  {
   "alignment" : 4,
   "is_const" : true,
   "linker_set_key" : "_ZTIKN3ndk4impl15ScopedAResourceIP7AParcelXadL_Z14AParcel_deleteEELS3_0EEE",
   "name" : "const ndk::impl::ScopedAResource<AParcel *, &AParcel_delete, nullptr>",
   "referenced_type" : "_ZTIN3ndk4impl15ScopedAResourceIP7AParcelXadL_Z14AParcel_deleteEELS3_0EEE",
   "self_type" : "_ZTIKN3ndk4impl15ScopedAResourceIP7AParcelXadL_Z14AParcel_deleteEELS3_0EEE",
   "size" : 4,
   "source_file" : "frameworks/native/libs/binder/ndk/include_cpp/android/binder_auto_utils.h"
  },
  {
   "alignment" : 4,
   "is_const" : true,
   "linker_set_key" : "_ZTIKN3ndk4impl15ScopedAResourceIP7AStatusXadL_Z14AStatus_deleteEELS3_0EEE",
   "name" : "const ndk::impl::ScopedAResource<AStatus *, &AStatus_delete, nullptr>",
   "referenced_type" : "_ZTIN3ndk4impl15ScopedAResourceIP7AStatusXadL_Z14AStatus_deleteEELS3_0EEE",
   "self_type" : "_ZTIKN3ndk4impl15ScopedAResourceIP7AStatusXadL_Z14AStatus_deleteEELS3_0EEE",
   "size" : 4,
   "source_file" : "frameworks/native/libs/binder/ndk/include_cpp/android/binder_auto_utils.h"
  },
  {
   "alignment" : 4,
   "is_const" : true,
   "linker_set_key" : "_ZTIKN4aidl7android10frameworks13cameraservice6device10SubmitInfoE",
   "name" : "const aidl::android::frameworks::cameraservice::device::SubmitInfo",
   "referenced_type" : "_ZTIN4aidl7android10frameworks13cameraservice6device10SubmitInfoE",
   "self_type" : "_ZTIKN4aidl7android10frameworks13cameraservice6device10SubmitInfoE",
   "size" : 12,
   "source_file" : "out/soong/.intermediates/frameworks/hardware/interfaces/cameraservice/device/aidl/android.frameworks.cameraservice.device-V1-ndk-source/gen/include/aidl/android/frameworks/cameraservice/device/SubmitInfo.h"
  },
  {
   "alignment" : 4,
   "is_const" : true,
   "linker_set_key" : "_ZTIKN4aidl7android10frameworks13cameraservice6device14CameraMetadataE",
   "name" : "const aidl::android::frameworks::cameraservice::device::CameraMetadata",
   "referenced_type" : "_ZTIN4aidl7android10frameworks13cameraservice6device14CameraMetadataE",
   "self_type" : "_ZTIKN4aidl7android10frameworks13cameraservice6device14CameraMetadataE",
   "size" : 12,
   "source_file" : "out/soong/.intermediates/frameworks/hardware/interfaces/cameraservice/device/aidl/android.frameworks.cameraservice.device-V1-ndk-source/gen/include/aidl/android/frameworks/cameraservice/device/CameraMetadata.h"
  },
  {
   "alignment" : 4,
   "is_const" : true,
   "linker_set_key" : "_ZTIKN4aidl7android10frameworks13cameraservice6device14CaptureRequestE",
   "name" : "const aidl::android::frameworks::cameraservice::device::CaptureRequest",
   "referenced_type" : "_ZTIN4aidl7android10frameworks13cameraservice6device14CaptureRequestE",
   "self_type" : "_ZTIKN4aidl7android10frameworks13cameraservice6device14CaptureRequestE",
   "size" : 24,
   "source_file" : "out/soong/.intermediates/frameworks/hardware/interfaces/cameraservice/device/aidl/android.frameworks.cameraservice.device-V1-ndk-source/gen/include/aidl/android/frameworks/cameraservice/device/CaptureRequest.h"
  },
  {
   "alignment" : 4,
   "is_const" : true,
   "linker_set_key" : "_ZTIKN4aidl7android10frameworks13cameraservice6device17StreamAndWindowIdE",
   "name" : "const aidl::android::frameworks::cameraservice::device::StreamAndWindowId",
   "referenced_type" : "_ZTIN4aidl7android10frameworks13cameraservice6device17StreamAndWindowIdE",
   "self_type" : "_ZTIKN4aidl7android10frameworks13cameraservice6device17StreamAndWindowIdE",
   "size" : 8,
   "source_file" : "frameworks/native/libs/binder/ndk/include_cpp/android/binder_to_string.h"
  },
  {
   "alignment" : 4,
   "is_const" : true,
   "linker_set_key" : "_ZTIKN4aidl7android10frameworks13cameraservice6device19CaptureMetadataInfo3TagE",
   "name" : "const aidl::android::frameworks::cameraservice::device::CaptureMetadataInfo::Tag",
   "referenced_type" : "_ZTIN4aidl7android10frameworks13cameraservice6device19CaptureMetadataInfo3TagE",
   "self_type" : "_ZTIKN4aidl7android10frameworks13cameraservice6device19CaptureMetadataInfo3TagE",
   "size" : 4,
   "source_file" : "out/soong/.intermediates/frameworks/hardware/interfaces/cameraservice/device/aidl/android.frameworks.cameraservice.device-V1-ndk-source/gen/include/aidl/android/frameworks/cameraservice/device/CaptureMetadataInfo.h"
  },
  {
   "alignment" : 4,
   "is_const" : true,
   "linker_set_key" : "_ZTIKN4aidl7android10frameworks13cameraservice6device19CaptureMetadataInfoE",
   "name" : "const aidl::android::frameworks::cameraservice::device::CaptureMetadataInfo",
   "referenced_type" : "_ZTIN4aidl7android10frameworks13cameraservice6device19CaptureMetadataInfoE",
   "self_type" : "_ZTIKN4aidl7android10frameworks13cameraservice6device19CaptureMetadataInfoE",
   "size" : 16,
   "source_file" : "out/soong/.intermediates/frameworks/hardware/interfaces/cameraservice/device/aidl/android.frameworks.cameraservice.device-V1-ndk-source/gen/include/aidl/android/frameworks/cameraservice/device/CaptureMetadataInfo.h"
  },
  {
   "alignment" : 4,
   "is_const" : true,
   "linker_set_key" : "_ZTIKN4aidl7android10frameworks13cameraservice6device19CaptureResultExtrasE",
   "name" : "const aidl::android::frameworks::cameraservice::device::CaptureResultExtras",
   "referenced_type" : "_ZTIN4aidl7android10frameworks13cameraservice6device19CaptureResultExtrasE",
   "self_type" : "_ZTIKN4aidl7android10frameworks13cameraservice6device19CaptureResultExtrasE",
   "size" : 36,
   "source_file" : "out/soong/.intermediates/frameworks/hardware/interfaces/cameraservice/device/aidl/android.frameworks.cameraservice.device-V1-ndk-source/gen/include/aidl/android/frameworks/cameraservice/device/CaptureResultExtras.h"
  },
  {
   "alignment" : 4,
   "is_const" : true,
   "linker_set_key" : "_ZTIKN4aidl7android10frameworks13cameraservice6device19OutputConfiguration8RotationE",
   "name" : "const aidl::android::frameworks::cameraservice::device::OutputConfiguration::Rotation",
   "referenced_type" : "_ZTIN4aidl7android10frameworks13cameraservice6device19OutputConfiguration8RotationE",
   "self_type" : "_ZTIKN4aidl7android10frameworks13cameraservice6device19OutputConfiguration8RotationE",
   "size" : 4,
   "source_file" : "frameworks/native/libs/binder/ndk/include_cpp/android/binder_to_string.h"
  },
  {
   "alignment" : 4,
   "is_const" : true,
   "linker_set_key" : "_ZTIKN4aidl7android10frameworks13cameraservice6device19OutputConfigurationE",
   "name" : "const aidl::android::frameworks::cameraservice::device::OutputConfiguration",
   "referenced_type" : "_ZTIN4aidl7android10frameworks13cameraservice6device19OutputConfigurationE",
   "self_type" : "_ZTIKN4aidl7android10frameworks13cameraservice6device19OutputConfigurationE",
   "size" : 44,
   "source_file" : "frameworks/native/libs/binder/ndk/include_cpp/android/binder_to_string.h"
  },
  {
   "alignment" : 4,
   "is_const" : true,
   "linker_set_key" : "_ZTIKN4aidl7android10frameworks13cameraservice6device20SessionConfigurationE",
   "name" : "const aidl::android::frameworks::cameraservice::device::SessionConfiguration",
   "referenced_type" : "_ZTIN4aidl7android10frameworks13cameraservice6device20SessionConfigurationE",
   "self_type" : "_ZTIKN4aidl7android10frameworks13cameraservice6device20SessionConfigurationE",
   "size" : 28,
   "source_file" : "out/soong/.intermediates/frameworks/hardware/interfaces/cameraservice/device/aidl/android.frameworks.cameraservice.device-V1-ndk-source/gen/include/aidl/android/frameworks/cameraservice/device/SessionConfiguration.h"
  },
  {
   "alignment" : 4,
   "is_const" : true,
   "linker_set_key" : "_ZTIKN4aidl7android10frameworks13cameraservice6device22PhysicalCameraSettingsE",
   "name" : "const aidl::android::frameworks::cameraservice::device::PhysicalCameraSettings",
   "referenced_type" : "_ZTIN4aidl7android10frameworks13cameraservice6device22PhysicalCameraSettingsE",
   "self_type" : "_ZTIKN4aidl7android10frameworks13cameraservice6device22PhysicalCameraSettingsE",
   "size" : 28,
   "source_file" : "frameworks/native/libs/binder/ndk/include_cpp/android/binder_to_string.h"
  },
  {
   "alignment" : 4,
   "is_const" : true,
   "linker_set_key" : "_ZTIKN4aidl7android10frameworks13cameraservice6device23StreamConfigurationModeE",
   "name" : "const aidl::android::frameworks::cameraservice::device::StreamConfigurationMode",
   "referenced_type" : "_ZTIN4aidl7android10frameworks13cameraservice6device23StreamConfigurationModeE",
   "self_type" : "_ZTIKN4aidl7android10frameworks13cameraservice6device23StreamConfigurationModeE",
   "size" : 4,
   "source_file" : "frameworks/native/libs/binder/ndk/include_cpp/android/binder_to_string.h"
  },
  {
   "alignment" : 4,
   "is_const" : true,
   "linker_set_key" : "_ZTIKN4aidl7android10frameworks13cameraservice6device25PhysicalCaptureResultInfoE",
   "name" : "const aidl::android::frameworks::cameraservice::device::PhysicalCaptureResultInfo",
   "referenced_type" : "_ZTIN4aidl7android10frameworks13cameraservice6device25PhysicalCaptureResultInfoE",
   "self_type" : "_ZTIKN4aidl7android10frameworks13cameraservice6device25PhysicalCaptureResultInfoE",
   "size" : 28,
   "source_file" : "out/soong/.intermediates/frameworks/hardware/interfaces/cameraservice/device/aidl/android.frameworks.cameraservice.device-V1-ndk-source/gen/include/aidl/android/frameworks/cameraservice/device/PhysicalCaptureResultInfo.h"
  },
  {
   "alignment" : 4,
   "is_const" : true,
   "linker_set_key" : "_ZTIKN4aidl7android8hardware6common12NativeHandleE",
   "name" : "const aidl::android::hardware::common::NativeHandle",
   "referenced_type" : "_ZTIN4aidl7android8hardware6common12NativeHandleE",
   "self_type" : "_ZTIKN4aidl7android8hardware6common12NativeHandleE",
   "size" : 24,
   "source_file" : "frameworks/native/libs/binder/ndk/include_cpp/android/binder_to_string.h"
  },
  {
   "alignment" : 4,
   "is_const" : true,
   "linker_set_key" : "_ZTIKN4aidl7android8hardware6common3fmq12MQDescriptorIaNS3_21SynchronizedReadWriteEEE",
   "name" : "const aidl::android::hardware::common::fmq::MQDescriptor<signed char, aidl::android::hardware::common::fmq::SynchronizedReadWrite>",
   "referenced_type" : "_ZTIN4aidl7android8hardware6common3fmq12MQDescriptorIaNS3_21SynchronizedReadWriteEEE",
   "self_type" : "_ZTIKN4aidl7android8hardware6common3fmq12MQDescriptorIaNS3_21SynchronizedReadWriteEEE",
   "size" : 44,
   "source_file" : "out/soong/.intermediates/hardware/interfaces/common/fmq/aidl/android.hardware.common.fmq-V1-ndk-source/gen/include/aidl/android/hardware/common/fmq/MQDescriptor.h"
  },
  {
   "alignment" : 4,
   "is_const" : true,
   "linker_set_key" : "_ZTIKN4aidl7android8hardware6common3fmq17GrantorDescriptorE",
   "name" : "const aidl::android::hardware::common::fmq::GrantorDescriptor",
   "referenced_type" : "_ZTIN4aidl7android8hardware6common3fmq17GrantorDescriptorE",
   "self_type" : "_ZTIKN4aidl7android8hardware6common3fmq17GrantorDescriptorE",
   "size" : 16,
   "source_file" : "out/soong/.intermediates/hardware/interfaces/common/fmq/aidl/android.hardware.common.fmq-V1-ndk-source/gen/include/aidl/android/hardware/common/fmq/GrantorDescriptor.h"
  },
  {
   "alignment" : 4,
   "is_const" : true,
   "linker_set_key" : "_ZTIKNSt3__110shared_ptrIN4aidl7android10frameworks13cameraservice6device17ICameraDeviceUserEEE",
   "name" : "const std::shared_ptr<aidl::android::frameworks::cameraservice::device::ICameraDeviceUser>",
   "referenced_type" : "_ZTINSt3__110shared_ptrIN4aidl7android10frameworks13cameraservice6device17ICameraDeviceUserEEE",
   "self_type" : "_ZTIKNSt3__110shared_ptrIN4aidl7android10frameworks13cameraservice6device17ICameraDeviceUserEEE",
   "size" : 8,
   "source_file" : "out/soong/.intermediates/frameworks/hardware/interfaces/cameraservice/device/aidl/android.frameworks.cameraservice.device-V1-ndk-source/gen/include/aidl/android/frameworks/cameraservice/device/ICameraDeviceUser.h"
  },
  {
   "alignment" : 4,
   "is_const" : true,
   "linker_set_key" : "_ZTIKNSt3__110shared_ptrIN4aidl7android10frameworks13cameraservice6device21ICameraDeviceCallbackEEE",
   "name" : "const std::shared_ptr<aidl::android::frameworks::cameraservice::device::ICameraDeviceCallback>",
   "referenced_type" : "_ZTINSt3__110shared_ptrIN4aidl7android10frameworks13cameraservice6device21ICameraDeviceCallbackEEE",
   "self_type" : "_ZTIKNSt3__110shared_ptrIN4aidl7android10frameworks13cameraservice6device21ICameraDeviceCallbackEEE",
   "size" : 8,
   "source_file" : "out/soong/.intermediates/frameworks/hardware/interfaces/cameraservice/device/aidl/android.frameworks.cameraservice.device-V1-ndk-source/gen/include/aidl/android/frameworks/cameraservice/device/ICameraDeviceCallback.h"
  },
  {
   "alignment" : 4,
   "is_const" : true,
   "linker_set_key" : "_ZTIKNSt3__112basic_stringIcNS_11char_traitsIcEENS_9allocatorIcEEEE",
   "name" : "const std::basic_string<char, std::char_traits<char>, std::allocator<char>>",
   "referenced_type" : "_ZTINSt3__112basic_stringIcNS_11char_traitsIcEENS_9allocatorIcEEEE",
   "self_type" : "_ZTIKNSt3__112basic_stringIcNS_11char_traitsIcEENS_9allocatorIcEEEE",
   "size" : 12,
   "source_file" : "frameworks/native/libs/binder/ndk/include_cpp/android/binder_to_string.h"
  },
  {
   "alignment" : 4,
   "is_const" : true,
   "linker_set_key" : "_ZTIKNSt3__15arrayIN4aidl7android10frameworks13cameraservice6device10TemplateIdELj6EEE",
   "name" : "const std::array<aidl::android::frameworks::cameraservice::device::TemplateId, 6>",
   "referenced_type" : "_ZTINSt3__15arrayIN4aidl7android10frameworks13cameraservice6device10TemplateIdELj6EEE",
   "self_type" : "_ZTIKNSt3__15arrayIN4aidl7android10frameworks13cameraservice6device10TemplateIdELj6EEE",
   "size" : 24,
   "source_file" : "out/soong/.intermediates/frameworks/hardware/interfaces/cameraservice/device/aidl/android.frameworks.cameraservice.device-V1-ndk-source/gen/include/aidl/android/frameworks/cameraservice/device/TemplateId.h"
  },
  {
   "alignment" : 4,
   "is_const" : true,
   "linker_set_key" : "_ZTIKNSt3__15arrayIN4aidl7android10frameworks13cameraservice6device19CaptureMetadataInfo3TagELj2EEE",
   "name" : "const std::array<aidl::android::frameworks::cameraservice::device::CaptureMetadataInfo::Tag, 2>",
   "referenced_type" : "_ZTINSt3__15arrayIN4aidl7android10frameworks13cameraservice6device19CaptureMetadataInfo3TagELj2EEE",
   "self_type" : "_ZTIKNSt3__15arrayIN4aidl7android10frameworks13cameraservice6device19CaptureMetadataInfo3TagELj2EEE",
   "size" : 8,
   "source_file" : "out/soong/.intermediates/frameworks/hardware/interfaces/cameraservice/device/aidl/android.frameworks.cameraservice.device-V1-ndk-source/gen/include/aidl/android/frameworks/cameraservice/device/CaptureMetadataInfo.h"
  },
  {
   "alignment" : 4,
   "is_const" : true,
   "linker_set_key" : "_ZTIKNSt3__15arrayIN4aidl7android10frameworks13cameraservice6device19OutputConfiguration13WindowGroupIdELj1EEE",
   "name" : "const std::array<aidl::android::frameworks::cameraservice::device::OutputConfiguration::WindowGroupId, 1>",
   "referenced_type" : "_ZTINSt3__15arrayIN4aidl7android10frameworks13cameraservice6device19OutputConfiguration13WindowGroupIdELj1EEE",
   "self_type" : "_ZTIKNSt3__15arrayIN4aidl7android10frameworks13cameraservice6device19OutputConfiguration13WindowGroupIdELj1EEE",
   "size" : 4,
   "source_file" : "out/soong/.intermediates/frameworks/hardware/interfaces/cameraservice/device/aidl/android.frameworks.cameraservice.device-V1-ndk-source/gen/include/aidl/android/frameworks/cameraservice/device/OutputConfiguration.h"
  },
  {
   "alignment" : 4,
   "is_const" : true,
   "linker_set_key" : "_ZTIKNSt3__15arrayIN4aidl7android10frameworks13cameraservice6device19OutputConfiguration8RotationELj4EEE",
   "name" : "const std::array<aidl::android::frameworks::cameraservice::device::OutputConfiguration::Rotation, 4>",
   "referenced_type" : "_ZTINSt3__15arrayIN4aidl7android10frameworks13cameraservice6device19OutputConfiguration8RotationELj4EEE",
   "self_type" : "_ZTIKNSt3__15arrayIN4aidl7android10frameworks13cameraservice6device19OutputConfiguration8RotationELj4EEE",
   "size" : 16,
   "source_file" : "out/soong/.intermediates/frameworks/hardware/interfaces/cameraservice/device/aidl/android.frameworks.cameraservice.device-V1-ndk-source/gen/include/aidl/android/frameworks/cameraservice/device/OutputConfiguration.h"
  },
  {
   "alignment" : 4,
   "is_const" : true,
   "linker_set_key" : "_ZTIKNSt3__15arrayIN4aidl7android10frameworks13cameraservice6device23StreamConfigurationModeELj10EEE",
   "name" : "const std::array<aidl::android::frameworks::cameraservice::device::StreamConfigurationMode, 10>",
   "referenced_type" : "_ZTINSt3__15arrayIN4aidl7android10frameworks13cameraservice6device23StreamConfigurationModeELj10EEE",
   "self_type" : "_ZTIKNSt3__15arrayIN4aidl7android10frameworks13cameraservice6device23StreamConfigurationModeELj10EEE",
   "size" : 40,
   "source_file" : "out/soong/.intermediates/frameworks/hardware/interfaces/cameraservice/device/aidl/android.frameworks.cameraservice.device-V1-ndk-source/gen/include/aidl/android/frameworks/cameraservice/device/StreamConfigurationMode.h"
  },
  {
   "alignment" : 4,
   "is_const" : true,
   "linker_set_key" : "_ZTIKNSt3__15arrayIN4aidl7android10frameworks13cameraservice6device9ErrorCodeELj9EEE",
   "name" : "const std::array<aidl::android::frameworks::cameraservice::device::ErrorCode, 9>",
   "referenced_type" : "_ZTINSt3__15arrayIN4aidl7android10frameworks13cameraservice6device9ErrorCodeELj9EEE",
   "self_type" : "_ZTIKNSt3__15arrayIN4aidl7android10frameworks13cameraservice6device9ErrorCodeELj9EEE",
   "size" : 36,
   "source_file" : "out/soong/.intermediates/frameworks/hardware/interfaces/cameraservice/device/aidl/android.frameworks.cameraservice.device-V1-ndk-source/gen/include/aidl/android/frameworks/cameraservice/device/ErrorCode.h"
  },
  {
   "alignment" : 1,
   "is_const" : true,
   "linker_set_key" : "_ZTIKNSt3__15arrayIN4aidl7android8hardware6common3fmq21SynchronizedReadWriteELj1EEE",
   "name" : "const std::array<aidl::android::hardware::common::fmq::SynchronizedReadWrite, 1>",
   "referenced_type" : "_ZTINSt3__15arrayIN4aidl7android8hardware6common3fmq21SynchronizedReadWriteELj1EEE",
   "self_type" : "_ZTIKNSt3__15arrayIN4aidl7android8hardware6common3fmq21SynchronizedReadWriteELj1EEE",
   "size" : 1,
   "source_file" : "out/soong/.intermediates/hardware/interfaces/common/fmq/aidl/android.hardware.common.fmq-V1-ndk-source/gen/include/aidl/android/hardware/common/fmq/SynchronizedReadWrite.h"
  },
  {
   "alignment" : 4,
   "is_const" : true,
   "linker_set_key" : "_ZTIKNSt3__16vectorIDsNS_9allocatorIDsEEEE",
   "name" : "const std::vector<char16_t, std::allocator<char16_t>>",
   "referenced_type" : "_ZTINSt3__16vectorIDsNS_9allocatorIDsEEEE",
   "self_type" : "_ZTIKNSt3__16vectorIDsNS_9allocatorIDsEEEE",
   "size" : 12,
   "source_file" : "frameworks/native/libs/binder/ndk/include_cpp/android/binder_parcel_utils.h"
  },
  {
   "alignment" : 4,
   "is_const" : true,
   "linker_set_key" : "_ZTIKNSt3__16vectorIN3ndk20ScopedFileDescriptorENS_9allocatorIS2_EEEE",
   "name" : "const std::vector<ndk::ScopedFileDescriptor, std::allocator<ndk::ScopedFileDescriptor>>",
   "referenced_type" : "_ZTINSt3__16vectorIN3ndk20ScopedFileDescriptorENS_9allocatorIS2_EEEE",
   "self_type" : "_ZTIKNSt3__16vectorIN3ndk20ScopedFileDescriptorENS_9allocatorIS2_EEEE",
   "size" : 12,
   "source_file" : "frameworks/native/libs/binder/ndk/include_cpp/android/binder_to_string.h"
  },
  {
   "alignment" : 4,
   "is_const" : true,
   "linker_set_key" : "_ZTIKNSt3__16vectorIN4aidl7android10frameworks13cameraservice6device14CaptureRequestENS_9allocatorIS6_EEEE",
   "name" : "const std::vector<aidl::android::frameworks::cameraservice::device::CaptureRequest, std::allocator<aidl::android::frameworks::cameraservice::device::CaptureRequest>>",
   "referenced_type" : "_ZTINSt3__16vectorIN4aidl7android10frameworks13cameraservice6device14CaptureRequestENS_9allocatorIS6_EEEE",
   "self_type" : "_ZTIKNSt3__16vectorIN4aidl7android10frameworks13cameraservice6device14CaptureRequestENS_9allocatorIS6_EEEE",
   "size" : 12,
   "source_file" : "out/soong/.intermediates/frameworks/hardware/interfaces/cameraservice/device/aidl/android.frameworks.cameraservice.device-V1-ndk-source/gen/include/aidl/android/frameworks/cameraservice/device/ICameraDeviceUser.h"
  },
  {
   "alignment" : 4,
   "is_const" : true,
   "linker_set_key" : "_ZTIKNSt3__16vectorIN4aidl7android10frameworks13cameraservice6device17StreamAndWindowIdENS_9allocatorIS6_EEEE",
   "name" : "const std::vector<aidl::android::frameworks::cameraservice::device::StreamAndWindowId, std::allocator<aidl::android::frameworks::cameraservice::device::StreamAndWindowId>>",
   "referenced_type" : "_ZTINSt3__16vectorIN4aidl7android10frameworks13cameraservice6device17StreamAndWindowIdENS_9allocatorIS6_EEEE",
   "self_type" : "_ZTIKNSt3__16vectorIN4aidl7android10frameworks13cameraservice6device17StreamAndWindowIdENS_9allocatorIS6_EEEE",
   "size" : 12,
   "source_file" : "frameworks/native/libs/binder/ndk/include_cpp/android/binder_to_string.h"
  },
  {
   "alignment" : 4,
   "is_const" : true,
   "linker_set_key" : "_ZTIKNSt3__16vectorIN4aidl7android10frameworks13cameraservice6device19OutputConfigurationENS_9allocatorIS6_EEEE",
   "name" : "const std::vector<aidl::android::frameworks::cameraservice::device::OutputConfiguration, std::allocator<aidl::android::frameworks::cameraservice::device::OutputConfiguration>>",
   "referenced_type" : "_ZTINSt3__16vectorIN4aidl7android10frameworks13cameraservice6device19OutputConfigurationENS_9allocatorIS6_EEEE",
   "self_type" : "_ZTIKNSt3__16vectorIN4aidl7android10frameworks13cameraservice6device19OutputConfigurationENS_9allocatorIS6_EEEE",
   "size" : 12,
   "source_file" : "frameworks/native/libs/binder/ndk/include_cpp/android/binder_to_string.h"
  },
  {
   "alignment" : 4,
   "is_const" : true,
   "linker_set_key" : "_ZTIKNSt3__16vectorIN4aidl7android10frameworks13cameraservice6device22PhysicalCameraSettingsENS_9allocatorIS6_EEEE",
   "name" : "const std::vector<aidl::android::frameworks::cameraservice::device::PhysicalCameraSettings, std::allocator<aidl::android::frameworks::cameraservice::device::PhysicalCameraSettings>>",
   "referenced_type" : "_ZTINSt3__16vectorIN4aidl7android10frameworks13cameraservice6device22PhysicalCameraSettingsENS_9allocatorIS6_EEEE",
   "self_type" : "_ZTIKNSt3__16vectorIN4aidl7android10frameworks13cameraservice6device22PhysicalCameraSettingsENS_9allocatorIS6_EEEE",
   "size" : 12,
   "source_file" : "frameworks/native/libs/binder/ndk/include_cpp/android/binder_to_string.h"
  },
  {
   "alignment" : 4,
   "is_const" : true,
   "linker_set_key" : "_ZTIKNSt3__16vectorIN4aidl7android10frameworks13cameraservice6device25PhysicalCaptureResultInfoENS_9allocatorIS6_EEEE",
   "name" : "const std::vector<aidl::android::frameworks::cameraservice::device::PhysicalCaptureResultInfo, std::allocator<aidl::android::frameworks::cameraservice::device::PhysicalCaptureResultInfo>>",
   "referenced_type" : "_ZTINSt3__16vectorIN4aidl7android10frameworks13cameraservice6device25PhysicalCaptureResultInfoENS_9allocatorIS6_EEEE",
   "self_type" : "_ZTIKNSt3__16vectorIN4aidl7android10frameworks13cameraservice6device25PhysicalCaptureResultInfoENS_9allocatorIS6_EEEE",
   "size" : 12,
   "source_file" : "out/soong/.intermediates/frameworks/hardware/interfaces/cameraservice/device/aidl/android.frameworks.cameraservice.device-V1-ndk-source/gen/include/aidl/android/frameworks/cameraservice/device/ICameraDeviceCallback.h"
  },
  {
   "alignment" : 4,
   "is_const" : true,
   "linker_set_key" : "_ZTIKNSt3__16vectorIN4aidl7android8hardware6common12NativeHandleENS_9allocatorIS5_EEEE",
   "name" : "const std::vector<aidl::android::hardware::common::NativeHandle, std::allocator<aidl::android::hardware::common::NativeHandle>>",
   "referenced_type" : "_ZTINSt3__16vectorIN4aidl7android8hardware6common12NativeHandleENS_9allocatorIS5_EEEE",
   "self_type" : "_ZTIKNSt3__16vectorIN4aidl7android8hardware6common12NativeHandleENS_9allocatorIS5_EEEE",
   "size" : 12,
   "source_file" : "frameworks/native/libs/binder/ndk/include_cpp/android/binder_to_string.h"
  },
  {
   "alignment" : 4,
   "is_const" : true,
   "linker_set_key" : "_ZTIKNSt3__16vectorIbNS_9allocatorIbEEEE",
   "name" : "const std::vector<bool, std::allocator<bool>>",
   "referenced_type" : "_ZTINSt3__16vectorIbNS_9allocatorIbEEEE",
   "self_type" : "_ZTIKNSt3__16vectorIbNS_9allocatorIbEEEE",
   "size" : 12,
   "source_file" : "frameworks/native/libs/binder/ndk/include_cpp/android/binder_parcel_utils.h"
  },
  {
   "alignment" : 4,
   "is_const" : true,
   "linker_set_key" : "_ZTIKNSt3__16vectorIdNS_9allocatorIdEEEE",
   "name" : "const std::vector<double, std::allocator<double>>",
   "referenced_type" : "_ZTINSt3__16vectorIdNS_9allocatorIdEEEE",
   "self_type" : "_ZTIKNSt3__16vectorIdNS_9allocatorIdEEEE",
   "size" : 12,
   "source_file" : "frameworks/native/libs/binder/ndk/include_cpp/android/binder_parcel_utils.h"
  },
  {
   "alignment" : 4,
   "is_const" : true,
   "linker_set_key" : "_ZTIKNSt3__16vectorIfNS_9allocatorIfEEEE",
   "name" : "const std::vector<float, std::allocator<float>>",
   "referenced_type" : "_ZTINSt3__16vectorIfNS_9allocatorIfEEEE",
   "self_type" : "_ZTIKNSt3__16vectorIfNS_9allocatorIfEEEE",
   "size" : 12,
   "source_file" : "frameworks/native/libs/binder/ndk/include_cpp/android/binder_parcel_utils.h"
  },
  {
   "alignment" : 4,
   "is_const" : true,
   "linker_set_key" : "_ZTIKNSt3__16vectorIhNS_9allocatorIhEEEE",
   "name" : "const std::vector<unsigned char, std::allocator<unsigned char>>",
   "referenced_type" : "_ZTINSt3__16vectorIhNS_9allocatorIhEEEE",
   "self_type" : "_ZTIKNSt3__16vectorIhNS_9allocatorIhEEEE",
   "size" : 12,
   "source_file" : "frameworks/native/libs/binder/ndk/include_cpp/android/binder_parcel_utils.h"
  },
  {
   "alignment" : 4,
   "is_const" : true,
   "linker_set_key" : "_ZTIKNSt3__16vectorIiNS_9allocatorIiEEEE",
   "name" : "const std::vector<int, std::allocator<int>>",
   "referenced_type" : "_ZTINSt3__16vectorIiNS_9allocatorIiEEEE",
   "self_type" : "_ZTIKNSt3__16vectorIiNS_9allocatorIiEEEE",
   "size" : 12,
   "source_file" : "frameworks/native/libs/binder/ndk/include_cpp/android/binder_parcel_utils.h"
  },
  {
   "alignment" : 4,
   "is_const" : true,
   "linker_set_key" : "_ZTIKNSt3__16vectorIjNS_9allocatorIjEEEE",
   "name" : "const std::vector<unsigned int, std::allocator<unsigned int>>",
   "referenced_type" : "_ZTINSt3__16vectorIjNS_9allocatorIjEEEE",
   "self_type" : "_ZTIKNSt3__16vectorIjNS_9allocatorIjEEEE",
   "size" : 12,
   "source_file" : "frameworks/native/libs/binder/ndk/include_cpp/android/binder_parcel_utils.h"
  },
  {
   "alignment" : 4,
   "is_const" : true,
   "linker_set_key" : "_ZTIKNSt3__16vectorIxNS_9allocatorIxEEEE",
   "name" : "const std::vector<long long, std::allocator<long long>>",
   "referenced_type" : "_ZTINSt3__16vectorIxNS_9allocatorIxEEEE",
   "self_type" : "_ZTIKNSt3__16vectorIxNS_9allocatorIxEEEE",
   "size" : 12,
   "source_file" : "frameworks/native/libs/binder/ndk/include_cpp/android/binder_parcel_utils.h"
  },
  {
   "alignment" : 4,
   "is_const" : true,
   "linker_set_key" : "_ZTIKNSt3__16vectorIyNS_9allocatorIyEEEE",
   "name" : "const std::vector<unsigned long long, std::allocator<unsigned long long>>",
   "referenced_type" : "_ZTINSt3__16vectorIyNS_9allocatorIyEEEE",
   "self_type" : "_ZTIKNSt3__16vectorIyNS_9allocatorIyEEEE",
   "size" : 12,
   "source_file" : "frameworks/native/libs/binder/ndk/include_cpp/android/binder_parcel_utils.h"
  },
  {
   "alignment" : 4,
   "is_const" : true,
   "linker_set_key" : "_ZTIKNSt3__18optionalINS_6vectorIDsNS_9allocatorIDsEEEEEE",
   "name" : "const std::optional<std::vector<char16_t, std::allocator<char16_t>>>",
   "referenced_type" : "_ZTINSt3__18optionalINS_6vectorIDsNS_9allocatorIDsEEEEEE",
   "self_type" : "_ZTIKNSt3__18optionalINS_6vectorIDsNS_9allocatorIDsEEEEEE",
   "size" : 16,
   "source_file" : "frameworks/native/libs/binder/ndk/include_cpp/android/binder_parcel_utils.h"
  },
  {
   "alignment" : 4,
   "is_const" : true,
   "linker_set_key" : "_ZTIKNSt3__18optionalINS_6vectorIbNS_9allocatorIbEEEEEE",
   "name" : "const std::optional<std::vector<bool, std::allocator<bool>>>",
   "referenced_type" : "_ZTINSt3__18optionalINS_6vectorIbNS_9allocatorIbEEEEEE",
   "self_type" : "_ZTIKNSt3__18optionalINS_6vectorIbNS_9allocatorIbEEEEEE",
   "size" : 16,
   "source_file" : "frameworks/native/libs/binder/ndk/include_cpp/android/binder_parcel_utils.h"
  },
  {
   "alignment" : 4,
   "is_const" : true,
   "linker_set_key" : "_ZTIKNSt3__18optionalINS_6vectorIdNS_9allocatorIdEEEEEE",
   "name" : "const std::optional<std::vector<double, std::allocator<double>>>",
   "referenced_type" : "_ZTINSt3__18optionalINS_6vectorIdNS_9allocatorIdEEEEEE",
   "self_type" : "_ZTIKNSt3__18optionalINS_6vectorIdNS_9allocatorIdEEEEEE",
   "size" : 16,
   "source_file" : "frameworks/native/libs/binder/ndk/include_cpp/android/binder_parcel_utils.h"
  },
  {
   "alignment" : 4,
   "is_const" : true,
   "linker_set_key" : "_ZTIKNSt3__18optionalINS_6vectorIfNS_9allocatorIfEEEEEE",
   "name" : "const std::optional<std::vector<float, std::allocator<float>>>",
   "referenced_type" : "_ZTINSt3__18optionalINS_6vectorIfNS_9allocatorIfEEEEEE",
   "self_type" : "_ZTIKNSt3__18optionalINS_6vectorIfNS_9allocatorIfEEEEEE",
   "size" : 16,
   "source_file" : "frameworks/native/libs/binder/ndk/include_cpp/android/binder_parcel_utils.h"
  },
  {
   "alignment" : 4,
   "is_const" : true,
   "linker_set_key" : "_ZTIKNSt3__18optionalINS_6vectorIhNS_9allocatorIhEEEEEE",
   "name" : "const std::optional<std::vector<unsigned char, std::allocator<unsigned char>>>",
   "referenced_type" : "_ZTINSt3__18optionalINS_6vectorIhNS_9allocatorIhEEEEEE",
   "self_type" : "_ZTIKNSt3__18optionalINS_6vectorIhNS_9allocatorIhEEEEEE",
   "size" : 16,
   "source_file" : "frameworks/native/libs/binder/ndk/include_cpp/android/binder_parcel_utils.h"
  },
  {
   "alignment" : 4,
   "is_const" : true,
   "linker_set_key" : "_ZTIKNSt3__18optionalINS_6vectorIiNS_9allocatorIiEEEEEE",
   "name" : "const std::optional<std::vector<int, std::allocator<int>>>",
   "referenced_type" : "_ZTINSt3__18optionalINS_6vectorIiNS_9allocatorIiEEEEEE",
   "self_type" : "_ZTIKNSt3__18optionalINS_6vectorIiNS_9allocatorIiEEEEEE",
   "size" : 16,
   "source_file" : "frameworks/native/libs/binder/ndk/include_cpp/android/binder_parcel_utils.h"
  },
  {
   "alignment" : 4,
   "is_const" : true,
   "linker_set_key" : "_ZTIKNSt3__18optionalINS_6vectorIjNS_9allocatorIjEEEEEE",
   "name" : "const std::optional<std::vector<unsigned int, std::allocator<unsigned int>>>",
   "referenced_type" : "_ZTINSt3__18optionalINS_6vectorIjNS_9allocatorIjEEEEEE",
   "self_type" : "_ZTIKNSt3__18optionalINS_6vectorIjNS_9allocatorIjEEEEEE",
   "size" : 16,
   "source_file" : "frameworks/native/libs/binder/ndk/include_cpp/android/binder_parcel_utils.h"
  },
  {
   "alignment" : 4,
   "is_const" : true,
   "linker_set_key" : "_ZTIKNSt3__18optionalINS_6vectorIxNS_9allocatorIxEEEEEE",
   "name" : "const std::optional<std::vector<long long, std::allocator<long long>>>",
   "referenced_type" : "_ZTINSt3__18optionalINS_6vectorIxNS_9allocatorIxEEEEEE",
   "self_type" : "_ZTIKNSt3__18optionalINS_6vectorIxNS_9allocatorIxEEEEEE",
   "size" : 16,
   "source_file" : "frameworks/native/libs/binder/ndk/include_cpp/android/binder_parcel_utils.h"
  },
  {
   "alignment" : 4,
   "is_const" : true,
   "linker_set_key" : "_ZTIKNSt3__18optionalINS_6vectorIyNS_9allocatorIyEEEEEE",
   "name" : "const std::optional<std::vector<unsigned long long, std::allocator<unsigned long long>>>",
   "referenced_type" : "_ZTINSt3__18optionalINS_6vectorIyNS_9allocatorIyEEEEEE",
   "self_type" : "_ZTIKNSt3__18optionalINS_6vectorIyNS_9allocatorIyEEEEEE",
   "size" : 16,
   "source_file" : "frameworks/native/libs/binder/ndk/include_cpp/android/binder_parcel_utils.h"
  },
  {
   "alignment" : 4,
   "is_const" : true,
   "linker_set_key" : "_ZTIKP13AIBinder_Weak",
   "name" : "AIBinder_Weak *const",
   "referenced_type" : "_ZTIP13AIBinder_Weak",
   "self_type" : "_ZTIKP13AIBinder_Weak",
   "size" : 4,
   "source_file" : "frameworks/native/libs/binder/ndk/include_cpp/android/binder_auto_utils.h"
  },
  {
   "alignment" : 4,
   "is_const" : true,
   "linker_set_key" : "_ZTIKP7AParcel",
   "name" : "AParcel *const",
   "referenced_type" : "_ZTIP7AParcel",
   "self_type" : "_ZTIKP7AParcel",
   "size" : 4,
   "source_file" : "frameworks/native/libs/binder/ndk/include_cpp/android/binder_auto_utils.h"
  },
  {
   "alignment" : 4,
   "is_const" : true,
   "linker_set_key" : "_ZTIKP7AStatus",
   "name" : "AStatus *const",
   "referenced_type" : "_ZTIP7AStatus",
   "self_type" : "_ZTIKP7AStatus",
   "size" : 4,
   "source_file" : "frameworks/native/libs/binder/ndk/include_cpp/android/binder_auto_utils.h"
  },
  {
   "alignment" : 1,
   "is_const" : true,
   "linker_set_key" : "_ZTIKb",
   "name" : "const bool",
   "referenced_type" : "_ZTIb",
   "self_type" : "_ZTIKb",
   "size" : 1,
   "source_file" : "frameworks/native/libs/binder/ndk/include_cpp/android/binder_parcel_utils.h"
  },
  {
   "alignment" : 1,
   "is_const" : true,
   "linker_set_key" : "_ZTIKc",
   "name" : "const char",
   "referenced_type" : "_ZTIc",
   "self_type" : "_ZTIKc",
   "size" : 1,
   "source_file" : "frameworks/native/libs/binder/ndk/include_cpp/android/binder_auto_utils.h"
  },
  {
   "alignment" : 1,
   "is_const" : true,
   "linker_set_key" : "_ZTIKh",
   "name" : "const unsigned char",
   "referenced_type" : "_ZTIh",
   "self_type" : "_ZTIKh",
   "size" : 1,
   "source_file" : "frameworks/native/libs/binder/ndk/include_cpp/android/binder_to_string.h"
  },
  {
   "alignment" : 4,
   "is_const" : true,
   "linker_set_key" : "_ZTIKi",
   "name" : "const int",
   "referenced_type" : "_ZTIi",
   "self_type" : "_ZTIKi",
   "size" : 4,
   "source_file" : "out/soong/.intermediates/frameworks/hardware/interfaces/cameraservice/device/aidl/android.frameworks.cameraservice.device-V1-ndk-source/gen/include/aidl/android/frameworks/cameraservice/device/CameraMetadata.h"
  },
  {
   "alignment" : 4,
   "is_const" : true,
   "linker_set_key" : "_ZTIKj",
   "name" : "const unsigned int",
   "referenced_type" : "_ZTIj",
   "self_type" : "_ZTIKj",
   "size" : 4,
   "source_file" : "out/soong/.intermediates/frameworks/hardware/interfaces/cameraservice/device/aidl/android.frameworks.cameraservice.device-V1-ndk-source/gen/include/aidl/android/frameworks/cameraservice/device/ICameraDeviceCallback.h"
  },
  {
   "is_const" : true,
   "linker_set_key" : "_ZTIKv",
   "name" : "const void",
   "referenced_type" : "_ZTIv",
   "self_type" : "_ZTIKv",
   "source_file" : "frameworks/native/libs/binder/ndk/include_cpp/android/binder_parcel_utils.h"
  },
  {
   "alignment" : 4,
   "is_const" : true,
   "linker_set_key" : "_ZTIKx",
   "name" : "const long long",
   "referenced_type" : "_ZTIx",
   "self_type" : "_ZTIKx",
   "size" : 8,
   "source_file" : "frameworks/native/libs/binder/ndk/include_cpp/android/binder_to_string.h"
  }
 ],
 "record_types" :
 [
  {
   "alignment" : 4,
   "fields" :
   [
    {
     "access" : "private",
     "field_name" : "mBinder",
     "referenced_type" : "_ZTIP8AIBinder"
    }
   ],
   "linker_set_key" : "_ZTIN3ndk10SpAIBinderE",
   "name" : "ndk::SpAIBinder",
   "record_kind" : "class",
   "referenced_type" : "_ZTIN3ndk10SpAIBinderE",
   "self_type" : "_ZTIN3ndk10SpAIBinderE",
   "size" : 4,
   "source_file" : "frameworks/native/libs/binder/ndk/include_cpp/android/binder_auto_utils.h"
  },
  {
   "access" : "private",
   "alignment" : 4,
   "fields" :
   [
    {
     "field_name" : "interface",
     "referenced_type" : "_ZTINSt3__110shared_ptrIN3ndk11ICInterfaceEEE"
    }
   ],
   "linker_set_key" : "_ZTIN3ndk11ICInterface15ICInterfaceDataE",
   "name" : "ndk::ICInterface::ICInterfaceData",
   "record_kind" : "class",
   "referenced_type" : "_ZTIN3ndk11ICInterface15ICInterfaceDataE",
   "self_type" : "_ZTIN3ndk11ICInterface15ICInterfaceDataE",
   "size" : 8,
   "source_file" : "frameworks/native/libs/binder/ndk/include_cpp/android/binder_interface_utils.h"
  },
  {
   "alignment" : 4,
   "base_specifiers" :
   [
    {
     "referenced_type" : "_ZTIN3ndk13SharedRefBaseE"
    }
   ],
   "linker_set_key" : "_ZTIN3ndk11ICInterfaceE",
   "name" : "ndk::ICInterface",
   "record_kind" : "class",
   "referenced_type" : "_ZTIN3ndk11ICInterfaceE",
   "self_type" : "_ZTIN3ndk11ICInterfaceE",
   "size" : 16,
   "source_file" : "frameworks/native/libs/binder/ndk/include_cpp/android/binder_interface_utils.h",
   "vtable_components" :
   [
    {
     "kind" : "offset_to_top"
    },
    {
     "kind" : "rtti",
     "mangled_component_name" : "_ZTIN3ndk11ICInterfaceE"
    },
    {
     "kind" : "complete_dtor_pointer",
     "mangled_component_name" : "_ZN3ndk11ICInterfaceD1Ev"
    },
    {
     "kind" : "deleting_dtor_pointer",
     "mangled_component_name" : "_ZN3ndk11ICInterfaceD0Ev"
    },
    {
     "is_pure" : true,
     "mangled_component_name" : "_ZN3ndk11ICInterface8asBinderEv"
    },
    {
     "is_pure" : true,
     "mangled_component_name" : "_ZN3ndk11ICInterface8isRemoteEv"
    },
    {
     "mangled_component_name" : "_ZN3ndk11ICInterface4dumpEiPPKcj"
    },
    {
     "mangled_component_name" : "_ZN3ndk11ICInterface18handleShellCommandEiiiPPKcj"
    }
   ]
  },
  {
   "alignment" : 4,
   "base_specifiers" :
   [
    {
     "referenced_type" : "_ZTIN4aidl7android10frameworks13cameraservice6device17ICameraDeviceUserE"
    }
   ],
   "fields" :
   [
    {
     "access" : "private",
     "field_name" : "mMutex",
     "field_offset" : 128,
     "referenced_type" : "_ZTINSt3__15mutexE"
    },
    {
     "access" : "private",
     "field_name" : "mWeakBinder",
     "field_offset" : 160,
     "referenced_type" : "_ZTIN3ndk19ScopedAIBinder_WeakE"
    }
   ],
   "linker_set_key" : "_ZTIN3ndk12BnCInterfaceIN4aidl7android10frameworks13cameraservice6device17ICameraDeviceUserEEE",
   "name" : "ndk::BnCInterface<aidl::android::frameworks::cameraservice::device::ICameraDeviceUser>",
   "record_kind" : "class",
   "referenced_type" : "_ZTIN3ndk12BnCInterfaceIN4aidl7android10frameworks13cameraservice6device17ICameraDeviceUserEEE",
   "self_type" : "_ZTIN3ndk12BnCInterfaceIN4aidl7android10frameworks13cameraservice6device17ICameraDeviceUserEEE",
   "size" : 24,
   "source_file" : "frameworks/native/libs/binder/ndk/include_cpp/android/binder_interface_utils.h",
   "template_args" :
   [
    "_ZTIN4aidl7android10frameworks13cameraservice6device17ICameraDeviceUserE"
   ],
   "vtable_components" :
   [
    {
     "kind" : "offset_to_top"
    },
    {
     "kind" : "rtti",
     "mangled_component_name" : "_ZTIN3ndk12BnCInterfaceIN4aidl7android10frameworks13cameraservice6device17ICameraDeviceUserEEE"
    },
    {
     "kind" : "complete_dtor_pointer",
     "mangled_component_name" : "_ZN3ndk12BnCInterfaceIN4aidl7android10frameworks13cameraservice6device17ICameraDeviceUserEED1Ev"
    },
    {
     "kind" : "deleting_dtor_pointer",
     "mangled_component_name" : "_ZN3ndk12BnCInterfaceIN4aidl7android10frameworks13cameraservice6device17ICameraDeviceUserEED0Ev"
    },
    {
     "mangled_component_name" : "_ZN3ndk12BnCInterfaceIN4aidl7android10frameworks13cameraservice6device17ICameraDeviceUserEE8asBinderEv"
    },
    {
     "mangled_component_name" : "_ZN3ndk12BnCInterfaceIN4aidl7android10frameworks13cameraservice6device17ICameraDeviceUserEE8isRemoteEv"
    },
    {
     "mangled_component_name" : "_ZN3ndk11ICInterface4dumpEiPPKcj"
    },
    {
     "mangled_component_name" : "_ZN3ndk11ICInterface18handleShellCommandEiiiPPKcj"
    },
    {
     "is_pure" : true,
     "mangled_component_name" : "_ZN4aidl7android10frameworks13cameraservice6device17ICameraDeviceUser14beginConfigureEv"
    },
    {
     "is_pure" : true,
     "mangled_component_name" : "_ZN4aidl7android10frameworks13cameraservice6device17ICameraDeviceUser22cancelRepeatingRequestEPx"
    },
    {
     "is_pure" : true,
     "mangled_component_name" : "_ZN4aidl7android10frameworks13cameraservice6device17ICameraDeviceUser20createDefaultRequestENS3_10TemplateIdEPNS3_14CameraMetadataE"
    },
    {
     "is_pure" : true,
     "mangled_component_name" : "_ZN4aidl7android10frameworks13cameraservice6device17ICameraDeviceUser12createStreamERKNS3_19OutputConfigurationEPi"
    },
    {
     "is_pure" : true,
     "mangled_component_name" : "_ZN4aidl7android10frameworks13cameraservice6device17ICameraDeviceUser12deleteStreamEi"
    },
    {
     "is_pure" : true,
     "mangled_component_name" : "_ZN4aidl7android10frameworks13cameraservice6device17ICameraDeviceUser10disconnectEv"
    },
    {
     "is_pure" : true,
     "mangled_component_name" : "_ZN4aidl7android10frameworks13cameraservice6device17ICameraDeviceUser12endConfigureENS3_23StreamConfigurationModeERKNS3_14CameraMetadataEx"
    },
    {
     "is_pure" : true,
     "mangled_component_name" : "_ZN4aidl7android10frameworks13cameraservice6device17ICameraDeviceUser5flushEPx"
    },
    {
     "is_pure" : true,
     "mangled_component_name" : "_ZN4aidl7android10frameworks13cameraservice6device17ICameraDeviceUser30getCaptureRequestMetadataQueueEPNS0_8hardware6common3fmq12MQDescriptorIaNS7_21SynchronizedReadWriteEEE"
    },
    {
     "is_pure" : true,
     "mangled_component_name" : "_ZN4aidl7android10frameworks13cameraservice6device17ICameraDeviceUser29getCaptureResultMetadataQueueEPNS0_8hardware6common3fmq12MQDescriptorIaNS7_21SynchronizedReadWriteEEE"
    },
    {
     "is_pure" : true,
     "mangled_component_name" : "_ZN4aidl7android10frameworks13cameraservice6device17ICameraDeviceUser31isSessionConfigurationSupportedERKNS3_20SessionConfigurationEPb"
    },
    {
     "is_pure" : true,
     "mangled_component_name" : "_ZN4aidl7android10frameworks13cameraservice6device17ICameraDeviceUser7prepareEi"
    },
    {
     "is_pure" : true,
     "mangled_component_name" : "_ZN4aidl7android10frameworks13cameraservice6device17ICameraDeviceUser17submitRequestListERKNSt3__16vectorINS3_14CaptureRequestENS5_9allocatorIS7_EEEEbPNS3_10SubmitInfoE"
    },
    {
     "is_pure" : true,
     "mangled_component_name" : "_ZN4aidl7android10frameworks13cameraservice6device17ICameraDeviceUser25updateOutputConfigurationEiRKNS3_19OutputConfigurationE"
    },
    {
     "is_pure" : true,
     "mangled_component_name" : "_ZN4aidl7android10frameworks13cameraservice6device17ICameraDeviceUser13waitUntilIdleEv"
    },
    {
     "is_pure" : true,
     "mangled_component_name" : "_ZN4aidl7android10frameworks13cameraservice6device17ICameraDeviceUser19getInterfaceVersionEPi"
    },
    {
     "is_pure" : true,
     "mangled_component_name" : "_ZN4aidl7android10frameworks13cameraservice6device17ICameraDeviceUser16getInterfaceHashEPNSt3__112basic_stringIcNS5_11char_traitsIcEENS5_9allocatorIcEEEE"
    },
    {
     "is_pure" : true,
     "mangled_component_name" : "_ZN3ndk12BnCInterfaceIN4aidl7android10frameworks13cameraservice6device17ICameraDeviceUserEE12createBinderEv"
    }
   ]
  },
  {
   "alignment" : 4,
   "base_specifiers" :
   [
    {
     "referenced_type" : "_ZTIN4aidl7android10frameworks13cameraservice6device21ICameraDeviceCallbackE"
    }
   ],
   "fields" :
   [
    {
     "access" : "private",
     "field_name" : "mMutex",
     "field_offset" : 128,
     "referenced_type" : "_ZTINSt3__15mutexE"
    },
    {
     "access" : "private",
     "field_name" : "mWeakBinder",
     "field_offset" : 160,
     "referenced_type" : "_ZTIN3ndk19ScopedAIBinder_WeakE"
    }
   ],
   "linker_set_key" : "_ZTIN3ndk12BnCInterfaceIN4aidl7android10frameworks13cameraservice6device21ICameraDeviceCallbackEEE",
   "name" : "ndk::BnCInterface<aidl::android::frameworks::cameraservice::device::ICameraDeviceCallback>",
   "record_kind" : "class",
   "referenced_type" : "_ZTIN3ndk12BnCInterfaceIN4aidl7android10frameworks13cameraservice6device21ICameraDeviceCallbackEEE",
   "self_type" : "_ZTIN3ndk12BnCInterfaceIN4aidl7android10frameworks13cameraservice6device21ICameraDeviceCallbackEEE",
   "size" : 24,
   "source_file" : "frameworks/native/libs/binder/ndk/include_cpp/android/binder_interface_utils.h",
   "template_args" :
   [
    "_ZTIN4aidl7android10frameworks13cameraservice6device21ICameraDeviceCallbackE"
   ],
   "vtable_components" :
   [
    {
     "kind" : "offset_to_top"
    },
    {
     "kind" : "rtti",
     "mangled_component_name" : "_ZTIN3ndk12BnCInterfaceIN4aidl7android10frameworks13cameraservice6device21ICameraDeviceCallbackEEE"
    },
    {
     "kind" : "complete_dtor_pointer",
     "mangled_component_name" : "_ZN3ndk12BnCInterfaceIN4aidl7android10frameworks13cameraservice6device21ICameraDeviceCallbackEED1Ev"
    },
    {
     "kind" : "deleting_dtor_pointer",
     "mangled_component_name" : "_ZN3ndk12BnCInterfaceIN4aidl7android10frameworks13cameraservice6device21ICameraDeviceCallbackEED0Ev"
    },
    {
     "mangled_component_name" : "_ZN3ndk12BnCInterfaceIN4aidl7android10frameworks13cameraservice6device21ICameraDeviceCallbackEE8asBinderEv"
    },
    {
     "mangled_component_name" : "_ZN3ndk12BnCInterfaceIN4aidl7android10frameworks13cameraservice6device21ICameraDeviceCallbackEE8isRemoteEv"
    },
    {
     "mangled_component_name" : "_ZN3ndk11ICInterface4dumpEiPPKcj"
    },
    {
     "mangled_component_name" : "_ZN3ndk11ICInterface18handleShellCommandEiiiPPKcj"
    },
    {
     "is_pure" : true,
     "mangled_component_name" : "_ZN4aidl7android10frameworks13cameraservice6device21ICameraDeviceCallback16onCaptureStartedERKNS3_19CaptureResultExtrasEx"
    },
    {
     "is_pure" : true,
     "mangled_component_name" : "_ZN4aidl7android10frameworks13cameraservice6device21ICameraDeviceCallback13onDeviceErrorENS3_9ErrorCodeERKNS3_19CaptureResultExtrasE"
    },
    {
     "is_pure" : true,
     "mangled_component_name" : "_ZN4aidl7android10frameworks13cameraservice6device21ICameraDeviceCallback12onDeviceIdleEv"
    },
    {
     "is_pure" : true,
     "mangled_component_name" : "_ZN4aidl7android10frameworks13cameraservice6device21ICameraDeviceCallback10onPreparedEi"
    },
    {
     "is_pure" : true,
     "mangled_component_name" : "_ZN4aidl7android10frameworks13cameraservice6device21ICameraDeviceCallback23onRepeatingRequestErrorExi"
    },
    {
     "is_pure" : true,
     "mangled_component_name" : "_ZN4aidl7android10frameworks13cameraservice6device21ICameraDeviceCallback16onResultReceivedERKNS3_19CaptureMetadataInfoERKNS3_19CaptureResultExtrasERKNSt3__16vectorINS3_25PhysicalCaptureResultInfoENSB_9allocatorISD_EEEE"
    },
    {
     "is_pure" : true,
     "mangled_component_name" : "_ZN4aidl7android10frameworks13cameraservice6device21ICameraDeviceCallback19getInterfaceVersionEPi"
    },
    {
     "is_pure" : true,
     "mangled_component_name" : "_ZN4aidl7android10frameworks13cameraservice6device21ICameraDeviceCallback16getInterfaceHashEPNSt3__112basic_stringIcNS5_11char_traitsIcEENS5_9allocatorIcEEEE"
    },
    {
     "is_pure" : true,
     "mangled_component_name" : "_ZN3ndk12BnCInterfaceIN4aidl7android10frameworks13cameraservice6device21ICameraDeviceCallbackEE12createBinderEv"
    }
   ]
  },
  {
   "alignment" : 4,
   "base_specifiers" :
   [
    {
     "referenced_type" : "_ZTIN4aidl7android10frameworks13cameraservice6device17ICameraDeviceUserE"
    }
   ],
   "fields" :
   [
    {
     "access" : "private",
     "field_name" : "mBinder",
     "field_offset" : 128,
     "referenced_type" : "_ZTIN3ndk10SpAIBinderE"
    }
   ],
   "linker_set_key" : "_ZTIN3ndk12BpCInterfaceIN4aidl7android10frameworks13cameraservice6device17ICameraDeviceUserEEE",
   "name" : "ndk::BpCInterface<aidl::android::frameworks::cameraservice::device::ICameraDeviceUser>",
   "record_kind" : "class",
   "referenced_type" : "_ZTIN3ndk12BpCInterfaceIN4aidl7android10frameworks13cameraservice6device17ICameraDeviceUserEEE",
   "self_type" : "_ZTIN3ndk12BpCInterfaceIN4aidl7android10frameworks13cameraservice6device17ICameraDeviceUserEEE",
   "size" : 20,
   "source_file" : "frameworks/native/libs/binder/ndk/include_cpp/android/binder_interface_utils.h",
   "template_args" :
   [
    "_ZTIN4aidl7android10frameworks13cameraservice6device17ICameraDeviceUserE"
   ],
   "vtable_components" :
   [
    {
     "kind" : "offset_to_top"
    },
    {
     "kind" : "rtti",
     "mangled_component_name" : "_ZTIN3ndk12BpCInterfaceIN4aidl7android10frameworks13cameraservice6device17ICameraDeviceUserEEE"
    },
    {
     "kind" : "complete_dtor_pointer",
     "mangled_component_name" : "_ZN3ndk12BpCInterfaceIN4aidl7android10frameworks13cameraservice6device17ICameraDeviceUserEED1Ev"
    },
    {
     "kind" : "deleting_dtor_pointer",
     "mangled_component_name" : "_ZN3ndk12BpCInterfaceIN4aidl7android10frameworks13cameraservice6device17ICameraDeviceUserEED0Ev"
    },
    {
     "mangled_component_name" : "_ZN3ndk12BpCInterfaceIN4aidl7android10frameworks13cameraservice6device17ICameraDeviceUserEE8asBinderEv"
    },
    {
     "mangled_component_name" : "_ZN3ndk12BpCInterfaceIN4aidl7android10frameworks13cameraservice6device17ICameraDeviceUserEE8isRemoteEv"
    },
    {
     "mangled_component_name" : "_ZN3ndk12BpCInterfaceIN4aidl7android10frameworks13cameraservice6device17ICameraDeviceUserEE4dumpEiPPKcj"
    },
    {
     "mangled_component_name" : "_ZN3ndk11ICInterface18handleShellCommandEiiiPPKcj"
    },
    {
     "is_pure" : true,
     "mangled_component_name" : "_ZN4aidl7android10frameworks13cameraservice6device17ICameraDeviceUser14beginConfigureEv"
    },
    {
     "is_pure" : true,
     "mangled_component_name" : "_ZN4aidl7android10frameworks13cameraservice6device17ICameraDeviceUser22cancelRepeatingRequestEPx"
    },
    {
     "is_pure" : true,
     "mangled_component_name" : "_ZN4aidl7android10frameworks13cameraservice6device17ICameraDeviceUser20createDefaultRequestENS3_10TemplateIdEPNS3_14CameraMetadataE"
    },
    {
     "is_pure" : true,
     "mangled_component_name" : "_ZN4aidl7android10frameworks13cameraservice6device17ICameraDeviceUser12createStreamERKNS3_19OutputConfigurationEPi"
    },
    {
     "is_pure" : true,
     "mangled_component_name" : "_ZN4aidl7android10frameworks13cameraservice6device17ICameraDeviceUser12deleteStreamEi"
    },
    {
     "is_pure" : true,
     "mangled_component_name" : "_ZN4aidl7android10frameworks13cameraservice6device17ICameraDeviceUser10disconnectEv"
    },
    {
     "is_pure" : true,
     "mangled_component_name" : "_ZN4aidl7android10frameworks13cameraservice6device17ICameraDeviceUser12endConfigureENS3_23StreamConfigurationModeERKNS3_14CameraMetadataEx"
    },
    {
     "is_pure" : true,
     "mangled_component_name" : "_ZN4aidl7android10frameworks13cameraservice6device17ICameraDeviceUser5flushEPx"
    },
    {
     "is_pure" : true,
     "mangled_component_name" : "_ZN4aidl7android10frameworks13cameraservice6device17ICameraDeviceUser30getCaptureRequestMetadataQueueEPNS0_8hardware6common3fmq12MQDescriptorIaNS7_21SynchronizedReadWriteEEE"
    },
    {
     "is_pure" : true,
     "mangled_component_name" : "_ZN4aidl7android10frameworks13cameraservice6device17ICameraDeviceUser29getCaptureResultMetadataQueueEPNS0_8hardware6common3fmq12MQDescriptorIaNS7_21SynchronizedReadWriteEEE"
    },
    {
     "is_pure" : true,
     "mangled_component_name" : "_ZN4aidl7android10frameworks13cameraservice6device17ICameraDeviceUser31isSessionConfigurationSupportedERKNS3_20SessionConfigurationEPb"
    },
    {
     "is_pure" : true,
     "mangled_component_name" : "_ZN4aidl7android10frameworks13cameraservice6device17ICameraDeviceUser7prepareEi"
    },
    {
     "is_pure" : true,
     "mangled_component_name" : "_ZN4aidl7android10frameworks13cameraservice6device17ICameraDeviceUser17submitRequestListERKNSt3__16vectorINS3_14CaptureRequestENS5_9allocatorIS7_EEEEbPNS3_10SubmitInfoE"
    },
    {
     "is_pure" : true,
     "mangled_component_name" : "_ZN4aidl7android10frameworks13cameraservice6device17ICameraDeviceUser25updateOutputConfigurationEiRKNS3_19OutputConfigurationE"
    },
    {
     "is_pure" : true,
     "mangled_component_name" : "_ZN4aidl7android10frameworks13cameraservice6device17ICameraDeviceUser13waitUntilIdleEv"
    },
    {
     "is_pure" : true,
     "mangled_component_name" : "_ZN4aidl7android10frameworks13cameraservice6device17ICameraDeviceUser19getInterfaceVersionEPi"
    },
    {
     "is_pure" : true,
     "mangled_component_name" : "_ZN4aidl7android10frameworks13cameraservice6device17ICameraDeviceUser16getInterfaceHashEPNSt3__112basic_stringIcNS5_11char_traitsIcEENS5_9allocatorIcEEEE"
    }
   ]
  },
  {
   "alignment" : 4,
   "base_specifiers" :
   [
    {
     "referenced_type" : "_ZTIN4aidl7android10frameworks13cameraservice6device21ICameraDeviceCallbackE"
    }
   ],
   "fields" :
   [
    {
     "access" : "private",
     "field_name" : "mBinder",
     "field_offset" : 128,
     "referenced_type" : "_ZTIN3ndk10SpAIBinderE"
    }
   ],
   "linker_set_key" : "_ZTIN3ndk12BpCInterfaceIN4aidl7android10frameworks13cameraservice6device21ICameraDeviceCallbackEEE",
   "name" : "ndk::BpCInterface<aidl::android::frameworks::cameraservice::device::ICameraDeviceCallback>",
   "record_kind" : "class",
   "referenced_type" : "_ZTIN3ndk12BpCInterfaceIN4aidl7android10frameworks13cameraservice6device21ICameraDeviceCallbackEEE",
   "self_type" : "_ZTIN3ndk12BpCInterfaceIN4aidl7android10frameworks13cameraservice6device21ICameraDeviceCallbackEEE",
   "size" : 20,
   "source_file" : "frameworks/native/libs/binder/ndk/include_cpp/android/binder_interface_utils.h",
   "template_args" :
   [
    "_ZTIN4aidl7android10frameworks13cameraservice6device21ICameraDeviceCallbackE"
   ],
   "vtable_components" :
   [
    {
     "kind" : "offset_to_top"
    },
    {
     "kind" : "rtti",
     "mangled_component_name" : "_ZTIN3ndk12BpCInterfaceIN4aidl7android10frameworks13cameraservice6device21ICameraDeviceCallbackEEE"
    },
    {
     "kind" : "complete_dtor_pointer",
     "mangled_component_name" : "_ZN3ndk12BpCInterfaceIN4aidl7android10frameworks13cameraservice6device21ICameraDeviceCallbackEED1Ev"
    },
    {
     "kind" : "deleting_dtor_pointer",
     "mangled_component_name" : "_ZN3ndk12BpCInterfaceIN4aidl7android10frameworks13cameraservice6device21ICameraDeviceCallbackEED0Ev"
    },
    {
     "mangled_component_name" : "_ZN3ndk12BpCInterfaceIN4aidl7android10frameworks13cameraservice6device21ICameraDeviceCallbackEE8asBinderEv"
    },
    {
     "mangled_component_name" : "_ZN3ndk12BpCInterfaceIN4aidl7android10frameworks13cameraservice6device21ICameraDeviceCallbackEE8isRemoteEv"
    },
    {
     "mangled_component_name" : "_ZN3ndk12BpCInterfaceIN4aidl7android10frameworks13cameraservice6device21ICameraDeviceCallbackEE4dumpEiPPKcj"
    },
    {
     "mangled_component_name" : "_ZN3ndk11ICInterface18handleShellCommandEiiiPPKcj"
    },
    {
     "is_pure" : true,
     "mangled_component_name" : "_ZN4aidl7android10frameworks13cameraservice6device21ICameraDeviceCallback16onCaptureStartedERKNS3_19CaptureResultExtrasEx"
    },
    {
     "is_pure" : true,
     "mangled_component_name" : "_ZN4aidl7android10frameworks13cameraservice6device21ICameraDeviceCallback13onDeviceErrorENS3_9ErrorCodeERKNS3_19CaptureResultExtrasE"
    },
    {
     "is_pure" : true,
     "mangled_component_name" : "_ZN4aidl7android10frameworks13cameraservice6device21ICameraDeviceCallback12onDeviceIdleEv"
    },
    {
     "is_pure" : true,
     "mangled_component_name" : "_ZN4aidl7android10frameworks13cameraservice6device21ICameraDeviceCallback10onPreparedEi"
    },
    {
     "is_pure" : true,
     "mangled_component_name" : "_ZN4aidl7android10frameworks13cameraservice6device21ICameraDeviceCallback23onRepeatingRequestErrorExi"
    },
    {
     "is_pure" : true,
     "mangled_component_name" : "_ZN4aidl7android10frameworks13cameraservice6device21ICameraDeviceCallback16onResultReceivedERKNS3_19CaptureMetadataInfoERKNS3_19CaptureResultExtrasERKNSt3__16vectorINS3_25PhysicalCaptureResultInfoENSB_9allocatorISD_EEEE"
    },
    {
     "is_pure" : true,
     "mangled_component_name" : "_ZN4aidl7android10frameworks13cameraservice6device21ICameraDeviceCallback19getInterfaceVersionEPi"
    },
    {
     "is_pure" : true,
     "mangled_component_name" : "_ZN4aidl7android10frameworks13cameraservice6device21ICameraDeviceCallback16getInterfaceHashEPNSt3__112basic_stringIcNS5_11char_traitsIcEENS5_9allocatorIcEEEE"
    }
   ]
  },
  {
   "alignment" : 4,
   "base_specifiers" :
   [
    {
     "referenced_type" : "_ZTIN3ndk4impl15ScopedAResourceIP7AParcelXadL_Z14AParcel_deleteEELS3_0EEE"
    }
   ],
   "linker_set_key" : "_ZTIN3ndk13ScopedAParcelE",
   "name" : "ndk::ScopedAParcel",
   "record_kind" : "class",
   "referenced_type" : "_ZTIN3ndk13ScopedAParcelE",
   "self_type" : "_ZTIN3ndk13ScopedAParcelE",
   "size" : 4,
   "source_file" : "frameworks/native/libs/binder/ndk/include_cpp/android/binder_auto_utils.h"
  },
  {
   "alignment" : 4,
   "base_specifiers" :
   [
    {
     "referenced_type" : "_ZTIN3ndk4impl15ScopedAResourceIP7AStatusXadL_Z14AStatus_deleteEELS3_0EEE"
    }
   ],
   "linker_set_key" : "_ZTIN3ndk13ScopedAStatusE",
   "name" : "ndk::ScopedAStatus",
   "record_kind" : "class",
   "referenced_type" : "_ZTIN3ndk13ScopedAStatusE",
   "self_type" : "_ZTIN3ndk13ScopedAStatusE",
   "size" : 4,
   "source_file" : "frameworks/native/libs/binder/ndk/include_cpp/android/binder_auto_utils.h"
  },
  {
   "alignment" : 4,
   "fields" :
   [
    {
     "access" : "private",
     "field_name" : "mFlagThis",
     "field_offset" : 32,
     "referenced_type" : "_ZTINSt3__19once_flagE"
    },
    {
     "access" : "private",
     "field_name" : "mThis",
     "field_offset" : 64,
     "referenced_type" : "_ZTINSt3__18weak_ptrIN3ndk13SharedRefBaseEEE"
    }
   ],
   "linker_set_key" : "_ZTIN3ndk13SharedRefBaseE",
   "name" : "ndk::SharedRefBase",
   "record_kind" : "class",
   "referenced_type" : "_ZTIN3ndk13SharedRefBaseE",
   "self_type" : "_ZTIN3ndk13SharedRefBaseE",
   "size" : 16,
   "source_file" : "frameworks/native/libs/binder/ndk/include_cpp/android/binder_interface_utils.h",
   "vtable_components" :
   [
    {
     "kind" : "offset_to_top"
    },
    {
     "kind" : "rtti",
     "mangled_component_name" : "_ZTIN3ndk13SharedRefBaseE"
    },
    {
     "kind" : "complete_dtor_pointer",
     "mangled_component_name" : "_ZN3ndk13SharedRefBaseD1Ev"
    },
    {
     "kind" : "deleting_dtor_pointer",
     "mangled_component_name" : "_ZN3ndk13SharedRefBaseD0Ev"
    }
   ]
  },
  {
   "alignment" : 4,
   "fields" :
   [
    {
     "access" : "private",
     "field_name" : "mParcel",
     "field_offset" : 32,
     "referenced_type" : "_ZTIN3ndk13ScopedAParcelE"
    },
    {
     "access" : "private",
     "field_name" : "mStability",
     "field_offset" : 64,
     "referenced_type" : "_ZTIi"
    }
   ],
   "linker_set_key" : "_ZTIN3ndk17AParcelableHolderE",
   "name" : "ndk::AParcelableHolder",
   "record_kind" : "class",
   "referenced_type" : "_ZTIN3ndk17AParcelableHolderE",
   "self_type" : "_ZTIN3ndk17AParcelableHolderE",
   "size" : 12,
   "source_file" : "frameworks/native/libs/binder/ndk/include_cpp/android/binder_parcelable_utils.h",
   "vtable_components" :
   [
    {
     "kind" : "offset_to_top"
    },
    {
     "kind" : "rtti",
     "mangled_component_name" : "_ZTIN3ndk17AParcelableHolderE"
    },
    {
     "kind" : "complete_dtor_pointer",
     "mangled_component_name" : "_ZN3ndk17AParcelableHolderD1Ev"
    },
    {
     "kind" : "deleting_dtor_pointer",
     "mangled_component_name" : "_ZN3ndk17AParcelableHolderD0Ev"
    }
   ]
  },
  {
   "alignment" : 4,
   "base_specifiers" :
   [
    {
     "referenced_type" : "_ZTIN3ndk4impl15ScopedAResourceIP13AIBinder_WeakXadL_Z20AIBinder_Weak_deleteEELS3_0EEE"
    }
   ],
   "linker_set_key" : "_ZTIN3ndk19ScopedAIBinder_WeakE",
   "name" : "ndk::ScopedAIBinder_Weak",
   "record_kind" : "class",
   "referenced_type" : "_ZTIN3ndk19ScopedAIBinder_WeakE",
   "self_type" : "_ZTIN3ndk19ScopedAIBinder_WeakE",
   "size" : 4,
   "source_file" : "frameworks/native/libs/binder/ndk/include_cpp/android/binder_auto_utils.h"
  },
  {
   "alignment" : 4,
   "base_specifiers" :
   [
    {
     "referenced_type" : "_ZTIN3ndk4impl15ScopedAResourceIiXadL_ZNS_8internalL14closeWithErrorEiEELin1EEE"
    }
   ],
   "linker_set_key" : "_ZTIN3ndk20ScopedFileDescriptorE",
   "name" : "ndk::ScopedFileDescriptor",
   "record_kind" : "class",
   "referenced_type" : "_ZTIN3ndk20ScopedFileDescriptorE",
   "self_type" : "_ZTIN3ndk20ScopedFileDescriptorE",
   "size" : 4,
   "source_file" : "frameworks/native/libs/binder/ndk/include_cpp/android/binder_auto_utils.h"
  },
  {
   "alignment" : 4,
   "base_specifiers" :
   [
    {
     "referenced_type" : "_ZTIN3ndk4impl15ScopedAResourceIP23AIBinder_DeathRecipientXadL_Z30AIBinder_DeathRecipient_deleteEELS3_0EEE"
    }
   ],
   "linker_set_key" : "_ZTIN3ndk29ScopedAIBinder_DeathRecipientE",
   "name" : "ndk::ScopedAIBinder_DeathRecipient",
   "record_kind" : "class",
   "referenced_type" : "_ZTIN3ndk29ScopedAIBinder_DeathRecipientE",
   "self_type" : "_ZTIN3ndk29ScopedAIBinder_DeathRecipientE",
   "size" : 4,
   "source_file" : "frameworks/native/libs/binder/ndk/include_cpp/android/binder_auto_utils.h"
  },
  {
   "alignment" : 4,
   "fields" :
   [
    {
     "access" : "private",
     "field_name" : "mT",
     "referenced_type" : "_ZTIP13AIBinder_Weak"
    }
   ],
   "linker_set_key" : "_ZTIN3ndk4impl15ScopedAResourceIP13AIBinder_WeakXadL_Z20AIBinder_Weak_deleteEELS3_0EEE",
   "name" : "ndk::impl::ScopedAResource<AIBinder_Weak *, &AIBinder_Weak_delete, nullptr>",
   "record_kind" : "class",
   "referenced_type" : "_ZTIN3ndk4impl15ScopedAResourceIP13AIBinder_WeakXadL_Z20AIBinder_Weak_deleteEELS3_0EEE",
   "self_type" : "_ZTIN3ndk4impl15ScopedAResourceIP13AIBinder_WeakXadL_Z20AIBinder_Weak_deleteEELS3_0EEE",
   "size" : 4,
   "source_file" : "frameworks/native/libs/binder/ndk/include_cpp/android/binder_auto_utils.h",
   "template_args" :
   [
    "_ZTIP13AIBinder_Weak"
   ]
  },
  {
   "alignment" : 4,
   "fields" :
   [
    {
     "access" : "private",
     "field_name" : "mT",
     "referenced_type" : "_ZTIP23AIBinder_DeathRecipient"
    }
   ],
   "linker_set_key" : "_ZTIN3ndk4impl15ScopedAResourceIP23AIBinder_DeathRecipientXadL_Z30AIBinder_DeathRecipient_deleteEELS3_0EEE",
   "name" : "ndk::impl::ScopedAResource<AIBinder_DeathRecipient *, &AIBinder_DeathRecipient_delete, nullptr>",
   "record_kind" : "class",
   "referenced_type" : "_ZTIN3ndk4impl15ScopedAResourceIP23AIBinder_DeathRecipientXadL_Z30AIBinder_DeathRecipient_deleteEELS3_0EEE",
   "self_type" : "_ZTIN3ndk4impl15ScopedAResourceIP23AIBinder_DeathRecipientXadL_Z30AIBinder_DeathRecipient_deleteEELS3_0EEE",
   "size" : 4,
   "source_file" : "frameworks/native/libs/binder/ndk/include_cpp/android/binder_auto_utils.h",
   "template_args" :
   [
    "_ZTIP23AIBinder_DeathRecipient"
   ]
  },
  {
   "alignment" : 4,
   "fields" :
   [
    {
     "access" : "private",
     "field_name" : "mT",
     "referenced_type" : "_ZTIP7AParcel"
    }
   ],
   "linker_set_key" : "_ZTIN3ndk4impl15ScopedAResourceIP7AParcelXadL_Z14AParcel_deleteEELS3_0EEE",
   "name" : "ndk::impl::ScopedAResource<AParcel *, &AParcel_delete, nullptr>",
   "record_kind" : "class",
   "referenced_type" : "_ZTIN3ndk4impl15ScopedAResourceIP7AParcelXadL_Z14AParcel_deleteEELS3_0EEE",
   "self_type" : "_ZTIN3ndk4impl15ScopedAResourceIP7AParcelXadL_Z14AParcel_deleteEELS3_0EEE",
   "size" : 4,
   "source_file" : "frameworks/native/libs/binder/ndk/include_cpp/android/binder_auto_utils.h",
   "template_args" :
   [
    "_ZTIP7AParcel"
   ]
  },
  {
   "alignment" : 4,
   "fields" :
   [
    {
     "access" : "private",
     "field_name" : "mT",
     "referenced_type" : "_ZTIP7AStatus"
    }
   ],
   "linker_set_key" : "_ZTIN3ndk4impl15ScopedAResourceIP7AStatusXadL_Z14AStatus_deleteEELS3_0EEE",
   "name" : "ndk::impl::ScopedAResource<AStatus *, &AStatus_delete, nullptr>",
   "record_kind" : "class",
   "referenced_type" : "_ZTIN3ndk4impl15ScopedAResourceIP7AStatusXadL_Z14AStatus_deleteEELS3_0EEE",
   "self_type" : "_ZTIN3ndk4impl15ScopedAResourceIP7AStatusXadL_Z14AStatus_deleteEELS3_0EEE",
   "size" : 4,
   "source_file" : "frameworks/native/libs/binder/ndk/include_cpp/android/binder_auto_utils.h",
   "template_args" :
   [
    "_ZTIP7AStatus"
   ]
  },
  {
   "alignment" : 4,
   "fields" :
   [
    {
     "field_name" : "requestId",
     "referenced_type" : "_ZTIi"
    },
    {
     "field_name" : "lastFrameNumber",
     "field_offset" : 32,
     "referenced_type" : "_ZTIx"
    }
   ],
   "linker_set_key" : "_ZTIN4aidl7android10frameworks13cameraservice6device10SubmitInfoE",
   "name" : "aidl::android::frameworks::cameraservice::device::SubmitInfo",
   "record_kind" : "class",
   "referenced_type" : "_ZTIN4aidl7android10frameworks13cameraservice6device10SubmitInfoE",
   "self_type" : "_ZTIN4aidl7android10frameworks13cameraservice6device10SubmitInfoE",
   "size" : 12,
   "source_file" : "out/soong/.intermediates/frameworks/hardware/interfaces/cameraservice/device/aidl/android.frameworks.cameraservice.device-V1-ndk-source/gen/include/aidl/android/frameworks/cameraservice/device/SubmitInfo.h"
  },
  {
   "alignment" : 4,
   "fields" :
   [
    {
     "field_name" : "metadata",
     "referenced_type" : "_ZTINSt3__16vectorIhNS_9allocatorIhEEEE"
    }
   ],
   "linker_set_key" : "_ZTIN4aidl7android10frameworks13cameraservice6device14CameraMetadataE",
   "name" : "aidl::android::frameworks::cameraservice::device::CameraMetadata",
   "record_kind" : "class",
   "referenced_type" : "_ZTIN4aidl7android10frameworks13cameraservice6device14CameraMetadataE",
   "self_type" : "_ZTIN4aidl7android10frameworks13cameraservice6device14CameraMetadataE",
   "size" : 12,
   "source_file" : "out/soong/.intermediates/frameworks/hardware/interfaces/cameraservice/device/aidl/android.frameworks.cameraservice.device-V1-ndk-source/gen/include/aidl/android/frameworks/cameraservice/device/CameraMetadata.h"
  },
  {
   "alignment" : 4,
   "fields" :
   [
    {
     "field_name" : "physicalCameraSettings",
     "referenced_type" : "_ZTINSt3__16vectorIN4aidl7android10frameworks13cameraservice6device22PhysicalCameraSettingsENS_9allocatorIS6_EEEE"
    },
    {
     "field_name" : "streamAndWindowIds",
     "field_offset" : 96,
     "referenced_type" : "_ZTINSt3__16vectorIN4aidl7android10frameworks13cameraservice6device17StreamAndWindowIdENS_9allocatorIS6_EEEE"
    }
   ],
   "linker_set_key" : "_ZTIN4aidl7android10frameworks13cameraservice6device14CaptureRequestE",
   "name" : "aidl::android::frameworks::cameraservice::device::CaptureRequest",
   "record_kind" : "class",
   "referenced_type" : "_ZTIN4aidl7android10frameworks13cameraservice6device14CaptureRequestE",
   "self_type" : "_ZTIN4aidl7android10frameworks13cameraservice6device14CaptureRequestE",
   "size" : 24,
   "source_file" : "out/soong/.intermediates/frameworks/hardware/interfaces/cameraservice/device/aidl/android.frameworks.cameraservice.device-V1-ndk-source/gen/include/aidl/android/frameworks/cameraservice/device/CaptureRequest.h"
  },
  {
   "alignment" : 4,
   "base_specifiers" :
   [
    {
     "referenced_type" : "_ZTIN3ndk11ICInterfaceE"
    }
   ],
   "linker_set_key" : "_ZTIN4aidl7android10frameworks13cameraservice6device17ICameraDeviceUserE",
   "name" : "aidl::android::frameworks::cameraservice::device::ICameraDeviceUser",
   "record_kind" : "class",
   "referenced_type" : "_ZTIN4aidl7android10frameworks13cameraservice6device17ICameraDeviceUserE",
   "self_type" : "_ZTIN4aidl7android10frameworks13cameraservice6device17ICameraDeviceUserE",
   "size" : 16,
   "source_file" : "out/soong/.intermediates/frameworks/hardware/interfaces/cameraservice/device/aidl/android.frameworks.cameraservice.device-V1-ndk-source/gen/include/aidl/android/frameworks/cameraservice/device/ICameraDeviceUser.h",
   "vtable_components" :
   [
    {
     "kind" : "offset_to_top"
    },
    {
     "kind" : "rtti",
     "mangled_component_name" : "_ZTIN4aidl7android10frameworks13cameraservice6device17ICameraDeviceUserE"
    },
    {
     "kind" : "complete_dtor_pointer",
     "mangled_component_name" : "_ZN4aidl7android10frameworks13cameraservice6device17ICameraDeviceUserD1Ev"
    },
    {
     "kind" : "deleting_dtor_pointer",
     "mangled_component_name" : "_ZN4aidl7android10frameworks13cameraservice6device17ICameraDeviceUserD0Ev"
    },
    {
     "is_pure" : true,
     "mangled_component_name" : "_ZN3ndk11ICInterface8asBinderEv"
    },
    {
     "is_pure" : true,
     "mangled_component_name" : "_ZN3ndk11ICInterface8isRemoteEv"
    },
    {
     "mangled_component_name" : "_ZN3ndk11ICInterface4dumpEiPPKcj"
    },
    {
     "mangled_component_name" : "_ZN3ndk11ICInterface18handleShellCommandEiiiPPKcj"
    },
    {
     "is_pure" : true,
     "mangled_component_name" : "_ZN4aidl7android10frameworks13cameraservice6device17ICameraDeviceUser14beginConfigureEv"
    },
    {
     "is_pure" : true,
     "mangled_component_name" : "_ZN4aidl7android10frameworks13cameraservice6device17ICameraDeviceUser22cancelRepeatingRequestEPx"
    },
    {
     "is_pure" : true,
     "mangled_component_name" : "_ZN4aidl7android10frameworks13cameraservice6device17ICameraDeviceUser20createDefaultRequestENS3_10TemplateIdEPNS3_14CameraMetadataE"
    },
    {
     "is_pure" : true,
     "mangled_component_name" : "_ZN4aidl7android10frameworks13cameraservice6device17ICameraDeviceUser12createStreamERKNS3_19OutputConfigurationEPi"
    },
    {
     "is_pure" : true,
     "mangled_component_name" : "_ZN4aidl7android10frameworks13cameraservice6device17ICameraDeviceUser12deleteStreamEi"
    },
    {
     "is_pure" : true,
     "mangled_component_name" : "_ZN4aidl7android10frameworks13cameraservice6device17ICameraDeviceUser10disconnectEv"
    },
    {
     "is_pure" : true,
     "mangled_component_name" : "_ZN4aidl7android10frameworks13cameraservice6device17ICameraDeviceUser12endConfigureENS3_23StreamConfigurationModeERKNS3_14CameraMetadataEx"
    },
    {
     "is_pure" : true,
     "mangled_component_name" : "_ZN4aidl7android10frameworks13cameraservice6device17ICameraDeviceUser5flushEPx"
    },
    {
     "is_pure" : true,
     "mangled_component_name" : "_ZN4aidl7android10frameworks13cameraservice6device17ICameraDeviceUser30getCaptureRequestMetadataQueueEPNS0_8hardware6common3fmq12MQDescriptorIaNS7_21SynchronizedReadWriteEEE"
    },
    {
     "is_pure" : true,
     "mangled_component_name" : "_ZN4aidl7android10frameworks13cameraservice6device17ICameraDeviceUser29getCaptureResultMetadataQueueEPNS0_8hardware6common3fmq12MQDescriptorIaNS7_21SynchronizedReadWriteEEE"
    },
    {
     "is_pure" : true,
     "mangled_component_name" : "_ZN4aidl7android10frameworks13cameraservice6device17ICameraDeviceUser31isSessionConfigurationSupportedERKNS3_20SessionConfigurationEPb"
    },
    {
     "is_pure" : true,
     "mangled_component_name" : "_ZN4aidl7android10frameworks13cameraservice6device17ICameraDeviceUser7prepareEi"
    },
    {
     "is_pure" : true,
     "mangled_component_name" : "_ZN4aidl7android10frameworks13cameraservice6device17ICameraDeviceUser17submitRequestListERKNSt3__16vectorINS3_14CaptureRequestENS5_9allocatorIS7_EEEEbPNS3_10SubmitInfoE"
    },
    {
     "is_pure" : true,
     "mangled_component_name" : "_ZN4aidl7android10frameworks13cameraservice6device17ICameraDeviceUser25updateOutputConfigurationEiRKNS3_19OutputConfigurationE"
    },
    {
     "is_pure" : true,
     "mangled_component_name" : "_ZN4aidl7android10frameworks13cameraservice6device17ICameraDeviceUser13waitUntilIdleEv"
    },
    {
     "is_pure" : true,
     "mangled_component_name" : "_ZN4aidl7android10frameworks13cameraservice6device17ICameraDeviceUser19getInterfaceVersionEPi"
    },
    {
     "is_pure" : true,
     "mangled_component_name" : "_ZN4aidl7android10frameworks13cameraservice6device17ICameraDeviceUser16getInterfaceHashEPNSt3__112basic_stringIcNS5_11char_traitsIcEENS5_9allocatorIcEEEE"
    }
   ]
  },
  {
   "alignment" : 4,
   "fields" :
   [
    {
     "field_name" : "streamId",
     "referenced_type" : "_ZTIi"
    },
    {
     "field_name" : "windowId",
     "field_offset" : 32,
     "referenced_type" : "_ZTIi"
    }
   ],
   "linker_set_key" : "_ZTIN4aidl7android10frameworks13cameraservice6device17StreamAndWindowIdE",
   "name" : "aidl::android::frameworks::cameraservice::device::StreamAndWindowId",
   "record_kind" : "class",
   "referenced_type" : "_ZTIN4aidl7android10frameworks13cameraservice6device17StreamAndWindowIdE",
   "self_type" : "_ZTIN4aidl7android10frameworks13cameraservice6device17StreamAndWindowIdE",
   "size" : 8,
   "source_file" : "out/soong/.intermediates/frameworks/hardware/interfaces/cameraservice/device/aidl/android.frameworks.cameraservice.device-V1-ndk-source/gen/include/aidl/android/frameworks/cameraservice/device/StreamAndWindowId.h"
  },
  {
   "alignment" : 4,
   "base_specifiers" :
   [
    {
     "referenced_type" : "_ZTIN3ndk12BnCInterfaceIN4aidl7android10frameworks13cameraservice6device17ICameraDeviceUserEEE"
    }
   ],
   "linker_set_key" : "_ZTIN4aidl7android10frameworks13cameraservice6device18BnCameraDeviceUserE",
   "name" : "aidl::android::frameworks::cameraservice::device::BnCameraDeviceUser",
   "record_kind" : "class",
   "referenced_type" : "_ZTIN4aidl7android10frameworks13cameraservice6device18BnCameraDeviceUserE",
   "self_type" : "_ZTIN4aidl7android10frameworks13cameraservice6device18BnCameraDeviceUserE",
   "size" : 24,
   "source_file" : "out/soong/.intermediates/frameworks/hardware/interfaces/cameraservice/device/aidl/android.frameworks.cameraservice.device-V1-ndk-source/gen/include/aidl/android/frameworks/cameraservice/device/BnCameraDeviceUser.h",
   "vtable_components" :
   [
    {
     "kind" : "offset_to_top"
    },
    {
     "kind" : "rtti",
     "mangled_component_name" : "_ZTIN4aidl7android10frameworks13cameraservice6device18BnCameraDeviceUserE"
    },
    {
     "kind" : "complete_dtor_pointer",
     "mangled_component_name" : "_ZN4aidl7android10frameworks13cameraservice6device18BnCameraDeviceUserD1Ev"
    },
    {
     "kind" : "deleting_dtor_pointer",
     "mangled_component_name" : "_ZN4aidl7android10frameworks13cameraservice6device18BnCameraDeviceUserD0Ev"
    },
    {
     "mangled_component_name" : "_ZN3ndk12BnCInterfaceIN4aidl7android10frameworks13cameraservice6device17ICameraDeviceUserEE8asBinderEv"
    },
    {
     "mangled_component_name" : "_ZN3ndk12BnCInterfaceIN4aidl7android10frameworks13cameraservice6device17ICameraDeviceUserEE8isRemoteEv"
    },
    {
     "mangled_component_name" : "_ZN3ndk11ICInterface4dumpEiPPKcj"
    },
    {
     "mangled_component_name" : "_ZN3ndk11ICInterface18handleShellCommandEiiiPPKcj"
    },
    {
     "is_pure" : true,
     "mangled_component_name" : "_ZN4aidl7android10frameworks13cameraservice6device17ICameraDeviceUser14beginConfigureEv"
    },
    {
     "is_pure" : true,
     "mangled_component_name" : "_ZN4aidl7android10frameworks13cameraservice6device17ICameraDeviceUser22cancelRepeatingRequestEPx"
    },
    {
     "is_pure" : true,
     "mangled_component_name" : "_ZN4aidl7android10frameworks13cameraservice6device17ICameraDeviceUser20createDefaultRequestENS3_10TemplateIdEPNS3_14CameraMetadataE"
    },
    {
     "is_pure" : true,
     "mangled_component_name" : "_ZN4aidl7android10frameworks13cameraservice6device17ICameraDeviceUser12createStreamERKNS3_19OutputConfigurationEPi"
    },
    {
     "is_pure" : true,
     "mangled_component_name" : "_ZN4aidl7android10frameworks13cameraservice6device17ICameraDeviceUser12deleteStreamEi"
    },
    {
     "is_pure" : true,
     "mangled_component_name" : "_ZN4aidl7android10frameworks13cameraservice6device17ICameraDeviceUser10disconnectEv"
    },
    {
     "is_pure" : true,
     "mangled_component_name" : "_ZN4aidl7android10frameworks13cameraservice6device17ICameraDeviceUser12endConfigureENS3_23StreamConfigurationModeERKNS3_14CameraMetadataEx"
    },
    {
     "is_pure" : true,
     "mangled_component_name" : "_ZN4aidl7android10frameworks13cameraservice6device17ICameraDeviceUser5flushEPx"
    },
    {
     "is_pure" : true,
     "mangled_component_name" : "_ZN4aidl7android10frameworks13cameraservice6device17ICameraDeviceUser30getCaptureRequestMetadataQueueEPNS0_8hardware6common3fmq12MQDescriptorIaNS7_21SynchronizedReadWriteEEE"
    },
    {
     "is_pure" : true,
     "mangled_component_name" : "_ZN4aidl7android10frameworks13cameraservice6device17ICameraDeviceUser29getCaptureResultMetadataQueueEPNS0_8hardware6common3fmq12MQDescriptorIaNS7_21SynchronizedReadWriteEEE"
    },
    {
     "is_pure" : true,
     "mangled_component_name" : "_ZN4aidl7android10frameworks13cameraservice6device17ICameraDeviceUser31isSessionConfigurationSupportedERKNS3_20SessionConfigurationEPb"
    },
    {
     "is_pure" : true,
     "mangled_component_name" : "_ZN4aidl7android10frameworks13cameraservice6device17ICameraDeviceUser7prepareEi"
    },
    {
     "is_pure" : true,
     "mangled_component_name" : "_ZN4aidl7android10frameworks13cameraservice6device17ICameraDeviceUser17submitRequestListERKNSt3__16vectorINS3_14CaptureRequestENS5_9allocatorIS7_EEEEbPNS3_10SubmitInfoE"
    },
    {
     "is_pure" : true,
     "mangled_component_name" : "_ZN4aidl7android10frameworks13cameraservice6device17ICameraDeviceUser25updateOutputConfigurationEiRKNS3_19OutputConfigurationE"
    },
    {
     "is_pure" : true,
     "mangled_component_name" : "_ZN4aidl7android10frameworks13cameraservice6device17ICameraDeviceUser13waitUntilIdleEv"
    },
    {
     "mangled_component_name" : "_ZN4aidl7android10frameworks13cameraservice6device18BnCameraDeviceUser19getInterfaceVersionEPi"
    },
    {
     "mangled_component_name" : "_ZN4aidl7android10frameworks13cameraservice6device18BnCameraDeviceUser16getInterfaceHashEPNSt3__112basic_stringIcNS5_11char_traitsIcEENS5_9allocatorIcEEEE"
    },
    {
     "mangled_component_name" : "_ZN4aidl7android10frameworks13cameraservice6device18BnCameraDeviceUser12createBinderEv"
    }
   ]
  },
  {
   "alignment" : 4,
   "base_specifiers" :
   [
    {
     "referenced_type" : "_ZTIN3ndk12BpCInterfaceIN4aidl7android10frameworks13cameraservice6device17ICameraDeviceUserEEE"
    }
   ],
   "fields" :
   [
    {
     "field_name" : "_aidl_cached_version",
     "field_offset" : 160,
     "referenced_type" : "_ZTIi"
    },
    {
     "field_name" : "_aidl_cached_hash",
     "field_offset" : 192,
     "referenced_type" : "_ZTINSt3__112basic_stringIcNS_11char_traitsIcEENS_9allocatorIcEEEE"
    },
    {
     "field_name" : "_aidl_cached_hash_mutex",
     "field_offset" : 288,
     "referenced_type" : "_ZTINSt3__15mutexE"
    }
   ],
   "linker_set_key" : "_ZTIN4aidl7android10frameworks13cameraservice6device18BpCameraDeviceUserE",
   "name" : "aidl::android::frameworks::cameraservice::device::BpCameraDeviceUser",
   "record_kind" : "class",
   "referenced_type" : "_ZTIN4aidl7android10frameworks13cameraservice6device18BpCameraDeviceUserE",
   "self_type" : "_ZTIN4aidl7android10frameworks13cameraservice6device18BpCameraDeviceUserE",
   "size" : 40,
   "source_file" : "out/soong/.intermediates/frameworks/hardware/interfaces/cameraservice/device/aidl/android.frameworks.cameraservice.device-V1-ndk-source/gen/include/aidl/android/frameworks/cameraservice/device/BpCameraDeviceUser.h",
   "vtable_components" :
   [
    {
     "kind" : "offset_to_top"
    },
    {
     "kind" : "rtti",
     "mangled_component_name" : "_ZTIN4aidl7android10frameworks13cameraservice6device18BpCameraDeviceUserE"
    },
    {
     "kind" : "complete_dtor_pointer",
     "mangled_component_name" : "_ZN4aidl7android10frameworks13cameraservice6device18BpCameraDeviceUserD1Ev"
    },
    {
     "kind" : "deleting_dtor_pointer",
     "mangled_component_name" : "_ZN4aidl7android10frameworks13cameraservice6device18BpCameraDeviceUserD0Ev"
    },
    {
     "mangled_component_name" : "_ZN3ndk12BpCInterfaceIN4aidl7android10frameworks13cameraservice6device17ICameraDeviceUserEE8asBinderEv"
    },
    {
     "mangled_component_name" : "_ZN3ndk12BpCInterfaceIN4aidl7android10frameworks13cameraservice6device17ICameraDeviceUserEE8isRemoteEv"
    },
    {
     "mangled_component_name" : "_ZN3ndk12BpCInterfaceIN4aidl7android10frameworks13cameraservice6device17ICameraDeviceUserEE4dumpEiPPKcj"
    },
    {
     "mangled_component_name" : "_ZN3ndk11ICInterface18handleShellCommandEiiiPPKcj"
    },
    {
     "mangled_component_name" : "_ZN4aidl7android10frameworks13cameraservice6device18BpCameraDeviceUser14beginConfigureEv"
    },
    {
     "mangled_component_name" : "_ZN4aidl7android10frameworks13cameraservice6device18BpCameraDeviceUser22cancelRepeatingRequestEPx"
    },
    {
     "mangled_component_name" : "_ZN4aidl7android10frameworks13cameraservice6device18BpCameraDeviceUser20createDefaultRequestENS3_10TemplateIdEPNS3_14CameraMetadataE"
    },
    {
     "mangled_component_name" : "_ZN4aidl7android10frameworks13cameraservice6device18BpCameraDeviceUser12createStreamERKNS3_19OutputConfigurationEPi"
    },
    {
     "mangled_component_name" : "_ZN4aidl7android10frameworks13cameraservice6device18BpCameraDeviceUser12deleteStreamEi"
    },
    {
     "mangled_component_name" : "_ZN4aidl7android10frameworks13cameraservice6device18BpCameraDeviceUser10disconnectEv"
    },
    {
     "mangled_component_name" : "_ZN4aidl7android10frameworks13cameraservice6device18BpCameraDeviceUser12endConfigureENS3_23StreamConfigurationModeERKNS3_14CameraMetadataEx"
    },
    {
     "mangled_component_name" : "_ZN4aidl7android10frameworks13cameraservice6device18BpCameraDeviceUser5flushEPx"
    },
    {
     "mangled_component_name" : "_ZN4aidl7android10frameworks13cameraservice6device18BpCameraDeviceUser30getCaptureRequestMetadataQueueEPNS0_8hardware6common3fmq12MQDescriptorIaNS7_21SynchronizedReadWriteEEE"
    },
    {
     "mangled_component_name" : "_ZN4aidl7android10frameworks13cameraservice6device18BpCameraDeviceUser29getCaptureResultMetadataQueueEPNS0_8hardware6common3fmq12MQDescriptorIaNS7_21SynchronizedReadWriteEEE"
    },
    {
     "mangled_component_name" : "_ZN4aidl7android10frameworks13cameraservice6device18BpCameraDeviceUser31isSessionConfigurationSupportedERKNS3_20SessionConfigurationEPb"
    },
    {
     "mangled_component_name" : "_ZN4aidl7android10frameworks13cameraservice6device18BpCameraDeviceUser7prepareEi"
    },
    {
     "mangled_component_name" : "_ZN4aidl7android10frameworks13cameraservice6device18BpCameraDeviceUser17submitRequestListERKNSt3__16vectorINS3_14CaptureRequestENS5_9allocatorIS7_EEEEbPNS3_10SubmitInfoE"
    },
    {
     "mangled_component_name" : "_ZN4aidl7android10frameworks13cameraservice6device18BpCameraDeviceUser25updateOutputConfigurationEiRKNS3_19OutputConfigurationE"
    },
    {
     "mangled_component_name" : "_ZN4aidl7android10frameworks13cameraservice6device18BpCameraDeviceUser13waitUntilIdleEv"
    },
    {
     "mangled_component_name" : "_ZN4aidl7android10frameworks13cameraservice6device18BpCameraDeviceUser19getInterfaceVersionEPi"
    },
    {
     "mangled_component_name" : "_ZN4aidl7android10frameworks13cameraservice6device18BpCameraDeviceUser16getInterfaceHashEPNSt3__112basic_stringIcNS5_11char_traitsIcEENS5_9allocatorIcEEEE"
    }
   ]
  },
  {
   "alignment" : 4,
   "fields" :
   [
    {
     "access" : "private",
     "field_name" : "_value",
     "referenced_type" : "_ZTINSt3__17variantIJxN4aidl7android10frameworks13cameraservice6device14CameraMetadataEEEE"
    }
   ],
   "linker_set_key" : "_ZTIN4aidl7android10frameworks13cameraservice6device19CaptureMetadataInfoE",
   "name" : "aidl::android::frameworks::cameraservice::device::CaptureMetadataInfo",
   "record_kind" : "class",
   "referenced_type" : "_ZTIN4aidl7android10frameworks13cameraservice6device19CaptureMetadataInfoE",
   "self_type" : "_ZTIN4aidl7android10frameworks13cameraservice6device19CaptureMetadataInfoE",
   "size" : 16,
   "source_file" : "out/soong/.intermediates/frameworks/hardware/interfaces/cameraservice/device/aidl/android.frameworks.cameraservice.device-V1-ndk-source/gen/include/aidl/android/frameworks/cameraservice/device/CaptureMetadataInfo.h"
  },
  {
   "alignment" : 4,
   "fields" :
   [
    {
     "field_name" : "requestId",
     "referenced_type" : "_ZTIi"
    },
    {
     "field_name" : "burstId",
     "field_offset" : 32,
     "referenced_type" : "_ZTIi"
    },
    {
     "field_name" : "frameNumber",
     "field_offset" : 64,
     "referenced_type" : "_ZTIx"
    },
    {
     "field_name" : "partialResultCount",
     "field_offset" : 128,
     "referenced_type" : "_ZTIi"
    },
    {
     "field_name" : "errorStreamId",
     "field_offset" : 160,
     "referenced_type" : "_ZTIi"
    },
    {
     "field_name" : "errorPhysicalCameraId",
     "field_offset" : 192,
     "referenced_type" : "_ZTINSt3__112basic_stringIcNS_11char_traitsIcEENS_9allocatorIcEEEE"
    }
   ],
   "linker_set_key" : "_ZTIN4aidl7android10frameworks13cameraservice6device19CaptureResultExtrasE",
   "name" : "aidl::android::frameworks::cameraservice::device::CaptureResultExtras",
   "record_kind" : "class",
   "referenced_type" : "_ZTIN4aidl7android10frameworks13cameraservice6device19CaptureResultExtrasE",
   "self_type" : "_ZTIN4aidl7android10frameworks13cameraservice6device19CaptureResultExtrasE",
   "size" : 36,
   "source_file" : "out/soong/.intermediates/frameworks/hardware/interfaces/cameraservice/device/aidl/android.frameworks.cameraservice.device-V1-ndk-source/gen/include/aidl/android/frameworks/cameraservice/device/CaptureResultExtras.h"
  },
  {
   "alignment" : 4,
   "fields" :
   [
    {
     "field_name" : "windowHandles",
     "referenced_type" : "_ZTINSt3__16vectorIN4aidl7android8hardware6common12NativeHandleENS_9allocatorIS5_EEEE"
    },
    {
     "field_name" : "rotation",
     "field_offset" : 96,
     "referenced_type" : "_ZTIN4aidl7android10frameworks13cameraservice6device19OutputConfiguration8RotationE"
    },
    {
     "field_name" : "windowGroupId",
     "field_offset" : 128,
     "referenced_type" : "_ZTIi"
    },
    {
     "field_name" : "physicalCameraId",
     "field_offset" : 160,
     "referenced_type" : "_ZTINSt3__112basic_stringIcNS_11char_traitsIcEENS_9allocatorIcEEEE"
    },
    {
     "field_name" : "width",
     "field_offset" : 256,
     "referenced_type" : "_ZTIi"
    },
    {
     "field_name" : "height",
     "field_offset" : 288,
     "referenced_type" : "_ZTIi"
    },
    {
     "field_name" : "isDeferred",
     "field_offset" : 320,
     "referenced_type" : "_ZTIb"
    }
   ],
   "linker_set_key" : "_ZTIN4aidl7android10frameworks13cameraservice6device19OutputConfigurationE",
   "name" : "aidl::android::frameworks::cameraservice::device::OutputConfiguration",
   "record_kind" : "class",
   "referenced_type" : "_ZTIN4aidl7android10frameworks13cameraservice6device19OutputConfigurationE",
   "self_type" : "_ZTIN4aidl7android10frameworks13cameraservice6device19OutputConfigurationE",
   "size" : 44,
   "source_file" : "out/soong/.intermediates/frameworks/hardware/interfaces/cameraservice/device/aidl/android.frameworks.cameraservice.device-V1-ndk-source/gen/include/aidl/android/frameworks/cameraservice/device/OutputConfiguration.h"
  },
  {
   "alignment" : 4,
   "fields" :
   [
    {
     "field_name" : "outputStreams",
     "referenced_type" : "_ZTINSt3__16vectorIN4aidl7android10frameworks13cameraservice6device19OutputConfigurationENS_9allocatorIS6_EEEE"
    },
    {
     "field_name" : "inputWidth",
     "field_offset" : 96,
     "referenced_type" : "_ZTIi"
    },
    {
     "field_name" : "inputHeight",
     "field_offset" : 128,
     "referenced_type" : "_ZTIi"
    },
    {
     "field_name" : "inputFormat",
     "field_offset" : 160,
     "referenced_type" : "_ZTIi"
    },
    {
     "field_name" : "operationMode",
     "field_offset" : 192,
     "referenced_type" : "_ZTIN4aidl7android10frameworks13cameraservice6device23StreamConfigurationModeE"
    }
   ],
   "linker_set_key" : "_ZTIN4aidl7android10frameworks13cameraservice6device20SessionConfigurationE",
   "name" : "aidl::android::frameworks::cameraservice::device::SessionConfiguration",
   "record_kind" : "class",
   "referenced_type" : "_ZTIN4aidl7android10frameworks13cameraservice6device20SessionConfigurationE",
   "self_type" : "_ZTIN4aidl7android10frameworks13cameraservice6device20SessionConfigurationE",
   "size" : 28,
   "source_file" : "out/soong/.intermediates/frameworks/hardware/interfaces/cameraservice/device/aidl/android.frameworks.cameraservice.device-V1-ndk-source/gen/include/aidl/android/frameworks/cameraservice/device/SessionConfiguration.h"
  },
  {
   "alignment" : 4,
   "base_specifiers" :
   [
    {
     "referenced_type" : "_ZTIN3ndk11ICInterfaceE"
    }
   ],
   "linker_set_key" : "_ZTIN4aidl7android10frameworks13cameraservice6device21ICameraDeviceCallbackE",
   "name" : "aidl::android::frameworks::cameraservice::device::ICameraDeviceCallback",
   "record_kind" : "class",
   "referenced_type" : "_ZTIN4aidl7android10frameworks13cameraservice6device21ICameraDeviceCallbackE",
   "self_type" : "_ZTIN4aidl7android10frameworks13cameraservice6device21ICameraDeviceCallbackE",
   "size" : 16,
   "source_file" : "out/soong/.intermediates/frameworks/hardware/interfaces/cameraservice/device/aidl/android.frameworks.cameraservice.device-V1-ndk-source/gen/include/aidl/android/frameworks/cameraservice/device/ICameraDeviceCallback.h",
   "vtable_components" :
   [
    {
     "kind" : "offset_to_top"
    },
    {
     "kind" : "rtti",
     "mangled_component_name" : "_ZTIN4aidl7android10frameworks13cameraservice6device21ICameraDeviceCallbackE"
    },
    {
     "kind" : "complete_dtor_pointer",
     "mangled_component_name" : "_ZN4aidl7android10frameworks13cameraservice6device21ICameraDeviceCallbackD1Ev"
    },
    {
     "kind" : "deleting_dtor_pointer",
     "mangled_component_name" : "_ZN4aidl7android10frameworks13cameraservice6device21ICameraDeviceCallbackD0Ev"
    },
    {
     "is_pure" : true,
     "mangled_component_name" : "_ZN3ndk11ICInterface8asBinderEv"
    },
    {
     "is_pure" : true,
     "mangled_component_name" : "_ZN3ndk11ICInterface8isRemoteEv"
    },
    {
     "mangled_component_name" : "_ZN3ndk11ICInterface4dumpEiPPKcj"
    },
    {
     "mangled_component_name" : "_ZN3ndk11ICInterface18handleShellCommandEiiiPPKcj"
    },
    {
     "is_pure" : true,
     "mangled_component_name" : "_ZN4aidl7android10frameworks13cameraservice6device21ICameraDeviceCallback16onCaptureStartedERKNS3_19CaptureResultExtrasEx"
    },
    {
     "is_pure" : true,
     "mangled_component_name" : "_ZN4aidl7android10frameworks13cameraservice6device21ICameraDeviceCallback13onDeviceErrorENS3_9ErrorCodeERKNS3_19CaptureResultExtrasE"
    },
    {
     "is_pure" : true,
     "mangled_component_name" : "_ZN4aidl7android10frameworks13cameraservice6device21ICameraDeviceCallback12onDeviceIdleEv"
    },
    {
     "is_pure" : true,
     "mangled_component_name" : "_ZN4aidl7android10frameworks13cameraservice6device21ICameraDeviceCallback10onPreparedEi"
    },
    {
     "is_pure" : true,
     "mangled_component_name" : "_ZN4aidl7android10frameworks13cameraservice6device21ICameraDeviceCallback23onRepeatingRequestErrorExi"
    },
    {
     "is_pure" : true,
     "mangled_component_name" : "_ZN4aidl7android10frameworks13cameraservice6device21ICameraDeviceCallback16onResultReceivedERKNS3_19CaptureMetadataInfoERKNS3_19CaptureResultExtrasERKNSt3__16vectorINS3_25PhysicalCaptureResultInfoENSB_9allocatorISD_EEEE"
    },
    {
     "is_pure" : true,
     "mangled_component_name" : "_ZN4aidl7android10frameworks13cameraservice6device21ICameraDeviceCallback19getInterfaceVersionEPi"
    },
    {
     "is_pure" : true,
     "mangled_component_name" : "_ZN4aidl7android10frameworks13cameraservice6device21ICameraDeviceCallback16getInterfaceHashEPNSt3__112basic_stringIcNS5_11char_traitsIcEENS5_9allocatorIcEEEE"
    }
   ]
  },
  {
   "alignment" : 4,
   "base_specifiers" :
   [
    {
     "referenced_type" : "_ZTIN3ndk12BnCInterfaceIN4aidl7android10frameworks13cameraservice6device21ICameraDeviceCallbackEEE"
    }
   ],
   "linker_set_key" : "_ZTIN4aidl7android10frameworks13cameraservice6device22BnCameraDeviceCallbackE",
   "name" : "aidl::android::frameworks::cameraservice::device::BnCameraDeviceCallback",
   "record_kind" : "class",
   "referenced_type" : "_ZTIN4aidl7android10frameworks13cameraservice6device22BnCameraDeviceCallbackE",
   "self_type" : "_ZTIN4aidl7android10frameworks13cameraservice6device22BnCameraDeviceCallbackE",
   "size" : 24,
   "source_file" : "out/soong/.intermediates/frameworks/hardware/interfaces/cameraservice/device/aidl/android.frameworks.cameraservice.device-V1-ndk-source/gen/include/aidl/android/frameworks/cameraservice/device/BnCameraDeviceCallback.h",
   "vtable_components" :
   [
    {
     "kind" : "offset_to_top"
    },
    {
     "kind" : "rtti",
     "mangled_component_name" : "_ZTIN4aidl7android10frameworks13cameraservice6device22BnCameraDeviceCallbackE"
    },
    {
     "kind" : "complete_dtor_pointer",
     "mangled_component_name" : "_ZN4aidl7android10frameworks13cameraservice6device22BnCameraDeviceCallbackD1Ev"
    },
    {
     "kind" : "deleting_dtor_pointer",
     "mangled_component_name" : "_ZN4aidl7android10frameworks13cameraservice6device22BnCameraDeviceCallbackD0Ev"
    },
    {
     "mangled_component_name" : "_ZN3ndk12BnCInterfaceIN4aidl7android10frameworks13cameraservice6device21ICameraDeviceCallbackEE8asBinderEv"
    },
    {
     "mangled_component_name" : "_ZN3ndk12BnCInterfaceIN4aidl7android10frameworks13cameraservice6device21ICameraDeviceCallbackEE8isRemoteEv"
    },
    {
     "mangled_component_name" : "_ZN3ndk11ICInterface4dumpEiPPKcj"
    },
    {
     "mangled_component_name" : "_ZN3ndk11ICInterface18handleShellCommandEiiiPPKcj"
    },
    {
     "is_pure" : true,
     "mangled_component_name" : "_ZN4aidl7android10frameworks13cameraservice6device21ICameraDeviceCallback16onCaptureStartedERKNS3_19CaptureResultExtrasEx"
    },
    {
     "is_pure" : true,
     "mangled_component_name" : "_ZN4aidl7android10frameworks13cameraservice6device21ICameraDeviceCallback13onDeviceErrorENS3_9ErrorCodeERKNS3_19CaptureResultExtrasE"
    },
    {
     "is_pure" : true,
     "mangled_component_name" : "_ZN4aidl7android10frameworks13cameraservice6device21ICameraDeviceCallback12onDeviceIdleEv"
    },
    {
     "is_pure" : true,
     "mangled_component_name" : "_ZN4aidl7android10frameworks13cameraservice6device21ICameraDeviceCallback10onPreparedEi"
    },
    {
     "is_pure" : true,
     "mangled_component_name" : "_ZN4aidl7android10frameworks13cameraservice6device21ICameraDeviceCallback23onRepeatingRequestErrorExi"
    },
    {
     "is_pure" : true,
     "mangled_component_name" : "_ZN4aidl7android10frameworks13cameraservice6device21ICameraDeviceCallback16onResultReceivedERKNS3_19CaptureMetadataInfoERKNS3_19CaptureResultExtrasERKNSt3__16vectorINS3_25PhysicalCaptureResultInfoENSB_9allocatorISD_EEEE"
    },
    {
     "mangled_component_name" : "_ZN4aidl7android10frameworks13cameraservice6device22BnCameraDeviceCallback19getInterfaceVersionEPi"
    },
    {
     "mangled_component_name" : "_ZN4aidl7android10frameworks13cameraservice6device22BnCameraDeviceCallback16getInterfaceHashEPNSt3__112basic_stringIcNS5_11char_traitsIcEENS5_9allocatorIcEEEE"
    },
    {
     "mangled_component_name" : "_ZN4aidl7android10frameworks13cameraservice6device22BnCameraDeviceCallback12createBinderEv"
    }
   ]
  },
  {
   "alignment" : 4,
   "base_specifiers" :
   [
    {
     "referenced_type" : "_ZTIN3ndk12BpCInterfaceIN4aidl7android10frameworks13cameraservice6device21ICameraDeviceCallbackEEE"
    }
   ],
   "fields" :
   [
    {
     "field_name" : "_aidl_cached_version",
     "field_offset" : 160,
     "referenced_type" : "_ZTIi"
    },
    {
     "field_name" : "_aidl_cached_hash",
     "field_offset" : 192,
     "referenced_type" : "_ZTINSt3__112basic_stringIcNS_11char_traitsIcEENS_9allocatorIcEEEE"
    },
    {
     "field_name" : "_aidl_cached_hash_mutex",
     "field_offset" : 288,
     "referenced_type" : "_ZTINSt3__15mutexE"
    }
   ],
   "linker_set_key" : "_ZTIN4aidl7android10frameworks13cameraservice6device22BpCameraDeviceCallbackE",
   "name" : "aidl::android::frameworks::cameraservice::device::BpCameraDeviceCallback",
   "record_kind" : "class",
   "referenced_type" : "_ZTIN4aidl7android10frameworks13cameraservice6device22BpCameraDeviceCallbackE",
   "self_type" : "_ZTIN4aidl7android10frameworks13cameraservice6device22BpCameraDeviceCallbackE",
   "size" : 40,
   "source_file" : "out/soong/.intermediates/frameworks/hardware/interfaces/cameraservice/device/aidl/android.frameworks.cameraservice.device-V1-ndk-source/gen/include/aidl/android/frameworks/cameraservice/device/BpCameraDeviceCallback.h",
   "vtable_components" :
   [
    {
     "kind" : "offset_to_top"
    },
    {
     "kind" : "rtti",
     "mangled_component_name" : "_ZTIN4aidl7android10frameworks13cameraservice6device22BpCameraDeviceCallbackE"
    },
    {
     "kind" : "complete_dtor_pointer",
     "mangled_component_name" : "_ZN4aidl7android10frameworks13cameraservice6device22BpCameraDeviceCallbackD1Ev"
    },
    {
     "kind" : "deleting_dtor_pointer",
     "mangled_component_name" : "_ZN4aidl7android10frameworks13cameraservice6device22BpCameraDeviceCallbackD0Ev"
    },
    {
     "mangled_component_name" : "_ZN3ndk12BpCInterfaceIN4aidl7android10frameworks13cameraservice6device21ICameraDeviceCallbackEE8asBinderEv"
    },
    {
     "mangled_component_name" : "_ZN3ndk12BpCInterfaceIN4aidl7android10frameworks13cameraservice6device21ICameraDeviceCallbackEE8isRemoteEv"
    },
    {
     "mangled_component_name" : "_ZN3ndk12BpCInterfaceIN4aidl7android10frameworks13cameraservice6device21ICameraDeviceCallbackEE4dumpEiPPKcj"
    },
    {
     "mangled_component_name" : "_ZN3ndk11ICInterface18handleShellCommandEiiiPPKcj"
    },
    {
     "mangled_component_name" : "_ZN4aidl7android10frameworks13cameraservice6device22BpCameraDeviceCallback16onCaptureStartedERKNS3_19CaptureResultExtrasEx"
    },
    {
     "mangled_component_name" : "_ZN4aidl7android10frameworks13cameraservice6device22BpCameraDeviceCallback13onDeviceErrorENS3_9ErrorCodeERKNS3_19CaptureResultExtrasE"
    },
    {
     "mangled_component_name" : "_ZN4aidl7android10frameworks13cameraservice6device22BpCameraDeviceCallback12onDeviceIdleEv"
    },
    {
     "mangled_component_name" : "_ZN4aidl7android10frameworks13cameraservice6device22BpCameraDeviceCallback10onPreparedEi"
    },
    {
     "mangled_component_name" : "_ZN4aidl7android10frameworks13cameraservice6device22BpCameraDeviceCallback23onRepeatingRequestErrorExi"
    },
    {
     "mangled_component_name" : "_ZN4aidl7android10frameworks13cameraservice6device22BpCameraDeviceCallback16onResultReceivedERKNS3_19CaptureMetadataInfoERKNS3_19CaptureResultExtrasERKNSt3__16vectorINS3_25PhysicalCaptureResultInfoENSB_9allocatorISD_EEEE"
    },
    {
     "mangled_component_name" : "_ZN4aidl7android10frameworks13cameraservice6device22BpCameraDeviceCallback19getInterfaceVersionEPi"
    },
    {
     "mangled_component_name" : "_ZN4aidl7android10frameworks13cameraservice6device22BpCameraDeviceCallback16getInterfaceHashEPNSt3__112basic_stringIcNS5_11char_traitsIcEENS5_9allocatorIcEEEE"
    }
   ]
  },
  {
   "alignment" : 4,
   "fields" :
   [
    {
     "field_name" : "id",
     "referenced_type" : "_ZTINSt3__112basic_stringIcNS_11char_traitsIcEENS_9allocatorIcEEEE"
    },
    {
     "field_name" : "settings",
     "field_offset" : 96,
     "referenced_type" : "_ZTIN4aidl7android10frameworks13cameraservice6device19CaptureMetadataInfoE"
    }
   ],
   "linker_set_key" : "_ZTIN4aidl7android10frameworks13cameraservice6device22PhysicalCameraSettingsE",
   "name" : "aidl::android::frameworks::cameraservice::device::PhysicalCameraSettings",
   "record_kind" : "class",
   "referenced_type" : "_ZTIN4aidl7android10frameworks13cameraservice6device22PhysicalCameraSettingsE",
   "self_type" : "_ZTIN4aidl7android10frameworks13cameraservice6device22PhysicalCameraSettingsE",
   "size" : 28,
   "source_file" : "out/soong/.intermediates/frameworks/hardware/interfaces/cameraservice/device/aidl/android.frameworks.cameraservice.device-V1-ndk-source/gen/include/aidl/android/frameworks/cameraservice/device/PhysicalCameraSettings.h"
  },
  {
   "alignment" : 4,
   "base_specifiers" :
   [
    {
     "referenced_type" : "_ZTIN4aidl7android10frameworks13cameraservice6device17ICameraDeviceUserE"
    }
   ],
   "linker_set_key" : "_ZTIN4aidl7android10frameworks13cameraservice6device24ICameraDeviceUserDefaultE",
   "name" : "aidl::android::frameworks::cameraservice::device::ICameraDeviceUserDefault",
   "record_kind" : "class",
   "referenced_type" : "_ZTIN4aidl7android10frameworks13cameraservice6device24ICameraDeviceUserDefaultE",
   "self_type" : "_ZTIN4aidl7android10frameworks13cameraservice6device24ICameraDeviceUserDefaultE",
   "size" : 16,
   "source_file" : "out/soong/.intermediates/frameworks/hardware/interfaces/cameraservice/device/aidl/android.frameworks.cameraservice.device-V1-ndk-source/gen/include/aidl/android/frameworks/cameraservice/device/ICameraDeviceUser.h",
   "vtable_components" :
   [
    {
     "kind" : "offset_to_top"
    },
    {
     "kind" : "rtti",
     "mangled_component_name" : "_ZTIN4aidl7android10frameworks13cameraservice6device24ICameraDeviceUserDefaultE"
    },
    {
     "kind" : "complete_dtor_pointer",
     "mangled_component_name" : "_ZN4aidl7android10frameworks13cameraservice6device24ICameraDeviceUserDefaultD1Ev"
    },
    {
     "kind" : "deleting_dtor_pointer",
     "mangled_component_name" : "_ZN4aidl7android10frameworks13cameraservice6device24ICameraDeviceUserDefaultD0Ev"
    },
    {
     "mangled_component_name" : "_ZN4aidl7android10frameworks13cameraservice6device24ICameraDeviceUserDefault8asBinderEv"
    },
    {
     "mangled_component_name" : "_ZN4aidl7android10frameworks13cameraservice6device24ICameraDeviceUserDefault8isRemoteEv"
    },
    {
     "mangled_component_name" : "_ZN3ndk11ICInterface4dumpEiPPKcj"
    },
    {
     "mangled_component_name" : "_ZN3ndk11ICInterface18handleShellCommandEiiiPPKcj"
    },
    {
     "mangled_component_name" : "_ZN4aidl7android10frameworks13cameraservice6device24ICameraDeviceUserDefault14beginConfigureEv"
    },
    {
     "mangled_component_name" : "_ZN4aidl7android10frameworks13cameraservice6device24ICameraDeviceUserDefault22cancelRepeatingRequestEPx"
    },
    {
     "mangled_component_name" : "_ZN4aidl7android10frameworks13cameraservice6device24ICameraDeviceUserDefault20createDefaultRequestENS3_10TemplateIdEPNS3_14CameraMetadataE"
    },
    {
     "mangled_component_name" : "_ZN4aidl7android10frameworks13cameraservice6device24ICameraDeviceUserDefault12createStreamERKNS3_19OutputConfigurationEPi"
    },
    {
     "mangled_component_name" : "_ZN4aidl7android10frameworks13cameraservice6device24ICameraDeviceUserDefault12deleteStreamEi"
    },
    {
     "mangled_component_name" : "_ZN4aidl7android10frameworks13cameraservice6device24ICameraDeviceUserDefault10disconnectEv"
    },
    {
     "mangled_component_name" : "_ZN4aidl7android10frameworks13cameraservice6device24ICameraDeviceUserDefault12endConfigureENS3_23StreamConfigurationModeERKNS3_14CameraMetadataEx"
    },
    {
     "mangled_component_name" : "_ZN4aidl7android10frameworks13cameraservice6device24ICameraDeviceUserDefault5flushEPx"
    },
    {
     "mangled_component_name" : "_ZN4aidl7android10frameworks13cameraservice6device24ICameraDeviceUserDefault30getCaptureRequestMetadataQueueEPNS0_8hardware6common3fmq12MQDescriptorIaNS7_21SynchronizedReadWriteEEE"
    },
    {
     "mangled_component_name" : "_ZN4aidl7android10frameworks13cameraservice6device24ICameraDeviceUserDefault29getCaptureResultMetadataQueueEPNS0_8hardware6common3fmq12MQDescriptorIaNS7_21SynchronizedReadWriteEEE"
    },
    {
     "mangled_component_name" : "_ZN4aidl7android10frameworks13cameraservice6device24ICameraDeviceUserDefault31isSessionConfigurationSupportedERKNS3_20SessionConfigurationEPb"
    },
    {
     "mangled_component_name" : "_ZN4aidl7android10frameworks13cameraservice6device24ICameraDeviceUserDefault7prepareEi"
    },
    {
     "mangled_component_name" : "_ZN4aidl7android10frameworks13cameraservice6device24ICameraDeviceUserDefault17submitRequestListERKNSt3__16vectorINS3_14CaptureRequestENS5_9allocatorIS7_EEEEbPNS3_10SubmitInfoE"
    },
    {
     "mangled_component_name" : "_ZN4aidl7android10frameworks13cameraservice6device24ICameraDeviceUserDefault25updateOutputConfigurationEiRKNS3_19OutputConfigurationE"
    },
    {
     "mangled_component_name" : "_ZN4aidl7android10frameworks13cameraservice6device24ICameraDeviceUserDefault13waitUntilIdleEv"
    },
    {
     "mangled_component_name" : "_ZN4aidl7android10frameworks13cameraservice6device24ICameraDeviceUserDefault19getInterfaceVersionEPi"
    },
    {
     "mangled_component_name" : "_ZN4aidl7android10frameworks13cameraservice6device24ICameraDeviceUserDefault16getInterfaceHashEPNSt3__112basic_stringIcNS5_11char_traitsIcEENS5_9allocatorIcEEEE"
    }
   ]
  },
  {
   "alignment" : 4,
   "fields" :
   [
    {
     "field_name" : "physicalCameraId",
     "referenced_type" : "_ZTINSt3__112basic_stringIcNS_11char_traitsIcEENS_9allocatorIcEEEE"
    },
    {
     "field_name" : "physicalCameraMetadata",
     "field_offset" : 96,
     "referenced_type" : "_ZTIN4aidl7android10frameworks13cameraservice6device19CaptureMetadataInfoE"
    }
   ],
   "linker_set_key" : "_ZTIN4aidl7android10frameworks13cameraservice6device25PhysicalCaptureResultInfoE",
   "name" : "aidl::android::frameworks::cameraservice::device::PhysicalCaptureResultInfo",
   "record_kind" : "class",
   "referenced_type" : "_ZTIN4aidl7android10frameworks13cameraservice6device25PhysicalCaptureResultInfoE",
   "self_type" : "_ZTIN4aidl7android10frameworks13cameraservice6device25PhysicalCaptureResultInfoE",
   "size" : 28,
   "source_file" : "out/soong/.intermediates/frameworks/hardware/interfaces/cameraservice/device/aidl/android.frameworks.cameraservice.device-V1-ndk-source/gen/include/aidl/android/frameworks/cameraservice/device/PhysicalCaptureResultInfo.h"
  },
  {
   "alignment" : 4,
   "base_specifiers" :
   [
    {
     "referenced_type" : "_ZTIN4aidl7android10frameworks13cameraservice6device18BnCameraDeviceUserE"
    }
   ],
   "fields" :
   [
    {
     "access" : "private",
     "field_name" : "_impl",
     "field_offset" : 192,
     "referenced_type" : "_ZTINSt3__110shared_ptrIN4aidl7android10frameworks13cameraservice6device17ICameraDeviceUserEEE"
    }
   ],
   "linker_set_key" : "_ZTIN4aidl7android10frameworks13cameraservice6device26ICameraDeviceUserDelegatorE",
   "name" : "aidl::android::frameworks::cameraservice::device::ICameraDeviceUserDelegator",
   "record_kind" : "class",
   "referenced_type" : "_ZTIN4aidl7android10frameworks13cameraservice6device26ICameraDeviceUserDelegatorE",
   "self_type" : "_ZTIN4aidl7android10frameworks13cameraservice6device26ICameraDeviceUserDelegatorE",
   "size" : 32,
   "source_file" : "out/soong/.intermediates/frameworks/hardware/interfaces/cameraservice/device/aidl/android.frameworks.cameraservice.device-V1-ndk-source/gen/include/aidl/android/frameworks/cameraservice/device/BnCameraDeviceUser.h",
   "vtable_components" :
   [
    {
     "kind" : "offset_to_top"
    },
    {
     "kind" : "rtti",
     "mangled_component_name" : "_ZTIN4aidl7android10frameworks13cameraservice6device26ICameraDeviceUserDelegatorE"
    },
    {
     "kind" : "complete_dtor_pointer",
     "mangled_component_name" : "_ZN4aidl7android10frameworks13cameraservice6device26ICameraDeviceUserDelegatorD1Ev"
    },
    {
     "kind" : "deleting_dtor_pointer",
     "mangled_component_name" : "_ZN4aidl7android10frameworks13cameraservice6device26ICameraDeviceUserDelegatorD0Ev"
    },
    {
     "mangled_component_name" : "_ZN3ndk12BnCInterfaceIN4aidl7android10frameworks13cameraservice6device17ICameraDeviceUserEE8asBinderEv"
    },
    {
     "mangled_component_name" : "_ZN3ndk12BnCInterfaceIN4aidl7android10frameworks13cameraservice6device17ICameraDeviceUserEE8isRemoteEv"
    },
    {
     "mangled_component_name" : "_ZN3ndk11ICInterface4dumpEiPPKcj"
    },
    {
     "mangled_component_name" : "_ZN3ndk11ICInterface18handleShellCommandEiiiPPKcj"
    },
    {
     "mangled_component_name" : "_ZN4aidl7android10frameworks13cameraservice6device26ICameraDeviceUserDelegator14beginConfigureEv"
    },
    {
     "mangled_component_name" : "_ZN4aidl7android10frameworks13cameraservice6device26ICameraDeviceUserDelegator22cancelRepeatingRequestEPx"
    },
    {
     "mangled_component_name" : "_ZN4aidl7android10frameworks13cameraservice6device26ICameraDeviceUserDelegator20createDefaultRequestENS3_10TemplateIdEPNS3_14CameraMetadataE"
    },
    {
     "mangled_component_name" : "_ZN4aidl7android10frameworks13cameraservice6device26ICameraDeviceUserDelegator12createStreamERKNS3_19OutputConfigurationEPi"
    },
    {
     "mangled_component_name" : "_ZN4aidl7android10frameworks13cameraservice6device26ICameraDeviceUserDelegator12deleteStreamEi"
    },
    {
     "mangled_component_name" : "_ZN4aidl7android10frameworks13cameraservice6device26ICameraDeviceUserDelegator10disconnectEv"
    },
    {
     "mangled_component_name" : "_ZN4aidl7android10frameworks13cameraservice6device26ICameraDeviceUserDelegator12endConfigureENS3_23StreamConfigurationModeERKNS3_14CameraMetadataEx"
    },
    {
     "mangled_component_name" : "_ZN4aidl7android10frameworks13cameraservice6device26ICameraDeviceUserDelegator5flushEPx"
    },
    {
     "mangled_component_name" : "_ZN4aidl7android10frameworks13cameraservice6device26ICameraDeviceUserDelegator30getCaptureRequestMetadataQueueEPNS0_8hardware6common3fmq12MQDescriptorIaNS7_21SynchronizedReadWriteEEE"
    },
    {
     "mangled_component_name" : "_ZN4aidl7android10frameworks13cameraservice6device26ICameraDeviceUserDelegator29getCaptureResultMetadataQueueEPNS0_8hardware6common3fmq12MQDescriptorIaNS7_21SynchronizedReadWriteEEE"
    },
    {
     "mangled_component_name" : "_ZN4aidl7android10frameworks13cameraservice6device26ICameraDeviceUserDelegator31isSessionConfigurationSupportedERKNS3_20SessionConfigurationEPb"
    },
    {
     "mangled_component_name" : "_ZN4aidl7android10frameworks13cameraservice6device26ICameraDeviceUserDelegator7prepareEi"
    },
    {
     "mangled_component_name" : "_ZN4aidl7android10frameworks13cameraservice6device26ICameraDeviceUserDelegator17submitRequestListERKNSt3__16vectorINS3_14CaptureRequestENS5_9allocatorIS7_EEEEbPNS3_10SubmitInfoE"
    },
    {
     "mangled_component_name" : "_ZN4aidl7android10frameworks13cameraservice6device26ICameraDeviceUserDelegator25updateOutputConfigurationEiRKNS3_19OutputConfigurationE"
    },
    {
     "mangled_component_name" : "_ZN4aidl7android10frameworks13cameraservice6device26ICameraDeviceUserDelegator13waitUntilIdleEv"
    },
    {
     "mangled_component_name" : "_ZN4aidl7android10frameworks13cameraservice6device18BnCameraDeviceUser19getInterfaceVersionEPi"
    },
    {
     "mangled_component_name" : "_ZN4aidl7android10frameworks13cameraservice6device18BnCameraDeviceUser16getInterfaceHashEPNSt3__112basic_stringIcNS5_11char_traitsIcEENS5_9allocatorIcEEEE"
    },
    {
     "mangled_component_name" : "_ZN4aidl7android10frameworks13cameraservice6device18BnCameraDeviceUser12createBinderEv"
    }
   ]
  },
  {
   "alignment" : 4,
   "base_specifiers" :
   [
    {
     "referenced_type" : "_ZTIN4aidl7android10frameworks13cameraservice6device21ICameraDeviceCallbackE"
    }
   ],
   "linker_set_key" : "_ZTIN4aidl7android10frameworks13cameraservice6device28ICameraDeviceCallbackDefaultE",
   "name" : "aidl::android::frameworks::cameraservice::device::ICameraDeviceCallbackDefault",
   "record_kind" : "class",
   "referenced_type" : "_ZTIN4aidl7android10frameworks13cameraservice6device28ICameraDeviceCallbackDefaultE",
   "self_type" : "_ZTIN4aidl7android10frameworks13cameraservice6device28ICameraDeviceCallbackDefaultE",
   "size" : 16,
   "source_file" : "out/soong/.intermediates/frameworks/hardware/interfaces/cameraservice/device/aidl/android.frameworks.cameraservice.device-V1-ndk-source/gen/include/aidl/android/frameworks/cameraservice/device/ICameraDeviceCallback.h",
   "vtable_components" :
   [
    {
     "kind" : "offset_to_top"
    },
    {
     "kind" : "rtti",
     "mangled_component_name" : "_ZTIN4aidl7android10frameworks13cameraservice6device28ICameraDeviceCallbackDefaultE"
    },
    {
     "kind" : "complete_dtor_pointer",
     "mangled_component_name" : "_ZN4aidl7android10frameworks13cameraservice6device28ICameraDeviceCallbackDefaultD1Ev"
    },
    {
     "kind" : "deleting_dtor_pointer",
     "mangled_component_name" : "_ZN4aidl7android10frameworks13cameraservice6device28ICameraDeviceCallbackDefaultD0Ev"
    },
    {
     "mangled_component_name" : "_ZN4aidl7android10frameworks13cameraservice6device28ICameraDeviceCallbackDefault8asBinderEv"
    },
    {
     "mangled_component_name" : "_ZN4aidl7android10frameworks13cameraservice6device28ICameraDeviceCallbackDefault8isRemoteEv"
    },
    {
     "mangled_component_name" : "_ZN3ndk11ICInterface4dumpEiPPKcj"
    },
    {
     "mangled_component_name" : "_ZN3ndk11ICInterface18handleShellCommandEiiiPPKcj"
    },
    {
     "mangled_component_name" : "_ZN4aidl7android10frameworks13cameraservice6device28ICameraDeviceCallbackDefault16onCaptureStartedERKNS3_19CaptureResultExtrasEx"
    },
    {
     "mangled_component_name" : "_ZN4aidl7android10frameworks13cameraservice6device28ICameraDeviceCallbackDefault13onDeviceErrorENS3_9ErrorCodeERKNS3_19CaptureResultExtrasE"
    },
    {
     "mangled_component_name" : "_ZN4aidl7android10frameworks13cameraservice6device28ICameraDeviceCallbackDefault12onDeviceIdleEv"
    },
    {
     "mangled_component_name" : "_ZN4aidl7android10frameworks13cameraservice6device28ICameraDeviceCallbackDefault10onPreparedEi"
    },
    {
     "mangled_component_name" : "_ZN4aidl7android10frameworks13cameraservice6device28ICameraDeviceCallbackDefault23onRepeatingRequestErrorExi"
    },
    {
     "mangled_component_name" : "_ZN4aidl7android10frameworks13cameraservice6device28ICameraDeviceCallbackDefault16onResultReceivedERKNS3_19CaptureMetadataInfoERKNS3_19CaptureResultExtrasERKNSt3__16vectorINS3_25PhysicalCaptureResultInfoENSB_9allocatorISD_EEEE"
    },
    {
     "mangled_component_name" : "_ZN4aidl7android10frameworks13cameraservice6device28ICameraDeviceCallbackDefault19getInterfaceVersionEPi"
    },
    {
     "mangled_component_name" : "_ZN4aidl7android10frameworks13cameraservice6device28ICameraDeviceCallbackDefault16getInterfaceHashEPNSt3__112basic_stringIcNS5_11char_traitsIcEENS5_9allocatorIcEEEE"
    }
   ]
  },
  {
   "alignment" : 4,
   "base_specifiers" :
   [
    {
     "referenced_type" : "_ZTIN4aidl7android10frameworks13cameraservice6device22BnCameraDeviceCallbackE"
    }
   ],
   "fields" :
   [
    {
     "access" : "private",
     "field_name" : "_impl",
     "field_offset" : 192,
     "referenced_type" : "_ZTINSt3__110shared_ptrIN4aidl7android10frameworks13cameraservice6device21ICameraDeviceCallbackEEE"
    }
   ],
   "linker_set_key" : "_ZTIN4aidl7android10frameworks13cameraservice6device30ICameraDeviceCallbackDelegatorE",
   "name" : "aidl::android::frameworks::cameraservice::device::ICameraDeviceCallbackDelegator",
   "record_kind" : "class",
   "referenced_type" : "_ZTIN4aidl7android10frameworks13cameraservice6device30ICameraDeviceCallbackDelegatorE",
   "self_type" : "_ZTIN4aidl7android10frameworks13cameraservice6device30ICameraDeviceCallbackDelegatorE",
   "size" : 32,
   "source_file" : "out/soong/.intermediates/frameworks/hardware/interfaces/cameraservice/device/aidl/android.frameworks.cameraservice.device-V1-ndk-source/gen/include/aidl/android/frameworks/cameraservice/device/BnCameraDeviceCallback.h",
   "vtable_components" :
   [
    {
     "kind" : "offset_to_top"
    },
    {
     "kind" : "rtti",
     "mangled_component_name" : "_ZTIN4aidl7android10frameworks13cameraservice6device30ICameraDeviceCallbackDelegatorE"
    },
    {
     "kind" : "complete_dtor_pointer",
     "mangled_component_name" : "_ZN4aidl7android10frameworks13cameraservice6device30ICameraDeviceCallbackDelegatorD1Ev"
    },
    {
     "kind" : "deleting_dtor_pointer",
     "mangled_component_name" : "_ZN4aidl7android10frameworks13cameraservice6device30ICameraDeviceCallbackDelegatorD0Ev"
    },
    {
     "mangled_component_name" : "_ZN3ndk12BnCInterfaceIN4aidl7android10frameworks13cameraservice6device21ICameraDeviceCallbackEE8asBinderEv"
    },
    {
     "mangled_component_name" : "_ZN3ndk12BnCInterfaceIN4aidl7android10frameworks13cameraservice6device21ICameraDeviceCallbackEE8isRemoteEv"
    },
    {
     "mangled_component_name" : "_ZN3ndk11ICInterface4dumpEiPPKcj"
    },
    {
     "mangled_component_name" : "_ZN3ndk11ICInterface18handleShellCommandEiiiPPKcj"
    },
    {
     "mangled_component_name" : "_ZN4aidl7android10frameworks13cameraservice6device30ICameraDeviceCallbackDelegator16onCaptureStartedERKNS3_19CaptureResultExtrasEx"
    },
    {
     "mangled_component_name" : "_ZN4aidl7android10frameworks13cameraservice6device30ICameraDeviceCallbackDelegator13onDeviceErrorENS3_9ErrorCodeERKNS3_19CaptureResultExtrasE"
    },
    {
     "mangled_component_name" : "_ZN4aidl7android10frameworks13cameraservice6device30ICameraDeviceCallbackDelegator12onDeviceIdleEv"
    },
    {
     "mangled_component_name" : "_ZN4aidl7android10frameworks13cameraservice6device30ICameraDeviceCallbackDelegator10onPreparedEi"
    },
    {
     "mangled_component_name" : "_ZN4aidl7android10frameworks13cameraservice6device30ICameraDeviceCallbackDelegator23onRepeatingRequestErrorExi"
    },
    {
     "mangled_component_name" : "_ZN4aidl7android10frameworks13cameraservice6device30ICameraDeviceCallbackDelegator16onResultReceivedERKNS3_19CaptureMetadataInfoERKNS3_19CaptureResultExtrasERKNSt3__16vectorINS3_25PhysicalCaptureResultInfoENSB_9allocatorISD_EEEE"
    },
    {
     "mangled_component_name" : "_ZN4aidl7android10frameworks13cameraservice6device22BnCameraDeviceCallback19getInterfaceVersionEPi"
    },
    {
     "mangled_component_name" : "_ZN4aidl7android10frameworks13cameraservice6device22BnCameraDeviceCallback16getInterfaceHashEPNSt3__112basic_stringIcNS5_11char_traitsIcEENS5_9allocatorIcEEEE"
    },
    {
     "mangled_component_name" : "_ZN4aidl7android10frameworks13cameraservice6device22BnCameraDeviceCallback12createBinderEv"
    }
   ]
  },
  {
   "alignment" : 4,
   "fields" :
   [
    {
     "field_name" : "fds",
     "referenced_type" : "_ZTINSt3__16vectorIN3ndk20ScopedFileDescriptorENS_9allocatorIS2_EEEE"
    },
    {
     "field_name" : "ints",
     "field_offset" : 96,
     "referenced_type" : "_ZTINSt3__16vectorIiNS_9allocatorIiEEEE"
    }
   ],
   "linker_set_key" : "_ZTIN4aidl7android8hardware6common12NativeHandleE",
   "name" : "aidl::android::hardware::common::NativeHandle",
   "record_kind" : "class",
   "referenced_type" : "_ZTIN4aidl7android8hardware6common12NativeHandleE",
   "self_type" : "_ZTIN4aidl7android8hardware6common12NativeHandleE",
   "size" : 24,
   "source_file" : "out/soong/.intermediates/hardware/interfaces/common/aidl/android.hardware.common-V2-ndk-source/gen/include/aidl/android/hardware/common/NativeHandle.h"
  },
  {
   "alignment" : 4,
   "fields" :
   [
    {
     "field_name" : "grantors",
     "referenced_type" : "_ZTINSt3__16vectorIN4aidl7android8hardware6common3fmq17GrantorDescriptorENS_9allocatorIS6_EEEE"
    },
    {
     "field_name" : "handle",
     "field_offset" : 96,
     "referenced_type" : "_ZTIN4aidl7android8hardware6common12NativeHandleE"
    },
    {
     "field_name" : "quantum",
     "field_offset" : 288,
     "referenced_type" : "_ZTIi"
    },
    {
     "field_name" : "flags",
     "field_offset" : 320,
     "referenced_type" : "_ZTIi"
    }
   ],
   "linker_set_key" : "_ZTIN4aidl7android8hardware6common3fmq12MQDescriptorIaNS3_21SynchronizedReadWriteEEE",
   "name" : "aidl::android::hardware::common::fmq::MQDescriptor<signed char, aidl::android::hardware::common::fmq::SynchronizedReadWrite>",
   "record_kind" : "class",
   "referenced_type" : "_ZTIN4aidl7android8hardware6common3fmq12MQDescriptorIaNS3_21SynchronizedReadWriteEEE",
   "self_type" : "_ZTIN4aidl7android8hardware6common3fmq12MQDescriptorIaNS3_21SynchronizedReadWriteEEE",
   "size" : 44,
   "source_file" : "out/soong/.intermediates/hardware/interfaces/common/fmq/aidl/android.hardware.common.fmq-V1-ndk-source/gen/include/aidl/android/hardware/common/fmq/MQDescriptor.h",
   "template_args" :
   [
    "_ZTIa",
    "_ZTIN4aidl7android8hardware6common3fmq21SynchronizedReadWriteE"
   ]
  },
  {
   "alignment" : 4,
   "fields" :
   [
    {
     "field_name" : "fdIndex",
     "referenced_type" : "_ZTIi"
    },
    {
     "field_name" : "offset",
     "field_offset" : 32,
     "referenced_type" : "_ZTIi"
    },
    {
     "field_name" : "extent",
     "field_offset" : 64,
     "referenced_type" : "_ZTIx"
    }
   ],
   "linker_set_key" : "_ZTIN4aidl7android8hardware6common3fmq17GrantorDescriptorE",
   "name" : "aidl::android::hardware::common::fmq::GrantorDescriptor",
   "record_kind" : "class",
   "referenced_type" : "_ZTIN4aidl7android8hardware6common3fmq17GrantorDescriptorE",
   "self_type" : "_ZTIN4aidl7android8hardware6common3fmq17GrantorDescriptorE",
   "size" : 16,
   "source_file" : "out/soong/.intermediates/hardware/interfaces/common/fmq/aidl/android.hardware.common.fmq-V1-ndk-source/gen/include/aidl/android/hardware/common/fmq/GrantorDescriptor.h"
  },
  {
   "alignment" : 1,
   "linker_set_key" : "_ZTIN7android8internal7details10IsIterableINSt3__16vectorIN3ndk20ScopedFileDescriptorENS3_9allocatorIS6_EEEEEE",
   "name" : "android::internal::details::IsIterable<std::vector<ndk::ScopedFileDescriptor, std::allocator<ndk::ScopedFileDescriptor>>>",
   "record_kind" : "class",
   "referenced_type" : "_ZTIN7android8internal7details10IsIterableINSt3__16vectorIN3ndk20ScopedFileDescriptorENS3_9allocatorIS6_EEEEEE",
   "self_type" : "_ZTIN7android8internal7details10IsIterableINSt3__16vectorIN3ndk20ScopedFileDescriptorENS3_9allocatorIS6_EEEEEE",
   "size" : 1,
   "source_file" : "frameworks/native/libs/binder/ndk/include_cpp/android/binder_to_string.h",
   "template_args" :
   [
    "_ZTINSt3__16vectorIN3ndk20ScopedFileDescriptorENS_9allocatorIS2_EEEE"
   ]
  },
  {
   "alignment" : 1,
   "linker_set_key" : "_ZTIN7android8internal7details10IsIterableINSt3__16vectorIN4aidl7android10frameworks13cameraservice6device17StreamAndWindowIdENS3_9allocatorISA_EEEEEE",
   "name" : "android::internal::details::IsIterable<std::vector<aidl::android::frameworks::cameraservice::device::StreamAndWindowId, std::allocator<aidl::android::frameworks::cameraservice::device::StreamAndWindowId>>>",
   "record_kind" : "class",
   "referenced_type" : "_ZTIN7android8internal7details10IsIterableINSt3__16vectorIN4aidl7android10frameworks13cameraservice6device17StreamAndWindowIdENS3_9allocatorISA_EEEEEE",
   "self_type" : "_ZTIN7android8internal7details10IsIterableINSt3__16vectorIN4aidl7android10frameworks13cameraservice6device17StreamAndWindowIdENS3_9allocatorISA_EEEEEE",
   "size" : 1,
   "source_file" : "frameworks/native/libs/binder/ndk/include_cpp/android/binder_to_string.h",
   "template_args" :
   [
    "_ZTINSt3__16vectorIN4aidl7android10frameworks13cameraservice6device17StreamAndWindowIdENS_9allocatorIS6_EEEE"
   ]
  },
  {
   "alignment" : 1,
   "linker_set_key" : "_ZTIN7android8internal7details10IsIterableINSt3__16vectorIN4aidl7android10frameworks13cameraservice6device19OutputConfigurationENS3_9allocatorISA_EEEEEE",
   "name" : "android::internal::details::IsIterable<std::vector<aidl::android::frameworks::cameraservice::device::OutputConfiguration, std::allocator<aidl::android::frameworks::cameraservice::device::OutputConfiguration>>>",
   "record_kind" : "class",
   "referenced_type" : "_ZTIN7android8internal7details10IsIterableINSt3__16vectorIN4aidl7android10frameworks13cameraservice6device19OutputConfigurationENS3_9allocatorISA_EEEEEE",
   "self_type" : "_ZTIN7android8internal7details10IsIterableINSt3__16vectorIN4aidl7android10frameworks13cameraservice6device19OutputConfigurationENS3_9allocatorISA_EEEEEE",
   "size" : 1,
   "source_file" : "frameworks/native/libs/binder/ndk/include_cpp/android/binder_to_string.h",
   "template_args" :
   [
    "_ZTINSt3__16vectorIN4aidl7android10frameworks13cameraservice6device19OutputConfigurationENS_9allocatorIS6_EEEE"
   ]
  },
  {
   "alignment" : 1,
   "linker_set_key" : "_ZTIN7android8internal7details10IsIterableINSt3__16vectorIN4aidl7android10frameworks13cameraservice6device22PhysicalCameraSettingsENS3_9allocatorISA_EEEEEE",
   "name" : "android::internal::details::IsIterable<std::vector<aidl::android::frameworks::cameraservice::device::PhysicalCameraSettings, std::allocator<aidl::android::frameworks::cameraservice::device::PhysicalCameraSettings>>>",
   "record_kind" : "class",
   "referenced_type" : "_ZTIN7android8internal7details10IsIterableINSt3__16vectorIN4aidl7android10frameworks13cameraservice6device22PhysicalCameraSettingsENS3_9allocatorISA_EEEEEE",
   "self_type" : "_ZTIN7android8internal7details10IsIterableINSt3__16vectorIN4aidl7android10frameworks13cameraservice6device22PhysicalCameraSettingsENS3_9allocatorISA_EEEEEE",
   "size" : 1,
   "source_file" : "frameworks/native/libs/binder/ndk/include_cpp/android/binder_to_string.h",
   "template_args" :
   [
    "_ZTINSt3__16vectorIN4aidl7android10frameworks13cameraservice6device22PhysicalCameraSettingsENS_9allocatorIS6_EEEE"
   ]
  },
  {
   "alignment" : 1,
   "linker_set_key" : "_ZTIN7android8internal7details10IsIterableINSt3__16vectorIN4aidl7android8hardware6common12NativeHandleENS3_9allocatorIS9_EEEEEE",
   "name" : "android::internal::details::IsIterable<std::vector<aidl::android::hardware::common::NativeHandle, std::allocator<aidl::android::hardware::common::NativeHandle>>>",
   "record_kind" : "class",
   "referenced_type" : "_ZTIN7android8internal7details10IsIterableINSt3__16vectorIN4aidl7android8hardware6common12NativeHandleENS3_9allocatorIS9_EEEEEE",
   "self_type" : "_ZTIN7android8internal7details10IsIterableINSt3__16vectorIN4aidl7android8hardware6common12NativeHandleENS3_9allocatorIS9_EEEEEE",
   "size" : 1,
   "source_file" : "frameworks/native/libs/binder/ndk/include_cpp/android/binder_to_string.h",
   "template_args" :
   [
    "_ZTINSt3__16vectorIN4aidl7android8hardware6common12NativeHandleENS_9allocatorIS5_EEEE"
   ]
  },
  {
   "alignment" : 1,
   "linker_set_key" : "_ZTIN7android8internal7details10IsIterableINSt3__16vectorIhNS3_9allocatorIhEEEEEE",
   "name" : "android::internal::details::IsIterable<std::vector<unsigned char, std::allocator<unsigned char>>>",
   "record_kind" : "class",
   "referenced_type" : "_ZTIN7android8internal7details10IsIterableINSt3__16vectorIhNS3_9allocatorIhEEEEEE",
   "self_type" : "_ZTIN7android8internal7details10IsIterableINSt3__16vectorIhNS3_9allocatorIhEEEEEE",
   "size" : 1,
   "source_file" : "frameworks/native/libs/binder/ndk/include_cpp/android/binder_to_string.h",
   "template_args" :
   [
    "_ZTINSt3__16vectorIhNS_9allocatorIhEEEE"
   ]
  },
  {
   "alignment" : 1,
   "linker_set_key" : "_ZTIN7android8internal7details10IsIterableINSt3__16vectorIiNS3_9allocatorIiEEEEEE",
   "name" : "android::internal::details::IsIterable<std::vector<int, std::allocator<int>>>",
   "record_kind" : "class",
   "referenced_type" : "_ZTIN7android8internal7details10IsIterableINSt3__16vectorIiNS3_9allocatorIiEEEEEE",
   "self_type" : "_ZTIN7android8internal7details10IsIterableINSt3__16vectorIiNS3_9allocatorIiEEEEEE",
   "size" : 1,
   "source_file" : "frameworks/native/libs/binder/ndk/include_cpp/android/binder_to_string.h",
   "template_args" :
   [
    "_ZTINSt3__16vectorIiNS_9allocatorIiEEEE"
   ]
  },
  {
   "alignment" : 1,
   "linker_set_key" : "_ZTIN7android8internal7details13IsPointerLikeIN4aidl7android10frameworks13cameraservice6device14CameraMetadataEEE",
   "name" : "android::internal::details::IsPointerLike<aidl::android::frameworks::cameraservice::device::CameraMetadata>",
   "record_kind" : "class",
   "referenced_type" : "_ZTIN7android8internal7details13IsPointerLikeIN4aidl7android10frameworks13cameraservice6device14CameraMetadataEEE",
   "self_type" : "_ZTIN7android8internal7details13IsPointerLikeIN4aidl7android10frameworks13cameraservice6device14CameraMetadataEEE",
   "size" : 1,
   "source_file" : "frameworks/native/libs/binder/ndk/include_cpp/android/binder_to_string.h",
   "template_args" :
   [
    "_ZTIN4aidl7android10frameworks13cameraservice6device14CameraMetadataE"
   ]
  },
  {
   "alignment" : 1,
   "linker_set_key" : "_ZTIN7android8internal7details13IsPointerLikeIN4aidl7android10frameworks13cameraservice6device17StreamAndWindowIdEEE",
   "name" : "android::internal::details::IsPointerLike<aidl::android::frameworks::cameraservice::device::StreamAndWindowId>",
   "record_kind" : "class",
   "referenced_type" : "_ZTIN7android8internal7details13IsPointerLikeIN4aidl7android10frameworks13cameraservice6device17StreamAndWindowIdEEE",
   "self_type" : "_ZTIN7android8internal7details13IsPointerLikeIN4aidl7android10frameworks13cameraservice6device17StreamAndWindowIdEEE",
   "size" : 1,
   "source_file" : "frameworks/native/libs/binder/ndk/include_cpp/android/binder_to_string.h",
   "template_args" :
   [
    "_ZTIN4aidl7android10frameworks13cameraservice6device17StreamAndWindowIdE"
   ]
  },
  {
   "alignment" : 1,
   "linker_set_key" : "_ZTIN7android8internal7details13IsPointerLikeIN4aidl7android10frameworks13cameraservice6device19CaptureMetadataInfoEEE",
   "name" : "android::internal::details::IsPointerLike<aidl::android::frameworks::cameraservice::device::CaptureMetadataInfo>",
   "record_kind" : "class",
   "referenced_type" : "_ZTIN7android8internal7details13IsPointerLikeIN4aidl7android10frameworks13cameraservice6device19CaptureMetadataInfoEEE",
   "self_type" : "_ZTIN7android8internal7details13IsPointerLikeIN4aidl7android10frameworks13cameraservice6device19CaptureMetadataInfoEEE",
   "size" : 1,
   "source_file" : "frameworks/native/libs/binder/ndk/include_cpp/android/binder_to_string.h",
   "template_args" :
   [
    "_ZTIN4aidl7android10frameworks13cameraservice6device19CaptureMetadataInfoE"
   ]
  },
  {
   "alignment" : 1,
   "linker_set_key" : "_ZTIN7android8internal7details13IsPointerLikeIN4aidl7android10frameworks13cameraservice6device19OutputConfiguration8RotationEEE",
   "name" : "android::internal::details::IsPointerLike<aidl::android::frameworks::cameraservice::device::OutputConfiguration::Rotation>",
   "record_kind" : "class",
   "referenced_type" : "_ZTIN7android8internal7details13IsPointerLikeIN4aidl7android10frameworks13cameraservice6device19OutputConfiguration8RotationEEE",
   "self_type" : "_ZTIN7android8internal7details13IsPointerLikeIN4aidl7android10frameworks13cameraservice6device19OutputConfiguration8RotationEEE",
   "size" : 1,
   "source_file" : "frameworks/native/libs/binder/ndk/include_cpp/android/binder_to_string.h",
   "template_args" :
   [
    "_ZTIN4aidl7android10frameworks13cameraservice6device19OutputConfiguration8RotationE"
   ]
  },
  {
   "alignment" : 1,
   "linker_set_key" : "_ZTIN7android8internal7details13IsPointerLikeIN4aidl7android10frameworks13cameraservice6device19OutputConfigurationEEE",
   "name" : "android::internal::details::IsPointerLike<aidl::android::frameworks::cameraservice::device::OutputConfiguration>",
   "record_kind" : "class",
   "referenced_type" : "_ZTIN7android8internal7details13IsPointerLikeIN4aidl7android10frameworks13cameraservice6device19OutputConfigurationEEE",
   "self_type" : "_ZTIN7android8internal7details13IsPointerLikeIN4aidl7android10frameworks13cameraservice6device19OutputConfigurationEEE",
   "size" : 1,
   "source_file" : "frameworks/native/libs/binder/ndk/include_cpp/android/binder_to_string.h",
   "template_args" :
   [
    "_ZTIN4aidl7android10frameworks13cameraservice6device19OutputConfigurationE"
   ]
  },
  {
   "alignment" : 1,
   "linker_set_key" : "_ZTIN7android8internal7details13IsPointerLikeIN4aidl7android10frameworks13cameraservice6device22PhysicalCameraSettingsEEE",
   "name" : "android::internal::details::IsPointerLike<aidl::android::frameworks::cameraservice::device::PhysicalCameraSettings>",
   "record_kind" : "class",
   "referenced_type" : "_ZTIN7android8internal7details13IsPointerLikeIN4aidl7android10frameworks13cameraservice6device22PhysicalCameraSettingsEEE",
   "self_type" : "_ZTIN7android8internal7details13IsPointerLikeIN4aidl7android10frameworks13cameraservice6device22PhysicalCameraSettingsEEE",
   "size" : 1,
   "source_file" : "frameworks/native/libs/binder/ndk/include_cpp/android/binder_to_string.h",
   "template_args" :
   [
    "_ZTIN4aidl7android10frameworks13cameraservice6device22PhysicalCameraSettingsE"
   ]
  },
  {
   "alignment" : 1,
   "linker_set_key" : "_ZTIN7android8internal7details13IsPointerLikeIN4aidl7android10frameworks13cameraservice6device23StreamConfigurationModeEEE",
   "name" : "android::internal::details::IsPointerLike<aidl::android::frameworks::cameraservice::device::StreamConfigurationMode>",
   "record_kind" : "class",
   "referenced_type" : "_ZTIN7android8internal7details13IsPointerLikeIN4aidl7android10frameworks13cameraservice6device23StreamConfigurationModeEEE",
   "self_type" : "_ZTIN7android8internal7details13IsPointerLikeIN4aidl7android10frameworks13cameraservice6device23StreamConfigurationModeEEE",
   "size" : 1,
   "source_file" : "frameworks/native/libs/binder/ndk/include_cpp/android/binder_to_string.h",
   "template_args" :
   [
    "_ZTIN4aidl7android10frameworks13cameraservice6device23StreamConfigurationModeE"
   ]
  },
  {
   "alignment" : 1,
   "linker_set_key" : "_ZTIN7android8internal7details13IsPointerLikeIN4aidl7android8hardware6common12NativeHandleEEE",
   "name" : "android::internal::details::IsPointerLike<aidl::android::hardware::common::NativeHandle>",
   "record_kind" : "class",
   "referenced_type" : "_ZTIN7android8internal7details13IsPointerLikeIN4aidl7android8hardware6common12NativeHandleEEE",
   "self_type" : "_ZTIN7android8internal7details13IsPointerLikeIN4aidl7android8hardware6common12NativeHandleEEE",
   "size" : 1,
   "source_file" : "frameworks/native/libs/binder/ndk/include_cpp/android/binder_to_string.h",
   "template_args" :
   [
    "_ZTIN4aidl7android8hardware6common12NativeHandleE"
   ]
  },
  {
   "alignment" : 1,
   "linker_set_key" : "_ZTIN7android8internal7details13IsPointerLikeINSt3__16vectorIN3ndk20ScopedFileDescriptorENS3_9allocatorIS6_EEEEEE",
   "name" : "android::internal::details::IsPointerLike<std::vector<ndk::ScopedFileDescriptor, std::allocator<ndk::ScopedFileDescriptor>>>",
   "record_kind" : "class",
   "referenced_type" : "_ZTIN7android8internal7details13IsPointerLikeINSt3__16vectorIN3ndk20ScopedFileDescriptorENS3_9allocatorIS6_EEEEEE",
   "self_type" : "_ZTIN7android8internal7details13IsPointerLikeINSt3__16vectorIN3ndk20ScopedFileDescriptorENS3_9allocatorIS6_EEEEEE",
   "size" : 1,
   "source_file" : "frameworks/native/libs/binder/ndk/include_cpp/android/binder_to_string.h",
   "template_args" :
   [
    "_ZTINSt3__16vectorIN3ndk20ScopedFileDescriptorENS_9allocatorIS2_EEEE"
   ]
  },
  {
   "alignment" : 1,
   "linker_set_key" : "_ZTIN7android8internal7details13IsPointerLikeINSt3__16vectorIN4aidl7android10frameworks13cameraservice6device17StreamAndWindowIdENS3_9allocatorISA_EEEEEE",
   "name" : "android::internal::details::IsPointerLike<std::vector<aidl::android::frameworks::cameraservice::device::StreamAndWindowId, std::allocator<aidl::android::frameworks::cameraservice::device::StreamAndWindowId>>>",
   "record_kind" : "class",
   "referenced_type" : "_ZTIN7android8internal7details13IsPointerLikeINSt3__16vectorIN4aidl7android10frameworks13cameraservice6device17StreamAndWindowIdENS3_9allocatorISA_EEEEEE",
   "self_type" : "_ZTIN7android8internal7details13IsPointerLikeINSt3__16vectorIN4aidl7android10frameworks13cameraservice6device17StreamAndWindowIdENS3_9allocatorISA_EEEEEE",
   "size" : 1,
   "source_file" : "frameworks/native/libs/binder/ndk/include_cpp/android/binder_to_string.h",
   "template_args" :
   [
    "_ZTINSt3__16vectorIN4aidl7android10frameworks13cameraservice6device17StreamAndWindowIdENS_9allocatorIS6_EEEE"
   ]
  },
  {
   "alignment" : 1,
   "linker_set_key" : "_ZTIN7android8internal7details13IsPointerLikeINSt3__16vectorIN4aidl7android10frameworks13cameraservice6device19OutputConfigurationENS3_9allocatorISA_EEEEEE",
   "name" : "android::internal::details::IsPointerLike<std::vector<aidl::android::frameworks::cameraservice::device::OutputConfiguration, std::allocator<aidl::android::frameworks::cameraservice::device::OutputConfiguration>>>",
   "record_kind" : "class",
   "referenced_type" : "_ZTIN7android8internal7details13IsPointerLikeINSt3__16vectorIN4aidl7android10frameworks13cameraservice6device19OutputConfigurationENS3_9allocatorISA_EEEEEE",
   "self_type" : "_ZTIN7android8internal7details13IsPointerLikeINSt3__16vectorIN4aidl7android10frameworks13cameraservice6device19OutputConfigurationENS3_9allocatorISA_EEEEEE",
   "size" : 1,
   "source_file" : "frameworks/native/libs/binder/ndk/include_cpp/android/binder_to_string.h",
   "template_args" :
   [
    "_ZTINSt3__16vectorIN4aidl7android10frameworks13cameraservice6device19OutputConfigurationENS_9allocatorIS6_EEEE"
   ]
  },
  {
   "alignment" : 1,
   "linker_set_key" : "_ZTIN7android8internal7details13IsPointerLikeINSt3__16vectorIN4aidl7android10frameworks13cameraservice6device22PhysicalCameraSettingsENS3_9allocatorISA_EEEEEE",
   "name" : "android::internal::details::IsPointerLike<std::vector<aidl::android::frameworks::cameraservice::device::PhysicalCameraSettings, std::allocator<aidl::android::frameworks::cameraservice::device::PhysicalCameraSettings>>>",
   "record_kind" : "class",
   "referenced_type" : "_ZTIN7android8internal7details13IsPointerLikeINSt3__16vectorIN4aidl7android10frameworks13cameraservice6device22PhysicalCameraSettingsENS3_9allocatorISA_EEEEEE",
   "self_type" : "_ZTIN7android8internal7details13IsPointerLikeINSt3__16vectorIN4aidl7android10frameworks13cameraservice6device22PhysicalCameraSettingsENS3_9allocatorISA_EEEEEE",
   "size" : 1,
   "source_file" : "frameworks/native/libs/binder/ndk/include_cpp/android/binder_to_string.h",
   "template_args" :
   [
    "_ZTINSt3__16vectorIN4aidl7android10frameworks13cameraservice6device22PhysicalCameraSettingsENS_9allocatorIS6_EEEE"
   ]
  },
  {
   "alignment" : 1,
   "linker_set_key" : "_ZTIN7android8internal7details13IsPointerLikeINSt3__16vectorIN4aidl7android8hardware6common12NativeHandleENS3_9allocatorIS9_EEEEEE",
   "name" : "android::internal::details::IsPointerLike<std::vector<aidl::android::hardware::common::NativeHandle, std::allocator<aidl::android::hardware::common::NativeHandle>>>",
   "record_kind" : "class",
   "referenced_type" : "_ZTIN7android8internal7details13IsPointerLikeINSt3__16vectorIN4aidl7android8hardware6common12NativeHandleENS3_9allocatorIS9_EEEEEE",
   "self_type" : "_ZTIN7android8internal7details13IsPointerLikeINSt3__16vectorIN4aidl7android8hardware6common12NativeHandleENS3_9allocatorIS9_EEEEEE",
   "size" : 1,
   "source_file" : "frameworks/native/libs/binder/ndk/include_cpp/android/binder_to_string.h",
   "template_args" :
   [
    "_ZTINSt3__16vectorIN4aidl7android8hardware6common12NativeHandleENS_9allocatorIS5_EEEE"
   ]
  },
  {
   "alignment" : 1,
   "linker_set_key" : "_ZTIN7android8internal7details13IsPointerLikeINSt3__16vectorIhNS3_9allocatorIhEEEEEE",
   "name" : "android::internal::details::IsPointerLike<std::vector<unsigned char, std::allocator<unsigned char>>>",
   "record_kind" : "class",
   "referenced_type" : "_ZTIN7android8internal7details13IsPointerLikeINSt3__16vectorIhNS3_9allocatorIhEEEEEE",
   "self_type" : "_ZTIN7android8internal7details13IsPointerLikeINSt3__16vectorIhNS3_9allocatorIhEEEEEE",
   "size" : 1,
   "source_file" : "frameworks/native/libs/binder/ndk/include_cpp/android/binder_to_string.h",
   "template_args" :
   [
    "_ZTINSt3__16vectorIhNS_9allocatorIhEEEE"
   ]
  },
  {
   "alignment" : 1,
   "linker_set_key" : "_ZTIN7android8internal7details13IsPointerLikeINSt3__16vectorIiNS3_9allocatorIiEEEEEE",
   "name" : "android::internal::details::IsPointerLike<std::vector<int, std::allocator<int>>>",
   "record_kind" : "class",
   "referenced_type" : "_ZTIN7android8internal7details13IsPointerLikeINSt3__16vectorIiNS3_9allocatorIiEEEEEE",
   "self_type" : "_ZTIN7android8internal7details13IsPointerLikeINSt3__16vectorIiNS3_9allocatorIiEEEEEE",
   "size" : 1,
   "source_file" : "frameworks/native/libs/binder/ndk/include_cpp/android/binder_to_string.h",
   "template_args" :
   [
    "_ZTINSt3__16vectorIiNS_9allocatorIiEEEE"
   ]
  },
  {
   "alignment" : 1,
   "linker_set_key" : "_ZTIN7android8internal7details17HasToStringMethodIN4aidl7android10frameworks13cameraservice6device14CameraMetadataEEE",
   "name" : "android::internal::details::HasToStringMethod<aidl::android::frameworks::cameraservice::device::CameraMetadata>",
   "record_kind" : "class",
   "referenced_type" : "_ZTIN7android8internal7details17HasToStringMethodIN4aidl7android10frameworks13cameraservice6device14CameraMetadataEEE",
   "self_type" : "_ZTIN7android8internal7details17HasToStringMethodIN4aidl7android10frameworks13cameraservice6device14CameraMetadataEEE",
   "size" : 1,
   "source_file" : "frameworks/native/libs/binder/ndk/include_cpp/android/binder_to_string.h",
   "template_args" :
   [
    "_ZTIN4aidl7android10frameworks13cameraservice6device14CameraMetadataE"
   ]
  },
  {
   "alignment" : 1,
   "linker_set_key" : "_ZTIN7android8internal7details17HasToStringMethodIN4aidl7android10frameworks13cameraservice6device17StreamAndWindowIdEEE",
   "name" : "android::internal::details::HasToStringMethod<aidl::android::frameworks::cameraservice::device::StreamAndWindowId>",
   "record_kind" : "class",
   "referenced_type" : "_ZTIN7android8internal7details17HasToStringMethodIN4aidl7android10frameworks13cameraservice6device17StreamAndWindowIdEEE",
   "self_type" : "_ZTIN7android8internal7details17HasToStringMethodIN4aidl7android10frameworks13cameraservice6device17StreamAndWindowIdEEE",
   "size" : 1,
   "source_file" : "frameworks/native/libs/binder/ndk/include_cpp/android/binder_to_string.h",
   "template_args" :
   [
    "_ZTIN4aidl7android10frameworks13cameraservice6device17StreamAndWindowIdE"
   ]
  },
  {
   "alignment" : 1,
   "linker_set_key" : "_ZTIN7android8internal7details17HasToStringMethodIN4aidl7android10frameworks13cameraservice6device19CaptureMetadataInfoEEE",
   "name" : "android::internal::details::HasToStringMethod<aidl::android::frameworks::cameraservice::device::CaptureMetadataInfo>",
   "record_kind" : "class",
   "referenced_type" : "_ZTIN7android8internal7details17HasToStringMethodIN4aidl7android10frameworks13cameraservice6device19CaptureMetadataInfoEEE",
   "self_type" : "_ZTIN7android8internal7details17HasToStringMethodIN4aidl7android10frameworks13cameraservice6device19CaptureMetadataInfoEEE",
   "size" : 1,
   "source_file" : "frameworks/native/libs/binder/ndk/include_cpp/android/binder_to_string.h",
   "template_args" :
   [
    "_ZTIN4aidl7android10frameworks13cameraservice6device19CaptureMetadataInfoE"
   ]
  },
  {
   "alignment" : 1,
   "linker_set_key" : "_ZTIN7android8internal7details17HasToStringMethodIN4aidl7android10frameworks13cameraservice6device19OutputConfiguration8RotationEEE",
   "name" : "android::internal::details::HasToStringMethod<aidl::android::frameworks::cameraservice::device::OutputConfiguration::Rotation>",
   "record_kind" : "class",
   "referenced_type" : "_ZTIN7android8internal7details17HasToStringMethodIN4aidl7android10frameworks13cameraservice6device19OutputConfiguration8RotationEEE",
   "self_type" : "_ZTIN7android8internal7details17HasToStringMethodIN4aidl7android10frameworks13cameraservice6device19OutputConfiguration8RotationEEE",
   "size" : 1,
   "source_file" : "frameworks/native/libs/binder/ndk/include_cpp/android/binder_to_string.h",
   "template_args" :
   [
    "_ZTIN4aidl7android10frameworks13cameraservice6device19OutputConfiguration8RotationE"
   ]
  },
  {
   "alignment" : 1,
   "linker_set_key" : "_ZTIN7android8internal7details17HasToStringMethodIN4aidl7android10frameworks13cameraservice6device19OutputConfigurationEEE",
   "name" : "android::internal::details::HasToStringMethod<aidl::android::frameworks::cameraservice::device::OutputConfiguration>",
   "record_kind" : "class",
   "referenced_type" : "_ZTIN7android8internal7details17HasToStringMethodIN4aidl7android10frameworks13cameraservice6device19OutputConfigurationEEE",
   "self_type" : "_ZTIN7android8internal7details17HasToStringMethodIN4aidl7android10frameworks13cameraservice6device19OutputConfigurationEEE",
   "size" : 1,
   "source_file" : "frameworks/native/libs/binder/ndk/include_cpp/android/binder_to_string.h",
   "template_args" :
   [
    "_ZTIN4aidl7android10frameworks13cameraservice6device19OutputConfigurationE"
   ]
  },
  {
   "alignment" : 1,
   "linker_set_key" : "_ZTIN7android8internal7details17HasToStringMethodIN4aidl7android10frameworks13cameraservice6device22PhysicalCameraSettingsEEE",
   "name" : "android::internal::details::HasToStringMethod<aidl::android::frameworks::cameraservice::device::PhysicalCameraSettings>",
   "record_kind" : "class",
   "referenced_type" : "_ZTIN7android8internal7details17HasToStringMethodIN4aidl7android10frameworks13cameraservice6device22PhysicalCameraSettingsEEE",
   "self_type" : "_ZTIN7android8internal7details17HasToStringMethodIN4aidl7android10frameworks13cameraservice6device22PhysicalCameraSettingsEEE",
   "size" : 1,
   "source_file" : "frameworks/native/libs/binder/ndk/include_cpp/android/binder_to_string.h",
   "template_args" :
   [
    "_ZTIN4aidl7android10frameworks13cameraservice6device22PhysicalCameraSettingsE"
   ]
  },
  {
   "alignment" : 1,
   "linker_set_key" : "_ZTIN7android8internal7details17HasToStringMethodIN4aidl7android10frameworks13cameraservice6device23StreamConfigurationModeEEE",
   "name" : "android::internal::details::HasToStringMethod<aidl::android::frameworks::cameraservice::device::StreamConfigurationMode>",
   "record_kind" : "class",
   "referenced_type" : "_ZTIN7android8internal7details17HasToStringMethodIN4aidl7android10frameworks13cameraservice6device23StreamConfigurationModeEEE",
   "self_type" : "_ZTIN7android8internal7details17HasToStringMethodIN4aidl7android10frameworks13cameraservice6device23StreamConfigurationModeEEE",
   "size" : 1,
   "source_file" : "frameworks/native/libs/binder/ndk/include_cpp/android/binder_to_string.h",
   "template_args" :
   [
    "_ZTIN4aidl7android10frameworks13cameraservice6device23StreamConfigurationModeE"
   ]
  },
  {
   "alignment" : 1,
   "linker_set_key" : "_ZTIN7android8internal7details17HasToStringMethodIN4aidl7android8hardware6common12NativeHandleEEE",
   "name" : "android::internal::details::HasToStringMethod<aidl::android::hardware::common::NativeHandle>",
   "record_kind" : "class",
   "referenced_type" : "_ZTIN7android8internal7details17HasToStringMethodIN4aidl7android8hardware6common12NativeHandleEEE",
   "self_type" : "_ZTIN7android8internal7details17HasToStringMethodIN4aidl7android8hardware6common12NativeHandleEEE",
   "size" : 1,
   "source_file" : "frameworks/native/libs/binder/ndk/include_cpp/android/binder_to_string.h",
   "template_args" :
   [
    "_ZTIN4aidl7android8hardware6common12NativeHandleE"
   ]
  },
  {
   "alignment" : 1,
   "linker_set_key" : "_ZTIN7android8internal7details17HasToStringMethodINSt3__16vectorIN3ndk20ScopedFileDescriptorENS3_9allocatorIS6_EEEEEE",
   "name" : "android::internal::details::HasToStringMethod<std::vector<ndk::ScopedFileDescriptor, std::allocator<ndk::ScopedFileDescriptor>>>",
   "record_kind" : "class",
   "referenced_type" : "_ZTIN7android8internal7details17HasToStringMethodINSt3__16vectorIN3ndk20ScopedFileDescriptorENS3_9allocatorIS6_EEEEEE",
   "self_type" : "_ZTIN7android8internal7details17HasToStringMethodINSt3__16vectorIN3ndk20ScopedFileDescriptorENS3_9allocatorIS6_EEEEEE",
   "size" : 1,
   "source_file" : "frameworks/native/libs/binder/ndk/include_cpp/android/binder_to_string.h",
   "template_args" :
   [
    "_ZTINSt3__16vectorIN3ndk20ScopedFileDescriptorENS_9allocatorIS2_EEEE"
   ]
  },
  {
   "alignment" : 1,
   "linker_set_key" : "_ZTIN7android8internal7details17HasToStringMethodINSt3__16vectorIN4aidl7android10frameworks13cameraservice6device17StreamAndWindowIdENS3_9allocatorISA_EEEEEE",
   "name" : "android::internal::details::HasToStringMethod<std::vector<aidl::android::frameworks::cameraservice::device::StreamAndWindowId, std::allocator<aidl::android::frameworks::cameraservice::device::StreamAndWindowId>>>",
   "record_kind" : "class",
   "referenced_type" : "_ZTIN7android8internal7details17HasToStringMethodINSt3__16vectorIN4aidl7android10frameworks13cameraservice6device17StreamAndWindowIdENS3_9allocatorISA_EEEEEE",
   "self_type" : "_ZTIN7android8internal7details17HasToStringMethodINSt3__16vectorIN4aidl7android10frameworks13cameraservice6device17StreamAndWindowIdENS3_9allocatorISA_EEEEEE",
   "size" : 1,
   "source_file" : "frameworks/native/libs/binder/ndk/include_cpp/android/binder_to_string.h",
   "template_args" :
   [
    "_ZTINSt3__16vectorIN4aidl7android10frameworks13cameraservice6device17StreamAndWindowIdENS_9allocatorIS6_EEEE"
   ]
  },
  {
   "alignment" : 1,
   "linker_set_key" : "_ZTIN7android8internal7details17HasToStringMethodINSt3__16vectorIN4aidl7android10frameworks13cameraservice6device19OutputConfigurationENS3_9allocatorISA_EEEEEE",
   "name" : "android::internal::details::HasToStringMethod<std::vector<aidl::android::frameworks::cameraservice::device::OutputConfiguration, std::allocator<aidl::android::frameworks::cameraservice::device::OutputConfiguration>>>",
   "record_kind" : "class",
   "referenced_type" : "_ZTIN7android8internal7details17HasToStringMethodINSt3__16vectorIN4aidl7android10frameworks13cameraservice6device19OutputConfigurationENS3_9allocatorISA_EEEEEE",
   "self_type" : "_ZTIN7android8internal7details17HasToStringMethodINSt3__16vectorIN4aidl7android10frameworks13cameraservice6device19OutputConfigurationENS3_9allocatorISA_EEEEEE",
   "size" : 1,
   "source_file" : "frameworks/native/libs/binder/ndk/include_cpp/android/binder_to_string.h",
   "template_args" :
   [
    "_ZTINSt3__16vectorIN4aidl7android10frameworks13cameraservice6device19OutputConfigurationENS_9allocatorIS6_EEEE"
   ]
  },
  {
   "alignment" : 1,
   "linker_set_key" : "_ZTIN7android8internal7details17HasToStringMethodINSt3__16vectorIN4aidl7android10frameworks13cameraservice6device22PhysicalCameraSettingsENS3_9allocatorISA_EEEEEE",
   "name" : "android::internal::details::HasToStringMethod<std::vector<aidl::android::frameworks::cameraservice::device::PhysicalCameraSettings, std::allocator<aidl::android::frameworks::cameraservice::device::PhysicalCameraSettings>>>",
   "record_kind" : "class",
   "referenced_type" : "_ZTIN7android8internal7details17HasToStringMethodINSt3__16vectorIN4aidl7android10frameworks13cameraservice6device22PhysicalCameraSettingsENS3_9allocatorISA_EEEEEE",
   "self_type" : "_ZTIN7android8internal7details17HasToStringMethodINSt3__16vectorIN4aidl7android10frameworks13cameraservice6device22PhysicalCameraSettingsENS3_9allocatorISA_EEEEEE",
   "size" : 1,
   "source_file" : "frameworks/native/libs/binder/ndk/include_cpp/android/binder_to_string.h",
   "template_args" :
   [
    "_ZTINSt3__16vectorIN4aidl7android10frameworks13cameraservice6device22PhysicalCameraSettingsENS_9allocatorIS6_EEEE"
   ]
  },
  {
   "alignment" : 1,
   "linker_set_key" : "_ZTIN7android8internal7details17HasToStringMethodINSt3__16vectorIN4aidl7android8hardware6common12NativeHandleENS3_9allocatorIS9_EEEEEE",
   "name" : "android::internal::details::HasToStringMethod<std::vector<aidl::android::hardware::common::NativeHandle, std::allocator<aidl::android::hardware::common::NativeHandle>>>",
   "record_kind" : "class",
   "referenced_type" : "_ZTIN7android8internal7details17HasToStringMethodINSt3__16vectorIN4aidl7android8hardware6common12NativeHandleENS3_9allocatorIS9_EEEEEE",
   "self_type" : "_ZTIN7android8internal7details17HasToStringMethodINSt3__16vectorIN4aidl7android8hardware6common12NativeHandleENS3_9allocatorIS9_EEEEEE",
   "size" : 1,
   "source_file" : "frameworks/native/libs/binder/ndk/include_cpp/android/binder_to_string.h",
   "template_args" :
   [
    "_ZTINSt3__16vectorIN4aidl7android8hardware6common12NativeHandleENS_9allocatorIS5_EEEE"
   ]
  },
  {
   "alignment" : 1,
   "linker_set_key" : "_ZTIN7android8internal7details17HasToStringMethodINSt3__16vectorIhNS3_9allocatorIhEEEEEE",
   "name" : "android::internal::details::HasToStringMethod<std::vector<unsigned char, std::allocator<unsigned char>>>",
   "record_kind" : "class",
   "referenced_type" : "_ZTIN7android8internal7details17HasToStringMethodINSt3__16vectorIhNS3_9allocatorIhEEEEEE",
   "self_type" : "_ZTIN7android8internal7details17HasToStringMethodINSt3__16vectorIhNS3_9allocatorIhEEEEEE",
   "size" : 1,
   "source_file" : "frameworks/native/libs/binder/ndk/include_cpp/android/binder_to_string.h",
   "template_args" :
   [
    "_ZTINSt3__16vectorIhNS_9allocatorIhEEEE"
   ]
  },
  {
   "alignment" : 1,
   "linker_set_key" : "_ZTIN7android8internal7details17HasToStringMethodINSt3__16vectorIiNS3_9allocatorIiEEEEEE",
   "name" : "android::internal::details::HasToStringMethod<std::vector<int, std::allocator<int>>>",
   "record_kind" : "class",
   "referenced_type" : "_ZTIN7android8internal7details17HasToStringMethodINSt3__16vectorIiNS3_9allocatorIiEEEEEE",
   "self_type" : "_ZTIN7android8internal7details17HasToStringMethodINSt3__16vectorIiNS3_9allocatorIiEEEEEE",
   "size" : 1,
   "source_file" : "frameworks/native/libs/binder/ndk/include_cpp/android/binder_to_string.h",
   "template_args" :
   [
    "_ZTINSt3__16vectorIiNS_9allocatorIiEEEE"
   ]
  },
  {
   "alignment" : 1,
   "base_specifiers" :
   [
    {
     "referenced_type" : "_ZTINSt3__117integral_constantIbLb0EEE"
    }
   ],
   "linker_set_key" : "_ZTIN7android8internal7details17IsInstantiationOfIN4aidl7android10frameworks13cameraservice6device14CameraMetadataENSt3__110shared_ptrEEE",
   "name" : "android::internal::details::IsInstantiationOf<aidl::android::frameworks::cameraservice::device::CameraMetadata, std::shared_ptr>",
   "referenced_type" : "_ZTIN7android8internal7details17IsInstantiationOfIN4aidl7android10frameworks13cameraservice6device14CameraMetadataENSt3__110shared_ptrEEE",
   "self_type" : "_ZTIN7android8internal7details17IsInstantiationOfIN4aidl7android10frameworks13cameraservice6device14CameraMetadataENSt3__110shared_ptrEEE",
   "size" : 1,
   "source_file" : "frameworks/native/libs/binder/ndk/include_cpp/android/binder_to_string.h",
   "template_args" :
   [
    "_ZTIN4aidl7android10frameworks13cameraservice6device14CameraMetadataE"
   ]
  },
  {
   "alignment" : 1,
   "base_specifiers" :
   [
    {
     "referenced_type" : "_ZTINSt3__117integral_constantIbLb0EEE"
    }
   ],
   "linker_set_key" : "_ZTIN7android8internal7details17IsInstantiationOfIN4aidl7android10frameworks13cameraservice6device14CameraMetadataENSt3__110unique_ptrEEE",
   "name" : "android::internal::details::IsInstantiationOf<aidl::android::frameworks::cameraservice::device::CameraMetadata, std::unique_ptr>",
   "referenced_type" : "_ZTIN7android8internal7details17IsInstantiationOfIN4aidl7android10frameworks13cameraservice6device14CameraMetadataENSt3__110unique_ptrEEE",
   "self_type" : "_ZTIN7android8internal7details17IsInstantiationOfIN4aidl7android10frameworks13cameraservice6device14CameraMetadataENSt3__110unique_ptrEEE",
   "size" : 1,
   "source_file" : "frameworks/native/libs/binder/ndk/include_cpp/android/binder_to_string.h",
   "template_args" :
   [
    "_ZTIN4aidl7android10frameworks13cameraservice6device14CameraMetadataE"
   ]
  },
  {
   "alignment" : 1,
   "base_specifiers" :
   [
    {
     "referenced_type" : "_ZTINSt3__117integral_constantIbLb0EEE"
    }
   ],
   "linker_set_key" : "_ZTIN7android8internal7details17IsInstantiationOfIN4aidl7android10frameworks13cameraservice6device14CameraMetadataENSt3__18optionalEEE",
   "name" : "android::internal::details::IsInstantiationOf<aidl::android::frameworks::cameraservice::device::CameraMetadata, std::optional>",
   "referenced_type" : "_ZTIN7android8internal7details17IsInstantiationOfIN4aidl7android10frameworks13cameraservice6device14CameraMetadataENSt3__18optionalEEE",
   "self_type" : "_ZTIN7android8internal7details17IsInstantiationOfIN4aidl7android10frameworks13cameraservice6device14CameraMetadataENSt3__18optionalEEE",
   "size" : 1,
   "source_file" : "frameworks/native/libs/binder/ndk/include_cpp/android/binder_to_string.h",
   "template_args" :
   [
    "_ZTIN4aidl7android10frameworks13cameraservice6device14CameraMetadataE"
   ]
  },
  {
   "alignment" : 1,
   "base_specifiers" :
   [
    {
     "referenced_type" : "_ZTINSt3__117integral_constantIbLb0EEE"
    }
   ],
   "linker_set_key" : "_ZTIN7android8internal7details17IsInstantiationOfIN4aidl7android10frameworks13cameraservice6device17StreamAndWindowIdENSt3__110shared_ptrEEE",
   "name" : "android::internal::details::IsInstantiationOf<aidl::android::frameworks::cameraservice::device::StreamAndWindowId, std::shared_ptr>",
   "referenced_type" : "_ZTIN7android8internal7details17IsInstantiationOfIN4aidl7android10frameworks13cameraservice6device17StreamAndWindowIdENSt3__110shared_ptrEEE",
   "self_type" : "_ZTIN7android8internal7details17IsInstantiationOfIN4aidl7android10frameworks13cameraservice6device17StreamAndWindowIdENSt3__110shared_ptrEEE",
   "size" : 1,
   "source_file" : "frameworks/native/libs/binder/ndk/include_cpp/android/binder_to_string.h",
   "template_args" :
   [
    "_ZTIN4aidl7android10frameworks13cameraservice6device17StreamAndWindowIdE"
   ]
  },
  {
   "alignment" : 1,
   "base_specifiers" :
   [
    {
     "referenced_type" : "_ZTINSt3__117integral_constantIbLb0EEE"
    }
   ],
   "linker_set_key" : "_ZTIN7android8internal7details17IsInstantiationOfIN4aidl7android10frameworks13cameraservice6device17StreamAndWindowIdENSt3__110unique_ptrEEE",
   "name" : "android::internal::details::IsInstantiationOf<aidl::android::frameworks::cameraservice::device::StreamAndWindowId, std::unique_ptr>",
   "referenced_type" : "_ZTIN7android8internal7details17IsInstantiationOfIN4aidl7android10frameworks13cameraservice6device17StreamAndWindowIdENSt3__110unique_ptrEEE",
   "self_type" : "_ZTIN7android8internal7details17IsInstantiationOfIN4aidl7android10frameworks13cameraservice6device17StreamAndWindowIdENSt3__110unique_ptrEEE",
   "size" : 1,
   "source_file" : "frameworks/native/libs/binder/ndk/include_cpp/android/binder_to_string.h",
   "template_args" :
   [
    "_ZTIN4aidl7android10frameworks13cameraservice6device17StreamAndWindowIdE"
   ]
  },
  {
   "alignment" : 1,
   "base_specifiers" :
   [
    {
     "referenced_type" : "_ZTINSt3__117integral_constantIbLb0EEE"
    }
   ],
   "linker_set_key" : "_ZTIN7android8internal7details17IsInstantiationOfIN4aidl7android10frameworks13cameraservice6device17StreamAndWindowIdENSt3__18optionalEEE",
   "name" : "android::internal::details::IsInstantiationOf<aidl::android::frameworks::cameraservice::device::StreamAndWindowId, std::optional>",
   "referenced_type" : "_ZTIN7android8internal7details17IsInstantiationOfIN4aidl7android10frameworks13cameraservice6device17StreamAndWindowIdENSt3__18optionalEEE",
   "self_type" : "_ZTIN7android8internal7details17IsInstantiationOfIN4aidl7android10frameworks13cameraservice6device17StreamAndWindowIdENSt3__18optionalEEE",
   "size" : 1,
   "source_file" : "frameworks/native/libs/binder/ndk/include_cpp/android/binder_to_string.h",
   "template_args" :
   [
    "_ZTIN4aidl7android10frameworks13cameraservice6device17StreamAndWindowIdE"
   ]
  },
  {
   "alignment" : 1,
   "base_specifiers" :
   [
    {
     "referenced_type" : "_ZTINSt3__117integral_constantIbLb0EEE"
    }
   ],
   "linker_set_key" : "_ZTIN7android8internal7details17IsInstantiationOfIN4aidl7android10frameworks13cameraservice6device19CaptureMetadataInfoENSt3__110shared_ptrEEE",
   "name" : "android::internal::details::IsInstantiationOf<aidl::android::frameworks::cameraservice::device::CaptureMetadataInfo, std::shared_ptr>",
   "referenced_type" : "_ZTIN7android8internal7details17IsInstantiationOfIN4aidl7android10frameworks13cameraservice6device19CaptureMetadataInfoENSt3__110shared_ptrEEE",
   "self_type" : "_ZTIN7android8internal7details17IsInstantiationOfIN4aidl7android10frameworks13cameraservice6device19CaptureMetadataInfoENSt3__110shared_ptrEEE",
   "size" : 1,
   "source_file" : "frameworks/native/libs/binder/ndk/include_cpp/android/binder_to_string.h",
   "template_args" :
   [
    "_ZTIN4aidl7android10frameworks13cameraservice6device19CaptureMetadataInfoE"
   ]
  },
  {
   "alignment" : 1,
   "base_specifiers" :
   [
    {
     "referenced_type" : "_ZTINSt3__117integral_constantIbLb0EEE"
    }
   ],
   "linker_set_key" : "_ZTIN7android8internal7details17IsInstantiationOfIN4aidl7android10frameworks13cameraservice6device19CaptureMetadataInfoENSt3__110unique_ptrEEE",
   "name" : "android::internal::details::IsInstantiationOf<aidl::android::frameworks::cameraservice::device::CaptureMetadataInfo, std::unique_ptr>",
   "referenced_type" : "_ZTIN7android8internal7details17IsInstantiationOfIN4aidl7android10frameworks13cameraservice6device19CaptureMetadataInfoENSt3__110unique_ptrEEE",
   "self_type" : "_ZTIN7android8internal7details17IsInstantiationOfIN4aidl7android10frameworks13cameraservice6device19CaptureMetadataInfoENSt3__110unique_ptrEEE",
   "size" : 1,
   "source_file" : "frameworks/native/libs/binder/ndk/include_cpp/android/binder_to_string.h",
   "template_args" :
   [
    "_ZTIN4aidl7android10frameworks13cameraservice6device19CaptureMetadataInfoE"
   ]
  },
  {
   "alignment" : 1,
   "base_specifiers" :
   [
    {
     "referenced_type" : "_ZTINSt3__117integral_constantIbLb0EEE"
    }
   ],
   "linker_set_key" : "_ZTIN7android8internal7details17IsInstantiationOfIN4aidl7android10frameworks13cameraservice6device19CaptureMetadataInfoENSt3__18optionalEEE",
   "name" : "android::internal::details::IsInstantiationOf<aidl::android::frameworks::cameraservice::device::CaptureMetadataInfo, std::optional>",
   "referenced_type" : "_ZTIN7android8internal7details17IsInstantiationOfIN4aidl7android10frameworks13cameraservice6device19CaptureMetadataInfoENSt3__18optionalEEE",
   "self_type" : "_ZTIN7android8internal7details17IsInstantiationOfIN4aidl7android10frameworks13cameraservice6device19CaptureMetadataInfoENSt3__18optionalEEE",
   "size" : 1,
   "source_file" : "frameworks/native/libs/binder/ndk/include_cpp/android/binder_to_string.h",
   "template_args" :
   [
    "_ZTIN4aidl7android10frameworks13cameraservice6device19CaptureMetadataInfoE"
   ]
  },
  {
   "alignment" : 1,
   "base_specifiers" :
   [
    {
     "referenced_type" : "_ZTINSt3__117integral_constantIbLb0EEE"
    }
   ],
   "linker_set_key" : "_ZTIN7android8internal7details17IsInstantiationOfIN4aidl7android10frameworks13cameraservice6device19OutputConfiguration8RotationENSt3__110shared_ptrEEE",
   "name" : "android::internal::details::IsInstantiationOf<aidl::android::frameworks::cameraservice::device::OutputConfiguration::Rotation, std::shared_ptr>",
   "referenced_type" : "_ZTIN7android8internal7details17IsInstantiationOfIN4aidl7android10frameworks13cameraservice6device19OutputConfiguration8RotationENSt3__110shared_ptrEEE",
   "self_type" : "_ZTIN7android8internal7details17IsInstantiationOfIN4aidl7android10frameworks13cameraservice6device19OutputConfiguration8RotationENSt3__110shared_ptrEEE",
   "size" : 1,
   "source_file" : "frameworks/native/libs/binder/ndk/include_cpp/android/binder_to_string.h",
   "template_args" :
   [
    "_ZTIN4aidl7android10frameworks13cameraservice6device19OutputConfiguration8RotationE"
   ]
  },
  {
   "alignment" : 1,
   "base_specifiers" :
   [
    {
     "referenced_type" : "_ZTINSt3__117integral_constantIbLb0EEE"
    }
   ],
   "linker_set_key" : "_ZTIN7android8internal7details17IsInstantiationOfIN4aidl7android10frameworks13cameraservice6device19OutputConfiguration8RotationENSt3__110unique_ptrEEE",
   "name" : "android::internal::details::IsInstantiationOf<aidl::android::frameworks::cameraservice::device::OutputConfiguration::Rotation, std::unique_ptr>",
   "referenced_type" : "_ZTIN7android8internal7details17IsInstantiationOfIN4aidl7android10frameworks13cameraservice6device19OutputConfiguration8RotationENSt3__110unique_ptrEEE",
   "self_type" : "_ZTIN7android8internal7details17IsInstantiationOfIN4aidl7android10frameworks13cameraservice6device19OutputConfiguration8RotationENSt3__110unique_ptrEEE",
   "size" : 1,
   "source_file" : "frameworks/native/libs/binder/ndk/include_cpp/android/binder_to_string.h",
   "template_args" :
   [
    "_ZTIN4aidl7android10frameworks13cameraservice6device19OutputConfiguration8RotationE"
   ]
  },
  {
   "alignment" : 1,
   "base_specifiers" :
   [
    {
     "referenced_type" : "_ZTINSt3__117integral_constantIbLb0EEE"
    }
   ],
   "linker_set_key" : "_ZTIN7android8internal7details17IsInstantiationOfIN4aidl7android10frameworks13cameraservice6device19OutputConfiguration8RotationENSt3__18optionalEEE",
   "name" : "android::internal::details::IsInstantiationOf<aidl::android::frameworks::cameraservice::device::OutputConfiguration::Rotation, std::optional>",
   "referenced_type" : "_ZTIN7android8internal7details17IsInstantiationOfIN4aidl7android10frameworks13cameraservice6device19OutputConfiguration8RotationENSt3__18optionalEEE",
   "self_type" : "_ZTIN7android8internal7details17IsInstantiationOfIN4aidl7android10frameworks13cameraservice6device19OutputConfiguration8RotationENSt3__18optionalEEE",
   "size" : 1,
   "source_file" : "frameworks/native/libs/binder/ndk/include_cpp/android/binder_to_string.h",
   "template_args" :
   [
    "_ZTIN4aidl7android10frameworks13cameraservice6device19OutputConfiguration8RotationE"
   ]
  },
  {
   "alignment" : 1,
   "base_specifiers" :
   [
    {
     "referenced_type" : "_ZTINSt3__117integral_constantIbLb0EEE"
    }
   ],
   "linker_set_key" : "_ZTIN7android8internal7details17IsInstantiationOfIN4aidl7android10frameworks13cameraservice6device19OutputConfigurationENSt3__110shared_ptrEEE",
   "name" : "android::internal::details::IsInstantiationOf<aidl::android::frameworks::cameraservice::device::OutputConfiguration, std::shared_ptr>",
   "referenced_type" : "_ZTIN7android8internal7details17IsInstantiationOfIN4aidl7android10frameworks13cameraservice6device19OutputConfigurationENSt3__110shared_ptrEEE",
   "self_type" : "_ZTIN7android8internal7details17IsInstantiationOfIN4aidl7android10frameworks13cameraservice6device19OutputConfigurationENSt3__110shared_ptrEEE",
   "size" : 1,
   "source_file" : "frameworks/native/libs/binder/ndk/include_cpp/android/binder_to_string.h",
   "template_args" :
   [
    "_ZTIN4aidl7android10frameworks13cameraservice6device19OutputConfigurationE"
   ]
  },
  {
   "alignment" : 1,
   "base_specifiers" :
   [
    {
     "referenced_type" : "_ZTINSt3__117integral_constantIbLb0EEE"
    }
   ],
   "linker_set_key" : "_ZTIN7android8internal7details17IsInstantiationOfIN4aidl7android10frameworks13cameraservice6device19OutputConfigurationENSt3__110unique_ptrEEE",
   "name" : "android::internal::details::IsInstantiationOf<aidl::android::frameworks::cameraservice::device::OutputConfiguration, std::unique_ptr>",
   "referenced_type" : "_ZTIN7android8internal7details17IsInstantiationOfIN4aidl7android10frameworks13cameraservice6device19OutputConfigurationENSt3__110unique_ptrEEE",
   "self_type" : "_ZTIN7android8internal7details17IsInstantiationOfIN4aidl7android10frameworks13cameraservice6device19OutputConfigurationENSt3__110unique_ptrEEE",
   "size" : 1,
   "source_file" : "frameworks/native/libs/binder/ndk/include_cpp/android/binder_to_string.h",
   "template_args" :
   [
    "_ZTIN4aidl7android10frameworks13cameraservice6device19OutputConfigurationE"
   ]
  },
  {
   "alignment" : 1,
   "base_specifiers" :
   [
    {
     "referenced_type" : "_ZTINSt3__117integral_constantIbLb0EEE"
    }
   ],
   "linker_set_key" : "_ZTIN7android8internal7details17IsInstantiationOfIN4aidl7android10frameworks13cameraservice6device19OutputConfigurationENSt3__18optionalEEE",
   "name" : "android::internal::details::IsInstantiationOf<aidl::android::frameworks::cameraservice::device::OutputConfiguration, std::optional>",
   "referenced_type" : "_ZTIN7android8internal7details17IsInstantiationOfIN4aidl7android10frameworks13cameraservice6device19OutputConfigurationENSt3__18optionalEEE",
   "self_type" : "_ZTIN7android8internal7details17IsInstantiationOfIN4aidl7android10frameworks13cameraservice6device19OutputConfigurationENSt3__18optionalEEE",
   "size" : 1,
   "source_file" : "frameworks/native/libs/binder/ndk/include_cpp/android/binder_to_string.h",
   "template_args" :
   [
    "_ZTIN4aidl7android10frameworks13cameraservice6device19OutputConfigurationE"
   ]
  },
  {
   "alignment" : 1,
   "base_specifiers" :
   [
    {
     "referenced_type" : "_ZTINSt3__117integral_constantIbLb0EEE"
    }
   ],
   "linker_set_key" : "_ZTIN7android8internal7details17IsInstantiationOfIN4aidl7android10frameworks13cameraservice6device22PhysicalCameraSettingsENSt3__110shared_ptrEEE",
   "name" : "android::internal::details::IsInstantiationOf<aidl::android::frameworks::cameraservice::device::PhysicalCameraSettings, std::shared_ptr>",
   "referenced_type" : "_ZTIN7android8internal7details17IsInstantiationOfIN4aidl7android10frameworks13cameraservice6device22PhysicalCameraSettingsENSt3__110shared_ptrEEE",
   "self_type" : "_ZTIN7android8internal7details17IsInstantiationOfIN4aidl7android10frameworks13cameraservice6device22PhysicalCameraSettingsENSt3__110shared_ptrEEE",
   "size" : 1,
   "source_file" : "frameworks/native/libs/binder/ndk/include_cpp/android/binder_to_string.h",
   "template_args" :
   [
    "_ZTIN4aidl7android10frameworks13cameraservice6device22PhysicalCameraSettingsE"
   ]
  },
  {
   "alignment" : 1,
   "base_specifiers" :
   [
    {
     "referenced_type" : "_ZTINSt3__117integral_constantIbLb0EEE"
    }
   ],
   "linker_set_key" : "_ZTIN7android8internal7details17IsInstantiationOfIN4aidl7android10frameworks13cameraservice6device22PhysicalCameraSettingsENSt3__110unique_ptrEEE",
   "name" : "android::internal::details::IsInstantiationOf<aidl::android::frameworks::cameraservice::device::PhysicalCameraSettings, std::unique_ptr>",
   "referenced_type" : "_ZTIN7android8internal7details17IsInstantiationOfIN4aidl7android10frameworks13cameraservice6device22PhysicalCameraSettingsENSt3__110unique_ptrEEE",
   "self_type" : "_ZTIN7android8internal7details17IsInstantiationOfIN4aidl7android10frameworks13cameraservice6device22PhysicalCameraSettingsENSt3__110unique_ptrEEE",
   "size" : 1,
   "source_file" : "frameworks/native/libs/binder/ndk/include_cpp/android/binder_to_string.h",
   "template_args" :
   [
    "_ZTIN4aidl7android10frameworks13cameraservice6device22PhysicalCameraSettingsE"
   ]
  },
  {
   "alignment" : 1,
   "base_specifiers" :
   [
    {
     "referenced_type" : "_ZTINSt3__117integral_constantIbLb0EEE"
    }
   ],
   "linker_set_key" : "_ZTIN7android8internal7details17IsInstantiationOfIN4aidl7android10frameworks13cameraservice6device22PhysicalCameraSettingsENSt3__18optionalEEE",
   "name" : "android::internal::details::IsInstantiationOf<aidl::android::frameworks::cameraservice::device::PhysicalCameraSettings, std::optional>",
   "referenced_type" : "_ZTIN7android8internal7details17IsInstantiationOfIN4aidl7android10frameworks13cameraservice6device22PhysicalCameraSettingsENSt3__18optionalEEE",
   "self_type" : "_ZTIN7android8internal7details17IsInstantiationOfIN4aidl7android10frameworks13cameraservice6device22PhysicalCameraSettingsENSt3__18optionalEEE",
   "size" : 1,
   "source_file" : "frameworks/native/libs/binder/ndk/include_cpp/android/binder_to_string.h",
   "template_args" :
   [
    "_ZTIN4aidl7android10frameworks13cameraservice6device22PhysicalCameraSettingsE"
   ]
  },
  {
   "alignment" : 1,
   "base_specifiers" :
   [
    {
     "referenced_type" : "_ZTINSt3__117integral_constantIbLb0EEE"
    }
   ],
   "linker_set_key" : "_ZTIN7android8internal7details17IsInstantiationOfIN4aidl7android10frameworks13cameraservice6device23StreamConfigurationModeENSt3__110shared_ptrEEE",
   "name" : "android::internal::details::IsInstantiationOf<aidl::android::frameworks::cameraservice::device::StreamConfigurationMode, std::shared_ptr>",
   "referenced_type" : "_ZTIN7android8internal7details17IsInstantiationOfIN4aidl7android10frameworks13cameraservice6device23StreamConfigurationModeENSt3__110shared_ptrEEE",
   "self_type" : "_ZTIN7android8internal7details17IsInstantiationOfIN4aidl7android10frameworks13cameraservice6device23StreamConfigurationModeENSt3__110shared_ptrEEE",
   "size" : 1,
   "source_file" : "frameworks/native/libs/binder/ndk/include_cpp/android/binder_to_string.h",
   "template_args" :
   [
    "_ZTIN4aidl7android10frameworks13cameraservice6device23StreamConfigurationModeE"
   ]
  },
  {
   "alignment" : 1,
   "base_specifiers" :
   [
    {
     "referenced_type" : "_ZTINSt3__117integral_constantIbLb0EEE"
    }
   ],
   "linker_set_key" : "_ZTIN7android8internal7details17IsInstantiationOfIN4aidl7android10frameworks13cameraservice6device23StreamConfigurationModeENSt3__110unique_ptrEEE",
   "name" : "android::internal::details::IsInstantiationOf<aidl::android::frameworks::cameraservice::device::StreamConfigurationMode, std::unique_ptr>",
   "referenced_type" : "_ZTIN7android8internal7details17IsInstantiationOfIN4aidl7android10frameworks13cameraservice6device23StreamConfigurationModeENSt3__110unique_ptrEEE",
   "self_type" : "_ZTIN7android8internal7details17IsInstantiationOfIN4aidl7android10frameworks13cameraservice6device23StreamConfigurationModeENSt3__110unique_ptrEEE",
   "size" : 1,
   "source_file" : "frameworks/native/libs/binder/ndk/include_cpp/android/binder_to_string.h",
   "template_args" :
   [
    "_ZTIN4aidl7android10frameworks13cameraservice6device23StreamConfigurationModeE"
   ]
  },
  {
   "alignment" : 1,
   "base_specifiers" :
   [
    {
     "referenced_type" : "_ZTINSt3__117integral_constantIbLb0EEE"
    }
   ],
   "linker_set_key" : "_ZTIN7android8internal7details17IsInstantiationOfIN4aidl7android10frameworks13cameraservice6device23StreamConfigurationModeENSt3__18optionalEEE",
   "name" : "android::internal::details::IsInstantiationOf<aidl::android::frameworks::cameraservice::device::StreamConfigurationMode, std::optional>",
   "referenced_type" : "_ZTIN7android8internal7details17IsInstantiationOfIN4aidl7android10frameworks13cameraservice6device23StreamConfigurationModeENSt3__18optionalEEE",
   "self_type" : "_ZTIN7android8internal7details17IsInstantiationOfIN4aidl7android10frameworks13cameraservice6device23StreamConfigurationModeENSt3__18optionalEEE",
   "size" : 1,
   "source_file" : "frameworks/native/libs/binder/ndk/include_cpp/android/binder_to_string.h",
   "template_args" :
   [
    "_ZTIN4aidl7android10frameworks13cameraservice6device23StreamConfigurationModeE"
   ]
  },
  {
   "alignment" : 1,
   "base_specifiers" :
   [
    {
     "referenced_type" : "_ZTINSt3__117integral_constantIbLb0EEE"
    }
   ],
   "linker_set_key" : "_ZTIN7android8internal7details17IsInstantiationOfIN4aidl7android8hardware6common12NativeHandleENSt3__110shared_ptrEEE",
   "name" : "android::internal::details::IsInstantiationOf<aidl::android::hardware::common::NativeHandle, std::shared_ptr>",
   "referenced_type" : "_ZTIN7android8internal7details17IsInstantiationOfIN4aidl7android8hardware6common12NativeHandleENSt3__110shared_ptrEEE",
   "self_type" : "_ZTIN7android8internal7details17IsInstantiationOfIN4aidl7android8hardware6common12NativeHandleENSt3__110shared_ptrEEE",
   "size" : 1,
   "source_file" : "frameworks/native/libs/binder/ndk/include_cpp/android/binder_to_string.h",
   "template_args" :
   [
    "_ZTIN4aidl7android8hardware6common12NativeHandleE"
   ]
  },
  {
   "alignment" : 1,
   "base_specifiers" :
   [
    {
     "referenced_type" : "_ZTINSt3__117integral_constantIbLb0EEE"
    }
   ],
   "linker_set_key" : "_ZTIN7android8internal7details17IsInstantiationOfIN4aidl7android8hardware6common12NativeHandleENSt3__110unique_ptrEEE",
   "name" : "android::internal::details::IsInstantiationOf<aidl::android::hardware::common::NativeHandle, std::unique_ptr>",
   "referenced_type" : "_ZTIN7android8internal7details17IsInstantiationOfIN4aidl7android8hardware6common12NativeHandleENSt3__110unique_ptrEEE",
   "self_type" : "_ZTIN7android8internal7details17IsInstantiationOfIN4aidl7android8hardware6common12NativeHandleENSt3__110unique_ptrEEE",
   "size" : 1,
   "source_file" : "frameworks/native/libs/binder/ndk/include_cpp/android/binder_to_string.h",
   "template_args" :
   [
    "_ZTIN4aidl7android8hardware6common12NativeHandleE"
   ]
  },
  {
   "alignment" : 1,
   "base_specifiers" :
   [
    {
     "referenced_type" : "_ZTINSt3__117integral_constantIbLb0EEE"
    }
   ],
   "linker_set_key" : "_ZTIN7android8internal7details17IsInstantiationOfIN4aidl7android8hardware6common12NativeHandleENSt3__18optionalEEE",
   "name" : "android::internal::details::IsInstantiationOf<aidl::android::hardware::common::NativeHandle, std::optional>",
   "referenced_type" : "_ZTIN7android8internal7details17IsInstantiationOfIN4aidl7android8hardware6common12NativeHandleENSt3__18optionalEEE",
   "self_type" : "_ZTIN7android8internal7details17IsInstantiationOfIN4aidl7android8hardware6common12NativeHandleENSt3__18optionalEEE",
   "size" : 1,
   "source_file" : "frameworks/native/libs/binder/ndk/include_cpp/android/binder_to_string.h",
   "template_args" :
   [
    "_ZTIN4aidl7android8hardware6common12NativeHandleE"
   ]
  },
  {
   "alignment" : 1,
   "base_specifiers" :
   [
    {
     "referenced_type" : "_ZTINSt3__117integral_constantIbLb0EEE"
    }
   ],
   "linker_set_key" : "_ZTIN7android8internal7details17IsInstantiationOfINSt3__16vectorIN3ndk20ScopedFileDescriptorENS3_9allocatorIS6_EEEENS3_10shared_ptrEEE",
   "name" : "android::internal::details::IsInstantiationOf<std::vector<ndk::ScopedFileDescriptor, std::allocator<ndk::ScopedFileDescriptor>>, std::shared_ptr>",
   "referenced_type" : "_ZTIN7android8internal7details17IsInstantiationOfINSt3__16vectorIN3ndk20ScopedFileDescriptorENS3_9allocatorIS6_EEEENS3_10shared_ptrEEE",
   "self_type" : "_ZTIN7android8internal7details17IsInstantiationOfINSt3__16vectorIN3ndk20ScopedFileDescriptorENS3_9allocatorIS6_EEEENS3_10shared_ptrEEE",
   "size" : 1,
   "source_file" : "frameworks/native/libs/binder/ndk/include_cpp/android/binder_to_string.h",
   "template_args" :
   [
    "_ZTINSt3__16vectorIN3ndk20ScopedFileDescriptorENS_9allocatorIS2_EEEE"
   ]
  },
  {
   "alignment" : 1,
   "base_specifiers" :
   [
    {
     "referenced_type" : "_ZTINSt3__117integral_constantIbLb0EEE"
    }
   ],
   "linker_set_key" : "_ZTIN7android8internal7details17IsInstantiationOfINSt3__16vectorIN3ndk20ScopedFileDescriptorENS3_9allocatorIS6_EEEENS3_10unique_ptrEEE",
   "name" : "android::internal::details::IsInstantiationOf<std::vector<ndk::ScopedFileDescriptor, std::allocator<ndk::ScopedFileDescriptor>>, std::unique_ptr>",
   "referenced_type" : "_ZTIN7android8internal7details17IsInstantiationOfINSt3__16vectorIN3ndk20ScopedFileDescriptorENS3_9allocatorIS6_EEEENS3_10unique_ptrEEE",
   "self_type" : "_ZTIN7android8internal7details17IsInstantiationOfINSt3__16vectorIN3ndk20ScopedFileDescriptorENS3_9allocatorIS6_EEEENS3_10unique_ptrEEE",
   "size" : 1,
   "source_file" : "frameworks/native/libs/binder/ndk/include_cpp/android/binder_to_string.h",
   "template_args" :
   [
    "_ZTINSt3__16vectorIN3ndk20ScopedFileDescriptorENS_9allocatorIS2_EEEE"
   ]
  },
  {
   "alignment" : 1,
   "base_specifiers" :
   [
    {
     "referenced_type" : "_ZTINSt3__117integral_constantIbLb0EEE"
    }
   ],
   "linker_set_key" : "_ZTIN7android8internal7details17IsInstantiationOfINSt3__16vectorIN3ndk20ScopedFileDescriptorENS3_9allocatorIS6_EEEENS3_8optionalEEE",
   "name" : "android::internal::details::IsInstantiationOf<std::vector<ndk::ScopedFileDescriptor, std::allocator<ndk::ScopedFileDescriptor>>, std::optional>",
   "referenced_type" : "_ZTIN7android8internal7details17IsInstantiationOfINSt3__16vectorIN3ndk20ScopedFileDescriptorENS3_9allocatorIS6_EEEENS3_8optionalEEE",
   "self_type" : "_ZTIN7android8internal7details17IsInstantiationOfINSt3__16vectorIN3ndk20ScopedFileDescriptorENS3_9allocatorIS6_EEEENS3_8optionalEEE",
   "size" : 1,
   "source_file" : "frameworks/native/libs/binder/ndk/include_cpp/android/binder_to_string.h",
   "template_args" :
   [
    "_ZTINSt3__16vectorIN3ndk20ScopedFileDescriptorENS_9allocatorIS2_EEEE"
   ]
  },
  {
   "alignment" : 1,
   "base_specifiers" :
   [
    {
     "referenced_type" : "_ZTINSt3__117integral_constantIbLb0EEE"
    }
   ],
   "linker_set_key" : "_ZTIN7android8internal7details17IsInstantiationOfINSt3__16vectorIN4aidl7android10frameworks13cameraservice6device17StreamAndWindowIdENS3_9allocatorISA_EEEENS3_10shared_ptrEEE",
   "name" : "android::internal::details::IsInstantiationOf<std::vector<aidl::android::frameworks::cameraservice::device::StreamAndWindowId, std::allocator<aidl::android::frameworks::cameraservice::device::StreamAndWindowId>>, std::shared_ptr>",
   "referenced_type" : "_ZTIN7android8internal7details17IsInstantiationOfINSt3__16vectorIN4aidl7android10frameworks13cameraservice6device17StreamAndWindowIdENS3_9allocatorISA_EEEENS3_10shared_ptrEEE",
   "self_type" : "_ZTIN7android8internal7details17IsInstantiationOfINSt3__16vectorIN4aidl7android10frameworks13cameraservice6device17StreamAndWindowIdENS3_9allocatorISA_EEEENS3_10shared_ptrEEE",
   "size" : 1,
   "source_file" : "frameworks/native/libs/binder/ndk/include_cpp/android/binder_to_string.h",
   "template_args" :
   [
    "_ZTINSt3__16vectorIN4aidl7android10frameworks13cameraservice6device17StreamAndWindowIdENS_9allocatorIS6_EEEE"
   ]
  },
  {
   "alignment" : 1,
   "base_specifiers" :
   [
    {
     "referenced_type" : "_ZTINSt3__117integral_constantIbLb0EEE"
    }
   ],
   "linker_set_key" : "_ZTIN7android8internal7details17IsInstantiationOfINSt3__16vectorIN4aidl7android10frameworks13cameraservice6device17StreamAndWindowIdENS3_9allocatorISA_EEEENS3_10unique_ptrEEE",
   "name" : "android::internal::details::IsInstantiationOf<std::vector<aidl::android::frameworks::cameraservice::device::StreamAndWindowId, std::allocator<aidl::android::frameworks::cameraservice::device::StreamAndWindowId>>, std::unique_ptr>",
   "referenced_type" : "_ZTIN7android8internal7details17IsInstantiationOfINSt3__16vectorIN4aidl7android10frameworks13cameraservice6device17StreamAndWindowIdENS3_9allocatorISA_EEEENS3_10unique_ptrEEE",
   "self_type" : "_ZTIN7android8internal7details17IsInstantiationOfINSt3__16vectorIN4aidl7android10frameworks13cameraservice6device17StreamAndWindowIdENS3_9allocatorISA_EEEENS3_10unique_ptrEEE",
   "size" : 1,
   "source_file" : "frameworks/native/libs/binder/ndk/include_cpp/android/binder_to_string.h",
   "template_args" :
   [
    "_ZTINSt3__16vectorIN4aidl7android10frameworks13cameraservice6device17StreamAndWindowIdENS_9allocatorIS6_EEEE"
   ]
  },
  {
   "alignment" : 1,
   "base_specifiers" :
   [
    {
     "referenced_type" : "_ZTINSt3__117integral_constantIbLb0EEE"
    }
   ],
   "linker_set_key" : "_ZTIN7android8internal7details17IsInstantiationOfINSt3__16vectorIN4aidl7android10frameworks13cameraservice6device17StreamAndWindowIdENS3_9allocatorISA_EEEENS3_8optionalEEE",
   "name" : "android::internal::details::IsInstantiationOf<std::vector<aidl::android::frameworks::cameraservice::device::StreamAndWindowId, std::allocator<aidl::android::frameworks::cameraservice::device::StreamAndWindowId>>, std::optional>",
   "referenced_type" : "_ZTIN7android8internal7details17IsInstantiationOfINSt3__16vectorIN4aidl7android10frameworks13cameraservice6device17StreamAndWindowIdENS3_9allocatorISA_EEEENS3_8optionalEEE",
   "self_type" : "_ZTIN7android8internal7details17IsInstantiationOfINSt3__16vectorIN4aidl7android10frameworks13cameraservice6device17StreamAndWindowIdENS3_9allocatorISA_EEEENS3_8optionalEEE",
   "size" : 1,
   "source_file" : "frameworks/native/libs/binder/ndk/include_cpp/android/binder_to_string.h",
   "template_args" :
   [
    "_ZTINSt3__16vectorIN4aidl7android10frameworks13cameraservice6device17StreamAndWindowIdENS_9allocatorIS6_EEEE"
   ]
  },
  {
   "alignment" : 1,
   "base_specifiers" :
   [
    {
     "referenced_type" : "_ZTINSt3__117integral_constantIbLb0EEE"
    }
   ],
   "linker_set_key" : "_ZTIN7android8internal7details17IsInstantiationOfINSt3__16vectorIN4aidl7android10frameworks13cameraservice6device19OutputConfigurationENS3_9allocatorISA_EEEENS3_10shared_ptrEEE",
   "name" : "android::internal::details::IsInstantiationOf<std::vector<aidl::android::frameworks::cameraservice::device::OutputConfiguration, std::allocator<aidl::android::frameworks::cameraservice::device::OutputConfiguration>>, std::shared_ptr>",
   "referenced_type" : "_ZTIN7android8internal7details17IsInstantiationOfINSt3__16vectorIN4aidl7android10frameworks13cameraservice6device19OutputConfigurationENS3_9allocatorISA_EEEENS3_10shared_ptrEEE",
   "self_type" : "_ZTIN7android8internal7details17IsInstantiationOfINSt3__16vectorIN4aidl7android10frameworks13cameraservice6device19OutputConfigurationENS3_9allocatorISA_EEEENS3_10shared_ptrEEE",
   "size" : 1,
   "source_file" : "frameworks/native/libs/binder/ndk/include_cpp/android/binder_to_string.h",
   "template_args" :
   [
    "_ZTINSt3__16vectorIN4aidl7android10frameworks13cameraservice6device19OutputConfigurationENS_9allocatorIS6_EEEE"
   ]
  },
  {
   "alignment" : 1,
   "base_specifiers" :
   [
    {
     "referenced_type" : "_ZTINSt3__117integral_constantIbLb0EEE"
    }
   ],
   "linker_set_key" : "_ZTIN7android8internal7details17IsInstantiationOfINSt3__16vectorIN4aidl7android10frameworks13cameraservice6device19OutputConfigurationENS3_9allocatorISA_EEEENS3_10unique_ptrEEE",
   "name" : "android::internal::details::IsInstantiationOf<std::vector<aidl::android::frameworks::cameraservice::device::OutputConfiguration, std::allocator<aidl::android::frameworks::cameraservice::device::OutputConfiguration>>, std::unique_ptr>",
   "referenced_type" : "_ZTIN7android8internal7details17IsInstantiationOfINSt3__16vectorIN4aidl7android10frameworks13cameraservice6device19OutputConfigurationENS3_9allocatorISA_EEEENS3_10unique_ptrEEE",
   "self_type" : "_ZTIN7android8internal7details17IsInstantiationOfINSt3__16vectorIN4aidl7android10frameworks13cameraservice6device19OutputConfigurationENS3_9allocatorISA_EEEENS3_10unique_ptrEEE",
   "size" : 1,
   "source_file" : "frameworks/native/libs/binder/ndk/include_cpp/android/binder_to_string.h",
   "template_args" :
   [
    "_ZTINSt3__16vectorIN4aidl7android10frameworks13cameraservice6device19OutputConfigurationENS_9allocatorIS6_EEEE"
   ]
  },
  {
   "alignment" : 1,
   "base_specifiers" :
   [
    {
     "referenced_type" : "_ZTINSt3__117integral_constantIbLb0EEE"
    }
   ],
   "linker_set_key" : "_ZTIN7android8internal7details17IsInstantiationOfINSt3__16vectorIN4aidl7android10frameworks13cameraservice6device19OutputConfigurationENS3_9allocatorISA_EEEENS3_8optionalEEE",
   "name" : "android::internal::details::IsInstantiationOf<std::vector<aidl::android::frameworks::cameraservice::device::OutputConfiguration, std::allocator<aidl::android::frameworks::cameraservice::device::OutputConfiguration>>, std::optional>",
   "referenced_type" : "_ZTIN7android8internal7details17IsInstantiationOfINSt3__16vectorIN4aidl7android10frameworks13cameraservice6device19OutputConfigurationENS3_9allocatorISA_EEEENS3_8optionalEEE",
   "self_type" : "_ZTIN7android8internal7details17IsInstantiationOfINSt3__16vectorIN4aidl7android10frameworks13cameraservice6device19OutputConfigurationENS3_9allocatorISA_EEEENS3_8optionalEEE",
   "size" : 1,
   "source_file" : "frameworks/native/libs/binder/ndk/include_cpp/android/binder_to_string.h",
   "template_args" :
   [
    "_ZTINSt3__16vectorIN4aidl7android10frameworks13cameraservice6device19OutputConfigurationENS_9allocatorIS6_EEEE"
   ]
  },
  {
   "alignment" : 1,
   "base_specifiers" :
   [
    {
     "referenced_type" : "_ZTINSt3__117integral_constantIbLb0EEE"
    }
   ],
   "linker_set_key" : "_ZTIN7android8internal7details17IsInstantiationOfINSt3__16vectorIN4aidl7android10frameworks13cameraservice6device22PhysicalCameraSettingsENS3_9allocatorISA_EEEENS3_10shared_ptrEEE",
   "name" : "android::internal::details::IsInstantiationOf<std::vector<aidl::android::frameworks::cameraservice::device::PhysicalCameraSettings, std::allocator<aidl::android::frameworks::cameraservice::device::PhysicalCameraSettings>>, std::shared_ptr>",
   "referenced_type" : "_ZTIN7android8internal7details17IsInstantiationOfINSt3__16vectorIN4aidl7android10frameworks13cameraservice6device22PhysicalCameraSettingsENS3_9allocatorISA_EEEENS3_10shared_ptrEEE",
   "self_type" : "_ZTIN7android8internal7details17IsInstantiationOfINSt3__16vectorIN4aidl7android10frameworks13cameraservice6device22PhysicalCameraSettingsENS3_9allocatorISA_EEEENS3_10shared_ptrEEE",
   "size" : 1,
   "source_file" : "frameworks/native/libs/binder/ndk/include_cpp/android/binder_to_string.h",
   "template_args" :
   [
    "_ZTINSt3__16vectorIN4aidl7android10frameworks13cameraservice6device22PhysicalCameraSettingsENS_9allocatorIS6_EEEE"
   ]
  },
  {
   "alignment" : 1,
   "base_specifiers" :
   [
    {
     "referenced_type" : "_ZTINSt3__117integral_constantIbLb0EEE"
    }
   ],
   "linker_set_key" : "_ZTIN7android8internal7details17IsInstantiationOfINSt3__16vectorIN4aidl7android10frameworks13cameraservice6device22PhysicalCameraSettingsENS3_9allocatorISA_EEEENS3_10unique_ptrEEE",
   "name" : "android::internal::details::IsInstantiationOf<std::vector<aidl::android::frameworks::cameraservice::device::PhysicalCameraSettings, std::allocator<aidl::android::frameworks::cameraservice::device::PhysicalCameraSettings>>, std::unique_ptr>",
   "referenced_type" : "_ZTIN7android8internal7details17IsInstantiationOfINSt3__16vectorIN4aidl7android10frameworks13cameraservice6device22PhysicalCameraSettingsENS3_9allocatorISA_EEEENS3_10unique_ptrEEE",
   "self_type" : "_ZTIN7android8internal7details17IsInstantiationOfINSt3__16vectorIN4aidl7android10frameworks13cameraservice6device22PhysicalCameraSettingsENS3_9allocatorISA_EEEENS3_10unique_ptrEEE",
   "size" : 1,
   "source_file" : "frameworks/native/libs/binder/ndk/include_cpp/android/binder_to_string.h",
   "template_args" :
   [
    "_ZTINSt3__16vectorIN4aidl7android10frameworks13cameraservice6device22PhysicalCameraSettingsENS_9allocatorIS6_EEEE"
   ]
  },
  {
   "alignment" : 1,
   "base_specifiers" :
   [
    {
     "referenced_type" : "_ZTINSt3__117integral_constantIbLb0EEE"
    }
   ],
   "linker_set_key" : "_ZTIN7android8internal7details17IsInstantiationOfINSt3__16vectorIN4aidl7android10frameworks13cameraservice6device22PhysicalCameraSettingsENS3_9allocatorISA_EEEENS3_8optionalEEE",
   "name" : "android::internal::details::IsInstantiationOf<std::vector<aidl::android::frameworks::cameraservice::device::PhysicalCameraSettings, std::allocator<aidl::android::frameworks::cameraservice::device::PhysicalCameraSettings>>, std::optional>",
   "referenced_type" : "_ZTIN7android8internal7details17IsInstantiationOfINSt3__16vectorIN4aidl7android10frameworks13cameraservice6device22PhysicalCameraSettingsENS3_9allocatorISA_EEEENS3_8optionalEEE",
   "self_type" : "_ZTIN7android8internal7details17IsInstantiationOfINSt3__16vectorIN4aidl7android10frameworks13cameraservice6device22PhysicalCameraSettingsENS3_9allocatorISA_EEEENS3_8optionalEEE",
   "size" : 1,
   "source_file" : "frameworks/native/libs/binder/ndk/include_cpp/android/binder_to_string.h",
   "template_args" :
   [
    "_ZTINSt3__16vectorIN4aidl7android10frameworks13cameraservice6device22PhysicalCameraSettingsENS_9allocatorIS6_EEEE"
   ]
  },
  {
   "alignment" : 1,
   "base_specifiers" :
   [
    {
     "referenced_type" : "_ZTINSt3__117integral_constantIbLb0EEE"
    }
   ],
   "linker_set_key" : "_ZTIN7android8internal7details17IsInstantiationOfINSt3__16vectorIN4aidl7android8hardware6common12NativeHandleENS3_9allocatorIS9_EEEENS3_10shared_ptrEEE",
   "name" : "android::internal::details::IsInstantiationOf<std::vector<aidl::android::hardware::common::NativeHandle, std::allocator<aidl::android::hardware::common::NativeHandle>>, std::shared_ptr>",
   "referenced_type" : "_ZTIN7android8internal7details17IsInstantiationOfINSt3__16vectorIN4aidl7android8hardware6common12NativeHandleENS3_9allocatorIS9_EEEENS3_10shared_ptrEEE",
   "self_type" : "_ZTIN7android8internal7details17IsInstantiationOfINSt3__16vectorIN4aidl7android8hardware6common12NativeHandleENS3_9allocatorIS9_EEEENS3_10shared_ptrEEE",
   "size" : 1,
   "source_file" : "frameworks/native/libs/binder/ndk/include_cpp/android/binder_to_string.h",
   "template_args" :
   [
    "_ZTINSt3__16vectorIN4aidl7android8hardware6common12NativeHandleENS_9allocatorIS5_EEEE"
   ]
  },
  {
   "alignment" : 1,
   "base_specifiers" :
   [
    {
     "referenced_type" : "_ZTINSt3__117integral_constantIbLb0EEE"
    }
   ],
   "linker_set_key" : "_ZTIN7android8internal7details17IsInstantiationOfINSt3__16vectorIN4aidl7android8hardware6common12NativeHandleENS3_9allocatorIS9_EEEENS3_10unique_ptrEEE",
   "name" : "android::internal::details::IsInstantiationOf<std::vector<aidl::android::hardware::common::NativeHandle, std::allocator<aidl::android::hardware::common::NativeHandle>>, std::unique_ptr>",
   "referenced_type" : "_ZTIN7android8internal7details17IsInstantiationOfINSt3__16vectorIN4aidl7android8hardware6common12NativeHandleENS3_9allocatorIS9_EEEENS3_10unique_ptrEEE",
   "self_type" : "_ZTIN7android8internal7details17IsInstantiationOfINSt3__16vectorIN4aidl7android8hardware6common12NativeHandleENS3_9allocatorIS9_EEEENS3_10unique_ptrEEE",
   "size" : 1,
   "source_file" : "frameworks/native/libs/binder/ndk/include_cpp/android/binder_to_string.h",
   "template_args" :
   [
    "_ZTINSt3__16vectorIN4aidl7android8hardware6common12NativeHandleENS_9allocatorIS5_EEEE"
   ]
  },
  {
   "alignment" : 1,
   "base_specifiers" :
   [
    {
     "referenced_type" : "_ZTINSt3__117integral_constantIbLb0EEE"
    }
   ],
   "linker_set_key" : "_ZTIN7android8internal7details17IsInstantiationOfINSt3__16vectorIN4aidl7android8hardware6common12NativeHandleENS3_9allocatorIS9_EEEENS3_8optionalEEE",
   "name" : "android::internal::details::IsInstantiationOf<std::vector<aidl::android::hardware::common::NativeHandle, std::allocator<aidl::android::hardware::common::NativeHandle>>, std::optional>",
   "referenced_type" : "_ZTIN7android8internal7details17IsInstantiationOfINSt3__16vectorIN4aidl7android8hardware6common12NativeHandleENS3_9allocatorIS9_EEEENS3_8optionalEEE",
   "self_type" : "_ZTIN7android8internal7details17IsInstantiationOfINSt3__16vectorIN4aidl7android8hardware6common12NativeHandleENS3_9allocatorIS9_EEEENS3_8optionalEEE",
   "size" : 1,
   "source_file" : "frameworks/native/libs/binder/ndk/include_cpp/android/binder_to_string.h",
   "template_args" :
   [
    "_ZTINSt3__16vectorIN4aidl7android8hardware6common12NativeHandleENS_9allocatorIS5_EEEE"
   ]
  },
  {
   "alignment" : 1,
   "base_specifiers" :
   [
    {
     "referenced_type" : "_ZTINSt3__117integral_constantIbLb0EEE"
    }
   ],
   "linker_set_key" : "_ZTIN7android8internal7details17IsInstantiationOfINSt3__16vectorIhNS3_9allocatorIhEEEENS3_10shared_ptrEEE",
   "name" : "android::internal::details::IsInstantiationOf<std::vector<unsigned char, std::allocator<unsigned char>>, std::shared_ptr>",
   "referenced_type" : "_ZTIN7android8internal7details17IsInstantiationOfINSt3__16vectorIhNS3_9allocatorIhEEEENS3_10shared_ptrEEE",
   "self_type" : "_ZTIN7android8internal7details17IsInstantiationOfINSt3__16vectorIhNS3_9allocatorIhEEEENS3_10shared_ptrEEE",
   "size" : 1,
   "source_file" : "frameworks/native/libs/binder/ndk/include_cpp/android/binder_to_string.h",
   "template_args" :
   [
    "_ZTINSt3__16vectorIhNS_9allocatorIhEEEE"
   ]
  },
  {
   "alignment" : 1,
   "base_specifiers" :
   [
    {
     "referenced_type" : "_ZTINSt3__117integral_constantIbLb0EEE"
    }
   ],
   "linker_set_key" : "_ZTIN7android8internal7details17IsInstantiationOfINSt3__16vectorIhNS3_9allocatorIhEEEENS3_10unique_ptrEEE",
   "name" : "android::internal::details::IsInstantiationOf<std::vector<unsigned char, std::allocator<unsigned char>>, std::unique_ptr>",
   "referenced_type" : "_ZTIN7android8internal7details17IsInstantiationOfINSt3__16vectorIhNS3_9allocatorIhEEEENS3_10unique_ptrEEE",
   "self_type" : "_ZTIN7android8internal7details17IsInstantiationOfINSt3__16vectorIhNS3_9allocatorIhEEEENS3_10unique_ptrEEE",
   "size" : 1,
   "source_file" : "frameworks/native/libs/binder/ndk/include_cpp/android/binder_to_string.h",
   "template_args" :
   [
    "_ZTINSt3__16vectorIhNS_9allocatorIhEEEE"
   ]
  },
  {
   "alignment" : 1,
   "base_specifiers" :
   [
    {
     "referenced_type" : "_ZTINSt3__117integral_constantIbLb0EEE"
    }
   ],
   "linker_set_key" : "_ZTIN7android8internal7details17IsInstantiationOfINSt3__16vectorIhNS3_9allocatorIhEEEENS3_8optionalEEE",
   "name" : "android::internal::details::IsInstantiationOf<std::vector<unsigned char, std::allocator<unsigned char>>, std::optional>",
   "referenced_type" : "_ZTIN7android8internal7details17IsInstantiationOfINSt3__16vectorIhNS3_9allocatorIhEEEENS3_8optionalEEE",
   "self_type" : "_ZTIN7android8internal7details17IsInstantiationOfINSt3__16vectorIhNS3_9allocatorIhEEEENS3_8optionalEEE",
   "size" : 1,
   "source_file" : "frameworks/native/libs/binder/ndk/include_cpp/android/binder_to_string.h",
   "template_args" :
   [
    "_ZTINSt3__16vectorIhNS_9allocatorIhEEEE"
   ]
  },
  {
   "alignment" : 1,
   "base_specifiers" :
   [
    {
     "referenced_type" : "_ZTINSt3__117integral_constantIbLb0EEE"
    }
   ],
   "linker_set_key" : "_ZTIN7android8internal7details17IsInstantiationOfINSt3__16vectorIiNS3_9allocatorIiEEEENS3_10shared_ptrEEE",
   "name" : "android::internal::details::IsInstantiationOf<std::vector<int, std::allocator<int>>, std::shared_ptr>",
   "referenced_type" : "_ZTIN7android8internal7details17IsInstantiationOfINSt3__16vectorIiNS3_9allocatorIiEEEENS3_10shared_ptrEEE",
   "self_type" : "_ZTIN7android8internal7details17IsInstantiationOfINSt3__16vectorIiNS3_9allocatorIiEEEENS3_10shared_ptrEEE",
   "size" : 1,
   "source_file" : "frameworks/native/libs/binder/ndk/include_cpp/android/binder_to_string.h",
   "template_args" :
   [
    "_ZTINSt3__16vectorIiNS_9allocatorIiEEEE"
   ]
  },
  {
   "alignment" : 1,
   "base_specifiers" :
   [
    {
     "referenced_type" : "_ZTINSt3__117integral_constantIbLb0EEE"
    }
   ],
   "linker_set_key" : "_ZTIN7android8internal7details17IsInstantiationOfINSt3__16vectorIiNS3_9allocatorIiEEEENS3_10unique_ptrEEE",
   "name" : "android::internal::details::IsInstantiationOf<std::vector<int, std::allocator<int>>, std::unique_ptr>",
   "referenced_type" : "_ZTIN7android8internal7details17IsInstantiationOfINSt3__16vectorIiNS3_9allocatorIiEEEENS3_10unique_ptrEEE",
   "self_type" : "_ZTIN7android8internal7details17IsInstantiationOfINSt3__16vectorIiNS3_9allocatorIiEEEENS3_10unique_ptrEEE",
   "size" : 1,
   "source_file" : "frameworks/native/libs/binder/ndk/include_cpp/android/binder_to_string.h",
   "template_args" :
   [
    "_ZTINSt3__16vectorIiNS_9allocatorIiEEEE"
   ]
  },
  {
   "alignment" : 1,
   "base_specifiers" :
   [
    {
     "referenced_type" : "_ZTINSt3__117integral_constantIbLb0EEE"
    }
   ],
   "linker_set_key" : "_ZTIN7android8internal7details17IsInstantiationOfINSt3__16vectorIiNS3_9allocatorIiEEEENS3_8optionalEEE",
   "name" : "android::internal::details::IsInstantiationOf<std::vector<int, std::allocator<int>>, std::optional>",
   "referenced_type" : "_ZTIN7android8internal7details17IsInstantiationOfINSt3__16vectorIiNS3_9allocatorIiEEEENS3_8optionalEEE",
   "self_type" : "_ZTIN7android8internal7details17IsInstantiationOfINSt3__16vectorIiNS3_9allocatorIiEEEENS3_8optionalEEE",
   "size" : 1,
   "source_file" : "frameworks/native/libs/binder/ndk/include_cpp/android/binder_to_string.h",
   "template_args" :
   [
    "_ZTINSt3__16vectorIiNS_9allocatorIiEEEE"
   ]
  },
  {
   "alignment" : 1,
   "linker_set_key" : "_ZTIN7android8internal7details19HasToStringFunctionIN4aidl7android10frameworks13cameraservice6device19OutputConfiguration8RotationEEE",
   "name" : "android::internal::details::HasToStringFunction<aidl::android::frameworks::cameraservice::device::OutputConfiguration::Rotation>",
   "record_kind" : "class",
   "referenced_type" : "_ZTIN7android8internal7details19HasToStringFunctionIN4aidl7android10frameworks13cameraservice6device19OutputConfiguration8RotationEEE",
   "self_type" : "_ZTIN7android8internal7details19HasToStringFunctionIN4aidl7android10frameworks13cameraservice6device19OutputConfiguration8RotationEEE",
   "size" : 1,
   "source_file" : "frameworks/native/libs/binder/ndk/include_cpp/android/binder_to_string.h",
   "template_args" :
   [
    "_ZTIN4aidl7android10frameworks13cameraservice6device19OutputConfiguration8RotationE"
   ]
  },
  {
   "alignment" : 1,
   "linker_set_key" : "_ZTIN7android8internal7details19HasToStringFunctionIN4aidl7android10frameworks13cameraservice6device23StreamConfigurationModeEEE",
   "name" : "android::internal::details::HasToStringFunction<aidl::android::frameworks::cameraservice::device::StreamConfigurationMode>",
   "record_kind" : "class",
   "referenced_type" : "_ZTIN7android8internal7details19HasToStringFunctionIN4aidl7android10frameworks13cameraservice6device23StreamConfigurationModeEEE",
   "self_type" : "_ZTIN7android8internal7details19HasToStringFunctionIN4aidl7android10frameworks13cameraservice6device23StreamConfigurationModeEEE",
   "size" : 1,
   "source_file" : "frameworks/native/libs/binder/ndk/include_cpp/android/binder_to_string.h",
   "template_args" :
   [
    "_ZTIN4aidl7android10frameworks13cameraservice6device23StreamConfigurationModeE"
   ]
  },
  {
   "alignment" : 1,
   "linker_set_key" : "_ZTIN7android8internal7details19HasToStringFunctionINSt3__16vectorIN3ndk20ScopedFileDescriptorENS3_9allocatorIS6_EEEEEE",
   "name" : "android::internal::details::HasToStringFunction<std::vector<ndk::ScopedFileDescriptor, std::allocator<ndk::ScopedFileDescriptor>>>",
   "record_kind" : "class",
   "referenced_type" : "_ZTIN7android8internal7details19HasToStringFunctionINSt3__16vectorIN3ndk20ScopedFileDescriptorENS3_9allocatorIS6_EEEEEE",
   "self_type" : "_ZTIN7android8internal7details19HasToStringFunctionINSt3__16vectorIN3ndk20ScopedFileDescriptorENS3_9allocatorIS6_EEEEEE",
   "size" : 1,
   "source_file" : "frameworks/native/libs/binder/ndk/include_cpp/android/binder_to_string.h",
   "template_args" :
   [
    "_ZTINSt3__16vectorIN3ndk20ScopedFileDescriptorENS_9allocatorIS2_EEEE"
   ]
  },
  {
   "alignment" : 1,
   "linker_set_key" : "_ZTIN7android8internal7details19HasToStringFunctionINSt3__16vectorIN4aidl7android10frameworks13cameraservice6device17StreamAndWindowIdENS3_9allocatorISA_EEEEEE",
   "name" : "android::internal::details::HasToStringFunction<std::vector<aidl::android::frameworks::cameraservice::device::StreamAndWindowId, std::allocator<aidl::android::frameworks::cameraservice::device::StreamAndWindowId>>>",
   "record_kind" : "class",
   "referenced_type" : "_ZTIN7android8internal7details19HasToStringFunctionINSt3__16vectorIN4aidl7android10frameworks13cameraservice6device17StreamAndWindowIdENS3_9allocatorISA_EEEEEE",
   "self_type" : "_ZTIN7android8internal7details19HasToStringFunctionINSt3__16vectorIN4aidl7android10frameworks13cameraservice6device17StreamAndWindowIdENS3_9allocatorISA_EEEEEE",
   "size" : 1,
   "source_file" : "frameworks/native/libs/binder/ndk/include_cpp/android/binder_to_string.h",
   "template_args" :
   [
    "_ZTINSt3__16vectorIN4aidl7android10frameworks13cameraservice6device17StreamAndWindowIdENS_9allocatorIS6_EEEE"
   ]
  },
  {
   "alignment" : 1,
   "linker_set_key" : "_ZTIN7android8internal7details19HasToStringFunctionINSt3__16vectorIN4aidl7android10frameworks13cameraservice6device19OutputConfigurationENS3_9allocatorISA_EEEEEE",
   "name" : "android::internal::details::HasToStringFunction<std::vector<aidl::android::frameworks::cameraservice::device::OutputConfiguration, std::allocator<aidl::android::frameworks::cameraservice::device::OutputConfiguration>>>",
   "record_kind" : "class",
   "referenced_type" : "_ZTIN7android8internal7details19HasToStringFunctionINSt3__16vectorIN4aidl7android10frameworks13cameraservice6device19OutputConfigurationENS3_9allocatorISA_EEEEEE",
   "self_type" : "_ZTIN7android8internal7details19HasToStringFunctionINSt3__16vectorIN4aidl7android10frameworks13cameraservice6device19OutputConfigurationENS3_9allocatorISA_EEEEEE",
   "size" : 1,
   "source_file" : "frameworks/native/libs/binder/ndk/include_cpp/android/binder_to_string.h",
   "template_args" :
   [
    "_ZTINSt3__16vectorIN4aidl7android10frameworks13cameraservice6device19OutputConfigurationENS_9allocatorIS6_EEEE"
   ]
  },
  {
   "alignment" : 1,
   "linker_set_key" : "_ZTIN7android8internal7details19HasToStringFunctionINSt3__16vectorIN4aidl7android10frameworks13cameraservice6device22PhysicalCameraSettingsENS3_9allocatorISA_EEEEEE",
   "name" : "android::internal::details::HasToStringFunction<std::vector<aidl::android::frameworks::cameraservice::device::PhysicalCameraSettings, std::allocator<aidl::android::frameworks::cameraservice::device::PhysicalCameraSettings>>>",
   "record_kind" : "class",
   "referenced_type" : "_ZTIN7android8internal7details19HasToStringFunctionINSt3__16vectorIN4aidl7android10frameworks13cameraservice6device22PhysicalCameraSettingsENS3_9allocatorISA_EEEEEE",
   "self_type" : "_ZTIN7android8internal7details19HasToStringFunctionINSt3__16vectorIN4aidl7android10frameworks13cameraservice6device22PhysicalCameraSettingsENS3_9allocatorISA_EEEEEE",
   "size" : 1,
   "source_file" : "frameworks/native/libs/binder/ndk/include_cpp/android/binder_to_string.h",
   "template_args" :
   [
    "_ZTINSt3__16vectorIN4aidl7android10frameworks13cameraservice6device22PhysicalCameraSettingsENS_9allocatorIS6_EEEE"
   ]
  },
  {
   "alignment" : 1,
   "linker_set_key" : "_ZTIN7android8internal7details19HasToStringFunctionINSt3__16vectorIN4aidl7android8hardware6common12NativeHandleENS3_9allocatorIS9_EEEEEE",
   "name" : "android::internal::details::HasToStringFunction<std::vector<aidl::android::hardware::common::NativeHandle, std::allocator<aidl::android::hardware::common::NativeHandle>>>",
   "record_kind" : "class",
   "referenced_type" : "_ZTIN7android8internal7details19HasToStringFunctionINSt3__16vectorIN4aidl7android8hardware6common12NativeHandleENS3_9allocatorIS9_EEEEEE",
   "self_type" : "_ZTIN7android8internal7details19HasToStringFunctionINSt3__16vectorIN4aidl7android8hardware6common12NativeHandleENS3_9allocatorIS9_EEEEEE",
   "size" : 1,
   "source_file" : "frameworks/native/libs/binder/ndk/include_cpp/android/binder_to_string.h",
   "template_args" :
   [
    "_ZTINSt3__16vectorIN4aidl7android8hardware6common12NativeHandleENS_9allocatorIS5_EEEE"
   ]
  },
  {
   "alignment" : 1,
   "linker_set_key" : "_ZTIN7android8internal7details19HasToStringFunctionINSt3__16vectorIhNS3_9allocatorIhEEEEEE",
   "name" : "android::internal::details::HasToStringFunction<std::vector<unsigned char, std::allocator<unsigned char>>>",
   "record_kind" : "class",
   "referenced_type" : "_ZTIN7android8internal7details19HasToStringFunctionINSt3__16vectorIhNS3_9allocatorIhEEEEEE",
   "self_type" : "_ZTIN7android8internal7details19HasToStringFunctionINSt3__16vectorIhNS3_9allocatorIhEEEEEE",
   "size" : 1,
   "source_file" : "frameworks/native/libs/binder/ndk/include_cpp/android/binder_to_string.h",
   "template_args" :
   [
    "_ZTINSt3__16vectorIhNS_9allocatorIhEEEE"
   ]
  },
  {
   "alignment" : 1,
   "linker_set_key" : "_ZTIN7android8internal7details19HasToStringFunctionINSt3__16vectorIiNS3_9allocatorIiEEEEEE",
   "name" : "android::internal::details::HasToStringFunction<std::vector<int, std::allocator<int>>>",
   "record_kind" : "class",
   "referenced_type" : "_ZTIN7android8internal7details19HasToStringFunctionINSt3__16vectorIiNS3_9allocatorIiEEEEEE",
   "self_type" : "_ZTIN7android8internal7details19HasToStringFunctionINSt3__16vectorIiNS3_9allocatorIiEEEEEE",
   "size" : 1,
   "source_file" : "frameworks/native/libs/binder/ndk/include_cpp/android/binder_to_string.h",
   "template_args" :
   [
    "_ZTINSt3__16vectorIiNS_9allocatorIiEEEE"
   ]
  }
 ],
 "rvalue_reference_types" :
 [
  {
   "alignment" : 4,
   "linker_set_key" : "_ZTION3ndk13ScopedAParcelE",
   "name" : "ndk::ScopedAParcel &&",
   "referenced_type" : "_ZTIN3ndk13ScopedAParcelE",
   "self_type" : "_ZTION3ndk13ScopedAParcelE",
   "size" : 4,
   "source_file" : "frameworks/native/libs/binder/ndk/include_cpp/android/binder_auto_utils.h"
  },
  {
   "alignment" : 4,
   "linker_set_key" : "_ZTION3ndk13ScopedAStatusE",
   "name" : "ndk::ScopedAStatus &&",
   "referenced_type" : "_ZTIN3ndk13ScopedAStatusE",
   "self_type" : "_ZTION3ndk13ScopedAStatusE",
   "size" : 4,
   "source_file" : "frameworks/native/libs/binder/ndk/include_cpp/android/binder_auto_utils.h"
  },
  {
   "alignment" : 4,
   "linker_set_key" : "_ZTION3ndk17AParcelableHolderE",
   "name" : "ndk::AParcelableHolder &&",
   "referenced_type" : "_ZTIN3ndk17AParcelableHolderE",
   "self_type" : "_ZTION3ndk17AParcelableHolderE",
   "size" : 4,
   "source_file" : "frameworks/native/libs/binder/ndk/include_cpp/android/binder_parcelable_utils.h"
  },
  {
   "alignment" : 4,
   "linker_set_key" : "_ZTION3ndk19ScopedAIBinder_WeakE",
   "name" : "ndk::ScopedAIBinder_Weak &&",
   "referenced_type" : "_ZTIN3ndk19ScopedAIBinder_WeakE",
   "self_type" : "_ZTION3ndk19ScopedAIBinder_WeakE",
   "size" : 4,
   "source_file" : "frameworks/native/libs/binder/ndk/include_cpp/android/binder_auto_utils.h"
  },
  {
   "alignment" : 4,
   "linker_set_key" : "_ZTION3ndk20ScopedFileDescriptorE",
   "name" : "ndk::ScopedFileDescriptor &&",
   "referenced_type" : "_ZTIN3ndk20ScopedFileDescriptorE",
   "self_type" : "_ZTION3ndk20ScopedFileDescriptorE",
   "size" : 4,
   "source_file" : "frameworks/native/libs/binder/ndk/include_cpp/android/binder_auto_utils.h"
  },
  {
   "alignment" : 4,
   "linker_set_key" : "_ZTION3ndk29ScopedAIBinder_DeathRecipientE",
   "name" : "ndk::ScopedAIBinder_DeathRecipient &&",
   "referenced_type" : "_ZTIN3ndk29ScopedAIBinder_DeathRecipientE",
   "self_type" : "_ZTION3ndk29ScopedAIBinder_DeathRecipientE",
   "size" : 4,
   "source_file" : "frameworks/native/libs/binder/ndk/include_cpp/android/binder_auto_utils.h"
  },
  {
   "alignment" : 4,
   "linker_set_key" : "_ZTION3ndk4impl15ScopedAResourceIP7AStatusXadL_Z14AStatus_deleteEELS3_0EEE",
   "name" : "ndk::impl::ScopedAResource<AStatus *, &AStatus_delete, nullptr> &&",
   "referenced_type" : "_ZTIN3ndk4impl15ScopedAResourceIP7AStatusXadL_Z14AStatus_deleteEELS3_0EEE",
   "self_type" : "_ZTION3ndk4impl15ScopedAResourceIP7AStatusXadL_Z14AStatus_deleteEELS3_0EEE",
   "size" : 4,
   "source_file" : "frameworks/native/libs/binder/ndk/include_cpp/android/binder_auto_utils.h"
  },
  {
   "alignment" : 4,
   "linker_set_key" : "_ZTION4aidl7android10frameworks13cameraservice6device14CameraMetadataE",
   "name" : "aidl::android::frameworks::cameraservice::device::CameraMetadata &&",
   "referenced_type" : "_ZTIN4aidl7android10frameworks13cameraservice6device14CameraMetadataE",
   "self_type" : "_ZTION4aidl7android10frameworks13cameraservice6device14CameraMetadataE",
   "size" : 4,
   "source_file" : "out/soong/.intermediates/frameworks/hardware/interfaces/cameraservice/device/aidl/android.frameworks.cameraservice.device-V1-ndk-source/gen/include/aidl/android/frameworks/cameraservice/device/CaptureMetadataInfo.h"
  }
 ]
}
