{
 "array_types" :
 [
  {
   "alignment" : 2,
   "linker_set_key" : "_ZTIA16_s",
   "name" : "short[16]",
   "referenced_type" : "_ZTIs",
   "self_type" : "_ZTIA16_s",
   "size" : 32,
   "source_file" : "external/libyuv/include/libyuv/row.h"
  },
  {
   "alignment" : 4,
   "linker_set_key" : "_ZTIA256_j",
   "name" : "unsigned int[256]",
   "referenced_type" : "_ZTIj",
   "self_type" : "_ZTIA256_j",
   "size" : 1024,
   "source_file" : "external/libyuv/include/libyuv/row.h"
  },
  {
   "alignment" : 1,
   "linker_set_key" : "_ZTIA32_h",
   "name" : "unsigned char[32]",
   "referenced_type" : "_ZTIh",
   "self_type" : "_ZTIA32_h",
   "size" : 32,
   "source_file" : "external/libyuv/include/libyuv/row.h"
  }
 ],
 "builtin_types" :
 [
  {
   "alignment" : 1,
   "is_integral" : true,
   "linker_set_key" : "_ZTIa",
   "name" : "signed char",
   "referenced_type" : "_ZTIa",
   "self_type" : "_ZTIa",
   "size" : 1
  },
  {
   "alignment" : 1,
   "is_integral" : true,
   "linker_set_key" : "_ZTIc",
   "name" : "char",
   "referenced_type" : "_ZTIc",
   "self_type" : "_ZTIc",
   "size" : 1
  },
  {
   "alignment" : 4,
   "linker_set_key" : "_ZTId",
   "name" : "double",
   "referenced_type" : "_ZTId",
   "self_type" : "_ZTId",
   "size" : 8
  },
  {
   "alignment" : 4,
   "linker_set_key" : "_ZTIf",
   "name" : "float",
   "referenced_type" : "_ZTIf",
   "self_type" : "_ZTIf",
   "size" : 4
  },
  {
   "alignment" : 1,
   "is_integral" : true,
   "is_unsigned" : true,
   "linker_set_key" : "_ZTIh",
   "name" : "unsigned char",
   "referenced_type" : "_ZTIh",
   "self_type" : "_ZTIh",
   "size" : 1
  },
  {
   "alignment" : 4,
   "is_integral" : true,
   "linker_set_key" : "_ZTIi",
   "name" : "int",
   "referenced_type" : "_ZTIi",
   "self_type" : "_ZTIi",
   "size" : 4
  },
  {
   "alignment" : 4,
   "is_integral" : true,
   "is_unsigned" : true,
   "linker_set_key" : "_ZTIj",
   "name" : "unsigned int",
   "referenced_type" : "_ZTIj",
   "self_type" : "_ZTIj",
   "size" : 4
  },
  {
   "alignment" : 2,
   "is_integral" : true,
   "linker_set_key" : "_ZTIs",
   "name" : "short",
   "referenced_type" : "_ZTIs",
   "self_type" : "_ZTIs",
   "size" : 2
  },
  {
   "alignment" : 2,
   "is_integral" : true,
   "is_unsigned" : true,
   "linker_set_key" : "_ZTIt",
   "name" : "unsigned short",
   "referenced_type" : "_ZTIt",
   "self_type" : "_ZTIt",
   "size" : 2
  },
  {
   "linker_set_key" : "_ZTIv",
   "name" : "void",
   "referenced_type" : "_ZTIv",
   "self_type" : "_ZTIv"
  },
  {
   "alignment" : 4,
   "is_integral" : true,
   "is_unsigned" : true,
   "linker_set_key" : "_ZTIy",
   "name" : "unsigned long long",
   "referenced_type" : "_ZTIy",
   "self_type" : "_ZTIy",
   "size" : 8
  }
 ],
 "elf_functions" :
 [
  {
   "name" : "AB64ToARGB"
  },
  {
   "name" : "AB64ToARGBRow_AVX2"
  },
  {
   "name" : "AB64ToARGBRow_Any_AVX2"
  },
  {
   "name" : "AB64ToARGBRow_Any_SSSE3"
  },
  {
   "name" : "AB64ToARGBRow_C"
  },
  {
   "name" : "AB64ToARGBRow_SSSE3"
  },
  {
   "name" : "ABGRToAR30"
  },
  {
   "name" : "ABGRToAR30Row_AVX2"
  },
  {
   "name" : "ABGRToAR30Row_Any_AVX2"
  },
  {
   "name" : "ABGRToAR30Row_Any_SSSE3"
  },
  {
   "name" : "ABGRToAR30Row_C"
  },
  {
   "name" : "ABGRToAR30Row_SSSE3"
  },
  {
   "name" : "ABGRToARGB"
  },
  {
   "name" : "ABGRToI420"
  },
  {
   "name" : "ABGRToJ400"
  },
  {
   "name" : "ABGRToJ420"
  },
  {
   "name" : "ABGRToJ422"
  },
  {
   "name" : "ABGRToNV12"
  },
  {
   "name" : "ABGRToNV21"
  },
  {
   "name" : "ABGRToUVJRow_AVX2"
  },
  {
   "name" : "ABGRToUVJRow_Any_AVX2"
  },
  {
   "name" : "ABGRToUVJRow_Any_SSSE3"
  },
  {
   "name" : "ABGRToUVJRow_C"
  },
  {
   "name" : "ABGRToUVJRow_SSSE3"
  },
  {
   "name" : "ABGRToUVRow_AVX2"
  },
  {
   "name" : "ABGRToUVRow_Any_AVX2"
  },
  {
   "name" : "ABGRToUVRow_Any_SSSE3"
  },
  {
   "name" : "ABGRToUVRow_C"
  },
  {
   "name" : "ABGRToUVRow_SSSE3"
  },
  {
   "name" : "ABGRToYJRow_AVX2"
  },
  {
   "name" : "ABGRToYJRow_Any_AVX2"
  },
  {
   "name" : "ABGRToYJRow_Any_SSSE3"
  },
  {
   "name" : "ABGRToYJRow_C"
  },
  {
   "name" : "ABGRToYJRow_SSSE3"
  },
  {
   "name" : "ABGRToYRow_AVX2"
  },
  {
   "name" : "ABGRToYRow_Any_AVX2"
  },
  {
   "name" : "ABGRToYRow_Any_SSSE3"
  },
  {
   "name" : "ABGRToYRow_C"
  },
  {
   "name" : "ABGRToYRow_SSSE3"
  },
  {
   "name" : "AR30ToAB30"
  },
  {
   "name" : "AR30ToAB30Row_C"
  },
  {
   "name" : "AR30ToABGR"
  },
  {
   "name" : "AR30ToABGRRow_C"
  },
  {
   "name" : "AR30ToARGB"
  },
  {
   "name" : "AR30ToARGBRow_C"
  },
  {
   "name" : "AR64Shuffle"
  },
  {
   "name" : "AR64ShuffleRow_C"
  },
  {
   "name" : "AR64ToAB64"
  },
  {
   "name" : "AR64ToARGB"
  },
  {
   "name" : "AR64ToARGBRow_AVX2"
  },
  {
   "name" : "AR64ToARGBRow_Any_AVX2"
  },
  {
   "name" : "AR64ToARGBRow_Any_SSSE3"
  },
  {
   "name" : "AR64ToARGBRow_C"
  },
  {
   "name" : "AR64ToARGBRow_SSSE3"
  },
  {
   "name" : "ARGB1555ToARGB"
  },
  {
   "name" : "ARGB1555ToARGBRow_Any_SSE2"
  },
  {
   "name" : "ARGB1555ToARGBRow_C"
  },
  {
   "name" : "ARGB1555ToARGBRow_SSE2"
  },
  {
   "name" : "ARGB1555ToI420"
  },
  {
   "name" : "ARGB1555ToUVRow_C"
  },
  {
   "name" : "ARGB1555ToYRow_C"
  },
  {
   "name" : "ARGB4444ToARGB"
  },
  {
   "name" : "ARGB4444ToARGBRow_Any_SSE2"
  },
  {
   "name" : "ARGB4444ToARGBRow_C"
  },
  {
   "name" : "ARGB4444ToARGBRow_SSE2"
  },
  {
   "name" : "ARGB4444ToI420"
  },
  {
   "name" : "ARGB4444ToUVRow_C"
  },
  {
   "name" : "ARGB4444ToYRow_C"
  },
  {
   "name" : "ARGBAdd"
  },
  {
   "name" : "ARGBAddRow_AVX2"
  },
  {
   "name" : "ARGBAddRow_Any_AVX2"
  },
  {
   "name" : "ARGBAddRow_Any_SSE2"
  },
  {
   "name" : "ARGBAddRow_C"
  },
  {
   "name" : "ARGBAddRow_SSE2"
  },
  {
   "name" : "ARGBAffineRow_C"
  },
  {
   "name" : "ARGBAffineRow_SSE2"
  },
  {
   "name" : "ARGBAttenuate"
  },
  {
   "name" : "ARGBAttenuateRow_AVX2"
  },
  {
   "name" : "ARGBAttenuateRow_Any_AVX2"
  },
  {
   "name" : "ARGBAttenuateRow_Any_SSSE3"
  },
  {
   "name" : "ARGBAttenuateRow_C"
  },
  {
   "name" : "ARGBAttenuateRow_SSSE3"
  },
  {
   "name" : "ARGBBlend"
  },
  {
   "name" : "ARGBBlendRow_C"
  },
  {
   "name" : "ARGBBlendRow_SSSE3"
  },
  {
   "name" : "ARGBBlur"
  },
  {
   "name" : "ARGBColorMatrix"
  },
  {
   "name" : "ARGBColorMatrixRow_C"
  },
  {
   "name" : "ARGBColorMatrixRow_SSSE3"
  },
  {
   "name" : "ARGBColorTable"
  },
  {
   "name" : "ARGBColorTableRow_C"
  },
  {
   "name" : "ARGBColorTableRow_X86"
  },
  {
   "name" : "ARGBComputeCumulativeSum"
  },
  {
   "name" : "ARGBCopy"
  },
  {
   "name" : "ARGBCopyAlpha"
  },
  {
   "name" : "ARGBCopyAlphaRow_AVX2"
  },
  {
   "name" : "ARGBCopyAlphaRow_Any_AVX2"
  },
  {
   "name" : "ARGBCopyAlphaRow_Any_SSE2"
  },
  {
   "name" : "ARGBCopyAlphaRow_C"
  },
  {
   "name" : "ARGBCopyAlphaRow_SSE2"
  },
  {
   "name" : "ARGBCopyYToAlpha"
  },
  {
   "name" : "ARGBCopyYToAlphaRow_AVX2"
  },
  {
   "name" : "ARGBCopyYToAlphaRow_Any_AVX2"
  },
  {
   "name" : "ARGBCopyYToAlphaRow_Any_SSE2"
  },
  {
   "name" : "ARGBCopyYToAlphaRow_C"
  },
  {
   "name" : "ARGBCopyYToAlphaRow_SSE2"
  },
  {
   "name" : "ARGBDetect"
  },
  {
   "name" : "ARGBExtractAlpha"
  },
  {
   "name" : "ARGBExtractAlphaRow_AVX2"
  },
  {
   "name" : "ARGBExtractAlphaRow_Any_AVX2"
  },
  {
   "name" : "ARGBExtractAlphaRow_Any_SSE2"
  },
  {
   "name" : "ARGBExtractAlphaRow_C"
  },
  {
   "name" : "ARGBExtractAlphaRow_SSE2"
  },
  {
   "name" : "ARGBGray"
  },
  {
   "name" : "ARGBGrayRow_C"
  },
  {
   "name" : "ARGBGrayRow_SSSE3"
  },
  {
   "name" : "ARGBGrayTo"
  },
  {
   "name" : "ARGBInterpolate"
  },
  {
   "name" : "ARGBLumaColorTable"
  },
  {
   "name" : "ARGBLumaColorTableRow_C"
  },
  {
   "name" : "ARGBLumaColorTableRow_SSSE3"
  },
  {
   "name" : "ARGBMirror"
  },
  {
   "name" : "ARGBMirrorRow_AVX2"
  },
  {
   "name" : "ARGBMirrorRow_Any_AVX2"
  },
  {
   "name" : "ARGBMirrorRow_Any_SSE2"
  },
  {
   "name" : "ARGBMirrorRow_C"
  },
  {
   "name" : "ARGBMirrorRow_SSE2"
  },
  {
   "name" : "ARGBMultiply"
  },
  {
   "name" : "ARGBMultiplyRow_AVX2"
  },
  {
   "name" : "ARGBMultiplyRow_Any_AVX2"
  },
  {
   "name" : "ARGBMultiplyRow_Any_SSE2"
  },
  {
   "name" : "ARGBMultiplyRow_C"
  },
  {
   "name" : "ARGBMultiplyRow_SSE2"
  },
  {
   "name" : "ARGBPolynomial"
  },
  {
   "name" : "ARGBPolynomialRow_AVX2"
  },
  {
   "name" : "ARGBPolynomialRow_C"
  },
  {
   "name" : "ARGBPolynomialRow_SSE2"
  },
  {
   "name" : "ARGBQuantize"
  },
  {
   "name" : "ARGBQuantizeRow_C"
  },
  {
   "name" : "ARGBQuantizeRow_SSE2"
  },
  {
   "name" : "ARGBRect"
  },
  {
   "name" : "ARGBRotate"
  },
  {
   "name" : "ARGBScale"
  },
  {
   "name" : "ARGBScaleClip"
  },
  {
   "name" : "ARGBSepia"
  },
  {
   "name" : "ARGBSepiaRow_C"
  },
  {
   "name" : "ARGBSepiaRow_SSSE3"
  },
  {
   "name" : "ARGBSetRow_C"
  },
  {
   "name" : "ARGBSetRow_X86"
  },
  {
   "name" : "ARGBShade"
  },
  {
   "name" : "ARGBShadeRow_C"
  },
  {
   "name" : "ARGBShadeRow_SSE2"
  },
  {
   "name" : "ARGBShuffle"
  },
  {
   "name" : "ARGBShuffleRow_AVX2"
  },
  {
   "name" : "ARGBShuffleRow_Any_AVX2"
  },
  {
   "name" : "ARGBShuffleRow_Any_SSSE3"
  },
  {
   "name" : "ARGBShuffleRow_C"
  },
  {
   "name" : "ARGBShuffleRow_SSSE3"
  },
  {
   "name" : "ARGBSobel"
  },
  {
   "name" : "ARGBSobelToPlane"
  },
  {
   "name" : "ARGBSobelXY"
  },
  {
   "name" : "ARGBSubtract"
  },
  {
   "name" : "ARGBSubtractRow_AVX2"
  },
  {
   "name" : "ARGBSubtractRow_Any_AVX2"
  },
  {
   "name" : "ARGBSubtractRow_Any_SSE2"
  },
  {
   "name" : "ARGBSubtractRow_C"
  },
  {
   "name" : "ARGBSubtractRow_SSE2"
  },
  {
   "name" : "ARGBToAB64"
  },
  {
   "name" : "ARGBToAB64Row_AVX2"
  },
  {
   "name" : "ARGBToAB64Row_Any_AVX2"
  },
  {
   "name" : "ARGBToAB64Row_Any_SSSE3"
  },
  {
   "name" : "ARGBToAB64Row_C"
  },
  {
   "name" : "ARGBToAB64Row_SSSE3"
  },
  {
   "name" : "ARGBToABGR"
  },
  {
   "name" : "ARGBToAR30"
  },
  {
   "name" : "ARGBToAR30Row_AVX2"
  },
  {
   "name" : "ARGBToAR30Row_Any_AVX2"
  },
  {
   "name" : "ARGBToAR30Row_Any_SSSE3"
  },
  {
   "name" : "ARGBToAR30Row_C"
  },
  {
   "name" : "ARGBToAR30Row_SSSE3"
  },
  {
   "name" : "ARGBToAR64"
  },
  {
   "name" : "ARGBToAR64Row_AVX2"
  },
  {
   "name" : "ARGBToAR64Row_Any_AVX2"
  },
  {
   "name" : "ARGBToAR64Row_Any_SSSE3"
  },
  {
   "name" : "ARGBToAR64Row_C"
  },
  {
   "name" : "ARGBToAR64Row_SSSE3"
  },
  {
   "name" : "ARGBToARGB1555"
  },
  {
   "name" : "ARGBToARGB1555Row_Any_SSE2"
  },
  {
   "name" : "ARGBToARGB1555Row_C"
  },
  {
   "name" : "ARGBToARGB1555Row_SSE2"
  },
  {
   "name" : "ARGBToARGB4444"
  },
  {
   "name" : "ARGBToARGB4444Row_Any_SSE2"
  },
  {
   "name" : "ARGBToARGB4444Row_C"
  },
  {
   "name" : "ARGBToARGB4444Row_SSE2"
  },
  {
   "name" : "ARGBToBGRA"
  },
  {
   "name" : "ARGBToI400"
  },
  {
   "name" : "ARGBToI420"
  },
  {
   "name" : "ARGBToI420Alpha"
  },
  {
   "name" : "ARGBToI422"
  },
  {
   "name" : "ARGBToI444"
  },
  {
   "name" : "ARGBToJ400"
  },
  {
   "name" : "ARGBToJ420"
  },
  {
   "name" : "ARGBToJ422"
  },
  {
   "name" : "ARGBToNV12"
  },
  {
   "name" : "ARGBToNV21"
  },
  {
   "name" : "ARGBToRAW"
  },
  {
   "name" : "ARGBToRAWRow_AVX2"
  },
  {
   "name" : "ARGBToRAWRow_Any_AVX2"
  },
  {
   "name" : "ARGBToRAWRow_Any_SSSE3"
  },
  {
   "name" : "ARGBToRAWRow_C"
  },
  {
   "name" : "ARGBToRAWRow_SSSE3"
  },
  {
   "name" : "ARGBToRGB24"
  },
  {
   "name" : "ARGBToRGB24Row_AVX2"
  },
  {
   "name" : "ARGBToRGB24Row_AVX512VBMI"
  },
  {
   "name" : "ARGBToRGB24Row_Any_AVX2"
  },
  {
   "name" : "ARGBToRGB24Row_Any_AVX512VBMI"
  },
  {
   "name" : "ARGBToRGB24Row_Any_SSSE3"
  },
  {
   "name" : "ARGBToRGB24Row_C"
  },
  {
   "name" : "ARGBToRGB24Row_SSSE3"
  },
  {
   "name" : "ARGBToRGB565"
  },
  {
   "name" : "ARGBToRGB565Dither"
  },
  {
   "name" : "ARGBToRGB565DitherRow_AVX2"
  },
  {
   "name" : "ARGBToRGB565DitherRow_Any_AVX2"
  },
  {
   "name" : "ARGBToRGB565DitherRow_Any_SSE2"
  },
  {
   "name" : "ARGBToRGB565DitherRow_C"
  },
  {
   "name" : "ARGBToRGB565DitherRow_SSE2"
  },
  {
   "name" : "ARGBToRGB565Row_Any_SSE2"
  },
  {
   "name" : "ARGBToRGB565Row_C"
  },
  {
   "name" : "ARGBToRGB565Row_SSE2"
  },
  {
   "name" : "ARGBToRGBA"
  },
  {
   "name" : "ARGBToUV444Row_Any_SSSE3"
  },
  {
   "name" : "ARGBToUV444Row_C"
  },
  {
   "name" : "ARGBToUV444Row_SSSE3"
  },
  {
   "name" : "ARGBToUVJRow_AVX2"
  },
  {
   "name" : "ARGBToUVJRow_Any_AVX2"
  },
  {
   "name" : "ARGBToUVJRow_Any_SSSE3"
  },
  {
   "name" : "ARGBToUVJRow_C"
  },
  {
   "name" : "ARGBToUVJRow_SSSE3"
  },
  {
   "name" : "ARGBToUVRow_AVX2"
  },
  {
   "name" : "ARGBToUVRow_Any_AVX2"
  },
  {
   "name" : "ARGBToUVRow_Any_SSSE3"
  },
  {
   "name" : "ARGBToUVRow_C"
  },
  {
   "name" : "ARGBToUVRow_SSSE3"
  },
  {
   "name" : "ARGBToUYVY"
  },
  {
   "name" : "ARGBToYJRow_AVX2"
  },
  {
   "name" : "ARGBToYJRow_Any_AVX2"
  },
  {
   "name" : "ARGBToYJRow_Any_SSSE3"
  },
  {
   "name" : "ARGBToYJRow_C"
  },
  {
   "name" : "ARGBToYJRow_SSSE3"
  },
  {
   "name" : "ARGBToYRow_AVX2"
  },
  {
   "name" : "ARGBToYRow_Any_AVX2"
  },
  {
   "name" : "ARGBToYRow_Any_SSSE3"
  },
  {
   "name" : "ARGBToYRow_C"
  },
  {
   "name" : "ARGBToYRow_SSSE3"
  },
  {
   "name" : "ARGBToYUY2"
  },
  {
   "name" : "ARGBUnattenuate"
  },
  {
   "name" : "ARGBUnattenuateRow_AVX2"
  },
  {
   "name" : "ARGBUnattenuateRow_Any_AVX2"
  },
  {
   "name" : "ARGBUnattenuateRow_Any_SSE2"
  },
  {
   "name" : "ARGBUnattenuateRow_C"
  },
  {
   "name" : "ARGBUnattenuateRow_SSE2"
  },
  {
   "name" : "AYUVToNV12"
  },
  {
   "name" : "AYUVToNV21"
  },
  {
   "name" : "AYUVToUVRow_C"
  },
  {
   "name" : "AYUVToVURow_C"
  },
  {
   "name" : "AYUVToYRow_C"
  },
  {
   "name" : "Android420ToABGR"
  },
  {
   "name" : "Android420ToARGB"
  },
  {
   "name" : "Android420ToARGBMatrix"
  },
  {
   "name" : "Android420ToI420"
  },
  {
   "name" : "Android420ToI420Rotate"
  },
  {
   "name" : "ArmCpuCaps"
  },
  {
   "name" : "BGRAToARGB"
  },
  {
   "name" : "BGRAToI420"
  },
  {
   "name" : "BGRAToUVRow_Any_SSSE3"
  },
  {
   "name" : "BGRAToUVRow_C"
  },
  {
   "name" : "BGRAToUVRow_SSSE3"
  },
  {
   "name" : "BGRAToYRow_Any_SSSE3"
  },
  {
   "name" : "BGRAToYRow_C"
  },
  {
   "name" : "BGRAToYRow_SSSE3"
  },
  {
   "name" : "BlendPlane"
  },
  {
   "name" : "BlendPlaneRow_AVX2"
  },
  {
   "name" : "BlendPlaneRow_Any_AVX2"
  },
  {
   "name" : "BlendPlaneRow_Any_SSSE3"
  },
  {
   "name" : "BlendPlaneRow_C"
  },
  {
   "name" : "BlendPlaneRow_SSSE3"
  },
  {
   "name" : "ByteToFloat"
  },
  {
   "name" : "ByteToFloatRow_C"
  },
  {
   "name" : "CalcFramePsnr"
  },
  {
   "name" : "CalcFrameSsim"
  },
  {
   "name" : "CanonicalFourCC"
  },
  {
   "name" : "ClampFloatToZero_SSE2"
  },
  {
   "name" : "ComputeCumulativeSumRow_C"
  },
  {
   "name" : "ComputeCumulativeSumRow_SSE2"
  },
  {
   "name" : "ComputeHammingDistance"
  },
  {
   "name" : "ComputeSumSquareError"
  },
  {
   "name" : "ComputeSumSquareErrorPlane"
  },
  {
   "name" : "Convert16To8Plane"
  },
  {
   "name" : "Convert16To8Row_AVX2"
  },
  {
   "name" : "Convert16To8Row_Any_AVX2"
  },
  {
   "name" : "Convert16To8Row_Any_SSSE3"
  },
  {
   "name" : "Convert16To8Row_C"
  },
  {
   "name" : "Convert16To8Row_SSSE3"
  },
  {
   "name" : "Convert8To16Plane"
  },
  {
   "name" : "Convert8To16Row_AVX2"
  },
  {
   "name" : "Convert8To16Row_Any_AVX2"
  },
  {
   "name" : "Convert8To16Row_Any_SSE2"
  },
  {
   "name" : "Convert8To16Row_C"
  },
  {
   "name" : "Convert8To16Row_SSE2"
  },
  {
   "name" : "ConvertFromI420"
  },
  {
   "name" : "ConvertToARGB"
  },
  {
   "name" : "ConvertToI420"
  },
  {
   "name" : "ConvertToLSBPlane_16"
  },
  {
   "name" : "ConvertToMSBPlane_16"
  },
  {
   "name" : "CopyPlane"
  },
  {
   "name" : "CopyPlane_16"
  },
  {
   "name" : "CopyRow_16_C"
  },
  {
   "name" : "CopyRow_AVX"
  },
  {
   "name" : "CopyRow_Any_AVX"
  },
  {
   "name" : "CopyRow_Any_SSE2"
  },
  {
   "name" : "CopyRow_C"
  },
  {
   "name" : "CopyRow_ERMS"
  },
  {
   "name" : "CopyRow_SSE2"
  },
  {
   "name" : "CpuId"
  },
  {
   "name" : "CumulativeSumToAverageRow_C"
  },
  {
   "name" : "CumulativeSumToAverageRow_SSE2"
  },
  {
   "name" : "DetilePlane"
  },
  {
   "name" : "DetilePlane_16"
  },
  {
   "name" : "DetileRow_16_AVX"
  },
  {
   "name" : "DetileRow_16_Any_AVX"
  },
  {
   "name" : "DetileRow_16_Any_SSE2"
  },
  {
   "name" : "DetileRow_16_C"
  },
  {
   "name" : "DetileRow_16_SSE2"
  },
  {
   "name" : "DetileRow_Any_SSE2"
  },
  {
   "name" : "DetileRow_C"
  },
  {
   "name" : "DetileRow_SSE2"
  },
  {
   "name" : "DetileSplitUVPlane"
  },
  {
   "name" : "DetileSplitUVRow_Any_SSSE3"
  },
  {
   "name" : "DetileSplitUVRow_C"
  },
  {
   "name" : "DetileSplitUVRow_SSSE3"
  },
  {
   "name" : "DetileToYUY2"
  },
  {
   "name" : "DetileToYUY2_Any_SSE2"
  },
  {
   "name" : "DetileToYUY2_C"
  },
  {
   "name" : "DetileToYUY2_SSE2"
  },
  {
   "name" : "DivideRow_16_AVX2"
  },
  {
   "name" : "DivideRow_16_Any_AVX2"
  },
  {
   "name" : "DivideRow_16_C"
  },
  {
   "name" : "FixedDiv1_C"
  },
  {
   "name" : "FixedDiv1_X86"
  },
  {
   "name" : "FixedDiv_C"
  },
  {
   "name" : "FixedDiv_X86"
  },
  {
   "name" : "GaussCol_C"
  },
  {
   "name" : "GaussCol_F32_C"
  },
  {
   "name" : "GaussPlane_F32"
  },
  {
   "name" : "GaussRow_C"
  },
  {
   "name" : "GaussRow_F32_C"
  },
  {
   "name" : "GetARGBBlend"
  },
  {
   "name" : "H010ToAB30"
  },
  {
   "name" : "H010ToABGR"
  },
  {
   "name" : "H010ToAR30"
  },
  {
   "name" : "H010ToARGB"
  },
  {
   "name" : "H210ToAB30"
  },
  {
   "name" : "H210ToABGR"
  },
  {
   "name" : "H210ToAR30"
  },
  {
   "name" : "H210ToARGB"
  },
  {
   "name" : "H420ToAB30"
  },
  {
   "name" : "H420ToABGR"
  },
  {
   "name" : "H420ToAR30"
  },
  {
   "name" : "H420ToARGB"
  },
  {
   "name" : "H420ToRAW"
  },
  {
   "name" : "H420ToRGB24"
  },
  {
   "name" : "H420ToRGB565"
  },
  {
   "name" : "H422ToABGR"
  },
  {
   "name" : "H422ToARGB"
  },
  {
   "name" : "H444ToABGR"
  },
  {
   "name" : "H444ToARGB"
  },
  {
   "name" : "HalfFloatPlane"
  },
  {
   "name" : "HalfFloatRow_AVX2"
  },
  {
   "name" : "HalfFloatRow_Any_AVX2"
  },
  {
   "name" : "HalfFloatRow_Any_SSE2"
  },
  {
   "name" : "HalfFloatRow_C"
  },
  {
   "name" : "HalfFloatRow_SSE2"
  },
  {
   "name" : "HalfMergeUVPlane"
  },
  {
   "name" : "HalfMergeUVRow_AVX2"
  },
  {
   "name" : "HalfMergeUVRow_C"
  },
  {
   "name" : "HalfMergeUVRow_SSSE3"
  },
  {
   "name" : "HammingDistance_AVX2"
  },
  {
   "name" : "HammingDistance_C"
  },
  {
   "name" : "HammingDistance_SSE42"
  },
  {
   "name" : "HammingDistance_SSSE3"
  },
  {
   "name" : "HashDjb2"
  },
  {
   "name" : "HashDjb2_C"
  },
  {
   "name" : "HashDjb2_SSE41"
  },
  {
   "name" : "I010AlphaToARGBMatrix"
  },
  {
   "name" : "I010AlphaToARGBMatrixFilter"
  },
  {
   "name" : "I010Copy"
  },
  {
   "name" : "I010Rotate"
  },
  {
   "name" : "I010ToAB30"
  },
  {
   "name" : "I010ToABGR"
  },
  {
   "name" : "I010ToAR30"
  },
  {
   "name" : "I010ToAR30Matrix"
  },
  {
   "name" : "I010ToAR30MatrixFilter"
  },
  {
   "name" : "I010ToARGB"
  },
  {
   "name" : "I010ToARGBMatrix"
  },
  {
   "name" : "I010ToARGBMatrixFilter"
  },
  {
   "name" : "I010ToI410"
  },
  {
   "name" : "I010ToI420"
  },
  {
   "name" : "I010ToP010"
  },
  {
   "name" : "I012ToAR30Matrix"
  },
  {
   "name" : "I012ToARGBMatrix"
  },
  {
   "name" : "I012ToI420"
  },
  {
   "name" : "I012ToP012"
  },
  {
   "name" : "I210AlphaToARGBMatrix"
  },
  {
   "name" : "I210AlphaToARGBMatrixFilter"
  },
  {
   "name" : "I210AlphaToARGBRow_C"
  },
  {
   "name" : "I210Copy"
  },
  {
   "name" : "I210Rotate"
  },
  {
   "name" : "I210ToAB30"
  },
  {
   "name" : "I210ToABGR"
  },
  {
   "name" : "I210ToAR30"
  },
  {
   "name" : "I210ToAR30Matrix"
  },
  {
   "name" : "I210ToAR30MatrixFilter"
  },
  {
   "name" : "I210ToAR30Row_AVX2"
  },
  {
   "name" : "I210ToAR30Row_Any_AVX2"
  },
  {
   "name" : "I210ToAR30Row_Any_SSSE3"
  },
  {
   "name" : "I210ToAR30Row_C"
  },
  {
   "name" : "I210ToAR30Row_SSSE3"
  },
  {
   "name" : "I210ToARGB"
  },
  {
   "name" : "I210ToARGBMatrix"
  },
  {
   "name" : "I210ToARGBMatrixFilter"
  },
  {
   "name" : "I210ToARGBRow_AVX2"
  },
  {
   "name" : "I210ToARGBRow_Any_AVX2"
  },
  {
   "name" : "I210ToARGBRow_Any_SSSE3"
  },
  {
   "name" : "I210ToARGBRow_C"
  },
  {
   "name" : "I210ToARGBRow_SSSE3"
  },
  {
   "name" : "I210ToI010"
  },
  {
   "name" : "I210ToI410"
  },
  {
   "name" : "I210ToI420"
  },
  {
   "name" : "I210ToI422"
  },
  {
   "name" : "I210ToP210"
  },
  {
   "name" : "I212ToAR30Row_AVX2"
  },
  {
   "name" : "I212ToAR30Row_Any_AVX2"
  },
  {
   "name" : "I212ToAR30Row_Any_SSSE3"
  },
  {
   "name" : "I212ToAR30Row_C"
  },
  {
   "name" : "I212ToAR30Row_SSSE3"
  },
  {
   "name" : "I212ToARGBRow_AVX2"
  },
  {
   "name" : "I212ToARGBRow_Any_AVX2"
  },
  {
   "name" : "I212ToARGBRow_Any_SSSE3"
  },
  {
   "name" : "I212ToARGBRow_C"
  },
  {
   "name" : "I212ToARGBRow_SSSE3"
  },
  {
   "name" : "I212ToI420"
  },
  {
   "name" : "I212ToI422"
  },
  {
   "name" : "I212ToP212"
  },
  {
   "name" : "I400Copy"
  },
  {
   "name" : "I400Mirror"
  },
  {
   "name" : "I400ToARGB"
  },
  {
   "name" : "I400ToARGBMatrix"
  },
  {
   "name" : "I400ToARGBRow_AVX2"
  },
  {
   "name" : "I400ToARGBRow_Any_AVX2"
  },
  {
   "name" : "I400ToARGBRow_Any_SSE2"
  },
  {
   "name" : "I400ToARGBRow_C"
  },
  {
   "name" : "I400ToARGBRow_SSE2"
  },
  {
   "name" : "I400ToI400"
  },
  {
   "name" : "I400ToI420"
  },
  {
   "name" : "I400ToNV21"
  },
  {
   "name" : "I410AlphaToARGBMatrix"
  },
  {
   "name" : "I410AlphaToARGBRow_C"
  },
  {
   "name" : "I410Copy"
  },
  {
   "name" : "I410Rotate"
  },
  {
   "name" : "I410ToAR30Matrix"
  },
  {
   "name" : "I410ToAR30Row_AVX2"
  },
  {
   "name" : "I410ToAR30Row_Any_AVX2"
  },
  {
   "name" : "I410ToAR30Row_Any_SSSE3"
  },
  {
   "name" : "I410ToAR30Row_C"
  },
  {
   "name" : "I410ToAR30Row_SSSE3"
  },
  {
   "name" : "I410ToARGBMatrix"
  },
  {
   "name" : "I410ToARGBRow_AVX2"
  },
  {
   "name" : "I410ToARGBRow_Any_AVX2"
  },
  {
   "name" : "I410ToARGBRow_Any_SSSE3"
  },
  {
   "name" : "I410ToARGBRow_C"
  },
  {
   "name" : "I410ToARGBRow_SSSE3"
  },
  {
   "name" : "I410ToI010"
  },
  {
   "name" : "I410ToI420"
  },
  {
   "name" : "I410ToI444"
  },
  {
   "name" : "I412ToI420"
  },
  {
   "name" : "I412ToI444"
  },
  {
   "name" : "I420AlphaToABGR"
  },
  {
   "name" : "I420AlphaToARGB"
  },
  {
   "name" : "I420AlphaToARGBMatrix"
  },
  {
   "name" : "I420AlphaToARGBMatrixFilter"
  },
  {
   "name" : "I420Blend"
  },
  {
   "name" : "I420Copy"
  },
  {
   "name" : "I420Interpolate"
  },
  {
   "name" : "I420Mirror"
  },
  {
   "name" : "I420Psnr"
  },
  {
   "name" : "I420Rect"
  },
  {
   "name" : "I420Rotate"
  },
  {
   "name" : "I420Scale"
  },
  {
   "name" : "I420Scale_12"
  },
  {
   "name" : "I420Scale_16"
  },
  {
   "name" : "I420Ssim"
  },
  {
   "name" : "I420ToAB30"
  },
  {
   "name" : "I420ToABGR"
  },
  {
   "name" : "I420ToAR30"
  },
  {
   "name" : "I420ToAR30Matrix"
  },
  {
   "name" : "I420ToARGB"
  },
  {
   "name" : "I420ToARGB1555"
  },
  {
   "name" : "I420ToARGB4444"
  },
  {
   "name" : "I420ToARGBMatrix"
  },
  {
   "name" : "I420ToARGBMatrixFilter"
  },
  {
   "name" : "I420ToBGRA"
  },
  {
   "name" : "I420ToI010"
  },
  {
   "name" : "I420ToI012"
  },
  {
   "name" : "I420ToI400"
  },
  {
   "name" : "I420ToI422"
  },
  {
   "name" : "I420ToI444"
  },
  {
   "name" : "I420ToNV12"
  },
  {
   "name" : "I420ToNV21"
  },
  {
   "name" : "I420ToRAW"
  },
  {
   "name" : "I420ToRGB24"
  },
  {
   "name" : "I420ToRGB24Matrix"
  },
  {
   "name" : "I420ToRGB24MatrixFilter"
  },
  {
   "name" : "I420ToRGB565"
  },
  {
   "name" : "I420ToRGB565Dither"
  },
  {
   "name" : "I420ToRGB565Matrix"
  },
  {
   "name" : "I420ToRGBA"
  },
  {
   "name" : "I420ToRGBAMatrix"
  },
  {
   "name" : "I420ToUYVY"
  },
  {
   "name" : "I420ToYUY2"
  },
  {
   "name" : "I422AlphaToABGR"
  },
  {
   "name" : "I422AlphaToARGB"
  },
  {
   "name" : "I422AlphaToARGBMatrix"
  },
  {
   "name" : "I422AlphaToARGBMatrixFilter"
  },
  {
   "name" : "I422AlphaToARGBRow_AVX2"
  },
  {
   "name" : "I422AlphaToARGBRow_Any_AVX2"
  },
  {
   "name" : "I422AlphaToARGBRow_Any_SSSE3"
  },
  {
   "name" : "I422AlphaToARGBRow_C"
  },
  {
   "name" : "I422AlphaToARGBRow_SSSE3"
  },
  {
   "name" : "I422Copy"
  },
  {
   "name" : "I422Rotate"
  },
  {
   "name" : "I422Scale"
  },
  {
   "name" : "I422Scale_12"
  },
  {
   "name" : "I422Scale_16"
  },
  {
   "name" : "I422ToABGR"
  },
  {
   "name" : "I422ToAR30Row_AVX2"
  },
  {
   "name" : "I422ToAR30Row_Any_AVX2"
  },
  {
   "name" : "I422ToAR30Row_Any_SSSE3"
  },
  {
   "name" : "I422ToAR30Row_C"
  },
  {
   "name" : "I422ToAR30Row_SSSE3"
  },
  {
   "name" : "I422ToARGB"
  },
  {
   "name" : "I422ToARGB1555Row_AVX2"
  },
  {
   "name" : "I422ToARGB1555Row_Any_AVX2"
  },
  {
   "name" : "I422ToARGB1555Row_Any_SSSE3"
  },
  {
   "name" : "I422ToARGB1555Row_C"
  },
  {
   "name" : "I422ToARGB1555Row_SSSE3"
  },
  {
   "name" : "I422ToARGB4444Row_AVX2"
  },
  {
   "name" : "I422ToARGB4444Row_Any_AVX2"
  },
  {
   "name" : "I422ToARGB4444Row_Any_SSSE3"
  },
  {
   "name" : "I422ToARGB4444Row_C"
  },
  {
   "name" : "I422ToARGB4444Row_SSSE3"
  },
  {
   "name" : "I422ToARGBMatrix"
  },
  {
   "name" : "I422ToARGBMatrixFilter"
  },
  {
   "name" : "I422ToARGBRow_AVX2"
  },
  {
   "name" : "I422ToARGBRow_Any_AVX2"
  },
  {
   "name" : "I422ToARGBRow_Any_SSSE3"
  },
  {
   "name" : "I422ToARGBRow_C"
  },
  {
   "name" : "I422ToARGBRow_SSSE3"
  },
  {
   "name" : "I422ToBGRA"
  },
  {
   "name" : "I422ToI210"
  },
  {
   "name" : "I422ToI420"
  },
  {
   "name" : "I422ToI444"
  },
  {
   "name" : "I422ToNV21"
  },
  {
   "name" : "I422ToRAW"
  },
  {
   "name" : "I422ToRGB24"
  },
  {
   "name" : "I422ToRGB24Matrix"
  },
  {
   "name" : "I422ToRGB24MatrixFilter"
  },
  {
   "name" : "I422ToRGB24Row_AVX2"
  },
  {
   "name" : "I422ToRGB24Row_Any_AVX2"
  },
  {
   "name" : "I422ToRGB24Row_Any_SSSE3"
  },
  {
   "name" : "I422ToRGB24Row_C"
  },
  {
   "name" : "I422ToRGB24Row_SSSE3"
  },
  {
   "name" : "I422ToRGB565"
  },
  {
   "name" : "I422ToRGB565Matrix"
  },
  {
   "name" : "I422ToRGB565Row_AVX2"
  },
  {
   "name" : "I422ToRGB565Row_Any_AVX2"
  },
  {
   "name" : "I422ToRGB565Row_Any_SSSE3"
  },
  {
   "name" : "I422ToRGB565Row_C"
  },
  {
   "name" : "I422ToRGB565Row_SSSE3"
  },
  {
   "name" : "I422ToRGBA"
  },
  {
   "name" : "I422ToRGBAMatrix"
  },
  {
   "name" : "I422ToRGBARow_AVX2"
  },
  {
   "name" : "I422ToRGBARow_Any_AVX2"
  },
  {
   "name" : "I422ToRGBARow_Any_SSSE3"
  },
  {
   "name" : "I422ToRGBARow_C"
  },
  {
   "name" : "I422ToRGBARow_SSSE3"
  },
  {
   "name" : "I422ToUYVY"
  },
  {
   "name" : "I422ToUYVYRow_AVX2"
  },
  {
   "name" : "I422ToUYVYRow_Any_AVX2"
  },
  {
   "name" : "I422ToUYVYRow_Any_SSE2"
  },
  {
   "name" : "I422ToUYVYRow_C"
  },
  {
   "name" : "I422ToUYVYRow_SSE2"
  },
  {
   "name" : "I422ToYUY2"
  },
  {
   "name" : "I422ToYUY2Row_AVX2"
  },
  {
   "name" : "I422ToYUY2Row_Any_AVX2"
  },
  {
   "name" : "I422ToYUY2Row_Any_SSE2"
  },
  {
   "name" : "I422ToYUY2Row_C"
  },
  {
   "name" : "I422ToYUY2Row_SSE2"
  },
  {
   "name" : "I444AlphaToABGR"
  },
  {
   "name" : "I444AlphaToARGB"
  },
  {
   "name" : "I444AlphaToARGBMatrix"
  },
  {
   "name" : "I444AlphaToARGBRow_AVX2"
  },
  {
   "name" : "I444AlphaToARGBRow_Any_AVX2"
  },
  {
   "name" : "I444AlphaToARGBRow_Any_SSSE3"
  },
  {
   "name" : "I444AlphaToARGBRow_C"
  },
  {
   "name" : "I444AlphaToARGBRow_SSSE3"
  },
  {
   "name" : "I444Copy"
  },
  {
   "name" : "I444Rotate"
  },
  {
   "name" : "I444Scale"
  },
  {
   "name" : "I444Scale_12"
  },
  {
   "name" : "I444Scale_16"
  },
  {
   "name" : "I444ToABGR"
  },
  {
   "name" : "I444ToARGB"
  },
  {
   "name" : "I444ToARGBMatrix"
  },
  {
   "name" : "I444ToARGBRow_AVX2"
  },
  {
   "name" : "I444ToARGBRow_Any_AVX2"
  },
  {
   "name" : "I444ToARGBRow_Any_SSSE3"
  },
  {
   "name" : "I444ToARGBRow_C"
  },
  {
   "name" : "I444ToARGBRow_SSSE3"
  },
  {
   "name" : "I444ToI420"
  },
  {
   "name" : "I444ToNV12"
  },
  {
   "name" : "I444ToNV21"
  },
  {
   "name" : "I444ToRAW"
  },
  {
   "name" : "I444ToRGB24"
  },
  {
   "name" : "I444ToRGB24Matrix"
  },
  {
   "name" : "I444ToRGB24Row_AVX2"
  },
  {
   "name" : "I444ToRGB24Row_Any_AVX2"
  },
  {
   "name" : "I444ToRGB24Row_Any_SSSE3"
  },
  {
   "name" : "I444ToRGB24Row_C"
  },
  {
   "name" : "I444ToRGB24Row_SSSE3"
  },
  {
   "name" : "InitCpuFlags"
  },
  {
   "name" : "InterpolatePlane"
  },
  {
   "name" : "InterpolatePlane_16"
  },
  {
   "name" : "InterpolateRow_16To8_AVX2"
  },
  {
   "name" : "InterpolateRow_16To8_Any_AVX2"
  },
  {
   "name" : "InterpolateRow_16To8_C"
  },
  {
   "name" : "InterpolateRow_16_C"
  },
  {
   "name" : "InterpolateRow_AVX2"
  },
  {
   "name" : "InterpolateRow_Any_AVX2"
  },
  {
   "name" : "InterpolateRow_Any_SSSE3"
  },
  {
   "name" : "InterpolateRow_C"
  },
  {
   "name" : "InterpolateRow_SSSE3"
  },
  {
   "name" : "J400ToARGB"
  },
  {
   "name" : "J400ToARGBRow_Any_SSE2"
  },
  {
   "name" : "J400ToARGBRow_C"
  },
  {
   "name" : "J400ToARGBRow_SSE2"
  },
  {
   "name" : "J420ToABGR"
  },
  {
   "name" : "J420ToARGB"
  },
  {
   "name" : "J420ToRAW"
  },
  {
   "name" : "J420ToRGB24"
  },
  {
   "name" : "J420ToRGB565"
  },
  {
   "name" : "J422ToABGR"
  },
  {
   "name" : "J422ToARGB"
  },
  {
   "name" : "J444ToABGR"
  },
  {
   "name" : "J444ToARGB"
  },
  {
   "name" : "MJPGSize"
  },
  {
   "name" : "MJPGToARGB"
  },
  {
   "name" : "MJPGToI420"
  },
  {
   "name" : "MJPGToNV12"
  },
  {
   "name" : "MJPGToNV21"
  },
  {
   "name" : "MM21ToI420"
  },
  {
   "name" : "MM21ToNV12"
  },
  {
   "name" : "MM21ToYUY2"
  },
  {
   "name" : "MT2TToP010"
  },
  {
   "name" : "MaskCpuFlags"
  },
  {
   "name" : "MergeAR64Plane"
  },
  {
   "name" : "MergeAR64Row_AVX2"
  },
  {
   "name" : "MergeAR64Row_Any_AVX2"
  },
  {
   "name" : "MergeAR64Row_C"
  },
  {
   "name" : "MergeARGB16To8Plane"
  },
  {
   "name" : "MergeARGB16To8Row_AVX2"
  },
  {
   "name" : "MergeARGB16To8Row_Any_AVX2"
  },
  {
   "name" : "MergeARGB16To8Row_C"
  },
  {
   "name" : "MergeARGBPlane"
  },
  {
   "name" : "MergeARGBRow_AVX2"
  },
  {
   "name" : "MergeARGBRow_Any_AVX2"
  },
  {
   "name" : "MergeARGBRow_Any_SSE2"
  },
  {
   "name" : "MergeARGBRow_C"
  },
  {
   "name" : "MergeARGBRow_SSE2"
  },
  {
   "name" : "MergeRGBPlane"
  },
  {
   "name" : "MergeRGBRow_Any_SSSE3"
  },
  {
   "name" : "MergeRGBRow_C"
  },
  {
   "name" : "MergeRGBRow_SSSE3"
  },
  {
   "name" : "MergeUVPlane"
  },
  {
   "name" : "MergeUVPlane_16"
  },
  {
   "name" : "MergeUVRow_16_AVX2"
  },
  {
   "name" : "MergeUVRow_16_Any_AVX2"
  },
  {
   "name" : "MergeUVRow_16_C"
  },
  {
   "name" : "MergeUVRow_AVX2"
  },
  {
   "name" : "MergeUVRow_AVX512BW"
  },
  {
   "name" : "MergeUVRow_Any_AVX2"
  },
  {
   "name" : "MergeUVRow_Any_AVX512BW"
  },
  {
   "name" : "MergeUVRow_Any_SSE2"
  },
  {
   "name" : "MergeUVRow_C"
  },
  {
   "name" : "MergeUVRow_SSE2"
  },
  {
   "name" : "MergeXR30Plane"
  },
  {
   "name" : "MergeXR30Row_AVX2"
  },
  {
   "name" : "MergeXR30Row_Any_AVX2"
  },
  {
   "name" : "MergeXR30Row_C"
  },
  {
   "name" : "MergeXR64Row_AVX2"
  },
  {
   "name" : "MergeXR64Row_Any_AVX2"
  },
  {
   "name" : "MergeXR64Row_C"
  },
  {
   "name" : "MergeXRGB16To8Row_AVX2"
  },
  {
   "name" : "MergeXRGB16To8Row_Any_AVX2"
  },
  {
   "name" : "MergeXRGB16To8Row_C"
  },
  {
   "name" : "MergeXRGBRow_AVX2"
  },
  {
   "name" : "MergeXRGBRow_Any_AVX2"
  },
  {
   "name" : "MergeXRGBRow_Any_SSE2"
  },
  {
   "name" : "MergeXRGBRow_C"
  },
  {
   "name" : "MergeXRGBRow_SSE2"
  },
  {
   "name" : "MipsCpuCaps"
  },
  {
   "name" : "MirrorPlane"
  },
  {
   "name" : "MirrorRow_16_C"
  },
  {
   "name" : "MirrorRow_AVX2"
  },
  {
   "name" : "MirrorRow_Any_AVX2"
  },
  {
   "name" : "MirrorRow_Any_SSSE3"
  },
  {
   "name" : "MirrorRow_C"
  },
  {
   "name" : "MirrorRow_SSSE3"
  },
  {
   "name" : "MirrorSplitUVRow_C"
  },
  {
   "name" : "MirrorSplitUVRow_SSSE3"
  },
  {
   "name" : "MirrorUVPlane"
  },
  {
   "name" : "MirrorUVRow_AVX2"
  },
  {
   "name" : "MirrorUVRow_Any_AVX2"
  },
  {
   "name" : "MirrorUVRow_Any_SSSE3"
  },
  {
   "name" : "MirrorUVRow_C"
  },
  {
   "name" : "MirrorUVRow_SSSE3"
  },
  {
   "name" : "MultiplyRow_16_AVX2"
  },
  {
   "name" : "MultiplyRow_16_Any_AVX2"
  },
  {
   "name" : "MultiplyRow_16_C"
  },
  {
   "name" : "NV12Copy"
  },
  {
   "name" : "NV12Mirror"
  },
  {
   "name" : "NV12Scale"
  },
  {
   "name" : "NV12ToABGR"
  },
  {
   "name" : "NV12ToARGB"
  },
  {
   "name" : "NV12ToARGBMatrix"
  },
  {
   "name" : "NV12ToARGBRow_AVX2"
  },
  {
   "name" : "NV12ToARGBRow_Any_AVX2"
  },
  {
   "name" : "NV12ToARGBRow_Any_SSSE3"
  },
  {
   "name" : "NV12ToARGBRow_C"
  },
  {
   "name" : "NV12ToARGBRow_SSSE3"
  },
  {
   "name" : "NV12ToI420"
  },
  {
   "name" : "NV12ToI420Rotate"
  },
  {
   "name" : "NV12ToNV24"
  },
  {
   "name" : "NV12ToRAW"
  },
  {
   "name" : "NV12ToRGB24"
  },
  {
   "name" : "NV12ToRGB24Matrix"
  },
  {
   "name" : "NV12ToRGB24Row_AVX2"
  },
  {
   "name" : "NV12ToRGB24Row_Any_AVX2"
  },
  {
   "name" : "NV12ToRGB24Row_Any_SSSE3"
  },
  {
   "name" : "NV12ToRGB24Row_C"
  },
  {
   "name" : "NV12ToRGB24Row_SSSE3"
  },
  {
   "name" : "NV12ToRGB565"
  },
  {
   "name" : "NV12ToRGB565Matrix"
  },
  {
   "name" : "NV12ToRGB565Row_AVX2"
  },
  {
   "name" : "NV12ToRGB565Row_Any_AVX2"
  },
  {
   "name" : "NV12ToRGB565Row_Any_SSSE3"
  },
  {
   "name" : "NV12ToRGB565Row_C"
  },
  {
   "name" : "NV12ToRGB565Row_SSSE3"
  },
  {
   "name" : "NV16ToNV24"
  },
  {
   "name" : "NV21Copy"
  },
  {
   "name" : "NV21ToABGR"
  },
  {
   "name" : "NV21ToARGB"
  },
  {
   "name" : "NV21ToARGBMatrix"
  },
  {
   "name" : "NV21ToARGBRow_AVX2"
  },
  {
   "name" : "NV21ToARGBRow_Any_AVX2"
  },
  {
   "name" : "NV21ToARGBRow_Any_SSSE3"
  },
  {
   "name" : "NV21ToARGBRow_C"
  },
  {
   "name" : "NV21ToARGBRow_SSSE3"
  },
  {
   "name" : "NV21ToI420"
  },
  {
   "name" : "NV21ToNV12"
  },
  {
   "name" : "NV21ToRAW"
  },
  {
   "name" : "NV21ToRGB24"
  },
  {
   "name" : "NV21ToRGB24Matrix"
  },
  {
   "name" : "NV21ToRGB24Row_AVX2"
  },
  {
   "name" : "NV21ToRGB24Row_Any_AVX2"
  },
  {
   "name" : "NV21ToRGB24Row_Any_SSSE3"
  },
  {
   "name" : "NV21ToRGB24Row_C"
  },
  {
   "name" : "NV21ToRGB24Row_SSSE3"
  },
  {
   "name" : "NV21ToYUV24"
  },
  {
   "name" : "NV21ToYUV24Row_AVX2"
  },
  {
   "name" : "NV21ToYUV24Row_Any_AVX2"
  },
  {
   "name" : "NV21ToYUV24Row_Any_SSSE3"
  },
  {
   "name" : "NV21ToYUV24Row_C"
  },
  {
   "name" : "NV21ToYUV24Row_SSSE3"
  },
  {
   "name" : "P010ToAR30Matrix"
  },
  {
   "name" : "P010ToAR30MatrixFilter"
  },
  {
   "name" : "P010ToARGBMatrix"
  },
  {
   "name" : "P010ToARGBMatrixFilter"
  },
  {
   "name" : "P010ToI010"
  },
  {
   "name" : "P010ToP410"
  },
  {
   "name" : "P012ToI012"
  },
  {
   "name" : "P210ToAR30Matrix"
  },
  {
   "name" : "P210ToAR30MatrixFilter"
  },
  {
   "name" : "P210ToAR30Row_AVX2"
  },
  {
   "name" : "P210ToAR30Row_Any_AVX2"
  },
  {
   "name" : "P210ToAR30Row_Any_SSSE3"
  },
  {
   "name" : "P210ToAR30Row_C"
  },
  {
   "name" : "P210ToAR30Row_SSSE3"
  },
  {
   "name" : "P210ToARGBMatrix"
  },
  {
   "name" : "P210ToARGBMatrixFilter"
  },
  {
   "name" : "P210ToARGBRow_AVX2"
  },
  {
   "name" : "P210ToARGBRow_Any_AVX2"
  },
  {
   "name" : "P210ToARGBRow_Any_SSSE3"
  },
  {
   "name" : "P210ToARGBRow_C"
  },
  {
   "name" : "P210ToARGBRow_SSSE3"
  },
  {
   "name" : "P210ToP410"
  },
  {
   "name" : "P410ToAR30Row_AVX2"
  },
  {
   "name" : "P410ToAR30Row_Any_AVX2"
  },
  {
   "name" : "P410ToAR30Row_Any_SSSE3"
  },
  {
   "name" : "P410ToAR30Row_C"
  },
  {
   "name" : "P410ToAR30Row_SSSE3"
  },
  {
   "name" : "P410ToARGBRow_AVX2"
  },
  {
   "name" : "P410ToARGBRow_Any_AVX2"
  },
  {
   "name" : "P410ToARGBRow_Any_SSSE3"
  },
  {
   "name" : "P410ToARGBRow_C"
  },
  {
   "name" : "P410ToARGBRow_SSSE3"
  },
  {
   "name" : "RAWToARGB"
  },
  {
   "name" : "RAWToARGBRow_Any_SSSE3"
  },
  {
   "name" : "RAWToARGBRow_C"
  },
  {
   "name" : "RAWToARGBRow_SSSE3"
  },
  {
   "name" : "RAWToI420"
  },
  {
   "name" : "RAWToJ400"
  },
  {
   "name" : "RAWToJ420"
  },
  {
   "name" : "RAWToJNV21"
  },
  {
   "name" : "RAWToRGB24"
  },
  {
   "name" : "RAWToRGB24Row_Any_SSSE3"
  },
  {
   "name" : "RAWToRGB24Row_C"
  },
  {
   "name" : "RAWToRGB24Row_SSSE3"
  },
  {
   "name" : "RAWToRGBA"
  },
  {
   "name" : "RAWToRGBARow_Any_SSSE3"
  },
  {
   "name" : "RAWToRGBARow_C"
  },
  {
   "name" : "RAWToRGBARow_SSSE3"
  },
  {
   "name" : "RAWToUVJRow_C"
  },
  {
   "name" : "RAWToUVRow_C"
  },
  {
   "name" : "RAWToYJRow_AVX2"
  },
  {
   "name" : "RAWToYJRow_Any_AVX2"
  },
  {
   "name" : "RAWToYJRow_Any_SSSE3"
  },
  {
   "name" : "RAWToYJRow_C"
  },
  {
   "name" : "RAWToYJRow_SSSE3"
  },
  {
   "name" : "RAWToYRow_C"
  },
  {
   "name" : "RGB24Mirror"
  },
  {
   "name" : "RGB24MirrorRow_Any_SSSE3"
  },
  {
   "name" : "RGB24MirrorRow_C"
  },
  {
   "name" : "RGB24MirrorRow_SSSE3"
  },
  {
   "name" : "RGB24ToARGB"
  },
  {
   "name" : "RGB24ToARGBRow_Any_SSSE3"
  },
  {
   "name" : "RGB24ToARGBRow_C"
  },
  {
   "name" : "RGB24ToARGBRow_SSSE3"
  },
  {
   "name" : "RGB24ToI420"
  },
  {
   "name" : "RGB24ToJ400"
  },
  {
   "name" : "RGB24ToJ420"
  },
  {
   "name" : "RGB24ToUVJRow_C"
  },
  {
   "name" : "RGB24ToUVRow_C"
  },
  {
   "name" : "RGB24ToYJRow_AVX2"
  },
  {
   "name" : "RGB24ToYJRow_Any_AVX2"
  },
  {
   "name" : "RGB24ToYJRow_Any_SSSE3"
  },
  {
   "name" : "RGB24ToYJRow_C"
  },
  {
   "name" : "RGB24ToYJRow_SSSE3"
  },
  {
   "name" : "RGB24ToYRow_C"
  },
  {
   "name" : "RGB565ToARGB"
  },
  {
   "name" : "RGB565ToARGBRow_Any_SSE2"
  },
  {
   "name" : "RGB565ToARGBRow_C"
  },
  {
   "name" : "RGB565ToARGBRow_SSE2"
  },
  {
   "name" : "RGB565ToI420"
  },
  {
   "name" : "RGB565ToUVRow_C"
  },
  {
   "name" : "RGB565ToYRow_C"
  },
  {
   "name" : "RGBAToARGB"
  },
  {
   "name" : "RGBAToI420"
  },
  {
   "name" : "RGBAToJ400"
  },
  {
   "name" : "RGBAToUVJRow_C"
  },
  {
   "name" : "RGBAToUVRow_Any_SSSE3"
  },
  {
   "name" : "RGBAToUVRow_C"
  },
  {
   "name" : "RGBAToUVRow_SSSE3"
  },
  {
   "name" : "RGBAToYJRow_AVX2"
  },
  {
   "name" : "RGBAToYJRow_Any_AVX2"
  },
  {
   "name" : "RGBAToYJRow_Any_SSSE3"
  },
  {
   "name" : "RGBAToYJRow_C"
  },
  {
   "name" : "RGBAToYJRow_SSSE3"
  },
  {
   "name" : "RGBAToYRow_Any_SSSE3"
  },
  {
   "name" : "RGBAToYRow_C"
  },
  {
   "name" : "RGBAToYRow_SSSE3"
  },
  {
   "name" : "RGBColorMatrix"
  },
  {
   "name" : "RGBColorTable"
  },
  {
   "name" : "RGBColorTableRow_C"
  },
  {
   "name" : "RGBColorTableRow_X86"
  },
  {
   "name" : "RGBScale"
  },
  {
   "name" : "RiscvCpuCaps"
  },
  {
   "name" : "RotatePlane"
  },
  {
   "name" : "RotatePlane180"
  },
  {
   "name" : "RotatePlane270"
  },
  {
   "name" : "RotatePlane90"
  },
  {
   "name" : "RotatePlane_16"
  },
  {
   "name" : "Scale"
  },
  {
   "name" : "ScaleARGBCols64_C"
  },
  {
   "name" : "ScaleARGBColsUp2_C"
  },
  {
   "name" : "ScaleARGBColsUp2_SSE2"
  },
  {
   "name" : "ScaleARGBCols_C"
  },
  {
   "name" : "ScaleARGBCols_SSE2"
  },
  {
   "name" : "ScaleARGBFilterCols64_C"
  },
  {
   "name" : "ScaleARGBFilterCols_C"
  },
  {
   "name" : "ScaleARGBFilterCols_SSSE3"
  },
  {
   "name" : "ScaleARGBRowDown2Box_Any_SSE2"
  },
  {
   "name" : "ScaleARGBRowDown2Box_C"
  },
  {
   "name" : "ScaleARGBRowDown2Box_SSE2"
  },
  {
   "name" : "ScaleARGBRowDown2Linear_Any_SSE2"
  },
  {
   "name" : "ScaleARGBRowDown2Linear_C"
  },
  {
   "name" : "ScaleARGBRowDown2Linear_SSE2"
  },
  {
   "name" : "ScaleARGBRowDown2_Any_SSE2"
  },
  {
   "name" : "ScaleARGBRowDown2_C"
  },
  {
   "name" : "ScaleARGBRowDown2_SSE2"
  },
  {
   "name" : "ScaleARGBRowDownEvenBox_Any_SSE2"
  },
  {
   "name" : "ScaleARGBRowDownEvenBox_C"
  },
  {
   "name" : "ScaleARGBRowDownEvenBox_SSE2"
  },
  {
   "name" : "ScaleARGBRowDownEven_Any_SSE2"
  },
  {
   "name" : "ScaleARGBRowDownEven_C"
  },
  {
   "name" : "ScaleARGBRowDownEven_SSE2"
  },
  {
   "name" : "ScaleAddRow_16_C"
  },
  {
   "name" : "ScaleAddRow_AVX2"
  },
  {
   "name" : "ScaleAddRow_Any_AVX2"
  },
  {
   "name" : "ScaleAddRow_Any_SSE2"
  },
  {
   "name" : "ScaleAddRow_C"
  },
  {
   "name" : "ScaleAddRow_SSE2"
  },
  {
   "name" : "ScaleColsUp2_16_C"
  },
  {
   "name" : "ScaleColsUp2_C"
  },
  {
   "name" : "ScaleColsUp2_SSE2"
  },
  {
   "name" : "ScaleCols_16_C"
  },
  {
   "name" : "ScaleCols_C"
  },
  {
   "name" : "ScaleFilterCols64_16_C"
  },
  {
   "name" : "ScaleFilterCols64_C"
  },
  {
   "name" : "ScaleFilterCols_16_C"
  },
  {
   "name" : "ScaleFilterCols_C"
  },
  {
   "name" : "ScaleFilterCols_SSSE3"
  },
  {
   "name" : "ScaleFilterReduce"
  },
  {
   "name" : "ScaleMaxSamples_C"
  },
  {
   "name" : "ScalePlane"
  },
  {
   "name" : "ScalePlaneBilinearDown"
  },
  {
   "name" : "ScalePlaneBilinearDown_16"
  },
  {
   "name" : "ScalePlaneBilinearUp"
  },
  {
   "name" : "ScalePlaneBilinearUp_16"
  },
  {
   "name" : "ScalePlaneDown2_16To8"
  },
  {
   "name" : "ScalePlaneUp2_12_Bilinear"
  },
  {
   "name" : "ScalePlaneUp2_12_Linear"
  },
  {
   "name" : "ScalePlaneUp2_16_Bilinear"
  },
  {
   "name" : "ScalePlaneUp2_16_Linear"
  },
  {
   "name" : "ScalePlaneUp2_Bilinear"
  },
  {
   "name" : "ScalePlaneUp2_Linear"
  },
  {
   "name" : "ScalePlaneVertical"
  },
  {
   "name" : "ScalePlaneVertical_16"
  },
  {
   "name" : "ScalePlaneVertical_16To8"
  },
  {
   "name" : "ScalePlane_12"
  },
  {
   "name" : "ScalePlane_16"
  },
  {
   "name" : "ScaleRowDown2Box_16To8_C"
  },
  {
   "name" : "ScaleRowDown2Box_16To8_Odd_C"
  },
  {
   "name" : "ScaleRowDown2Box_16_C"
  },
  {
   "name" : "ScaleRowDown2Box_AVX2"
  },
  {
   "name" : "ScaleRowDown2Box_Any_AVX2"
  },
  {
   "name" : "ScaleRowDown2Box_Any_SSSE3"
  },
  {
   "name" : "ScaleRowDown2Box_C"
  },
  {
   "name" : "ScaleRowDown2Box_Odd_AVX2"
  },
  {
   "name" : "ScaleRowDown2Box_Odd_C"
  },
  {
   "name" : "ScaleRowDown2Box_Odd_SSSE3"
  },
  {
   "name" : "ScaleRowDown2Box_SSSE3"
  },
  {
   "name" : "ScaleRowDown2Linear_16To8_C"
  },
  {
   "name" : "ScaleRowDown2Linear_16To8_Odd_C"
  },
  {
   "name" : "ScaleRowDown2Linear_16_C"
  },
  {
   "name" : "ScaleRowDown2Linear_AVX2"
  },
  {
   "name" : "ScaleRowDown2Linear_Any_AVX2"
  },
  {
   "name" : "ScaleRowDown2Linear_Any_SSSE3"
  },
  {
   "name" : "ScaleRowDown2Linear_C"
  },
  {
   "name" : "ScaleRowDown2Linear_SSSE3"
  },
  {
   "name" : "ScaleRowDown2_16To8_C"
  },
  {
   "name" : "ScaleRowDown2_16To8_Odd_C"
  },
  {
   "name" : "ScaleRowDown2_16_C"
  },
  {
   "name" : "ScaleRowDown2_AVX2"
  },
  {
   "name" : "ScaleRowDown2_Any_AVX2"
  },
  {
   "name" : "ScaleRowDown2_Any_SSSE3"
  },
  {
   "name" : "ScaleRowDown2_C"
  },
  {
   "name" : "ScaleRowDown2_SSSE3"
  },
  {
   "name" : "ScaleRowDown34_0_Box_16_C"
  },
  {
   "name" : "ScaleRowDown34_0_Box_Any_SSSE3"
  },
  {
   "name" : "ScaleRowDown34_0_Box_C"
  },
  {
   "name" : "ScaleRowDown34_0_Box_SSSE3"
  },
  {
   "name" : "ScaleRowDown34_16_C"
  },
  {
   "name" : "ScaleRowDown34_1_Box_16_C"
  },
  {
   "name" : "ScaleRowDown34_1_Box_Any_SSSE3"
  },
  {
   "name" : "ScaleRowDown34_1_Box_C"
  },
  {
   "name" : "ScaleRowDown34_1_Box_SSSE3"
  },
  {
   "name" : "ScaleRowDown34_Any_SSSE3"
  },
  {
   "name" : "ScaleRowDown34_C"
  },
  {
   "name" : "ScaleRowDown34_SSSE3"
  },
  {
   "name" : "ScaleRowDown38_16_C"
  },
  {
   "name" : "ScaleRowDown38_2_Box_16_C"
  },
  {
   "name" : "ScaleRowDown38_2_Box_Any_SSSE3"
  },
  {
   "name" : "ScaleRowDown38_2_Box_C"
  },
  {
   "name" : "ScaleRowDown38_2_Box_SSSE3"
  },
  {
   "name" : "ScaleRowDown38_3_Box_16_C"
  },
  {
   "name" : "ScaleRowDown38_3_Box_Any_SSSE3"
  },
  {
   "name" : "ScaleRowDown38_3_Box_C"
  },
  {
   "name" : "ScaleRowDown38_3_Box_SSSE3"
  },
  {
   "name" : "ScaleRowDown38_Any_SSSE3"
  },
  {
   "name" : "ScaleRowDown38_C"
  },
  {
   "name" : "ScaleRowDown38_SSSE3"
  },
  {
   "name" : "ScaleRowDown4Box_16_C"
  },
  {
   "name" : "ScaleRowDown4Box_AVX2"
  },
  {
   "name" : "ScaleRowDown4Box_Any_AVX2"
  },
  {
   "name" : "ScaleRowDown4Box_Any_SSSE3"
  },
  {
   "name" : "ScaleRowDown4Box_C"
  },
  {
   "name" : "ScaleRowDown4Box_SSSE3"
  },
  {
   "name" : "ScaleRowDown4_16_C"
  },
  {
   "name" : "ScaleRowDown4_AVX2"
  },
  {
   "name" : "ScaleRowDown4_Any_AVX2"
  },
  {
   "name" : "ScaleRowDown4_Any_SSSE3"
  },
  {
   "name" : "ScaleRowDown4_C"
  },
  {
   "name" : "ScaleRowDown4_SSSE3"
  },
  {
   "name" : "ScaleRowUp2_16_C"
  },
  {
   "name" : "ScaleRowUp2_Bilinear_12_AVX2"
  },
  {
   "name" : "ScaleRowUp2_Bilinear_12_Any_AVX2"
  },
  {
   "name" : "ScaleRowUp2_Bilinear_12_Any_SSSE3"
  },
  {
   "name" : "ScaleRowUp2_Bilinear_12_SSSE3"
  },
  {
   "name" : "ScaleRowUp2_Bilinear_16_AVX2"
  },
  {
   "name" : "ScaleRowUp2_Bilinear_16_Any_AVX2"
  },
  {
   "name" : "ScaleRowUp2_Bilinear_16_Any_C"
  },
  {
   "name" : "ScaleRowUp2_Bilinear_16_Any_SSE2"
  },
  {
   "name" : "ScaleRowUp2_Bilinear_16_C"
  },
  {
   "name" : "ScaleRowUp2_Bilinear_16_SSE2"
  },
  {
   "name" : "ScaleRowUp2_Bilinear_AVX2"
  },
  {
   "name" : "ScaleRowUp2_Bilinear_Any_AVX2"
  },
  {
   "name" : "ScaleRowUp2_Bilinear_Any_C"
  },
  {
   "name" : "ScaleRowUp2_Bilinear_Any_SSE2"
  },
  {
   "name" : "ScaleRowUp2_Bilinear_Any_SSSE3"
  },
  {
   "name" : "ScaleRowUp2_Bilinear_C"
  },
  {
   "name" : "ScaleRowUp2_Bilinear_SSE2"
  },
  {
   "name" : "ScaleRowUp2_Bilinear_SSSE3"
  },
  {
   "name" : "ScaleRowUp2_Linear_12_AVX2"
  },
  {
   "name" : "ScaleRowUp2_Linear_12_Any_AVX2"
  },
  {
   "name" : "ScaleRowUp2_Linear_12_Any_SSSE3"
  },
  {
   "name" : "ScaleRowUp2_Linear_12_SSSE3"
  },
  {
   "name" : "ScaleRowUp2_Linear_16_AVX2"
  },
  {
   "name" : "ScaleRowUp2_Linear_16_Any_AVX2"
  },
  {
   "name" : "ScaleRowUp2_Linear_16_Any_C"
  },
  {
   "name" : "ScaleRowUp2_Linear_16_Any_SSE2"
  },
  {
   "name" : "ScaleRowUp2_Linear_16_C"
  },
  {
   "name" : "ScaleRowUp2_Linear_16_SSE2"
  },
  {
   "name" : "ScaleRowUp2_Linear_AVX2"
  },
  {
   "name" : "ScaleRowUp2_Linear_Any_AVX2"
  },
  {
   "name" : "ScaleRowUp2_Linear_Any_C"
  },
  {
   "name" : "ScaleRowUp2_Linear_Any_SSE2"
  },
  {
   "name" : "ScaleRowUp2_Linear_Any_SSSE3"
  },
  {
   "name" : "ScaleRowUp2_Linear_C"
  },
  {
   "name" : "ScaleRowUp2_Linear_SSE2"
  },
  {
   "name" : "ScaleRowUp2_Linear_SSSE3"
  },
  {
   "name" : "ScaleSamples_C"
  },
  {
   "name" : "ScaleSlope"
  },
  {
   "name" : "ScaleSumSamples_C"
  },
  {
   "name" : "ScaleUVBilinearUp2"
  },
  {
   "name" : "ScaleUVBilinearUp2_16"
  },
  {
   "name" : "ScaleUVCols64_C"
  },
  {
   "name" : "ScaleUVColsUp2_C"
  },
  {
   "name" : "ScaleUVCols_C"
  },
  {
   "name" : "ScaleUVFilterCols64_C"
  },
  {
   "name" : "ScaleUVFilterCols_C"
  },
  {
   "name" : "ScaleUVLinearUp2"
  },
  {
   "name" : "ScaleUVLinearUp2_16"
  },
  {
   "name" : "ScaleUVRowDown2Box_AVX2"
  },
  {
   "name" : "ScaleUVRowDown2Box_Any_AVX2"
  },
  {
   "name" : "ScaleUVRowDown2Box_Any_SSSE3"
  },
  {
   "name" : "ScaleUVRowDown2Box_C"
  },
  {
   "name" : "ScaleUVRowDown2Box_SSSE3"
  },
  {
   "name" : "ScaleUVRowDown2Linear_C"
  },
  {
   "name" : "ScaleUVRowDown2_C"
  },
  {
   "name" : "ScaleUVRowDownEvenBox_C"
  },
  {
   "name" : "ScaleUVRowDownEven_C"
  },
  {
   "name" : "ScaleUVRowUp2_Bilinear_16_AVX2"
  },
  {
   "name" : "ScaleUVRowUp2_Bilinear_16_Any_AVX2"
  },
  {
   "name" : "ScaleUVRowUp2_Bilinear_16_Any_C"
  },
  {
   "name" : "ScaleUVRowUp2_Bilinear_16_Any_SSE41"
  },
  {
   "name" : "ScaleUVRowUp2_Bilinear_16_C"
  },
  {
   "name" : "ScaleUVRowUp2_Bilinear_16_SSE41"
  },
  {
   "name" : "ScaleUVRowUp2_Bilinear_AVX2"
  },
  {
   "name" : "ScaleUVRowUp2_Bilinear_Any_AVX2"
  },
  {
   "name" : "ScaleUVRowUp2_Bilinear_Any_C"
  },
  {
   "name" : "ScaleUVRowUp2_Bilinear_Any_SSSE3"
  },
  {
   "name" : "ScaleUVRowUp2_Bilinear_C"
  },
  {
   "name" : "ScaleUVRowUp2_Bilinear_SSSE3"
  },
  {
   "name" : "ScaleUVRowUp2_Linear_16_AVX2"
  },
  {
   "name" : "ScaleUVRowUp2_Linear_16_Any_AVX2"
  },
  {
   "name" : "ScaleUVRowUp2_Linear_16_Any_C"
  },
  {
   "name" : "ScaleUVRowUp2_Linear_16_Any_SSE41"
  },
  {
   "name" : "ScaleUVRowUp2_Linear_16_C"
  },
  {
   "name" : "ScaleUVRowUp2_Linear_16_SSE41"
  },
  {
   "name" : "ScaleUVRowUp2_Linear_AVX2"
  },
  {
   "name" : "ScaleUVRowUp2_Linear_Any_AVX2"
  },
  {
   "name" : "ScaleUVRowUp2_Linear_Any_C"
  },
  {
   "name" : "ScaleUVRowUp2_Linear_Any_SSSE3"
  },
  {
   "name" : "ScaleUVRowUp2_Linear_C"
  },
  {
   "name" : "ScaleUVRowUp2_Linear_SSSE3"
  },
  {
   "name" : "SetPlane"
  },
  {
   "name" : "SetRow_Any_X86"
  },
  {
   "name" : "SetRow_C"
  },
  {
   "name" : "SetRow_ERMS"
  },
  {
   "name" : "SetRow_X86"
  },
  {
   "name" : "SobelRow_Any_SSE2"
  },
  {
   "name" : "SobelRow_C"
  },
  {
   "name" : "SobelRow_SSE2"
  },
  {
   "name" : "SobelToPlaneRow_Any_SSE2"
  },
  {
   "name" : "SobelToPlaneRow_C"
  },
  {
   "name" : "SobelToPlaneRow_SSE2"
  },
  {
   "name" : "SobelXRow_C"
  },
  {
   "name" : "SobelXRow_SSE2"
  },
  {
   "name" : "SobelXYRow_Any_SSE2"
  },
  {
   "name" : "SobelXYRow_C"
  },
  {
   "name" : "SobelXYRow_SSE2"
  },
  {
   "name" : "SobelYRow_C"
  },
  {
   "name" : "SobelYRow_SSE2"
  },
  {
   "name" : "SplitARGBPlane"
  },
  {
   "name" : "SplitARGBRow_AVX2"
  },
  {
   "name" : "SplitARGBRow_Any_AVX2"
  },
  {
   "name" : "SplitARGBRow_Any_SSE2"
  },
  {
   "name" : "SplitARGBRow_Any_SSSE3"
  },
  {
   "name" : "SplitARGBRow_C"
  },
  {
   "name" : "SplitARGBRow_SSE2"
  },
  {
   "name" : "SplitARGBRow_SSSE3"
  },
  {
   "name" : "SplitRGBPlane"
  },
  {
   "name" : "SplitRGBRow_Any_SSSE3"
  },
  {
   "name" : "SplitRGBRow_C"
  },
  {
   "name" : "SplitRGBRow_SSSE3"
  },
  {
   "name" : "SplitRotateUV"
  },
  {
   "name" : "SplitRotateUV180"
  },
  {
   "name" : "SplitRotateUV270"
  },
  {
   "name" : "SplitRotateUV90"
  },
  {
   "name" : "SplitTransposeUV"
  },
  {
   "name" : "SplitUVPlane"
  },
  {
   "name" : "SplitUVPlane_16"
  },
  {
   "name" : "SplitUVRow_16_AVX2"
  },
  {
   "name" : "SplitUVRow_16_Any_AVX2"
  },
  {
   "name" : "SplitUVRow_16_C"
  },
  {
   "name" : "SplitUVRow_AVX2"
  },
  {
   "name" : "SplitUVRow_Any_AVX2"
  },
  {
   "name" : "SplitUVRow_Any_SSE2"
  },
  {
   "name" : "SplitUVRow_C"
  },
  {
   "name" : "SplitUVRow_SSE2"
  },
  {
   "name" : "SplitXRGBRow_AVX2"
  },
  {
   "name" : "SplitXRGBRow_Any_AVX2"
  },
  {
   "name" : "SplitXRGBRow_Any_SSE2"
  },
  {
   "name" : "SplitXRGBRow_Any_SSSE3"
  },
  {
   "name" : "SplitXRGBRow_C"
  },
  {
   "name" : "SplitXRGBRow_SSE2"
  },
  {
   "name" : "SplitXRGBRow_SSSE3"
  },
  {
   "name" : "SumSquareErrorToPsnr"
  },
  {
   "name" : "SumSquareError_C"
  },
  {
   "name" : "SumSquareError_SSE2"
  },
  {
   "name" : "SwapUVPlane"
  },
  {
   "name" : "SwapUVRow_AVX2"
  },
  {
   "name" : "SwapUVRow_Any_AVX2"
  },
  {
   "name" : "SwapUVRow_Any_SSSE3"
  },
  {
   "name" : "SwapUVRow_C"
  },
  {
   "name" : "SwapUVRow_SSSE3"
  },
  {
   "name" : "Transpose4x4_32_AVX2"
  },
  {
   "name" : "Transpose4x4_32_C"
  },
  {
   "name" : "Transpose4x4_32_SSE2"
  },
  {
   "name" : "TransposePlane"
  },
  {
   "name" : "TransposePlane_16"
  },
  {
   "name" : "TransposeUVWx8_16_C"
  },
  {
   "name" : "TransposeUVWx8_C"
  },
  {
   "name" : "TransposeUVWxH_C"
  },
  {
   "name" : "TransposeWx8_16_C"
  },
  {
   "name" : "TransposeWx8_Any_SSSE3"
  },
  {
   "name" : "TransposeWx8_C"
  },
  {
   "name" : "TransposeWx8_SSSE3"
  },
  {
   "name" : "TransposeWxH_16_C"
  },
  {
   "name" : "TransposeWxH_C"
  },
  {
   "name" : "U010ToAB30"
  },
  {
   "name" : "U010ToABGR"
  },
  {
   "name" : "U010ToAR30"
  },
  {
   "name" : "U010ToARGB"
  },
  {
   "name" : "U210ToAB30"
  },
  {
   "name" : "U210ToABGR"
  },
  {
   "name" : "U210ToAR30"
  },
  {
   "name" : "U210ToARGB"
  },
  {
   "name" : "U420ToABGR"
  },
  {
   "name" : "U420ToARGB"
  },
  {
   "name" : "U422ToABGR"
  },
  {
   "name" : "U422ToARGB"
  },
  {
   "name" : "U444ToABGR"
  },
  {
   "name" : "U444ToARGB"
  },
  {
   "name" : "UVScale"
  },
  {
   "name" : "UVScale_16"
  },
  {
   "name" : "UYVYToARGB"
  },
  {
   "name" : "UYVYToARGBRow_AVX2"
  },
  {
   "name" : "UYVYToARGBRow_Any_AVX2"
  },
  {
   "name" : "UYVYToARGBRow_Any_SSSE3"
  },
  {
   "name" : "UYVYToARGBRow_C"
  },
  {
   "name" : "UYVYToARGBRow_SSSE3"
  },
  {
   "name" : "UYVYToI420"
  },
  {
   "name" : "UYVYToI422"
  },
  {
   "name" : "UYVYToNV12"
  },
  {
   "name" : "UYVYToUV422Row_AVX2"
  },
  {
   "name" : "UYVYToUV422Row_Any_AVX2"
  },
  {
   "name" : "UYVYToUV422Row_Any_SSE2"
  },
  {
   "name" : "UYVYToUV422Row_C"
  },
  {
   "name" : "UYVYToUV422Row_SSE2"
  },
  {
   "name" : "UYVYToUVRow_AVX2"
  },
  {
   "name" : "UYVYToUVRow_Any_AVX2"
  },
  {
   "name" : "UYVYToUVRow_Any_SSE2"
  },
  {
   "name" : "UYVYToUVRow_C"
  },
  {
   "name" : "UYVYToUVRow_SSE2"
  },
  {
   "name" : "UYVYToY"
  },
  {
   "name" : "UYVYToYRow_AVX2"
  },
  {
   "name" : "UYVYToYRow_Any_AVX2"
  },
  {
   "name" : "UYVYToYRow_Any_SSE2"
  },
  {
   "name" : "UYVYToYRow_C"
  },
  {
   "name" : "UYVYToYRow_SSE2"
  },
  {
   "name" : "UnpackMT2T_C"
  },
  {
   "name" : "ValidateJpeg"
  },
  {
   "name" : "YUVToARGBScaleClip"
  },
  {
   "name" : "YUY2ToARGB"
  },
  {
   "name" : "YUY2ToARGBRow_AVX2"
  },
  {
   "name" : "YUY2ToARGBRow_Any_AVX2"
  },
  {
   "name" : "YUY2ToARGBRow_Any_SSSE3"
  },
  {
   "name" : "YUY2ToARGBRow_C"
  },
  {
   "name" : "YUY2ToARGBRow_SSSE3"
  },
  {
   "name" : "YUY2ToI420"
  },
  {
   "name" : "YUY2ToI422"
  },
  {
   "name" : "YUY2ToNV12"
  },
  {
   "name" : "YUY2ToNVUVRow_AVX2"
  },
  {
   "name" : "YUY2ToNVUVRow_Any_AVX2"
  },
  {
   "name" : "YUY2ToNVUVRow_Any_SSE2"
  },
  {
   "name" : "YUY2ToNVUVRow_C"
  },
  {
   "name" : "YUY2ToNVUVRow_SSE2"
  },
  {
   "name" : "YUY2ToUV422Row_AVX2"
  },
  {
   "name" : "YUY2ToUV422Row_Any_AVX2"
  },
  {
   "name" : "YUY2ToUV422Row_Any_SSE2"
  },
  {
   "name" : "YUY2ToUV422Row_C"
  },
  {
   "name" : "YUY2ToUV422Row_SSE2"
  },
  {
   "name" : "YUY2ToUVRow_AVX2"
  },
  {
   "name" : "YUY2ToUVRow_Any_AVX2"
  },
  {
   "name" : "YUY2ToUVRow_Any_SSE2"
  },
  {
   "name" : "YUY2ToUVRow_C"
  },
  {
   "name" : "YUY2ToUVRow_SSE2"
  },
  {
   "name" : "YUY2ToY"
  },
  {
   "name" : "YUY2ToYRow_AVX2"
  },
  {
   "name" : "YUY2ToYRow_Any_AVX2"
  },
  {
   "name" : "YUY2ToYRow_Any_SSE2"
  },
  {
   "name" : "YUY2ToYRow_C"
  },
  {
   "name" : "YUY2ToYRow_SSE2"
  },
  {
   "name" : "_ZN6libyuv11init_sourceEP22jpeg_decompress_struct"
  },
  {
   "name" : "_ZN6libyuv11term_sourceEP22jpeg_decompress_struct"
  },
  {
   "name" : "_ZN6libyuv12ErrorHandlerEP18jpeg_common_struct"
  },
  {
   "name" : "_ZN6libyuv12MJpegDecoder11StartDecodeEv"
  },
  {
   "name" : "_ZN6libyuv12MJpegDecoder11UnloadFrameEv"
  },
  {
   "name" : "_ZN6libyuv12MJpegDecoder12FinishDecodeEv"
  },
  {
   "name" : "_ZN6libyuv12MJpegDecoder13GetColorSpaceEv"
  },
  {
   "name" : "_ZN6libyuv12MJpegDecoder15DecodeToBuffersEPPhii"
  },
  {
   "name" : "_ZN6libyuv12MJpegDecoder16DecodeToCallbackEPFvPvPKPKhPKiiES1_ii"
  },
  {
   "name" : "_ZN6libyuv12MJpegDecoder16GetComponentSizeEi"
  },
  {
   "name" : "_ZN6libyuv12MJpegDecoder16GetNumComponentsEv"
  },
  {
   "name" : "_ZN6libyuv12MJpegDecoder17GetComponentWidthEi"
  },
  {
   "name" : "_ZN6libyuv12MJpegDecoder17GetVertSampFactorEi"
  },
  {
   "name" : "_ZN6libyuv12MJpegDecoder18AllocOutputBuffersEi"
  },
  {
   "name" : "_ZN6libyuv12MJpegDecoder18GetComponentHeightEi"
  },
  {
   "name" : "_ZN6libyuv12MJpegDecoder18GetComponentStrideEi"
  },
  {
   "name" : "_ZN6libyuv12MJpegDecoder18GetHorizSampFactorEi"
  },
  {
   "name" : "_ZN6libyuv12MJpegDecoder19SetScanlinePointersEPPh"
  },
  {
   "name" : "_ZN6libyuv12MJpegDecoder20DestroyOutputBuffersEv"
  },
  {
   "name" : "_ZN6libyuv12MJpegDecoder20GetVertSubSampFactorEi"
  },
  {
   "name" : "_ZN6libyuv12MJpegDecoder21GetHorizSubSampFactorEi"
  },
  {
   "name" : "_ZN6libyuv12MJpegDecoder25JpegSubsamplingTypeHelperEPiS1_i"
  },
  {
   "name" : "_ZN6libyuv12MJpegDecoder27GetImageScanlinesPerImcuRowEv"
  },
  {
   "name" : "_ZN6libyuv12MJpegDecoder31GetComponentScanlinesPerImcuRowEi"
  },
  {
   "name" : "_ZN6libyuv12MJpegDecoder8GetWidthEv"
  },
  {
   "name" : "_ZN6libyuv12MJpegDecoder9GetHeightEv"
  },
  {
   "name" : "_ZN6libyuv12MJpegDecoder9LoadFrameEPKhj"
  },
  {
   "name" : "_ZN6libyuv12MJpegDecoderC1Ev"
  },
  {
   "name" : "_ZN6libyuv12MJpegDecoderC2Ev"
  },
  {
   "name" : "_ZN6libyuv12MJpegDecoderD1Ev"
  },
  {
   "name" : "_ZN6libyuv12MJpegDecoderD2Ev"
  },
  {
   "name" : "_ZN6libyuv13OutputHandlerEP18jpeg_common_struct"
  },
  {
   "name" : "_ZN6libyuv15skip_input_dataEP22jpeg_decompress_structl"
  },
  {
   "name" : "_ZN6libyuv17fill_input_bufferEP22jpeg_decompress_struct"
  }
 ],
 "elf_objects" :
 [
  {
   "name" : "_ZN6libyuv12MJpegDecoder14kColorSpaceRgbE"
  },
  {
   "name" : "_ZN6libyuv12MJpegDecoder15kColorSpaceCMYKE"
  },
  {
   "name" : "_ZN6libyuv12MJpegDecoder15kColorSpaceYCCKE"
  },
  {
   "name" : "_ZN6libyuv12MJpegDecoder16kColorSpaceYCbCrE"
  },
  {
   "name" : "_ZN6libyuv12MJpegDecoder18kColorSpaceUnknownE"
  },
  {
   "name" : "_ZN6libyuv12MJpegDecoder20kColorSpaceGrayscaleE"
  },
  {
   "name" : "cpu_info_"
  },
  {
   "name" : "fixed_invtbl8"
  },
  {
   "name" : "kYuv2020Constants"
  },
  {
   "name" : "kYuvF709Constants"
  },
  {
   "name" : "kYuvH709Constants"
  },
  {
   "name" : "kYuvI601Constants"
  },
  {
   "name" : "kYuvJPEGConstants"
  },
  {
   "name" : "kYuvV2020Constants"
  },
  {
   "name" : "kYvu2020Constants"
  },
  {
   "name" : "kYvuF709Constants"
  },
  {
   "name" : "kYvuH709Constants"
  },
  {
   "name" : "kYvuI601Constants"
  },
  {
   "name" : "kYvuJPEGConstants"
  },
  {
   "name" : "kYvuV2020Constants"
  }
 ],
 "enum_types" :
 [
  {
   "alignment" : 4,
   "enum_fields" :
   [
    {
     "enum_field_value" : 0,
     "name" : "libyuv::kFilterNone"
    },
    {
     "enum_field_value" : 1,
     "name" : "libyuv::kFilterLinear"
    },
    {
     "enum_field_value" : 2,
     "name" : "libyuv::kFilterBilinear"
    },
    {
     "enum_field_value" : 3,
     "name" : "libyuv::kFilterBox"
    }
   ],
   "linker_set_key" : "_ZTIN6libyuv10FilterModeE",
   "name" : "libyuv::FilterMode",
   "referenced_type" : "_ZTIN6libyuv10FilterModeE",
   "self_type" : "_ZTIN6libyuv10FilterModeE",
   "size" : 4,
   "source_file" : "external/libyuv/include/libyuv/scale.h",
   "underlying_type" : "_ZTIj"
  },
  {
   "alignment" : 4,
   "enum_fields" :
   [
    {
     "enum_field_value" : 0,
     "name" : "libyuv::kRotate0"
    },
    {
     "enum_field_value" : 90,
     "name" : "libyuv::kRotate90"
    },
    {
     "enum_field_value" : 180,
     "name" : "libyuv::kRotate180"
    },
    {
     "enum_field_value" : 270,
     "name" : "libyuv::kRotate270"
    },
    {
     "enum_field_value" : 0,
     "name" : "libyuv::kRotateNone"
    },
    {
     "enum_field_value" : 90,
     "name" : "libyuv::kRotateClockwise"
    },
    {
     "enum_field_value" : 270,
     "name" : "libyuv::kRotateCounterClockwise"
    }
   ],
   "linker_set_key" : "_ZTIN6libyuv12RotationModeE",
   "name" : "libyuv::RotationMode",
   "referenced_type" : "_ZTIN6libyuv12RotationModeE",
   "self_type" : "_ZTIN6libyuv12RotationModeE",
   "size" : 4,
   "source_file" : "external/libyuv/include/libyuv/rotate.h",
   "underlying_type" : "_ZTIj"
  },
  {
   "alignment" : 4,
   "enum_fields" :
   [
    {
     "enum_field_value" : 0,
     "name" : "libyuv::kJpegYuv420"
    },
    {
     "enum_field_value" : 1,
     "name" : "libyuv::kJpegYuv422"
    },
    {
     "enum_field_value" : 2,
     "name" : "libyuv::kJpegYuv444"
    },
    {
     "enum_field_value" : 3,
     "name" : "libyuv::kJpegYuv400"
    },
    {
     "enum_field_value" : 4,
     "name" : "libyuv::kJpegUnknown"
    }
   ],
   "linker_set_key" : "_ZTIN6libyuv19JpegSubsamplingTypeE",
   "name" : "libyuv::JpegSubsamplingType",
   "referenced_type" : "_ZTIN6libyuv19JpegSubsamplingTypeE",
   "self_type" : "_ZTIN6libyuv19JpegSubsamplingTypeE",
   "size" : 4,
   "source_file" : "external/libyuv/include/libyuv/mjpeg_decoder.h",
   "underlying_type" : "_ZTIj"
  },
  {
   "alignment" : 4,
   "enum_fields" :
   [
    {
     "enum_field_value" : 808596553,
     "name" : "libyuv::FOURCC_I420"
    },
    {
     "enum_field_value" : 842150985,
     "name" : "libyuv::FOURCC_I422"
    },
    {
     "enum_field_value" : 875836489,
     "name" : "libyuv::FOURCC_I444"
    },
    {
     "enum_field_value" : 808465481,
     "name" : "libyuv::FOURCC_I400"
    },
    {
     "enum_field_value" : 825382478,
     "name" : "libyuv::FOURCC_NV21"
    },
    {
     "enum_field_value" : 842094158,
     "name" : "libyuv::FOURCC_NV12"
    },
    {
     "enum_field_value" : 844715353,
     "name" : "libyuv::FOURCC_YUY2"
    },
    {
     "enum_field_value" : 1498831189,
     "name" : "libyuv::FOURCC_UYVY"
    },
    {
     "enum_field_value" : 808529993,
     "name" : "libyuv::FOURCC_I010"
    },
    {
     "enum_field_value" : 808530505,
     "name" : "libyuv::FOURCC_I210"
    },
    {
     "enum_field_value" : 808596557,
     "name" : "libyuv::FOURCC_M420"
    },
    {
     "enum_field_value" : 1111970369,
     "name" : "libyuv::FOURCC_ARGB"
    },
    {
     "enum_field_value" : 1095911234,
     "name" : "libyuv::FOURCC_BGRA"
    },
    {
     "enum_field_value" : 1380401729,
     "name" : "libyuv::FOURCC_ABGR"
    },
    {
     "enum_field_value" : 808669761,
     "name" : "libyuv::FOURCC_AR30"
    },
    {
     "enum_field_value" : 808665665,
     "name" : "libyuv::FOURCC_AB30"
    },
    {
     "enum_field_value" : 875975233,
     "name" : "libyuv::FOURCC_AR64"
    },
    {
     "enum_field_value" : 875971137,
     "name" : "libyuv::FOURCC_AB64"
    },
    {
     "enum_field_value" : 1195521074,
     "name" : "libyuv::FOURCC_24BG"
    },
    {
     "enum_field_value" : 544694642,
     "name" : "libyuv::FOURCC_RAW"
    },
    {
     "enum_field_value" : 1094862674,
     "name" : "libyuv::FOURCC_RGBA"
    },
    {
     "enum_field_value" : 1346520914,
     "name" : "libyuv::FOURCC_RGBP"
    },
    {
     "enum_field_value" : 1329743698,
     "name" : "libyuv::FOURCC_RGBO"
    },
    {
     "enum_field_value" : 875836498,
     "name" : "libyuv::FOURCC_R444"
    },
    {
     "enum_field_value" : 1196444237,
     "name" : "libyuv::FOURCC_MJPG"
    },
    {
     "enum_field_value" : 842094169,
     "name" : "libyuv::FOURCC_YV12"
    },
    {
     "enum_field_value" : 909203033,
     "name" : "libyuv::FOURCC_YV16"
    },
    {
     "enum_field_value" : 875714137,
     "name" : "libyuv::FOURCC_YV24"
    },
    {
     "enum_field_value" : 842093913,
     "name" : "libyuv::FOURCC_YU12"
    },
    {
     "enum_field_value" : 808596554,
     "name" : "libyuv::FOURCC_J420"
    },
    {
     "enum_field_value" : 842150986,
     "name" : "libyuv::FOURCC_J422"
    },
    {
     "enum_field_value" : 875836490,
     "name" : "libyuv::FOURCC_J444"
    },
    {
     "enum_field_value" : 808465482,
     "name" : "libyuv::FOURCC_J400"
    },
    {
     "enum_field_value" : 808596550,
     "name" : "libyuv::FOURCC_F420"
    },
    {
     "enum_field_value" : 842150982,
     "name" : "libyuv::FOURCC_F422"
    },
    {
     "enum_field_value" : 875836486,
     "name" : "libyuv::FOURCC_F444"
    },
    {
     "enum_field_value" : 808596552,
     "name" : "libyuv::FOURCC_H420"
    },
    {
     "enum_field_value" : 842150984,
     "name" : "libyuv::FOURCC_H422"
    },
    {
     "enum_field_value" : 875836488,
     "name" : "libyuv::FOURCC_H444"
    },
    {
     "enum_field_value" : 808596565,
     "name" : "libyuv::FOURCC_U420"
    },
    {
     "enum_field_value" : 842150997,
     "name" : "libyuv::FOURCC_U422"
    },
    {
     "enum_field_value" : 875836501,
     "name" : "libyuv::FOURCC_U444"
    },
    {
     "enum_field_value" : 808529990,
     "name" : "libyuv::FOURCC_F010"
    },
    {
     "enum_field_value" : 808529992,
     "name" : "libyuv::FOURCC_H010"
    },
    {
     "enum_field_value" : 808530005,
     "name" : "libyuv::FOURCC_U010"
    },
    {
     "enum_field_value" : 808530502,
     "name" : "libyuv::FOURCC_F210"
    },
    {
     "enum_field_value" : 808530504,
     "name" : "libyuv::FOURCC_H210"
    },
    {
     "enum_field_value" : 808530517,
     "name" : "libyuv::FOURCC_U210"
    },
    {
     "enum_field_value" : 808530000,
     "name" : "libyuv::FOURCC_P010"
    },
    {
     "enum_field_value" : 808530512,
     "name" : "libyuv::FOURCC_P210"
    },
    {
     "enum_field_value" : 1448433993,
     "name" : "libyuv::FOURCC_IYUV"
    },
    {
     "enum_field_value" : 909202777,
     "name" : "libyuv::FOURCC_YU16"
    },
    {
     "enum_field_value" : 875713881,
     "name" : "libyuv::FOURCC_YU24"
    },
    {
     "enum_field_value" : 1448695129,
     "name" : "libyuv::FOURCC_YUYV"
    },
    {
     "enum_field_value" : 1937143161,
     "name" : "libyuv::FOURCC_YUVS"
    },
    {
     "enum_field_value" : 1129923656,
     "name" : "libyuv::FOURCC_HDYC"
    },
    {
     "enum_field_value" : 2037741106,
     "name" : "libyuv::FOURCC_2VUY"
    },
    {
     "enum_field_value" : 1195724874,
     "name" : "libyuv::FOURCC_JPEG"
    },
    {
     "enum_field_value" : 828534116,
     "name" : "libyuv::FOURCC_DMB1"
    },
    {
     "enum_field_value" : 825770306,
     "name" : "libyuv::FOURCC_BA81"
    },
    {
     "enum_field_value" : 859981650,
     "name" : "libyuv::FOURCC_RGB3"
    },
    {
     "enum_field_value" : 861030210,
     "name" : "libyuv::FOURCC_BGR3"
    },
    {
     "enum_field_value" : 536870912,
     "name" : "libyuv::FOURCC_CM32"
    },
    {
     "enum_field_value" : 402653184,
     "name" : "libyuv::FOURCC_CM24"
    },
    {
     "enum_field_value" : 892679500,
     "name" : "libyuv::FOURCC_L555"
    },
    {
     "enum_field_value" : 892745036,
     "name" : "libyuv::FOURCC_L565"
    },
    {
     "enum_field_value" : 825570613,
     "name" : "libyuv::FOURCC_5551"
    },
    {
     "enum_field_value" : 825308233,
     "name" : "libyuv::FOURCC_I411"
    },
    {
     "enum_field_value" : 808596561,
     "name" : "libyuv::FOURCC_Q420"
    },
    {
     "enum_field_value" : 1111967570,
     "name" : "libyuv::FOURCC_RGGB"
    },
    {
     "enum_field_value" : 1380403010,
     "name" : "libyuv::FOURCC_BGGR"
    },
    {
     "enum_field_value" : 1195528775,
     "name" : "libyuv::FOURCC_GRBG"
    },
    {
     "enum_field_value" : 1196573255,
     "name" : "libyuv::FOURCC_GBRG"
    },
    {
     "enum_field_value" : 875967048,
     "name" : "libyuv::FOURCC_H264"
    },
    {
     "enum_field_value" : -1,
     "name" : "libyuv::FOURCC_ANY"
    }
   ],
   "linker_set_key" : "_ZTIN6libyuv6FourCCE",
   "name" : "libyuv::FourCC",
   "referenced_type" : "_ZTIN6libyuv6FourCCE",
   "self_type" : "_ZTIN6libyuv6FourCCE",
   "size" : 4,
   "source_file" : "external/libyuv/include/libyuv/video_common.h",
   "underlying_type" : "_ZTIi"
  },
  {
   "alignment" : 4,
   "enum_fields" :
   [
    {
     "enum_field_value" : 12,
     "name" : "libyuv::FOURCC_BPP_I420"
    },
    {
     "enum_field_value" : 16,
     "name" : "libyuv::FOURCC_BPP_I422"
    },
    {
     "enum_field_value" : 24,
     "name" : "libyuv::FOURCC_BPP_I444"
    },
    {
     "enum_field_value" : 12,
     "name" : "libyuv::FOURCC_BPP_I411"
    },
    {
     "enum_field_value" : 8,
     "name" : "libyuv::FOURCC_BPP_I400"
    },
    {
     "enum_field_value" : 12,
     "name" : "libyuv::FOURCC_BPP_NV21"
    },
    {
     "enum_field_value" : 12,
     "name" : "libyuv::FOURCC_BPP_NV12"
    },
    {
     "enum_field_value" : 16,
     "name" : "libyuv::FOURCC_BPP_YUY2"
    },
    {
     "enum_field_value" : 16,
     "name" : "libyuv::FOURCC_BPP_UYVY"
    },
    {
     "enum_field_value" : 12,
     "name" : "libyuv::FOURCC_BPP_M420"
    },
    {
     "enum_field_value" : 12,
     "name" : "libyuv::FOURCC_BPP_Q420"
    },
    {
     "enum_field_value" : 32,
     "name" : "libyuv::FOURCC_BPP_ARGB"
    },
    {
     "enum_field_value" : 32,
     "name" : "libyuv::FOURCC_BPP_BGRA"
    },
    {
     "enum_field_value" : 32,
     "name" : "libyuv::FOURCC_BPP_ABGR"
    },
    {
     "enum_field_value" : 32,
     "name" : "libyuv::FOURCC_BPP_RGBA"
    },
    {
     "enum_field_value" : 32,
     "name" : "libyuv::FOURCC_BPP_AR30"
    },
    {
     "enum_field_value" : 32,
     "name" : "libyuv::FOURCC_BPP_AB30"
    },
    {
     "enum_field_value" : 64,
     "name" : "libyuv::FOURCC_BPP_AR64"
    },
    {
     "enum_field_value" : 64,
     "name" : "libyuv::FOURCC_BPP_AB64"
    },
    {
     "enum_field_value" : 24,
     "name" : "libyuv::FOURCC_BPP_24BG"
    },
    {
     "enum_field_value" : 24,
     "name" : "libyuv::FOURCC_BPP_RAW"
    },
    {
     "enum_field_value" : 16,
     "name" : "libyuv::FOURCC_BPP_RGBP"
    },
    {
     "enum_field_value" : 16,
     "name" : "libyuv::FOURCC_BPP_RGBO"
    },
    {
     "enum_field_value" : 16,
     "name" : "libyuv::FOURCC_BPP_R444"
    },
    {
     "enum_field_value" : 8,
     "name" : "libyuv::FOURCC_BPP_RGGB"
    },
    {
     "enum_field_value" : 8,
     "name" : "libyuv::FOURCC_BPP_BGGR"
    },
    {
     "enum_field_value" : 8,
     "name" : "libyuv::FOURCC_BPP_GRBG"
    },
    {
     "enum_field_value" : 8,
     "name" : "libyuv::FOURCC_BPP_GBRG"
    },
    {
     "enum_field_value" : 12,
     "name" : "libyuv::FOURCC_BPP_YV12"
    },
    {
     "enum_field_value" : 16,
     "name" : "libyuv::FOURCC_BPP_YV16"
    },
    {
     "enum_field_value" : 24,
     "name" : "libyuv::FOURCC_BPP_YV24"
    },
    {
     "enum_field_value" : 12,
     "name" : "libyuv::FOURCC_BPP_YU12"
    },
    {
     "enum_field_value" : 12,
     "name" : "libyuv::FOURCC_BPP_J420"
    },
    {
     "enum_field_value" : 8,
     "name" : "libyuv::FOURCC_BPP_J400"
    },
    {
     "enum_field_value" : 12,
     "name" : "libyuv::FOURCC_BPP_H420"
    },
    {
     "enum_field_value" : 16,
     "name" : "libyuv::FOURCC_BPP_H422"
    },
    {
     "enum_field_value" : 15,
     "name" : "libyuv::FOURCC_BPP_I010"
    },
    {
     "enum_field_value" : 20,
     "name" : "libyuv::FOURCC_BPP_I210"
    },
    {
     "enum_field_value" : 15,
     "name" : "libyuv::FOURCC_BPP_H010"
    },
    {
     "enum_field_value" : 20,
     "name" : "libyuv::FOURCC_BPP_H210"
    },
    {
     "enum_field_value" : 15,
     "name" : "libyuv::FOURCC_BPP_P010"
    },
    {
     "enum_field_value" : 20,
     "name" : "libyuv::FOURCC_BPP_P210"
    },
    {
     "enum_field_value" : 0,
     "name" : "libyuv::FOURCC_BPP_MJPG"
    },
    {
     "enum_field_value" : 0,
     "name" : "libyuv::FOURCC_BPP_H264"
    },
    {
     "enum_field_value" : 12,
     "name" : "libyuv::FOURCC_BPP_IYUV"
    },
    {
     "enum_field_value" : 16,
     "name" : "libyuv::FOURCC_BPP_YU16"
    },
    {
     "enum_field_value" : 24,
     "name" : "libyuv::FOURCC_BPP_YU24"
    },
    {
     "enum_field_value" : 16,
     "name" : "libyuv::FOURCC_BPP_YUYV"
    },
    {
     "enum_field_value" : 16,
     "name" : "libyuv::FOURCC_BPP_YUVS"
    },
    {
     "enum_field_value" : 16,
     "name" : "libyuv::FOURCC_BPP_HDYC"
    },
    {
     "enum_field_value" : 16,
     "name" : "libyuv::FOURCC_BPP_2VUY"
    },
    {
     "enum_field_value" : 1,
     "name" : "libyuv::FOURCC_BPP_JPEG"
    },
    {
     "enum_field_value" : 1,
     "name" : "libyuv::FOURCC_BPP_DMB1"
    },
    {
     "enum_field_value" : 8,
     "name" : "libyuv::FOURCC_BPP_BA81"
    },
    {
     "enum_field_value" : 24,
     "name" : "libyuv::FOURCC_BPP_RGB3"
    },
    {
     "enum_field_value" : 24,
     "name" : "libyuv::FOURCC_BPP_BGR3"
    },
    {
     "enum_field_value" : 32,
     "name" : "libyuv::FOURCC_BPP_CM32"
    },
    {
     "enum_field_value" : 24,
     "name" : "libyuv::FOURCC_BPP_CM24"
    },
    {
     "enum_field_value" : 0,
     "name" : "libyuv::FOURCC_BPP_ANY"
    }
   ],
   "linker_set_key" : "_ZTIN6libyuv9FourCCBppE",
   "name" : "libyuv::FourCCBpp",
   "referenced_type" : "_ZTIN6libyuv9FourCCBppE",
   "self_type" : "_ZTIN6libyuv9FourCCBppE",
   "size" : 4,
   "source_file" : "external/libyuv/include/libyuv/video_common.h",
   "underlying_type" : "_ZTIj"
  }
 ],
 "function_types" :
 [
  {
   "alignment" : 4,
   "linker_set_key" : "_ZTIFvPKhS0_PhiE",
   "name" : "void (const unsigned char *, const unsigned char *, unsigned char *, int)",
   "parameters" :
   [
    {
     "referenced_type" : "_ZTIPKh"
    },
    {
     "referenced_type" : "_ZTIPKh"
    },
    {
     "referenced_type" : "_ZTIPh"
    },
    {
     "referenced_type" : "_ZTIi"
    }
   ],
   "referenced_type" : "_ZTIFvPKhS0_PhiE",
   "return_type" : "_ZTIv",
   "self_type" : "_ZTIFvPKhS0_PhiE",
   "source_file" : "external/libyuv/include/libyuv/planar_functions.h"
  },
  {
   "alignment" : 4,
   "linker_set_key" : "_ZTIFvPvPKPKhPKiiE",
   "name" : "void (void *, const unsigned char *const *, const int *, int)",
   "parameters" :
   [
    {
     "referenced_type" : "_ZTIPv"
    },
    {
     "referenced_type" : "_ZTIPKPKh"
    },
    {
     "referenced_type" : "_ZTIPKi"
    },
    {
     "referenced_type" : "_ZTIi"
    }
   ],
   "referenced_type" : "_ZTIFvPvPKPKhPKiiE",
   "return_type" : "_ZTIv",
   "self_type" : "_ZTIFvPvPKPKhPKiiE",
   "source_file" : "external/libyuv/include/libyuv/mjpeg_decoder.h"
  }
 ],
 "functions" :
 [
  {
   "function_name" : "libyuv::AB64ToARGB",
   "linker_set_key" : "AB64ToARGB",
   "parameters" :
   [
    {
     "referenced_type" : "_ZTIPKt"
    },
    {
     "referenced_type" : "_ZTIi"
    },
    {
     "referenced_type" : "_ZTIPh"
    },
    {
     "referenced_type" : "_ZTIi"
    },
    {
     "referenced_type" : "_ZTIi"
    },
    {
     "referenced_type" : "_ZTIi"
    }
   ],
   "return_type" : "_ZTIi",
   "source_file" : "external/libyuv/include/libyuv/convert_argb.h"
  },
  {
   "function_name" : "libyuv::AB64ToARGBRow_AVX2",
   "linker_set_key" : "AB64ToARGBRow_AVX2",
   "parameters" :
   [
    {
     "referenced_type" : "_ZTIPKt"
    },
    {
     "referenced_type" : "_ZTIPh"
    },
    {
     "referenced_type" : "_ZTIi"
    }
   ],
   "return_type" : "_ZTIv",
   "source_file" : "external/libyuv/include/libyuv/row.h"
  },
  {
   "function_name" : "libyuv::AB64ToARGBRow_Any_AVX2",
   "linker_set_key" : "AB64ToARGBRow_Any_AVX2",
   "parameters" :
   [
    {
     "referenced_type" : "_ZTIPKt"
    },
    {
     "referenced_type" : "_ZTIPh"
    },
    {
     "referenced_type" : "_ZTIi"
    }
   ],
   "return_type" : "_ZTIv",
   "source_file" : "external/libyuv/include/libyuv/row.h"
  },
  {
   "function_name" : "libyuv::AB64ToARGBRow_Any_SSSE3",
   "linker_set_key" : "AB64ToARGBRow_Any_SSSE3",
   "parameters" :
   [
    {
     "referenced_type" : "_ZTIPKt"
    },
    {
     "referenced_type" : "_ZTIPh"
    },
    {
     "referenced_type" : "_ZTIi"
    }
   ],
   "return_type" : "_ZTIv",
   "source_file" : "external/libyuv/include/libyuv/row.h"
  },
  {
   "function_name" : "libyuv::AB64ToARGBRow_C",
   "linker_set_key" : "AB64ToARGBRow_C",
   "parameters" :
   [
    {
     "referenced_type" : "_ZTIPKt"
    },
    {
     "referenced_type" : "_ZTIPh"
    },
    {
     "referenced_type" : "_ZTIi"
    }
   ],
   "return_type" : "_ZTIv",
   "source_file" : "external/libyuv/include/libyuv/row.h"
  },
  {
   "function_name" : "libyuv::AB64ToARGBRow_SSSE3",
   "linker_set_key" : "AB64ToARGBRow_SSSE3",
   "parameters" :
   [
    {
     "referenced_type" : "_ZTIPKt"
    },
    {
     "referenced_type" : "_ZTIPh"
    },
    {
     "referenced_type" : "_ZTIi"
    }
   ],
   "return_type" : "_ZTIv",
   "source_file" : "external/libyuv/include/libyuv/row.h"
  },
  {
   "function_name" : "libyuv::ABGRToAR30",
   "linker_set_key" : "ABGRToAR30",
   "parameters" :
   [
    {
     "referenced_type" : "_ZTIPKh"
    },
    {
     "referenced_type" : "_ZTIi"
    },
    {
     "referenced_type" : "_ZTIPh"
    },
    {
     "referenced_type" : "_ZTIi"
    },
    {
     "referenced_type" : "_ZTIi"
    },
    {
     "referenced_type" : "_ZTIi"
    }
   ],
   "return_type" : "_ZTIi",
   "source_file" : "external/libyuv/include/libyuv/convert_from_argb.h"
  },
  {
   "function_name" : "libyuv::ABGRToAR30Row_AVX2",
   "linker_set_key" : "ABGRToAR30Row_AVX2",
   "parameters" :
   [
    {
     "referenced_type" : "_ZTIPKh"
    },
    {
     "referenced_type" : "_ZTIPh"
    },
    {
     "referenced_type" : "_ZTIi"
    }
   ],
   "return_type" : "_ZTIv",
   "source_file" : "external/libyuv/include/libyuv/row.h"
  },
  {
   "function_name" : "libyuv::ABGRToAR30Row_Any_AVX2",
   "linker_set_key" : "ABGRToAR30Row_Any_AVX2",
   "parameters" :
   [
    {
     "referenced_type" : "_ZTIPKh"
    },
    {
     "referenced_type" : "_ZTIPh"
    },
    {
     "referenced_type" : "_ZTIi"
    }
   ],
   "return_type" : "_ZTIv",
   "source_file" : "external/libyuv/include/libyuv/row.h"
  },
  {
   "function_name" : "libyuv::ABGRToAR30Row_Any_SSSE3",
   "linker_set_key" : "ABGRToAR30Row_Any_SSSE3",
   "parameters" :
   [
    {
     "referenced_type" : "_ZTIPKh"
    },
    {
     "referenced_type" : "_ZTIPh"
    },
    {
     "referenced_type" : "_ZTIi"
    }
   ],
   "return_type" : "_ZTIv",
   "source_file" : "external/libyuv/include/libyuv/row.h"
  },
  {
   "function_name" : "libyuv::ABGRToAR30Row_C",
   "linker_set_key" : "ABGRToAR30Row_C",
   "parameters" :
   [
    {
     "referenced_type" : "_ZTIPKh"
    },
    {
     "referenced_type" : "_ZTIPh"
    },
    {
     "referenced_type" : "_ZTIi"
    }
   ],
   "return_type" : "_ZTIv",
   "source_file" : "external/libyuv/include/libyuv/row.h"
  },
  {
   "function_name" : "libyuv::ABGRToAR30Row_SSSE3",
   "linker_set_key" : "ABGRToAR30Row_SSSE3",
   "parameters" :
   [
    {
     "referenced_type" : "_ZTIPKh"
    },
    {
     "referenced_type" : "_ZTIPh"
    },
    {
     "referenced_type" : "_ZTIi"
    }
   ],
   "return_type" : "_ZTIv",
   "source_file" : "external/libyuv/include/libyuv/row.h"
  },
  {
   "function_name" : "libyuv::ABGRToARGB",
   "linker_set_key" : "ABGRToARGB",
   "parameters" :
   [
    {
     "referenced_type" : "_ZTIPKh"
    },
    {
     "referenced_type" : "_ZTIi"
    },
    {
     "referenced_type" : "_ZTIPh"
    },
    {
     "referenced_type" : "_ZTIi"
    },
    {
     "referenced_type" : "_ZTIi"
    },
    {
     "referenced_type" : "_ZTIi"
    }
   ],
   "return_type" : "_ZTIi",
   "source_file" : "external/libyuv/include/libyuv/convert_argb.h"
  },
  {
   "function_name" : "libyuv::ABGRToI420",
   "linker_set_key" : "ABGRToI420",
   "parameters" :
   [
    {
     "referenced_type" : "_ZTIPKh"
    },
    {
     "referenced_type" : "_ZTIi"
    },
    {
     "referenced_type" : "_ZTIPh"
    },
    {
     "referenced_type" : "_ZTIi"
    },
    {
     "referenced_type" : "_ZTIPh"
    },
    {
     "referenced_type" : "_ZTIi"
    },
    {
     "referenced_type" : "_ZTIPh"
    },
    {
     "referenced_type" : "_ZTIi"
    },
    {
     "referenced_type" : "_ZTIi"
    },
    {
     "referenced_type" : "_ZTIi"
    }
   ],
   "return_type" : "_ZTIi",
   "source_file" : "external/libyuv/include/libyuv/convert.h"
  },
  {
   "function_name" : "libyuv::ABGRToJ400",
   "linker_set_key" : "ABGRToJ400",
   "parameters" :
   [
    {
     "referenced_type" : "_ZTIPKh"
    },
    {
     "referenced_type" : "_ZTIi"
    },
    {
     "referenced_type" : "_ZTIPh"
    },
    {
     "referenced_type" : "_ZTIi"
    },
    {
     "referenced_type" : "_ZTIi"
    },
    {
     "referenced_type" : "_ZTIi"
    }
   ],
   "return_type" : "_ZTIi",
   "source_file" : "external/libyuv/include/libyuv/convert_from_argb.h"
  },
  {
   "function_name" : "libyuv::ABGRToJ420",
   "linker_set_key" : "ABGRToJ420",
   "parameters" :
   [
    {
     "referenced_type" : "_ZTIPKh"
    },
    {
     "referenced_type" : "_ZTIi"
    },
    {
     "referenced_type" : "_ZTIPh"
    },
    {
     "referenced_type" : "_ZTIi"
    },
    {
     "referenced_type" : "_ZTIPh"
    },
    {
     "referenced_type" : "_ZTIi"
    },
    {
     "referenced_type" : "_ZTIPh"
    },
    {
     "referenced_type" : "_ZTIi"
    },
    {
     "referenced_type" : "_ZTIi"
    },
    {
     "referenced_type" : "_ZTIi"
    }
   ],
   "return_type" : "_ZTIi",
   "source_file" : "external/libyuv/include/libyuv/convert_from_argb.h"
  },
  {
   "function_name" : "libyuv::ABGRToJ422",
   "linker_set_key" : "ABGRToJ422",
   "parameters" :
   [
    {
     "referenced_type" : "_ZTIPKh"
    },
    {
     "referenced_type" : "_ZTIi"
    },
    {
     "referenced_type" : "_ZTIPh"
    },
    {
     "referenced_type" : "_ZTIi"
    },
    {
     "referenced_type" : "_ZTIPh"
    },
    {
     "referenced_type" : "_ZTIi"
    },
    {
     "referenced_type" : "_ZTIPh"
    },
    {
     "referenced_type" : "_ZTIi"
    },
    {
     "referenced_type" : "_ZTIi"
    },
    {
     "referenced_type" : "_ZTIi"
    }
   ],
   "return_type" : "_ZTIi",
   "source_file" : "external/libyuv/include/libyuv/convert_from_argb.h"
  },
  {
   "function_name" : "libyuv::ABGRToNV12",
   "linker_set_key" : "ABGRToNV12",
   "parameters" :
   [
    {
     "referenced_type" : "_ZTIPKh"
    },
    {
     "referenced_type" : "_ZTIi"
    },
    {
     "referenced_type" : "_ZTIPh"
    },
    {
     "referenced_type" : "_ZTIi"
    },
    {
     "referenced_type" : "_ZTIPh"
    },
    {
     "referenced_type" : "_ZTIi"
    },
    {
     "referenced_type" : "_ZTIi"
    },
    {
     "referenced_type" : "_ZTIi"
    }
   ],
   "return_type" : "_ZTIi",
   "source_file" : "external/libyuv/include/libyuv/convert_from_argb.h"
  },
  {
   "function_name" : "libyuv::ABGRToNV21",
   "linker_set_key" : "ABGRToNV21",
   "parameters" :
   [
    {
     "referenced_type" : "_ZTIPKh"
    },
    {
     "referenced_type" : "_ZTIi"
    },
    {
     "referenced_type" : "_ZTIPh"
    },
    {
     "referenced_type" : "_ZTIi"
    },
    {
     "referenced_type" : "_ZTIPh"
    },
    {
     "referenced_type" : "_ZTIi"
    },
    {
     "referenced_type" : "_ZTIi"
    },
    {
     "referenced_type" : "_ZTIi"
    }
   ],
   "return_type" : "_ZTIi",
   "source_file" : "external/libyuv/include/libyuv/convert_from_argb.h"
  },
  {
   "function_name" : "libyuv::ABGRToUVJRow_AVX2",
   "linker_set_key" : "ABGRToUVJRow_AVX2",
   "parameters" :
   [
    {
     "referenced_type" : "_ZTIPKh"
    },
    {
     "referenced_type" : "_ZTIi"
    },
    {
     "referenced_type" : "_ZTIPh"
    },
    {
     "referenced_type" : "_ZTIPh"
    },
    {
     "referenced_type" : "_ZTIi"
    }
   ],
   "return_type" : "_ZTIv",
   "source_file" : "external/libyuv/include/libyuv/row.h"
  },
  {
   "function_name" : "libyuv::ABGRToUVJRow_Any_AVX2",
   "linker_set_key" : "ABGRToUVJRow_Any_AVX2",
   "parameters" :
   [
    {
     "referenced_type" : "_ZTIPKh"
    },
    {
     "referenced_type" : "_ZTIi"
    },
    {
     "referenced_type" : "_ZTIPh"
    },
    {
     "referenced_type" : "_ZTIPh"
    },
    {
     "referenced_type" : "_ZTIi"
    }
   ],
   "return_type" : "_ZTIv",
   "source_file" : "external/libyuv/include/libyuv/row.h"
  },
  {
   "function_name" : "libyuv::ABGRToUVJRow_Any_SSSE3",
   "linker_set_key" : "ABGRToUVJRow_Any_SSSE3",
   "parameters" :
   [
    {
     "referenced_type" : "_ZTIPKh"
    },
    {
     "referenced_type" : "_ZTIi"
    },
    {
     "referenced_type" : "_ZTIPh"
    },
    {
     "referenced_type" : "_ZTIPh"
    },
    {
     "referenced_type" : "_ZTIi"
    }
   ],
   "return_type" : "_ZTIv",
   "source_file" : "external/libyuv/include/libyuv/row.h"
  },
  {
   "function_name" : "libyuv::ABGRToUVJRow_C",
   "linker_set_key" : "ABGRToUVJRow_C",
   "parameters" :
   [
    {
     "referenced_type" : "_ZTIPKh"
    },
    {
     "referenced_type" : "_ZTIi"
    },
    {
     "referenced_type" : "_ZTIPh"
    },
    {
     "referenced_type" : "_ZTIPh"
    },
    {
     "referenced_type" : "_ZTIi"
    }
   ],
   "return_type" : "_ZTIv",
   "source_file" : "external/libyuv/include/libyuv/row.h"
  },
  {
   "function_name" : "libyuv::ABGRToUVJRow_SSSE3",
   "linker_set_key" : "ABGRToUVJRow_SSSE3",
   "parameters" :
   [
    {
     "referenced_type" : "_ZTIPKh"
    },
    {
     "referenced_type" : "_ZTIi"
    },
    {
     "referenced_type" : "_ZTIPh"
    },
    {
     "referenced_type" : "_ZTIPh"
    },
    {
     "referenced_type" : "_ZTIi"
    }
   ],
   "return_type" : "_ZTIv",
   "source_file" : "external/libyuv/include/libyuv/row.h"
  },
  {
   "function_name" : "libyuv::ABGRToUVRow_AVX2",
   "linker_set_key" : "ABGRToUVRow_AVX2",
   "parameters" :
   [
    {
     "referenced_type" : "_ZTIPKh"
    },
    {
     "referenced_type" : "_ZTIi"
    },
    {
     "referenced_type" : "_ZTIPh"
    },
    {
     "referenced_type" : "_ZTIPh"
    },
    {
     "referenced_type" : "_ZTIi"
    }
   ],
   "return_type" : "_ZTIv",
   "source_file" : "external/libyuv/include/libyuv/row.h"
  },
  {
   "function_name" : "libyuv::ABGRToUVRow_Any_AVX2",
   "linker_set_key" : "ABGRToUVRow_Any_AVX2",
   "parameters" :
   [
    {
     "referenced_type" : "_ZTIPKh"
    },
    {
     "referenced_type" : "_ZTIi"
    },
    {
     "referenced_type" : "_ZTIPh"
    },
    {
     "referenced_type" : "_ZTIPh"
    },
    {
     "referenced_type" : "_ZTIi"
    }
   ],
   "return_type" : "_ZTIv",
   "source_file" : "external/libyuv/include/libyuv/row.h"
  },
  {
   "function_name" : "libyuv::ABGRToUVRow_Any_SSSE3",
   "linker_set_key" : "ABGRToUVRow_Any_SSSE3",
   "parameters" :
   [
    {
     "referenced_type" : "_ZTIPKh"
    },
    {
     "referenced_type" : "_ZTIi"
    },
    {
     "referenced_type" : "_ZTIPh"
    },
    {
     "referenced_type" : "_ZTIPh"
    },
    {
     "referenced_type" : "_ZTIi"
    }
   ],
   "return_type" : "_ZTIv",
   "source_file" : "external/libyuv/include/libyuv/row.h"
  },
  {
   "function_name" : "libyuv::ABGRToUVRow_C",
   "linker_set_key" : "ABGRToUVRow_C",
   "parameters" :
   [
    {
     "referenced_type" : "_ZTIPKh"
    },
    {
     "referenced_type" : "_ZTIi"
    },
    {
     "referenced_type" : "_ZTIPh"
    },
    {
     "referenced_type" : "_ZTIPh"
    },
    {
     "referenced_type" : "_ZTIi"
    }
   ],
   "return_type" : "_ZTIv",
   "source_file" : "external/libyuv/include/libyuv/row.h"
  },
  {
   "function_name" : "libyuv::ABGRToUVRow_SSSE3",
   "linker_set_key" : "ABGRToUVRow_SSSE3",
   "parameters" :
   [
    {
     "referenced_type" : "_ZTIPKh"
    },
    {
     "referenced_type" : "_ZTIi"
    },
    {
     "referenced_type" : "_ZTIPh"
    },
    {
     "referenced_type" : "_ZTIPh"
    },
    {
     "referenced_type" : "_ZTIi"
    }
   ],
   "return_type" : "_ZTIv",
   "source_file" : "external/libyuv/include/libyuv/row.h"
  },
  {
   "function_name" : "libyuv::ABGRToYJRow_AVX2",
   "linker_set_key" : "ABGRToYJRow_AVX2",
   "parameters" :
   [
    {
     "referenced_type" : "_ZTIPKh"
    },
    {
     "referenced_type" : "_ZTIPh"
    },
    {
     "referenced_type" : "_ZTIi"
    }
   ],
   "return_type" : "_ZTIv",
   "source_file" : "external/libyuv/include/libyuv/row.h"
  },
  {
   "function_name" : "libyuv::ABGRToYJRow_Any_AVX2",
   "linker_set_key" : "ABGRToYJRow_Any_AVX2",
   "parameters" :
   [
    {
     "referenced_type" : "_ZTIPKh"
    },
    {
     "referenced_type" : "_ZTIPh"
    },
    {
     "referenced_type" : "_ZTIi"
    }
   ],
   "return_type" : "_ZTIv",
   "source_file" : "external/libyuv/include/libyuv/row.h"
  },
  {
   "function_name" : "libyuv::ABGRToYJRow_Any_SSSE3",
   "linker_set_key" : "ABGRToYJRow_Any_SSSE3",
   "parameters" :
   [
    {
     "referenced_type" : "_ZTIPKh"
    },
    {
     "referenced_type" : "_ZTIPh"
    },
    {
     "referenced_type" : "_ZTIi"
    }
   ],
   "return_type" : "_ZTIv",
   "source_file" : "external/libyuv/include/libyuv/row.h"
  },
  {
   "function_name" : "libyuv::ABGRToYJRow_C",
   "linker_set_key" : "ABGRToYJRow_C",
   "parameters" :
   [
    {
     "referenced_type" : "_ZTIPKh"
    },
    {
     "referenced_type" : "_ZTIPh"
    },
    {
     "referenced_type" : "_ZTIi"
    }
   ],
   "return_type" : "_ZTIv",
   "source_file" : "external/libyuv/include/libyuv/row.h"
  },
  {
   "function_name" : "libyuv::ABGRToYJRow_SSSE3",
   "linker_set_key" : "ABGRToYJRow_SSSE3",
   "parameters" :
   [
    {
     "referenced_type" : "_ZTIPKh"
    },
    {
     "referenced_type" : "_ZTIPh"
    },
    {
     "referenced_type" : "_ZTIi"
    }
   ],
   "return_type" : "_ZTIv",
   "source_file" : "external/libyuv/include/libyuv/row.h"
  },
  {
   "function_name" : "libyuv::ABGRToYRow_AVX2",
   "linker_set_key" : "ABGRToYRow_AVX2",
   "parameters" :
   [
    {
     "referenced_type" : "_ZTIPKh"
    },
    {
     "referenced_type" : "_ZTIPh"
    },
    {
     "referenced_type" : "_ZTIi"
    }
   ],
   "return_type" : "_ZTIv",
   "source_file" : "external/libyuv/include/libyuv/row.h"
  },
  {
   "function_name" : "libyuv::ABGRToYRow_Any_AVX2",
   "linker_set_key" : "ABGRToYRow_Any_AVX2",
   "parameters" :
   [
    {
     "referenced_type" : "_ZTIPKh"
    },
    {
     "referenced_type" : "_ZTIPh"
    },
    {
     "referenced_type" : "_ZTIi"
    }
   ],
   "return_type" : "_ZTIv",
   "source_file" : "external/libyuv/include/libyuv/row.h"
  },
  {
   "function_name" : "libyuv::ABGRToYRow_Any_SSSE3",
   "linker_set_key" : "ABGRToYRow_Any_SSSE3",
   "parameters" :
   [
    {
     "referenced_type" : "_ZTIPKh"
    },
    {
     "referenced_type" : "_ZTIPh"
    },
    {
     "referenced_type" : "_ZTIi"
    }
   ],
   "return_type" : "_ZTIv",
   "source_file" : "external/libyuv/include/libyuv/row.h"
  },
  {
   "function_name" : "libyuv::ABGRToYRow_C",
   "linker_set_key" : "ABGRToYRow_C",
   "parameters" :
   [
    {
     "referenced_type" : "_ZTIPKh"
    },
    {
     "referenced_type" : "_ZTIPh"
    },
    {
     "referenced_type" : "_ZTIi"
    }
   ],
   "return_type" : "_ZTIv",
   "source_file" : "external/libyuv/include/libyuv/row.h"
  },
  {
   "function_name" : "libyuv::ABGRToYRow_SSSE3",
   "linker_set_key" : "ABGRToYRow_SSSE3",
   "parameters" :
   [
    {
     "referenced_type" : "_ZTIPKh"
    },
    {
     "referenced_type" : "_ZTIPh"
    },
    {
     "referenced_type" : "_ZTIi"
    }
   ],
   "return_type" : "_ZTIv",
   "source_file" : "external/libyuv/include/libyuv/row.h"
  },
  {
   "function_name" : "libyuv::AR30ToAB30",
   "linker_set_key" : "AR30ToAB30",
   "parameters" :
   [
    {
     "referenced_type" : "_ZTIPKh"
    },
    {
     "referenced_type" : "_ZTIi"
    },
    {
     "referenced_type" : "_ZTIPh"
    },
    {
     "referenced_type" : "_ZTIi"
    },
    {
     "referenced_type" : "_ZTIi"
    },
    {
     "referenced_type" : "_ZTIi"
    }
   ],
   "return_type" : "_ZTIi",
   "source_file" : "external/libyuv/include/libyuv/convert_argb.h"
  },
  {
   "function_name" : "libyuv::AR30ToAB30Row_C",
   "linker_set_key" : "AR30ToAB30Row_C",
   "parameters" :
   [
    {
     "referenced_type" : "_ZTIPKh"
    },
    {
     "referenced_type" : "_ZTIPh"
    },
    {
     "referenced_type" : "_ZTIi"
    }
   ],
   "return_type" : "_ZTIv",
   "source_file" : "external/libyuv/include/libyuv/row.h"
  },
  {
   "function_name" : "libyuv::AR30ToABGR",
   "linker_set_key" : "AR30ToABGR",
   "parameters" :
   [
    {
     "referenced_type" : "_ZTIPKh"
    },
    {
     "referenced_type" : "_ZTIi"
    },
    {
     "referenced_type" : "_ZTIPh"
    },
    {
     "referenced_type" : "_ZTIi"
    },
    {
     "referenced_type" : "_ZTIi"
    },
    {
     "referenced_type" : "_ZTIi"
    }
   ],
   "return_type" : "_ZTIi",
   "source_file" : "external/libyuv/include/libyuv/convert_argb.h"
  },
  {
   "function_name" : "libyuv::AR30ToABGRRow_C",
   "linker_set_key" : "AR30ToABGRRow_C",
   "parameters" :
   [
    {
     "referenced_type" : "_ZTIPKh"
    },
    {
     "referenced_type" : "_ZTIPh"
    },
    {
     "referenced_type" : "_ZTIi"
    }
   ],
   "return_type" : "_ZTIv",
   "source_file" : "external/libyuv/include/libyuv/row.h"
  },
  {
   "function_name" : "libyuv::AR30ToARGB",
   "linker_set_key" : "AR30ToARGB",
   "parameters" :
   [
    {
     "referenced_type" : "_ZTIPKh"
    },
    {
     "referenced_type" : "_ZTIi"
    },
    {
     "referenced_type" : "_ZTIPh"
    },
    {
     "referenced_type" : "_ZTIi"
    },
    {
     "referenced_type" : "_ZTIi"
    },
    {
     "referenced_type" : "_ZTIi"
    }
   ],
   "return_type" : "_ZTIi",
   "source_file" : "external/libyuv/include/libyuv/convert_argb.h"
  },
  {
   "function_name" : "libyuv::AR30ToARGBRow_C",
   "linker_set_key" : "AR30ToARGBRow_C",
   "parameters" :
   [
    {
     "referenced_type" : "_ZTIPKh"
    },
    {
     "referenced_type" : "_ZTIPh"
    },
    {
     "referenced_type" : "_ZTIi"
    }
   ],
   "return_type" : "_ZTIv",
   "source_file" : "external/libyuv/include/libyuv/row.h"
  },
  {
   "function_name" : "libyuv::AR64Shuffle",
   "linker_set_key" : "AR64Shuffle",
   "parameters" :
   [
    {
     "referenced_type" : "_ZTIPKt"
    },
    {
     "referenced_type" : "_ZTIi"
    },
    {
     "referenced_type" : "_ZTIPt"
    },
    {
     "referenced_type" : "_ZTIi"
    },
    {
     "referenced_type" : "_ZTIPKh"
    },
    {
     "referenced_type" : "_ZTIi"
    },
    {
     "referenced_type" : "_ZTIi"
    }
   ],
   "return_type" : "_ZTIi",
   "source_file" : "external/libyuv/include/libyuv/planar_functions.h"
  },
  {
   "function_name" : "libyuv::AR64ShuffleRow_C",
   "linker_set_key" : "AR64ShuffleRow_C",
   "parameters" :
   [
    {
     "referenced_type" : "_ZTIPKh"
    },
    {
     "referenced_type" : "_ZTIPh"
    },
    {
     "referenced_type" : "_ZTIPKh"
    },
    {
     "referenced_type" : "_ZTIi"
    }
   ],
   "return_type" : "_ZTIv",
   "source_file" : "external/libyuv/include/libyuv/row.h"
  },
  {
   "function_name" : "libyuv::AR64ToAB64",
   "linker_set_key" : "AR64ToAB64",
   "parameters" :
   [
    {
     "referenced_type" : "_ZTIPKt"
    },
    {
     "referenced_type" : "_ZTIi"
    },
    {
     "referenced_type" : "_ZTIPt"
    },
    {
     "referenced_type" : "_ZTIi"
    },
    {
     "referenced_type" : "_ZTIi"
    },
    {
     "referenced_type" : "_ZTIi"
    }
   ],
   "return_type" : "_ZTIi",
   "source_file" : "external/libyuv/include/libyuv/convert_argb.h"
  },
  {
   "function_name" : "libyuv::AR64ToARGB",
   "linker_set_key" : "AR64ToARGB",
   "parameters" :
   [
    {
     "referenced_type" : "_ZTIPKt"
    },
    {
     "referenced_type" : "_ZTIi"
    },
    {
     "referenced_type" : "_ZTIPh"
    },
    {
     "referenced_type" : "_ZTIi"
    },
    {
     "referenced_type" : "_ZTIi"
    },
    {
     "referenced_type" : "_ZTIi"
    }
   ],
   "return_type" : "_ZTIi",
   "source_file" : "external/libyuv/include/libyuv/convert_argb.h"
  },
  {
   "function_name" : "libyuv::AR64ToARGBRow_AVX2",
   "linker_set_key" : "AR64ToARGBRow_AVX2",
   "parameters" :
   [
    {
     "referenced_type" : "_ZTIPKt"
    },
    {
     "referenced_type" : "_ZTIPh"
    },
    {
     "referenced_type" : "_ZTIi"
    }
   ],
   "return_type" : "_ZTIv",
   "source_file" : "external/libyuv/include/libyuv/row.h"
  },
  {
   "function_name" : "libyuv::AR64ToARGBRow_Any_AVX2",
   "linker_set_key" : "AR64ToARGBRow_Any_AVX2",
   "parameters" :
   [
    {
     "referenced_type" : "_ZTIPKt"
    },
    {
     "referenced_type" : "_ZTIPh"
    },
    {
     "referenced_type" : "_ZTIi"
    }
   ],
   "return_type" : "_ZTIv",
   "source_file" : "external/libyuv/include/libyuv/row.h"
  },
  {
   "function_name" : "libyuv::AR64ToARGBRow_Any_SSSE3",
   "linker_set_key" : "AR64ToARGBRow_Any_SSSE3",
   "parameters" :
   [
    {
     "referenced_type" : "_ZTIPKt"
    },
    {
     "referenced_type" : "_ZTIPh"
    },
    {
     "referenced_type" : "_ZTIi"
    }
   ],
   "return_type" : "_ZTIv",
   "source_file" : "external/libyuv/include/libyuv/row.h"
  },
  {
   "function_name" : "libyuv::AR64ToARGBRow_C",
   "linker_set_key" : "AR64ToARGBRow_C",
   "parameters" :
   [
    {
     "referenced_type" : "_ZTIPKt"
    },
    {
     "referenced_type" : "_ZTIPh"
    },
    {
     "referenced_type" : "_ZTIi"
    }
   ],
   "return_type" : "_ZTIv",
   "source_file" : "external/libyuv/include/libyuv/row.h"
  },
  {
   "function_name" : "libyuv::AR64ToARGBRow_SSSE3",
   "linker_set_key" : "AR64ToARGBRow_SSSE3",
   "parameters" :
   [
    {
     "referenced_type" : "_ZTIPKt"
    },
    {
     "referenced_type" : "_ZTIPh"
    },
    {
     "referenced_type" : "_ZTIi"
    }
   ],
   "return_type" : "_ZTIv",
   "source_file" : "external/libyuv/include/libyuv/row.h"
  },
  {
   "function_name" : "libyuv::ARGB1555ToARGB",
   "linker_set_key" : "ARGB1555ToARGB",
   "parameters" :
   [
    {
     "referenced_type" : "_ZTIPKh"
    },
    {
     "referenced_type" : "_ZTIi"
    },
    {
     "referenced_type" : "_ZTIPh"
    },
    {
     "referenced_type" : "_ZTIi"
    },
    {
     "referenced_type" : "_ZTIi"
    },
    {
     "referenced_type" : "_ZTIi"
    }
   ],
   "return_type" : "_ZTIi",
   "source_file" : "external/libyuv/include/libyuv/convert_argb.h"
  },
  {
   "function_name" : "libyuv::ARGB1555ToARGBRow_Any_SSE2",
   "linker_set_key" : "ARGB1555ToARGBRow_Any_SSE2",
   "parameters" :
   [
    {
     "referenced_type" : "_ZTIPKh"
    },
    {
     "referenced_type" : "_ZTIPh"
    },
    {
     "referenced_type" : "_ZTIi"
    }
   ],
   "return_type" : "_ZTIv",
   "source_file" : "external/libyuv/include/libyuv/row.h"
  },
  {
   "function_name" : "libyuv::ARGB1555ToARGBRow_C",
   "linker_set_key" : "ARGB1555ToARGBRow_C",
   "parameters" :
   [
    {
     "referenced_type" : "_ZTIPKh"
    },
    {
     "referenced_type" : "_ZTIPh"
    },
    {
     "referenced_type" : "_ZTIi"
    }
   ],
   "return_type" : "_ZTIv",
   "source_file" : "external/libyuv/include/libyuv/row.h"
  },
  {
   "function_name" : "libyuv::ARGB1555ToARGBRow_SSE2",
   "linker_set_key" : "ARGB1555ToARGBRow_SSE2",
   "parameters" :
   [
    {
     "referenced_type" : "_ZTIPKh"
    },
    {
     "referenced_type" : "_ZTIPh"
    },
    {
     "referenced_type" : "_ZTIi"
    }
   ],
   "return_type" : "_ZTIv",
   "source_file" : "external/libyuv/include/libyuv/row.h"
  },
  {
   "function_name" : "libyuv::ARGB1555ToI420",
   "linker_set_key" : "ARGB1555ToI420",
   "parameters" :
   [
    {
     "referenced_type" : "_ZTIPKh"
    },
    {
     "referenced_type" : "_ZTIi"
    },
    {
     "referenced_type" : "_ZTIPh"
    },
    {
     "referenced_type" : "_ZTIi"
    },
    {
     "referenced_type" : "_ZTIPh"
    },
    {
     "referenced_type" : "_ZTIi"
    },
    {
     "referenced_type" : "_ZTIPh"
    },
    {
     "referenced_type" : "_ZTIi"
    },
    {
     "referenced_type" : "_ZTIi"
    },
    {
     "referenced_type" : "_ZTIi"
    }
   ],
   "return_type" : "_ZTIi",
   "source_file" : "external/libyuv/include/libyuv/convert.h"
  },
  {
   "function_name" : "libyuv::ARGB1555ToUVRow_C",
   "linker_set_key" : "ARGB1555ToUVRow_C",
   "parameters" :
   [
    {
     "referenced_type" : "_ZTIPKh"
    },
    {
     "referenced_type" : "_ZTIi"
    },
    {
     "referenced_type" : "_ZTIPh"
    },
    {
     "referenced_type" : "_ZTIPh"
    },
    {
     "referenced_type" : "_ZTIi"
    }
   ],
   "return_type" : "_ZTIv",
   "source_file" : "external/libyuv/include/libyuv/row.h"
  },
  {
   "function_name" : "libyuv::ARGB1555ToYRow_C",
   "linker_set_key" : "ARGB1555ToYRow_C",
   "parameters" :
   [
    {
     "referenced_type" : "_ZTIPKh"
    },
    {
     "referenced_type" : "_ZTIPh"
    },
    {
     "referenced_type" : "_ZTIi"
    }
   ],
   "return_type" : "_ZTIv",
   "source_file" : "external/libyuv/include/libyuv/row.h"
  },
  {
   "function_name" : "libyuv::ARGB4444ToARGB",
   "linker_set_key" : "ARGB4444ToARGB",
   "parameters" :
   [
    {
     "referenced_type" : "_ZTIPKh"
    },
    {
     "referenced_type" : "_ZTIi"
    },
    {
     "referenced_type" : "_ZTIPh"
    },
    {
     "referenced_type" : "_ZTIi"
    },
    {
     "referenced_type" : "_ZTIi"
    },
    {
     "referenced_type" : "_ZTIi"
    }
   ],
   "return_type" : "_ZTIi",
   "source_file" : "external/libyuv/include/libyuv/convert_argb.h"
  },
  {
   "function_name" : "libyuv::ARGB4444ToARGBRow_Any_SSE2",
   "linker_set_key" : "ARGB4444ToARGBRow_Any_SSE2",
   "parameters" :
   [
    {
     "referenced_type" : "_ZTIPKh"
    },
    {
     "referenced_type" : "_ZTIPh"
    },
    {
     "referenced_type" : "_ZTIi"
    }
   ],
   "return_type" : "_ZTIv",
   "source_file" : "external/libyuv/include/libyuv/row.h"
  },
  {
   "function_name" : "libyuv::ARGB4444ToARGBRow_C",
   "linker_set_key" : "ARGB4444ToARGBRow_C",
   "parameters" :
   [
    {
     "referenced_type" : "_ZTIPKh"
    },
    {
     "referenced_type" : "_ZTIPh"
    },
    {
     "referenced_type" : "_ZTIi"
    }
   ],
   "return_type" : "_ZTIv",
   "source_file" : "external/libyuv/include/libyuv/row.h"
  },
  {
   "function_name" : "libyuv::ARGB4444ToARGBRow_SSE2",
   "linker_set_key" : "ARGB4444ToARGBRow_SSE2",
   "parameters" :
   [
    {
     "referenced_type" : "_ZTIPKh"
    },
    {
     "referenced_type" : "_ZTIPh"
    },
    {
     "referenced_type" : "_ZTIi"
    }
   ],
   "return_type" : "_ZTIv",
   "source_file" : "external/libyuv/include/libyuv/row.h"
  },
  {
   "function_name" : "libyuv::ARGB4444ToI420",
   "linker_set_key" : "ARGB4444ToI420",
   "parameters" :
   [
    {
     "referenced_type" : "_ZTIPKh"
    },
    {
     "referenced_type" : "_ZTIi"
    },
    {
     "referenced_type" : "_ZTIPh"
    },
    {
     "referenced_type" : "_ZTIi"
    },
    {
     "referenced_type" : "_ZTIPh"
    },
    {
     "referenced_type" : "_ZTIi"
    },
    {
     "referenced_type" : "_ZTIPh"
    },
    {
     "referenced_type" : "_ZTIi"
    },
    {
     "referenced_type" : "_ZTIi"
    },
    {
     "referenced_type" : "_ZTIi"
    }
   ],
   "return_type" : "_ZTIi",
   "source_file" : "external/libyuv/include/libyuv/convert.h"
  },
  {
   "function_name" : "libyuv::ARGB4444ToUVRow_C",
   "linker_set_key" : "ARGB4444ToUVRow_C",
   "parameters" :
   [
    {
     "referenced_type" : "_ZTIPKh"
    },
    {
     "referenced_type" : "_ZTIi"
    },
    {
     "referenced_type" : "_ZTIPh"
    },
    {
     "referenced_type" : "_ZTIPh"
    },
    {
     "referenced_type" : "_ZTIi"
    }
   ],
   "return_type" : "_ZTIv",
   "source_file" : "external/libyuv/include/libyuv/row.h"
  },
  {
   "function_name" : "libyuv::ARGB4444ToYRow_C",
   "linker_set_key" : "ARGB4444ToYRow_C",
   "parameters" :
   [
    {
     "referenced_type" : "_ZTIPKh"
    },
    {
     "referenced_type" : "_ZTIPh"
    },
    {
     "referenced_type" : "_ZTIi"
    }
   ],
   "return_type" : "_ZTIv",
   "source_file" : "external/libyuv/include/libyuv/row.h"
  },
  {
   "function_name" : "libyuv::ARGBAdd",
   "linker_set_key" : "ARGBAdd",
   "parameters" :
   [
    {
     "referenced_type" : "_ZTIPKh"
    },
    {
     "referenced_type" : "_ZTIi"
    },
    {
     "referenced_type" : "_ZTIPKh"
    },
    {
     "referenced_type" : "_ZTIi"
    },
    {
     "referenced_type" : "_ZTIPh"
    },
    {
     "referenced_type" : "_ZTIi"
    },
    {
     "referenced_type" : "_ZTIi"
    },
    {
     "referenced_type" : "_ZTIi"
    }
   ],
   "return_type" : "_ZTIi",
   "source_file" : "external/libyuv/include/libyuv/planar_functions.h"
  },
  {
   "function_name" : "libyuv::ARGBAddRow_AVX2",
   "linker_set_key" : "ARGBAddRow_AVX2",
   "parameters" :
   [
    {
     "referenced_type" : "_ZTIPKh"
    },
    {
     "referenced_type" : "_ZTIPKh"
    },
    {
     "referenced_type" : "_ZTIPh"
    },
    {
     "referenced_type" : "_ZTIi"
    }
   ],
   "return_type" : "_ZTIv",
   "source_file" : "external/libyuv/include/libyuv/row.h"
  },
  {
   "function_name" : "libyuv::ARGBAddRow_Any_AVX2",
   "linker_set_key" : "ARGBAddRow_Any_AVX2",
   "parameters" :
   [
    {
     "referenced_type" : "_ZTIPKh"
    },
    {
     "referenced_type" : "_ZTIPKh"
    },
    {
     "referenced_type" : "_ZTIPh"
    },
    {
     "referenced_type" : "_ZTIi"
    }
   ],
   "return_type" : "_ZTIv",
   "source_file" : "external/libyuv/include/libyuv/row.h"
  },
  {
   "function_name" : "libyuv::ARGBAddRow_Any_SSE2",
   "linker_set_key" : "ARGBAddRow_Any_SSE2",
   "parameters" :
   [
    {
     "referenced_type" : "_ZTIPKh"
    },
    {
     "referenced_type" : "_ZTIPKh"
    },
    {
     "referenced_type" : "_ZTIPh"
    },
    {
     "referenced_type" : "_ZTIi"
    }
   ],
   "return_type" : "_ZTIv",
   "source_file" : "external/libyuv/include/libyuv/row.h"
  },
  {
   "function_name" : "libyuv::ARGBAddRow_C",
   "linker_set_key" : "ARGBAddRow_C",
   "parameters" :
   [
    {
     "referenced_type" : "_ZTIPKh"
    },
    {
     "referenced_type" : "_ZTIPKh"
    },
    {
     "referenced_type" : "_ZTIPh"
    },
    {
     "referenced_type" : "_ZTIi"
    }
   ],
   "return_type" : "_ZTIv",
   "source_file" : "external/libyuv/include/libyuv/row.h"
  },
  {
   "function_name" : "libyuv::ARGBAddRow_SSE2",
   "linker_set_key" : "ARGBAddRow_SSE2",
   "parameters" :
   [
    {
     "referenced_type" : "_ZTIPKh"
    },
    {
     "referenced_type" : "_ZTIPKh"
    },
    {
     "referenced_type" : "_ZTIPh"
    },
    {
     "referenced_type" : "_ZTIi"
    }
   ],
   "return_type" : "_ZTIv",
   "source_file" : "external/libyuv/include/libyuv/row.h"
  },
  {
   "function_name" : "libyuv::ARGBAffineRow_C",
   "linker_set_key" : "ARGBAffineRow_C",
   "parameters" :
   [
    {
     "referenced_type" : "_ZTIPKh"
    },
    {
     "referenced_type" : "_ZTIi"
    },
    {
     "referenced_type" : "_ZTIPh"
    },
    {
     "referenced_type" : "_ZTIPKf"
    },
    {
     "referenced_type" : "_ZTIi"
    }
   ],
   "return_type" : "_ZTIv",
   "source_file" : "external/libyuv/include/libyuv/row.h"
  },
  {
   "function_name" : "libyuv::ARGBAffineRow_SSE2",
   "linker_set_key" : "ARGBAffineRow_SSE2",
   "parameters" :
   [
    {
     "referenced_type" : "_ZTIPKh"
    },
    {
     "referenced_type" : "_ZTIi"
    },
    {
     "referenced_type" : "_ZTIPh"
    },
    {
     "referenced_type" : "_ZTIPKf"
    },
    {
     "referenced_type" : "_ZTIi"
    }
   ],
   "return_type" : "_ZTIv",
   "source_file" : "external/libyuv/include/libyuv/row.h"
  },
  {
   "function_name" : "libyuv::ARGBAttenuate",
   "linker_set_key" : "ARGBAttenuate",
   "parameters" :
   [
    {
     "referenced_type" : "_ZTIPKh"
    },
    {
     "referenced_type" : "_ZTIi"
    },
    {
     "referenced_type" : "_ZTIPh"
    },
    {
     "referenced_type" : "_ZTIi"
    },
    {
     "referenced_type" : "_ZTIi"
    },
    {
     "referenced_type" : "_ZTIi"
    }
   ],
   "return_type" : "_ZTIi",
   "source_file" : "external/libyuv/include/libyuv/planar_functions.h"
  },
  {
   "function_name" : "libyuv::ARGBAttenuateRow_AVX2",
   "linker_set_key" : "ARGBAttenuateRow_AVX2",
   "parameters" :
   [
    {
     "referenced_type" : "_ZTIPKh"
    },
    {
     "referenced_type" : "_ZTIPh"
    },
    {
     "referenced_type" : "_ZTIi"
    }
   ],
   "return_type" : "_ZTIv",
   "source_file" : "external/libyuv/include/libyuv/row.h"
  },
  {
   "function_name" : "libyuv::ARGBAttenuateRow_Any_AVX2",
   "linker_set_key" : "ARGBAttenuateRow_Any_AVX2",
   "parameters" :
   [
    {
     "referenced_type" : "_ZTIPKh"
    },
    {
     "referenced_type" : "_ZTIPh"
    },
    {
     "referenced_type" : "_ZTIi"
    }
   ],
   "return_type" : "_ZTIv",
   "source_file" : "external/libyuv/include/libyuv/row.h"
  },
  {
   "function_name" : "libyuv::ARGBAttenuateRow_Any_SSSE3",
   "linker_set_key" : "ARGBAttenuateRow_Any_SSSE3",
   "parameters" :
   [
    {
     "referenced_type" : "_ZTIPKh"
    },
    {
     "referenced_type" : "_ZTIPh"
    },
    {
     "referenced_type" : "_ZTIi"
    }
   ],
   "return_type" : "_ZTIv",
   "source_file" : "external/libyuv/include/libyuv/row.h"
  },
  {
   "function_name" : "libyuv::ARGBAttenuateRow_C",
   "linker_set_key" : "ARGBAttenuateRow_C",
   "parameters" :
   [
    {
     "referenced_type" : "_ZTIPKh"
    },
    {
     "referenced_type" : "_ZTIPh"
    },
    {
     "referenced_type" : "_ZTIi"
    }
   ],
   "return_type" : "_ZTIv",
   "source_file" : "external/libyuv/include/libyuv/row.h"
  },
  {
   "function_name" : "libyuv::ARGBAttenuateRow_SSSE3",
   "linker_set_key" : "ARGBAttenuateRow_SSSE3",
   "parameters" :
   [
    {
     "referenced_type" : "_ZTIPKh"
    },
    {
     "referenced_type" : "_ZTIPh"
    },
    {
     "referenced_type" : "_ZTIi"
    }
   ],
   "return_type" : "_ZTIv",
   "source_file" : "external/libyuv/include/libyuv/row.h"
  },
  {
   "function_name" : "libyuv::ARGBBlend",
   "linker_set_key" : "ARGBBlend",
   "parameters" :
   [
    {
     "referenced_type" : "_ZTIPKh"
    },
    {
     "referenced_type" : "_ZTIi"
    },
    {
     "referenced_type" : "_ZTIPKh"
    },
    {
     "referenced_type" : "_ZTIi"
    },
    {
     "referenced_type" : "_ZTIPh"
    },
    {
     "referenced_type" : "_ZTIi"
    },
    {
     "referenced_type" : "_ZTIi"
    },
    {
     "referenced_type" : "_ZTIi"
    }
   ],
   "return_type" : "_ZTIi",
   "source_file" : "external/libyuv/include/libyuv/planar_functions.h"
  },
  {
   "function_name" : "libyuv::ARGBBlendRow_C",
   "linker_set_key" : "ARGBBlendRow_C",
   "parameters" :
   [
    {
     "referenced_type" : "_ZTIPKh"
    },
    {
     "referenced_type" : "_ZTIPKh"
    },
    {
     "referenced_type" : "_ZTIPh"
    },
    {
     "referenced_type" : "_ZTIi"
    }
   ],
   "return_type" : "_ZTIv",
   "source_file" : "external/libyuv/include/libyuv/row.h"
  },
  {
   "function_name" : "libyuv::ARGBBlendRow_SSSE3",
   "linker_set_key" : "ARGBBlendRow_SSSE3",
   "parameters" :
   [
    {
     "referenced_type" : "_ZTIPKh"
    },
    {
     "referenced_type" : "_ZTIPKh"
    },
    {
     "referenced_type" : "_ZTIPh"
    },
    {
     "referenced_type" : "_ZTIi"
    }
   ],
   "return_type" : "_ZTIv",
   "source_file" : "external/libyuv/include/libyuv/row.h"
  },
  {
   "function_name" : "libyuv::ARGBBlur",
   "linker_set_key" : "ARGBBlur",
   "parameters" :
   [
    {
     "referenced_type" : "_ZTIPKh"
    },
    {
     "referenced_type" : "_ZTIi"
    },
    {
     "referenced_type" : "_ZTIPh"
    },
    {
     "referenced_type" : "_ZTIi"
    },
    {
     "referenced_type" : "_ZTIPi"
    },
    {
     "referenced_type" : "_ZTIi"
    },
    {
     "referenced_type" : "_ZTIi"
    },
    {
     "referenced_type" : "_ZTIi"
    },
    {
     "referenced_type" : "_ZTIi"
    }
   ],
   "return_type" : "_ZTIi",
   "source_file" : "external/libyuv/include/libyuv/planar_functions.h"
  },
  {
   "function_name" : "libyuv::ARGBColorMatrix",
   "linker_set_key" : "ARGBColorMatrix",
   "parameters" :
   [
    {
     "referenced_type" : "_ZTIPKh"
    },
    {
     "referenced_type" : "_ZTIi"
    },
    {
     "referenced_type" : "_ZTIPh"
    },
    {
     "referenced_type" : "_ZTIi"
    },
    {
     "referenced_type" : "_ZTIPKa"
    },
    {
     "referenced_type" : "_ZTIi"
    },
    {
     "referenced_type" : "_ZTIi"
    }
   ],
   "return_type" : "_ZTIi",
   "source_file" : "external/libyuv/include/libyuv/planar_functions.h"
  },
  {
   "function_name" : "libyuv::ARGBColorMatrixRow_C",
   "linker_set_key" : "ARGBColorMatrixRow_C",
   "parameters" :
   [
    {
     "referenced_type" : "_ZTIPKh"
    },
    {
     "referenced_type" : "_ZTIPh"
    },
    {
     "referenced_type" : "_ZTIPKa"
    },
    {
     "referenced_type" : "_ZTIi"
    }
   ],
   "return_type" : "_ZTIv",
   "source_file" : "external/libyuv/include/libyuv/row.h"
  },
  {
   "function_name" : "libyuv::ARGBColorMatrixRow_SSSE3",
   "linker_set_key" : "ARGBColorMatrixRow_SSSE3",
   "parameters" :
   [
    {
     "referenced_type" : "_ZTIPKh"
    },
    {
     "referenced_type" : "_ZTIPh"
    },
    {
     "referenced_type" : "_ZTIPKa"
    },
    {
     "referenced_type" : "_ZTIi"
    }
   ],
   "return_type" : "_ZTIv",
   "source_file" : "external/libyuv/include/libyuv/row.h"
  },
  {
   "function_name" : "libyuv::ARGBColorTable",
   "linker_set_key" : "ARGBColorTable",
   "parameters" :
   [
    {
     "referenced_type" : "_ZTIPh"
    },
    {
     "referenced_type" : "_ZTIi"
    },
    {
     "referenced_type" : "_ZTIPKh"
    },
    {
     "referenced_type" : "_ZTIi"
    },
    {
     "referenced_type" : "_ZTIi"
    },
    {
     "referenced_type" : "_ZTIi"
    },
    {
     "referenced_type" : "_ZTIi"
    }
   ],
   "return_type" : "_ZTIi",
   "source_file" : "external/libyuv/include/libyuv/planar_functions.h"
  },
  {
   "function_name" : "libyuv::ARGBColorTableRow_C",
   "linker_set_key" : "ARGBColorTableRow_C",
   "parameters" :
   [
    {
     "referenced_type" : "_ZTIPh"
    },
    {
     "referenced_type" : "_ZTIPKh"
    },
    {
     "referenced_type" : "_ZTIi"
    }
   ],
   "return_type" : "_ZTIv",
   "source_file" : "external/libyuv/include/libyuv/row.h"
  },
  {
   "function_name" : "libyuv::ARGBColorTableRow_X86",
   "linker_set_key" : "ARGBColorTableRow_X86",
   "parameters" :
   [
    {
     "referenced_type" : "_ZTIPh"
    },
    {
     "referenced_type" : "_ZTIPKh"
    },
    {
     "referenced_type" : "_ZTIi"
    }
   ],
   "return_type" : "_ZTIv",
   "source_file" : "external/libyuv/include/libyuv/row.h"
  },
  {
   "function_name" : "libyuv::ARGBComputeCumulativeSum",
   "linker_set_key" : "ARGBComputeCumulativeSum",
   "parameters" :
   [
    {
     "referenced_type" : "_ZTIPKh"
    },
    {
     "referenced_type" : "_ZTIi"
    },
    {
     "referenced_type" : "_ZTIPi"
    },
    {
     "referenced_type" : "_ZTIi"
    },
    {
     "referenced_type" : "_ZTIi"
    },
    {
     "referenced_type" : "_ZTIi"
    }
   ],
   "return_type" : "_ZTIi",
   "source_file" : "external/libyuv/include/libyuv/planar_functions.h"
  },
  {
   "function_name" : "libyuv::ARGBCopy",
   "linker_set_key" : "ARGBCopy",
   "parameters" :
   [
    {
     "referenced_type" : "_ZTIPKh"
    },
    {
     "referenced_type" : "_ZTIi"
    },
    {
     "referenced_type" : "_ZTIPh"
    },
    {
     "referenced_type" : "_ZTIi"
    },
    {
     "referenced_type" : "_ZTIi"
    },
    {
     "referenced_type" : "_ZTIi"
    }
   ],
   "return_type" : "_ZTIi",
   "source_file" : "external/libyuv/include/libyuv/convert_argb.h"
  },
  {
   "function_name" : "libyuv::ARGBCopyAlpha",
   "linker_set_key" : "ARGBCopyAlpha",
   "parameters" :
   [
    {
     "referenced_type" : "_ZTIPKh"
    },
    {
     "referenced_type" : "_ZTIi"
    },
    {
     "referenced_type" : "_ZTIPh"
    },
    {
     "referenced_type" : "_ZTIi"
    },
    {
     "referenced_type" : "_ZTIi"
    },
    {
     "referenced_type" : "_ZTIi"
    }
   ],
   "return_type" : "_ZTIi",
   "source_file" : "external/libyuv/include/libyuv/planar_functions.h"
  },
  {
   "function_name" : "libyuv::ARGBCopyAlphaRow_AVX2",
   "linker_set_key" : "ARGBCopyAlphaRow_AVX2",
   "parameters" :
   [
    {
     "referenced_type" : "_ZTIPKh"
    },
    {
     "referenced_type" : "_ZTIPh"
    },
    {
     "referenced_type" : "_ZTIi"
    }
   ],
   "return_type" : "_ZTIv",
   "source_file" : "external/libyuv/include/libyuv/row.h"
  },
  {
   "function_name" : "libyuv::ARGBCopyAlphaRow_Any_AVX2",
   "linker_set_key" : "ARGBCopyAlphaRow_Any_AVX2",
   "parameters" :
   [
    {
     "referenced_type" : "_ZTIPKh"
    },
    {
     "referenced_type" : "_ZTIPh"
    },
    {
     "referenced_type" : "_ZTIi"
    }
   ],
   "return_type" : "_ZTIv",
   "source_file" : "external/libyuv/include/libyuv/row.h"
  },
  {
   "function_name" : "libyuv::ARGBCopyAlphaRow_Any_SSE2",
   "linker_set_key" : "ARGBCopyAlphaRow_Any_SSE2",
   "parameters" :
   [
    {
     "referenced_type" : "_ZTIPKh"
    },
    {
     "referenced_type" : "_ZTIPh"
    },
    {
     "referenced_type" : "_ZTIi"
    }
   ],
   "return_type" : "_ZTIv",
   "source_file" : "external/libyuv/include/libyuv/row.h"
  },
  {
   "function_name" : "libyuv::ARGBCopyAlphaRow_C",
   "linker_set_key" : "ARGBCopyAlphaRow_C",
   "parameters" :
   [
    {
     "referenced_type" : "_ZTIPKh"
    },
    {
     "referenced_type" : "_ZTIPh"
    },
    {
     "referenced_type" : "_ZTIi"
    }
   ],
   "return_type" : "_ZTIv",
   "source_file" : "external/libyuv/include/libyuv/row.h"
  },
  {
   "function_name" : "libyuv::ARGBCopyAlphaRow_SSE2",
   "linker_set_key" : "ARGBCopyAlphaRow_SSE2",
   "parameters" :
   [
    {
     "referenced_type" : "_ZTIPKh"
    },
    {
     "referenced_type" : "_ZTIPh"
    },
    {
     "referenced_type" : "_ZTIi"
    }
   ],
   "return_type" : "_ZTIv",
   "source_file" : "external/libyuv/include/libyuv/row.h"
  },
  {
   "function_name" : "libyuv::ARGBCopyYToAlpha",
   "linker_set_key" : "ARGBCopyYToAlpha",
   "parameters" :
   [
    {
     "referenced_type" : "_ZTIPKh"
    },
    {
     "referenced_type" : "_ZTIi"
    },
    {
     "referenced_type" : "_ZTIPh"
    },
    {
     "referenced_type" : "_ZTIi"
    },
    {
     "referenced_type" : "_ZTIi"
    },
    {
     "referenced_type" : "_ZTIi"
    }
   ],
   "return_type" : "_ZTIi",
   "source_file" : "external/libyuv/include/libyuv/planar_functions.h"
  },
  {
   "function_name" : "libyuv::ARGBCopyYToAlphaRow_AVX2",
   "linker_set_key" : "ARGBCopyYToAlphaRow_AVX2",
   "parameters" :
   [
    {
     "referenced_type" : "_ZTIPKh"
    },
    {
     "referenced_type" : "_ZTIPh"
    },
    {
     "referenced_type" : "_ZTIi"
    }
   ],
   "return_type" : "_ZTIv",
   "source_file" : "external/libyuv/include/libyuv/row.h"
  },
  {
   "function_name" : "libyuv::ARGBCopyYToAlphaRow_Any_AVX2",
   "linker_set_key" : "ARGBCopyYToAlphaRow_Any_AVX2",
   "parameters" :
   [
    {
     "referenced_type" : "_ZTIPKh"
    },
    {
     "referenced_type" : "_ZTIPh"
    },
    {
     "referenced_type" : "_ZTIi"
    }
   ],
   "return_type" : "_ZTIv",
   "source_file" : "external/libyuv/include/libyuv/row.h"
  },
  {
   "function_name" : "libyuv::ARGBCopyYToAlphaRow_Any_SSE2",
   "linker_set_key" : "ARGBCopyYToAlphaRow_Any_SSE2",
   "parameters" :
   [
    {
     "referenced_type" : "_ZTIPKh"
    },
    {
     "referenced_type" : "_ZTIPh"
    },
    {
     "referenced_type" : "_ZTIi"
    }
   ],
   "return_type" : "_ZTIv",
   "source_file" : "external/libyuv/include/libyuv/row.h"
  },
  {
   "function_name" : "libyuv::ARGBCopyYToAlphaRow_C",
   "linker_set_key" : "ARGBCopyYToAlphaRow_C",
   "parameters" :
   [
    {
     "referenced_type" : "_ZTIPKh"
    },
    {
     "referenced_type" : "_ZTIPh"
    },
    {
     "referenced_type" : "_ZTIi"
    }
   ],
   "return_type" : "_ZTIv",
   "source_file" : "external/libyuv/include/libyuv/row.h"
  },
  {
   "function_name" : "libyuv::ARGBCopyYToAlphaRow_SSE2",
   "linker_set_key" : "ARGBCopyYToAlphaRow_SSE2",
   "parameters" :
   [
    {
     "referenced_type" : "_ZTIPKh"
    },
    {
     "referenced_type" : "_ZTIPh"
    },
    {
     "referenced_type" : "_ZTIi"
    }
   ],
   "return_type" : "_ZTIv",
   "source_file" : "external/libyuv/include/libyuv/row.h"
  },
  {
   "function_name" : "libyuv::ARGBDetect",
   "linker_set_key" : "ARGBDetect",
   "parameters" :
   [
    {
     "referenced_type" : "_ZTIPKh"
    },
    {
     "referenced_type" : "_ZTIi"
    },
    {
     "referenced_type" : "_ZTIi"
    },
    {
     "referenced_type" : "_ZTIi"
    }
   ],
   "return_type" : "_ZTIj",
   "source_file" : "external/libyuv/include/libyuv/compare.h"
  },
  {
   "function_name" : "libyuv::ARGBExtractAlpha",
   "linker_set_key" : "ARGBExtractAlpha",
   "parameters" :
   [
    {
     "referenced_type" : "_ZTIPKh"
    },
    {
     "referenced_type" : "_ZTIi"
    },
    {
     "referenced_type" : "_ZTIPh"
    },
    {
     "referenced_type" : "_ZTIi"
    },
    {
     "referenced_type" : "_ZTIi"
    },
    {
     "referenced_type" : "_ZTIi"
    }
   ],
   "return_type" : "_ZTIi",
   "source_file" : "external/libyuv/include/libyuv/planar_functions.h"
  },
  {
   "function_name" : "libyuv::ARGBExtractAlphaRow_AVX2",
   "linker_set_key" : "ARGBExtractAlphaRow_AVX2",
   "parameters" :
   [
    {
     "referenced_type" : "_ZTIPKh"
    },
    {
     "referenced_type" : "_ZTIPh"
    },
    {
     "referenced_type" : "_ZTIi"
    }
   ],
   "return_type" : "_ZTIv",
   "source_file" : "external/libyuv/include/libyuv/row.h"
  },
  {
   "function_name" : "libyuv::ARGBExtractAlphaRow_Any_AVX2",
   "linker_set_key" : "ARGBExtractAlphaRow_Any_AVX2",
   "parameters" :
   [
    {
     "referenced_type" : "_ZTIPKh"
    },
    {
     "referenced_type" : "_ZTIPh"
    },
    {
     "referenced_type" : "_ZTIi"
    }
   ],
   "return_type" : "_ZTIv",
   "source_file" : "external/libyuv/include/libyuv/row.h"
  },
  {
   "function_name" : "libyuv::ARGBExtractAlphaRow_Any_SSE2",
   "linker_set_key" : "ARGBExtractAlphaRow_Any_SSE2",
   "parameters" :
   [
    {
     "referenced_type" : "_ZTIPKh"
    },
    {
     "referenced_type" : "_ZTIPh"
    },
    {
     "referenced_type" : "_ZTIi"
    }
   ],
   "return_type" : "_ZTIv",
   "source_file" : "external/libyuv/include/libyuv/row.h"
  },
  {
   "function_name" : "libyuv::ARGBExtractAlphaRow_C",
   "linker_set_key" : "ARGBExtractAlphaRow_C",
   "parameters" :
   [
    {
     "referenced_type" : "_ZTIPKh"
    },
    {
     "referenced_type" : "_ZTIPh"
    },
    {
     "referenced_type" : "_ZTIi"
    }
   ],
   "return_type" : "_ZTIv",
   "source_file" : "external/libyuv/include/libyuv/row.h"
  },
  {
   "function_name" : "libyuv::ARGBExtractAlphaRow_SSE2",
   "linker_set_key" : "ARGBExtractAlphaRow_SSE2",
   "parameters" :
   [
    {
     "referenced_type" : "_ZTIPKh"
    },
    {
     "referenced_type" : "_ZTIPh"
    },
    {
     "referenced_type" : "_ZTIi"
    }
   ],
   "return_type" : "_ZTIv",
   "source_file" : "external/libyuv/include/libyuv/row.h"
  },
  {
   "function_name" : "libyuv::ARGBGray",
   "linker_set_key" : "ARGBGray",
   "parameters" :
   [
    {
     "referenced_type" : "_ZTIPh"
    },
    {
     "referenced_type" : "_ZTIi"
    },
    {
     "referenced_type" : "_ZTIi"
    },
    {
     "referenced_type" : "_ZTIi"
    },
    {
     "referenced_type" : "_ZTIi"
    },
    {
     "referenced_type" : "_ZTIi"
    }
   ],
   "return_type" : "_ZTIi",
   "source_file" : "external/libyuv/include/libyuv/planar_functions.h"
  },
  {
   "function_name" : "libyuv::ARGBGrayRow_C",
   "linker_set_key" : "ARGBGrayRow_C",
   "parameters" :
   [
    {
     "referenced_type" : "_ZTIPKh"
    },
    {
     "referenced_type" : "_ZTIPh"
    },
    {
     "referenced_type" : "_ZTIi"
    }
   ],
   "return_type" : "_ZTIv",
   "source_file" : "external/libyuv/include/libyuv/row.h"
  },
  {
   "function_name" : "libyuv::ARGBGrayRow_SSSE3",
   "linker_set_key" : "ARGBGrayRow_SSSE3",
   "parameters" :
   [
    {
     "referenced_type" : "_ZTIPKh"
    },
    {
     "referenced_type" : "_ZTIPh"
    },
    {
     "referenced_type" : "_ZTIi"
    }
   ],
   "return_type" : "_ZTIv",
   "source_file" : "external/libyuv/include/libyuv/row.h"
  },
  {
   "function_name" : "libyuv::ARGBGrayTo",
   "linker_set_key" : "ARGBGrayTo",
   "parameters" :
   [
    {
     "referenced_type" : "_ZTIPKh"
    },
    {
     "referenced_type" : "_ZTIi"
    },
    {
     "referenced_type" : "_ZTIPh"
    },
    {
     "referenced_type" : "_ZTIi"
    },
    {
     "referenced_type" : "_ZTIi"
    },
    {
     "referenced_type" : "_ZTIi"
    }
   ],
   "return_type" : "_ZTIi",
   "source_file" : "external/libyuv/include/libyuv/planar_functions.h"
  },
  {
   "function_name" : "libyuv::ARGBInterpolate",
   "linker_set_key" : "ARGBInterpolate",
   "parameters" :
   [
    {
     "referenced_type" : "_ZTIPKh"
    },
    {
     "referenced_type" : "_ZTIi"
    },
    {
     "referenced_type" : "_ZTIPKh"
    },
    {
     "referenced_type" : "_ZTIi"
    },
    {
     "referenced_type" : "_ZTIPh"
    },
    {
     "referenced_type" : "_ZTIi"
    },
    {
     "referenced_type" : "_ZTIi"
    },
    {
     "referenced_type" : "_ZTIi"
    },
    {
     "referenced_type" : "_ZTIi"
    }
   ],
   "return_type" : "_ZTIi",
   "source_file" : "external/libyuv/include/libyuv/planar_functions.h"
  },
  {
   "function_name" : "libyuv::ARGBLumaColorTable",
   "linker_set_key" : "ARGBLumaColorTable",
   "parameters" :
   [
    {
     "referenced_type" : "_ZTIPKh"
    },
    {
     "referenced_type" : "_ZTIi"
    },
    {
     "referenced_type" : "_ZTIPh"
    },
    {
     "referenced_type" : "_ZTIi"
    },
    {
     "referenced_type" : "_ZTIPKh"
    },
    {
     "referenced_type" : "_ZTIi"
    },
    {
     "referenced_type" : "_ZTIi"
    }
   ],
   "return_type" : "_ZTIi",
   "source_file" : "external/libyuv/include/libyuv/planar_functions.h"
  },
  {
   "function_name" : "libyuv::ARGBLumaColorTableRow_C",
   "linker_set_key" : "ARGBLumaColorTableRow_C",
   "parameters" :
   [
    {
     "referenced_type" : "_ZTIPKh"
    },
    {
     "referenced_type" : "_ZTIPh"
    },
    {
     "referenced_type" : "_ZTIi"
    },
    {
     "referenced_type" : "_ZTIPKh"
    },
    {
     "referenced_type" : "_ZTIj"
    }
   ],
   "return_type" : "_ZTIv",
   "source_file" : "external/libyuv/include/libyuv/row.h"
  },
  {
   "function_name" : "libyuv::ARGBLumaColorTableRow_SSSE3",
   "linker_set_key" : "ARGBLumaColorTableRow_SSSE3",
   "parameters" :
   [
    {
     "referenced_type" : "_ZTIPKh"
    },
    {
     "referenced_type" : "_ZTIPh"
    },
    {
     "referenced_type" : "_ZTIi"
    },
    {
     "referenced_type" : "_ZTIPKh"
    },
    {
     "referenced_type" : "_ZTIj"
    }
   ],
   "return_type" : "_ZTIv",
   "source_file" : "external/libyuv/include/libyuv/row.h"
  },
  {
   "function_name" : "libyuv::ARGBMirror",
   "linker_set_key" : "ARGBMirror",
   "parameters" :
   [
    {
     "referenced_type" : "_ZTIPKh"
    },
    {
     "referenced_type" : "_ZTIi"
    },
    {
     "referenced_type" : "_ZTIPh"
    },
    {
     "referenced_type" : "_ZTIi"
    },
    {
     "referenced_type" : "_ZTIi"
    },
    {
     "referenced_type" : "_ZTIi"
    }
   ],
   "return_type" : "_ZTIi",
   "source_file" : "external/libyuv/include/libyuv/planar_functions.h"
  },
  {
   "function_name" : "libyuv::ARGBMirrorRow_AVX2",
   "linker_set_key" : "ARGBMirrorRow_AVX2",
   "parameters" :
   [
    {
     "referenced_type" : "_ZTIPKh"
    },
    {
     "referenced_type" : "_ZTIPh"
    },
    {
     "referenced_type" : "_ZTIi"
    }
   ],
   "return_type" : "_ZTIv",
   "source_file" : "external/libyuv/include/libyuv/row.h"
  },
  {
   "function_name" : "libyuv::ARGBMirrorRow_Any_AVX2",
   "linker_set_key" : "ARGBMirrorRow_Any_AVX2",
   "parameters" :
   [
    {
     "referenced_type" : "_ZTIPKh"
    },
    {
     "referenced_type" : "_ZTIPh"
    },
    {
     "referenced_type" : "_ZTIi"
    }
   ],
   "return_type" : "_ZTIv",
   "source_file" : "external/libyuv/include/libyuv/row.h"
  },
  {
   "function_name" : "libyuv::ARGBMirrorRow_Any_SSE2",
   "linker_set_key" : "ARGBMirrorRow_Any_SSE2",
   "parameters" :
   [
    {
     "referenced_type" : "_ZTIPKh"
    },
    {
     "referenced_type" : "_ZTIPh"
    },
    {
     "referenced_type" : "_ZTIi"
    }
   ],
   "return_type" : "_ZTIv",
   "source_file" : "external/libyuv/include/libyuv/row.h"
  },
  {
   "function_name" : "libyuv::ARGBMirrorRow_C",
   "linker_set_key" : "ARGBMirrorRow_C",
   "parameters" :
   [
    {
     "referenced_type" : "_ZTIPKh"
    },
    {
     "referenced_type" : "_ZTIPh"
    },
    {
     "referenced_type" : "_ZTIi"
    }
   ],
   "return_type" : "_ZTIv",
   "source_file" : "external/libyuv/include/libyuv/row.h"
  },
  {
   "function_name" : "libyuv::ARGBMirrorRow_SSE2",
   "linker_set_key" : "ARGBMirrorRow_SSE2",
   "parameters" :
   [
    {
     "referenced_type" : "_ZTIPKh"
    },
    {
     "referenced_type" : "_ZTIPh"
    },
    {
     "referenced_type" : "_ZTIi"
    }
   ],
   "return_type" : "_ZTIv",
   "source_file" : "external/libyuv/include/libyuv/row.h"
  },
  {
   "function_name" : "libyuv::ARGBMultiply",
   "linker_set_key" : "ARGBMultiply",
   "parameters" :
   [
    {
     "referenced_type" : "_ZTIPKh"
    },
    {
     "referenced_type" : "_ZTIi"
    },
    {
     "referenced_type" : "_ZTIPKh"
    },
    {
     "referenced_type" : "_ZTIi"
    },
    {
     "referenced_type" : "_ZTIPh"
    },
    {
     "referenced_type" : "_ZTIi"
    },
    {
     "referenced_type" : "_ZTIi"
    },
    {
     "referenced_type" : "_ZTIi"
    }
   ],
   "return_type" : "_ZTIi",
   "source_file" : "external/libyuv/include/libyuv/planar_functions.h"
  },
  {
   "function_name" : "libyuv::ARGBMultiplyRow_AVX2",
   "linker_set_key" : "ARGBMultiplyRow_AVX2",
   "parameters" :
   [
    {
     "referenced_type" : "_ZTIPKh"
    },
    {
     "referenced_type" : "_ZTIPKh"
    },
    {
     "referenced_type" : "_ZTIPh"
    },
    {
     "referenced_type" : "_ZTIi"
    }
   ],
   "return_type" : "_ZTIv",
   "source_file" : "external/libyuv/include/libyuv/row.h"
  },
  {
   "function_name" : "libyuv::ARGBMultiplyRow_Any_AVX2",
   "linker_set_key" : "ARGBMultiplyRow_Any_AVX2",
   "parameters" :
   [
    {
     "referenced_type" : "_ZTIPKh"
    },
    {
     "referenced_type" : "_ZTIPKh"
    },
    {
     "referenced_type" : "_ZTIPh"
    },
    {
     "referenced_type" : "_ZTIi"
    }
   ],
   "return_type" : "_ZTIv",
   "source_file" : "external/libyuv/include/libyuv/row.h"
  },
  {
   "function_name" : "libyuv::ARGBMultiplyRow_Any_SSE2",
   "linker_set_key" : "ARGBMultiplyRow_Any_SSE2",
   "parameters" :
   [
    {
     "referenced_type" : "_ZTIPKh"
    },
    {
     "referenced_type" : "_ZTIPKh"
    },
    {
     "referenced_type" : "_ZTIPh"
    },
    {
     "referenced_type" : "_ZTIi"
    }
   ],
   "return_type" : "_ZTIv",
   "source_file" : "external/libyuv/include/libyuv/row.h"
  },
  {
   "function_name" : "libyuv::ARGBMultiplyRow_C",
   "linker_set_key" : "ARGBMultiplyRow_C",
   "parameters" :
   [
    {
     "referenced_type" : "_ZTIPKh"
    },
    {
     "referenced_type" : "_ZTIPKh"
    },
    {
     "referenced_type" : "_ZTIPh"
    },
    {
     "referenced_type" : "_ZTIi"
    }
   ],
   "return_type" : "_ZTIv",
   "source_file" : "external/libyuv/include/libyuv/row.h"
  },
  {
   "function_name" : "libyuv::ARGBMultiplyRow_SSE2",
   "linker_set_key" : "ARGBMultiplyRow_SSE2",
   "parameters" :
   [
    {
     "referenced_type" : "_ZTIPKh"
    },
    {
     "referenced_type" : "_ZTIPKh"
    },
    {
     "referenced_type" : "_ZTIPh"
    },
    {
     "referenced_type" : "_ZTIi"
    }
   ],
   "return_type" : "_ZTIv",
   "source_file" : "external/libyuv/include/libyuv/row.h"
  },
  {
   "function_name" : "libyuv::ARGBPolynomial",
   "linker_set_key" : "ARGBPolynomial",
   "parameters" :
   [
    {
     "referenced_type" : "_ZTIPKh"
    },
    {
     "referenced_type" : "_ZTIi"
    },
    {
     "referenced_type" : "_ZTIPh"
    },
    {
     "referenced_type" : "_ZTIi"
    },
    {
     "referenced_type" : "_ZTIPKf"
    },
    {
     "referenced_type" : "_ZTIi"
    },
    {
     "referenced_type" : "_ZTIi"
    }
   ],
   "return_type" : "_ZTIi",
   "source_file" : "external/libyuv/include/libyuv/planar_functions.h"
  },
  {
   "function_name" : "libyuv::ARGBPolynomialRow_AVX2",
   "linker_set_key" : "ARGBPolynomialRow_AVX2",
   "parameters" :
   [
    {
     "referenced_type" : "_ZTIPKh"
    },
    {
     "referenced_type" : "_ZTIPh"
    },
    {
     "referenced_type" : "_ZTIPKf"
    },
    {
     "referenced_type" : "_ZTIi"
    }
   ],
   "return_type" : "_ZTIv",
   "source_file" : "external/libyuv/include/libyuv/row.h"
  },
  {
   "function_name" : "libyuv::ARGBPolynomialRow_C",
   "linker_set_key" : "ARGBPolynomialRow_C",
   "parameters" :
   [
    {
     "referenced_type" : "_ZTIPKh"
    },
    {
     "referenced_type" : "_ZTIPh"
    },
    {
     "referenced_type" : "_ZTIPKf"
    },
    {
     "referenced_type" : "_ZTIi"
    }
   ],
   "return_type" : "_ZTIv",
   "source_file" : "external/libyuv/include/libyuv/row.h"
  },
  {
   "function_name" : "libyuv::ARGBPolynomialRow_SSE2",
   "linker_set_key" : "ARGBPolynomialRow_SSE2",
   "parameters" :
   [
    {
     "referenced_type" : "_ZTIPKh"
    },
    {
     "referenced_type" : "_ZTIPh"
    },
    {
     "referenced_type" : "_ZTIPKf"
    },
    {
     "referenced_type" : "_ZTIi"
    }
   ],
   "return_type" : "_ZTIv",
   "source_file" : "external/libyuv/include/libyuv/row.h"
  },
  {
   "function_name" : "libyuv::ARGBQuantize",
   "linker_set_key" : "ARGBQuantize",
   "parameters" :
   [
    {
     "referenced_type" : "_ZTIPh"
    },
    {
     "referenced_type" : "_ZTIi"
    },
    {
     "referenced_type" : "_ZTIi"
    },
    {
     "referenced_type" : "_ZTIi"
    },
    {
     "referenced_type" : "_ZTIi"
    },
    {
     "referenced_type" : "_ZTIi"
    },
    {
     "referenced_type" : "_ZTIi"
    },
    {
     "referenced_type" : "_ZTIi"
    },
    {
     "referenced_type" : "_ZTIi"
    }
   ],
   "return_type" : "_ZTIi",
   "source_file" : "external/libyuv/include/libyuv/planar_functions.h"
  },
  {
   "function_name" : "libyuv::ARGBQuantizeRow_C",
   "linker_set_key" : "ARGBQuantizeRow_C",
   "parameters" :
   [
    {
     "referenced_type" : "_ZTIPh"
    },
    {
     "referenced_type" : "_ZTIi"
    },
    {
     "referenced_type" : "_ZTIi"
    },
    {
     "referenced_type" : "_ZTIi"
    },
    {
     "referenced_type" : "_ZTIi"
    }
   ],
   "return_type" : "_ZTIv",
   "source_file" : "external/libyuv/include/libyuv/row.h"
  },
  {
   "function_name" : "libyuv::ARGBQuantizeRow_SSE2",
   "linker_set_key" : "ARGBQuantizeRow_SSE2",
   "parameters" :
   [
    {
     "referenced_type" : "_ZTIPh"
    },
    {
     "referenced_type" : "_ZTIi"
    },
    {
     "referenced_type" : "_ZTIi"
    },
    {
     "referenced_type" : "_ZTIi"
    },
    {
     "referenced_type" : "_ZTIi"
    }
   ],
   "return_type" : "_ZTIv",
   "source_file" : "external/libyuv/include/libyuv/row.h"
  },
  {
   "function_name" : "libyuv::ARGBRect",
   "linker_set_key" : "ARGBRect",
   "parameters" :
   [
    {
     "referenced_type" : "_ZTIPh"
    },
    {
     "referenced_type" : "_ZTIi"
    },
    {
     "referenced_type" : "_ZTIi"
    },
    {
     "referenced_type" : "_ZTIi"
    },
    {
     "referenced_type" : "_ZTIi"
    },
    {
     "referenced_type" : "_ZTIi"
    },
    {
     "referenced_type" : "_ZTIj"
    }
   ],
   "return_type" : "_ZTIi",
   "source_file" : "external/libyuv/include/libyuv/planar_functions.h"
  },
  {
   "function_name" : "libyuv::ARGBRotate",
   "linker_set_key" : "ARGBRotate",
   "parameters" :
   [
    {
     "referenced_type" : "_ZTIPKh"
    },
    {
     "referenced_type" : "_ZTIi"
    },
    {
     "referenced_type" : "_ZTIPh"
    },
    {
     "referenced_type" : "_ZTIi"
    },
    {
     "referenced_type" : "_ZTIi"
    },
    {
     "referenced_type" : "_ZTIi"
    },
    {
     "referenced_type" : "_ZTIN6libyuv12RotationModeE"
    }
   ],
   "return_type" : "_ZTIi",
   "source_file" : "external/libyuv/include/libyuv/rotate_argb.h"
  },
  {
   "function_name" : "libyuv::ARGBSepia",
   "linker_set_key" : "ARGBSepia",
   "parameters" :
   [
    {
     "referenced_type" : "_ZTIPh"
    },
    {
     "referenced_type" : "_ZTIi"
    },
    {
     "referenced_type" : "_ZTIi"
    },
    {
     "referenced_type" : "_ZTIi"
    },
    {
     "referenced_type" : "_ZTIi"
    },
    {
     "referenced_type" : "_ZTIi"
    }
   ],
   "return_type" : "_ZTIi",
   "source_file" : "external/libyuv/include/libyuv/planar_functions.h"
  },
  {
   "function_name" : "libyuv::ARGBSepiaRow_C",
   "linker_set_key" : "ARGBSepiaRow_C",
   "parameters" :
   [
    {
     "referenced_type" : "_ZTIPh"
    },
    {
     "referenced_type" : "_ZTIi"
    }
   ],
   "return_type" : "_ZTIv",
   "source_file" : "external/libyuv/include/libyuv/row.h"
  },
  {
   "function_name" : "libyuv::ARGBSepiaRow_SSSE3",
   "linker_set_key" : "ARGBSepiaRow_SSSE3",
   "parameters" :
   [
    {
     "referenced_type" : "_ZTIPh"
    },
    {
     "referenced_type" : "_ZTIi"
    }
   ],
   "return_type" : "_ZTIv",
   "source_file" : "external/libyuv/include/libyuv/row.h"
  },
  {
   "function_name" : "libyuv::ARGBSetRow_C",
   "linker_set_key" : "ARGBSetRow_C",
   "parameters" :
   [
    {
     "referenced_type" : "_ZTIPh"
    },
    {
     "referenced_type" : "_ZTIj"
    },
    {
     "referenced_type" : "_ZTIi"
    }
   ],
   "return_type" : "_ZTIv",
   "source_file" : "external/libyuv/include/libyuv/row.h"
  },
  {
   "function_name" : "libyuv::ARGBSetRow_X86",
   "linker_set_key" : "ARGBSetRow_X86",
   "parameters" :
   [
    {
     "referenced_type" : "_ZTIPh"
    },
    {
     "referenced_type" : "_ZTIj"
    },
    {
     "referenced_type" : "_ZTIi"
    }
   ],
   "return_type" : "_ZTIv",
   "source_file" : "external/libyuv/include/libyuv/row.h"
  },
  {
   "function_name" : "libyuv::ARGBShade",
   "linker_set_key" : "ARGBShade",
   "parameters" :
   [
    {
     "referenced_type" : "_ZTIPKh"
    },
    {
     "referenced_type" : "_ZTIi"
    },
    {
     "referenced_type" : "_ZTIPh"
    },
    {
     "referenced_type" : "_ZTIi"
    },
    {
     "referenced_type" : "_ZTIi"
    },
    {
     "referenced_type" : "_ZTIi"
    },
    {
     "referenced_type" : "_ZTIj"
    }
   ],
   "return_type" : "_ZTIi",
   "source_file" : "external/libyuv/include/libyuv/planar_functions.h"
  },
  {
   "function_name" : "libyuv::ARGBShadeRow_C",
   "linker_set_key" : "ARGBShadeRow_C",
   "parameters" :
   [
    {
     "referenced_type" : "_ZTIPKh"
    },
    {
     "referenced_type" : "_ZTIPh"
    },
    {
     "referenced_type" : "_ZTIi"
    },
    {
     "referenced_type" : "_ZTIj"
    }
   ],
   "return_type" : "_ZTIv",
   "source_file" : "external/libyuv/include/libyuv/row.h"
  },
  {
   "function_name" : "libyuv::ARGBShadeRow_SSE2",
   "linker_set_key" : "ARGBShadeRow_SSE2",
   "parameters" :
   [
    {
     "referenced_type" : "_ZTIPKh"
    },
    {
     "referenced_type" : "_ZTIPh"
    },
    {
     "referenced_type" : "_ZTIi"
    },
    {
     "referenced_type" : "_ZTIj"
    }
   ],
   "return_type" : "_ZTIv",
   "source_file" : "external/libyuv/include/libyuv/row.h"
  },
  {
   "function_name" : "libyuv::ARGBShuffle",
   "linker_set_key" : "ARGBShuffle",
   "parameters" :
   [
    {
     "referenced_type" : "_ZTIPKh"
    },
    {
     "referenced_type" : "_ZTIi"
    },
    {
     "referenced_type" : "_ZTIPh"
    },
    {
     "referenced_type" : "_ZTIi"
    },
    {
     "referenced_type" : "_ZTIPKh"
    },
    {
     "referenced_type" : "_ZTIi"
    },
    {
     "referenced_type" : "_ZTIi"
    }
   ],
   "return_type" : "_ZTIi",
   "source_file" : "external/libyuv/include/libyuv/planar_functions.h"
  },
  {
   "function_name" : "libyuv::ARGBShuffleRow_AVX2",
   "linker_set_key" : "ARGBShuffleRow_AVX2",
   "parameters" :
   [
    {
     "referenced_type" : "_ZTIPKh"
    },
    {
     "referenced_type" : "_ZTIPh"
    },
    {
     "referenced_type" : "_ZTIPKh"
    },
    {
     "referenced_type" : "_ZTIi"
    }
   ],
   "return_type" : "_ZTIv",
   "source_file" : "external/libyuv/include/libyuv/row.h"
  },
  {
   "function_name" : "libyuv::ARGBShuffleRow_Any_AVX2",
   "linker_set_key" : "ARGBShuffleRow_Any_AVX2",
   "parameters" :
   [
    {
     "referenced_type" : "_ZTIPKh"
    },
    {
     "referenced_type" : "_ZTIPh"
    },
    {
     "referenced_type" : "_ZTIPKh"
    },
    {
     "referenced_type" : "_ZTIi"
    }
   ],
   "return_type" : "_ZTIv",
   "source_file" : "external/libyuv/include/libyuv/row.h"
  },
  {
   "function_name" : "libyuv::ARGBShuffleRow_Any_SSSE3",
   "linker_set_key" : "ARGBShuffleRow_Any_SSSE3",
   "parameters" :
   [
    {
     "referenced_type" : "_ZTIPKh"
    },
    {
     "referenced_type" : "_ZTIPh"
    },
    {
     "referenced_type" : "_ZTIPKh"
    },
    {
     "referenced_type" : "_ZTIi"
    }
   ],
   "return_type" : "_ZTIv",
   "source_file" : "external/libyuv/include/libyuv/row.h"
  },
  {
   "function_name" : "libyuv::ARGBShuffleRow_C",
   "linker_set_key" : "ARGBShuffleRow_C",
   "parameters" :
   [
    {
     "referenced_type" : "_ZTIPKh"
    },
    {
     "referenced_type" : "_ZTIPh"
    },
    {
     "referenced_type" : "_ZTIPKh"
    },
    {
     "referenced_type" : "_ZTIi"
    }
   ],
   "return_type" : "_ZTIv",
   "source_file" : "external/libyuv/include/libyuv/row.h"
  },
  {
   "function_name" : "libyuv::ARGBShuffleRow_SSSE3",
   "linker_set_key" : "ARGBShuffleRow_SSSE3",
   "parameters" :
   [
    {
     "referenced_type" : "_ZTIPKh"
    },
    {
     "referenced_type" : "_ZTIPh"
    },
    {
     "referenced_type" : "_ZTIPKh"
    },
    {
     "referenced_type" : "_ZTIi"
    }
   ],
   "return_type" : "_ZTIv",
   "source_file" : "external/libyuv/include/libyuv/row.h"
  },
  {
   "function_name" : "libyuv::ARGBSobel",
   "linker_set_key" : "ARGBSobel",
   "parameters" :
   [
    {
     "referenced_type" : "_ZTIPKh"
    },
    {
     "referenced_type" : "_ZTIi"
    },
    {
     "referenced_type" : "_ZTIPh"
    },
    {
     "referenced_type" : "_ZTIi"
    },
    {
     "referenced_type" : "_ZTIi"
    },
    {
     "referenced_type" : "_ZTIi"
    }
   ],
   "return_type" : "_ZTIi",
   "source_file" : "external/libyuv/include/libyuv/planar_functions.h"
  },
  {
   "function_name" : "libyuv::ARGBSobelToPlane",
   "linker_set_key" : "ARGBSobelToPlane",
   "parameters" :
   [
    {
     "referenced_type" : "_ZTIPKh"
    },
    {
     "referenced_type" : "_ZTIi"
    },
    {
     "referenced_type" : "_ZTIPh"
    },
    {
     "referenced_type" : "_ZTIi"
    },
    {
     "referenced_type" : "_ZTIi"
    },
    {
     "referenced_type" : "_ZTIi"
    }
   ],
   "return_type" : "_ZTIi",
   "source_file" : "external/libyuv/include/libyuv/planar_functions.h"
  },
  {
   "function_name" : "libyuv::ARGBSobelXY",
   "linker_set_key" : "ARGBSobelXY",
   "parameters" :
   [
    {
     "referenced_type" : "_ZTIPKh"
    },
    {
     "referenced_type" : "_ZTIi"
    },
    {
     "referenced_type" : "_ZTIPh"
    },
    {
     "referenced_type" : "_ZTIi"
    },
    {
     "referenced_type" : "_ZTIi"
    },
    {
     "referenced_type" : "_ZTIi"
    }
   ],
   "return_type" : "_ZTIi",
   "source_file" : "external/libyuv/include/libyuv/planar_functions.h"
  },
  {
   "function_name" : "libyuv::ARGBSubtract",
   "linker_set_key" : "ARGBSubtract",
   "parameters" :
   [
    {
     "referenced_type" : "_ZTIPKh"
    },
    {
     "referenced_type" : "_ZTIi"
    },
    {
     "referenced_type" : "_ZTIPKh"
    },
    {
     "referenced_type" : "_ZTIi"
    },
    {
     "referenced_type" : "_ZTIPh"
    },
    {
     "referenced_type" : "_ZTIi"
    },
    {
     "referenced_type" : "_ZTIi"
    },
    {
     "referenced_type" : "_ZTIi"
    }
   ],
   "return_type" : "_ZTIi",
   "source_file" : "external/libyuv/include/libyuv/planar_functions.h"
  },
  {
   "function_name" : "libyuv::ARGBSubtractRow_AVX2",
   "linker_set_key" : "ARGBSubtractRow_AVX2",
   "parameters" :
   [
    {
     "referenced_type" : "_ZTIPKh"
    },
    {
     "referenced_type" : "_ZTIPKh"
    },
    {
     "referenced_type" : "_ZTIPh"
    },
    {
     "referenced_type" : "_ZTIi"
    }
   ],
   "return_type" : "_ZTIv",
   "source_file" : "external/libyuv/include/libyuv/row.h"
  },
  {
   "function_name" : "libyuv::ARGBSubtractRow_Any_AVX2",
   "linker_set_key" : "ARGBSubtractRow_Any_AVX2",
   "parameters" :
   [
    {
     "referenced_type" : "_ZTIPKh"
    },
    {
     "referenced_type" : "_ZTIPKh"
    },
    {
     "referenced_type" : "_ZTIPh"
    },
    {
     "referenced_type" : "_ZTIi"
    }
   ],
   "return_type" : "_ZTIv",
   "source_file" : "external/libyuv/include/libyuv/row.h"
  },
  {
   "function_name" : "libyuv::ARGBSubtractRow_Any_SSE2",
   "linker_set_key" : "ARGBSubtractRow_Any_SSE2",
   "parameters" :
   [
    {
     "referenced_type" : "_ZTIPKh"
    },
    {
     "referenced_type" : "_ZTIPKh"
    },
    {
     "referenced_type" : "_ZTIPh"
    },
    {
     "referenced_type" : "_ZTIi"
    }
   ],
   "return_type" : "_ZTIv",
   "source_file" : "external/libyuv/include/libyuv/row.h"
  },
  {
   "function_name" : "libyuv::ARGBSubtractRow_C",
   "linker_set_key" : "ARGBSubtractRow_C",
   "parameters" :
   [
    {
     "referenced_type" : "_ZTIPKh"
    },
    {
     "referenced_type" : "_ZTIPKh"
    },
    {
     "referenced_type" : "_ZTIPh"
    },
    {
     "referenced_type" : "_ZTIi"
    }
   ],
   "return_type" : "_ZTIv",
   "source_file" : "external/libyuv/include/libyuv/row.h"
  },
  {
   "function_name" : "libyuv::ARGBSubtractRow_SSE2",
   "linker_set_key" : "ARGBSubtractRow_SSE2",
   "parameters" :
   [
    {
     "referenced_type" : "_ZTIPKh"
    },
    {
     "referenced_type" : "_ZTIPKh"
    },
    {
     "referenced_type" : "_ZTIPh"
    },
    {
     "referenced_type" : "_ZTIi"
    }
   ],
   "return_type" : "_ZTIv",
   "source_file" : "external/libyuv/include/libyuv/row.h"
  },
  {
   "function_name" : "libyuv::ARGBToAB64",
   "linker_set_key" : "ARGBToAB64",
   "parameters" :
   [
    {
     "referenced_type" : "_ZTIPKh"
    },
    {
     "referenced_type" : "_ZTIi"
    },
    {
     "referenced_type" : "_ZTIPt"
    },
    {
     "referenced_type" : "_ZTIi"
    },
    {
     "referenced_type" : "_ZTIi"
    },
    {
     "referenced_type" : "_ZTIi"
    }
   ],
   "return_type" : "_ZTIi",
   "source_file" : "external/libyuv/include/libyuv/convert_from_argb.h"
  },
  {
   "function_name" : "libyuv::ARGBToAB64Row_AVX2",
   "linker_set_key" : "ARGBToAB64Row_AVX2",
   "parameters" :
   [
    {
     "referenced_type" : "_ZTIPKh"
    },
    {
     "referenced_type" : "_ZTIPt"
    },
    {
     "referenced_type" : "_ZTIi"
    }
   ],
   "return_type" : "_ZTIv",
   "source_file" : "external/libyuv/include/libyuv/row.h"
  },
  {
   "function_name" : "libyuv::ARGBToAB64Row_Any_AVX2",
   "linker_set_key" : "ARGBToAB64Row_Any_AVX2",
   "parameters" :
   [
    {
     "referenced_type" : "_ZTIPKh"
    },
    {
     "referenced_type" : "_ZTIPt"
    },
    {
     "referenced_type" : "_ZTIi"
    }
   ],
   "return_type" : "_ZTIv",
   "source_file" : "external/libyuv/include/libyuv/row.h"
  },
  {
   "function_name" : "libyuv::ARGBToAB64Row_Any_SSSE3",
   "linker_set_key" : "ARGBToAB64Row_Any_SSSE3",
   "parameters" :
   [
    {
     "referenced_type" : "_ZTIPKh"
    },
    {
     "referenced_type" : "_ZTIPt"
    },
    {
     "referenced_type" : "_ZTIi"
    }
   ],
   "return_type" : "_ZTIv",
   "source_file" : "external/libyuv/include/libyuv/row.h"
  },
  {
   "function_name" : "libyuv::ARGBToAB64Row_C",
   "linker_set_key" : "ARGBToAB64Row_C",
   "parameters" :
   [
    {
     "referenced_type" : "_ZTIPKh"
    },
    {
     "referenced_type" : "_ZTIPt"
    },
    {
     "referenced_type" : "_ZTIi"
    }
   ],
   "return_type" : "_ZTIv",
   "source_file" : "external/libyuv/include/libyuv/row.h"
  },
  {
   "function_name" : "libyuv::ARGBToAB64Row_SSSE3",
   "linker_set_key" : "ARGBToAB64Row_SSSE3",
   "parameters" :
   [
    {
     "referenced_type" : "_ZTIPKh"
    },
    {
     "referenced_type" : "_ZTIPt"
    },
    {
     "referenced_type" : "_ZTIi"
    }
   ],
   "return_type" : "_ZTIv",
   "source_file" : "external/libyuv/include/libyuv/row.h"
  },
  {
   "function_name" : "libyuv::ARGBToABGR",
   "linker_set_key" : "ARGBToABGR",
   "parameters" :
   [
    {
     "referenced_type" : "_ZTIPKh"
    },
    {
     "referenced_type" : "_ZTIi"
    },
    {
     "referenced_type" : "_ZTIPh"
    },
    {
     "referenced_type" : "_ZTIi"
    },
    {
     "referenced_type" : "_ZTIi"
    },
    {
     "referenced_type" : "_ZTIi"
    }
   ],
   "return_type" : "_ZTIi",
   "source_file" : "external/libyuv/include/libyuv/convert_from_argb.h"
  },
  {
   "function_name" : "libyuv::ARGBToAR30",
   "linker_set_key" : "ARGBToAR30",
   "parameters" :
   [
    {
     "referenced_type" : "_ZTIPKh"
    },
    {
     "referenced_type" : "_ZTIi"
    },
    {
     "referenced_type" : "_ZTIPh"
    },
    {
     "referenced_type" : "_ZTIi"
    },
    {
     "referenced_type" : "_ZTIi"
    },
    {
     "referenced_type" : "_ZTIi"
    }
   ],
   "return_type" : "_ZTIi",
   "source_file" : "external/libyuv/include/libyuv/convert_from_argb.h"
  },
  {
   "function_name" : "libyuv::ARGBToAR30Row_AVX2",
   "linker_set_key" : "ARGBToAR30Row_AVX2",
   "parameters" :
   [
    {
     "referenced_type" : "_ZTIPKh"
    },
    {
     "referenced_type" : "_ZTIPh"
    },
    {
     "referenced_type" : "_ZTIi"
    }
   ],
   "return_type" : "_ZTIv",
   "source_file" : "external/libyuv/include/libyuv/row.h"
  },
  {
   "function_name" : "libyuv::ARGBToAR30Row_Any_AVX2",
   "linker_set_key" : "ARGBToAR30Row_Any_AVX2",
   "parameters" :
   [
    {
     "referenced_type" : "_ZTIPKh"
    },
    {
     "referenced_type" : "_ZTIPh"
    },
    {
     "referenced_type" : "_ZTIi"
    }
   ],
   "return_type" : "_ZTIv",
   "source_file" : "external/libyuv/include/libyuv/row.h"
  },
  {
   "function_name" : "libyuv::ARGBToAR30Row_Any_SSSE3",
   "linker_set_key" : "ARGBToAR30Row_Any_SSSE3",
   "parameters" :
   [
    {
     "referenced_type" : "_ZTIPKh"
    },
    {
     "referenced_type" : "_ZTIPh"
    },
    {
     "referenced_type" : "_ZTIi"
    }
   ],
   "return_type" : "_ZTIv",
   "source_file" : "external/libyuv/include/libyuv/row.h"
  },
  {
   "function_name" : "libyuv::ARGBToAR30Row_C",
   "linker_set_key" : "ARGBToAR30Row_C",
   "parameters" :
   [
    {
     "referenced_type" : "_ZTIPKh"
    },
    {
     "referenced_type" : "_ZTIPh"
    },
    {
     "referenced_type" : "_ZTIi"
    }
   ],
   "return_type" : "_ZTIv",
   "source_file" : "external/libyuv/include/libyuv/row.h"
  },
  {
   "function_name" : "libyuv::ARGBToAR30Row_SSSE3",
   "linker_set_key" : "ARGBToAR30Row_SSSE3",
   "parameters" :
   [
    {
     "referenced_type" : "_ZTIPKh"
    },
    {
     "referenced_type" : "_ZTIPh"
    },
    {
     "referenced_type" : "_ZTIi"
    }
   ],
   "return_type" : "_ZTIv",
   "source_file" : "external/libyuv/include/libyuv/row.h"
  },
  {
   "function_name" : "libyuv::ARGBToAR64",
   "linker_set_key" : "ARGBToAR64",
   "parameters" :
   [
    {
     "referenced_type" : "_ZTIPKh"
    },
    {
     "referenced_type" : "_ZTIi"
    },
    {
     "referenced_type" : "_ZTIPt"
    },
    {
     "referenced_type" : "_ZTIi"
    },
    {
     "referenced_type" : "_ZTIi"
    },
    {
     "referenced_type" : "_ZTIi"
    }
   ],
   "return_type" : "_ZTIi",
   "source_file" : "external/libyuv/include/libyuv/convert_from_argb.h"
  },
  {
   "function_name" : "libyuv::ARGBToAR64Row_AVX2",
   "linker_set_key" : "ARGBToAR64Row_AVX2",
   "parameters" :
   [
    {
     "referenced_type" : "_ZTIPKh"
    },
    {
     "referenced_type" : "_ZTIPt"
    },
    {
     "referenced_type" : "_ZTIi"
    }
   ],
   "return_type" : "_ZTIv",
   "source_file" : "external/libyuv/include/libyuv/row.h"
  },
  {
   "function_name" : "libyuv::ARGBToAR64Row_Any_AVX2",
   "linker_set_key" : "ARGBToAR64Row_Any_AVX2",
   "parameters" :
   [
    {
     "referenced_type" : "_ZTIPKh"
    },
    {
     "referenced_type" : "_ZTIPt"
    },
    {
     "referenced_type" : "_ZTIi"
    }
   ],
   "return_type" : "_ZTIv",
   "source_file" : "external/libyuv/include/libyuv/row.h"
  },
  {
   "function_name" : "libyuv::ARGBToAR64Row_Any_SSSE3",
   "linker_set_key" : "ARGBToAR64Row_Any_SSSE3",
   "parameters" :
   [
    {
     "referenced_type" : "_ZTIPKh"
    },
    {
     "referenced_type" : "_ZTIPt"
    },
    {
     "referenced_type" : "_ZTIi"
    }
   ],
   "return_type" : "_ZTIv",
   "source_file" : "external/libyuv/include/libyuv/row.h"
  },
  {
   "function_name" : "libyuv::ARGBToAR64Row_C",
   "linker_set_key" : "ARGBToAR64Row_C",
   "parameters" :
   [
    {
     "referenced_type" : "_ZTIPKh"
    },
    {
     "referenced_type" : "_ZTIPt"
    },
    {
     "referenced_type" : "_ZTIi"
    }
   ],
   "return_type" : "_ZTIv",
   "source_file" : "external/libyuv/include/libyuv/row.h"
  },
  {
   "function_name" : "libyuv::ARGBToAR64Row_SSSE3",
   "linker_set_key" : "ARGBToAR64Row_SSSE3",
   "parameters" :
   [
    {
     "referenced_type" : "_ZTIPKh"
    },
    {
     "referenced_type" : "_ZTIPt"
    },
    {
     "referenced_type" : "_ZTIi"
    }
   ],
   "return_type" : "_ZTIv",
   "source_file" : "external/libyuv/include/libyuv/row.h"
  },
  {
   "function_name" : "libyuv::ARGBToARGB1555",
   "linker_set_key" : "ARGBToARGB1555",
   "parameters" :
   [
    {
     "referenced_type" : "_ZTIPKh"
    },
    {
     "referenced_type" : "_ZTIi"
    },
    {
     "referenced_type" : "_ZTIPh"
    },
    {
     "referenced_type" : "_ZTIi"
    },
    {
     "referenced_type" : "_ZTIi"
    },
    {
     "referenced_type" : "_ZTIi"
    }
   ],
   "return_type" : "_ZTIi",
   "source_file" : "external/libyuv/include/libyuv/convert_from_argb.h"
  },
  {
   "function_name" : "libyuv::ARGBToARGB1555Row_Any_SSE2",
   "linker_set_key" : "ARGBToARGB1555Row_Any_SSE2",
   "parameters" :
   [
    {
     "referenced_type" : "_ZTIPKh"
    },
    {
     "referenced_type" : "_ZTIPh"
    },
    {
     "referenced_type" : "_ZTIi"
    }
   ],
   "return_type" : "_ZTIv",
   "source_file" : "external/libyuv/include/libyuv/row.h"
  },
  {
   "function_name" : "libyuv::ARGBToARGB1555Row_C",
   "linker_set_key" : "ARGBToARGB1555Row_C",
   "parameters" :
   [
    {
     "referenced_type" : "_ZTIPKh"
    },
    {
     "referenced_type" : "_ZTIPh"
    },
    {
     "referenced_type" : "_ZTIi"
    }
   ],
   "return_type" : "_ZTIv",
   "source_file" : "external/libyuv/include/libyuv/row.h"
  },
  {
   "function_name" : "libyuv::ARGBToARGB1555Row_SSE2",
   "linker_set_key" : "ARGBToARGB1555Row_SSE2",
   "parameters" :
   [
    {
     "referenced_type" : "_ZTIPKh"
    },
    {
     "referenced_type" : "_ZTIPh"
    },
    {
     "referenced_type" : "_ZTIi"
    }
   ],
   "return_type" : "_ZTIv",
   "source_file" : "external/libyuv/include/libyuv/row.h"
  },
  {
   "function_name" : "libyuv::ARGBToARGB4444",
   "linker_set_key" : "ARGBToARGB4444",
   "parameters" :
   [
    {
     "referenced_type" : "_ZTIPKh"
    },
    {
     "referenced_type" : "_ZTIi"
    },
    {
     "referenced_type" : "_ZTIPh"
    },
    {
     "referenced_type" : "_ZTIi"
    },
    {
     "referenced_type" : "_ZTIi"
    },
    {
     "referenced_type" : "_ZTIi"
    }
   ],
   "return_type" : "_ZTIi",
   "source_file" : "external/libyuv/include/libyuv/convert_from_argb.h"
  },
  {
   "function_name" : "libyuv::ARGBToARGB4444Row_Any_SSE2",
   "linker_set_key" : "ARGBToARGB4444Row_Any_SSE2",
   "parameters" :
   [
    {
     "referenced_type" : "_ZTIPKh"
    },
    {
     "referenced_type" : "_ZTIPh"
    },
    {
     "referenced_type" : "_ZTIi"
    }
   ],
   "return_type" : "_ZTIv",
   "source_file" : "external/libyuv/include/libyuv/row.h"
  },
  {
   "function_name" : "libyuv::ARGBToARGB4444Row_C",
   "linker_set_key" : "ARGBToARGB4444Row_C",
   "parameters" :
   [
    {
     "referenced_type" : "_ZTIPKh"
    },
    {
     "referenced_type" : "_ZTIPh"
    },
    {
     "referenced_type" : "_ZTIi"
    }
   ],
   "return_type" : "_ZTIv",
   "source_file" : "external/libyuv/include/libyuv/row.h"
  },
  {
   "function_name" : "libyuv::ARGBToARGB4444Row_SSE2",
   "linker_set_key" : "ARGBToARGB4444Row_SSE2",
   "parameters" :
   [
    {
     "referenced_type" : "_ZTIPKh"
    },
    {
     "referenced_type" : "_ZTIPh"
    },
    {
     "referenced_type" : "_ZTIi"
    }
   ],
   "return_type" : "_ZTIv",
   "source_file" : "external/libyuv/include/libyuv/row.h"
  },
  {
   "function_name" : "libyuv::ARGBToBGRA",
   "linker_set_key" : "ARGBToBGRA",
   "parameters" :
   [
    {
     "referenced_type" : "_ZTIPKh"
    },
    {
     "referenced_type" : "_ZTIi"
    },
    {
     "referenced_type" : "_ZTIPh"
    },
    {
     "referenced_type" : "_ZTIi"
    },
    {
     "referenced_type" : "_ZTIi"
    },
    {
     "referenced_type" : "_ZTIi"
    }
   ],
   "return_type" : "_ZTIi",
   "source_file" : "external/libyuv/include/libyuv/convert_from_argb.h"
  },
  {
   "function_name" : "libyuv::ARGBToI400",
   "linker_set_key" : "ARGBToI400",
   "parameters" :
   [
    {
     "referenced_type" : "_ZTIPKh"
    },
    {
     "referenced_type" : "_ZTIi"
    },
    {
     "referenced_type" : "_ZTIPh"
    },
    {
     "referenced_type" : "_ZTIi"
    },
    {
     "referenced_type" : "_ZTIi"
    },
    {
     "referenced_type" : "_ZTIi"
    }
   ],
   "return_type" : "_ZTIi",
   "source_file" : "external/libyuv/include/libyuv/convert_from_argb.h"
  },
  {
   "function_name" : "libyuv::ARGBToI420",
   "linker_set_key" : "ARGBToI420",
   "parameters" :
   [
    {
     "referenced_type" : "_ZTIPKh"
    },
    {
     "referenced_type" : "_ZTIi"
    },
    {
     "referenced_type" : "_ZTIPh"
    },
    {
     "referenced_type" : "_ZTIi"
    },
    {
     "referenced_type" : "_ZTIPh"
    },
    {
     "referenced_type" : "_ZTIi"
    },
    {
     "referenced_type" : "_ZTIPh"
    },
    {
     "referenced_type" : "_ZTIi"
    },
    {
     "referenced_type" : "_ZTIi"
    },
    {
     "referenced_type" : "_ZTIi"
    }
   ],
   "return_type" : "_ZTIi",
   "source_file" : "external/libyuv/include/libyuv/convert.h"
  },
  {
   "function_name" : "libyuv::ARGBToI420Alpha",
   "linker_set_key" : "ARGBToI420Alpha",
   "parameters" :
   [
    {
     "referenced_type" : "_ZTIPKh"
    },
    {
     "referenced_type" : "_ZTIi"
    },
    {
     "referenced_type" : "_ZTIPh"
    },
    {
     "referenced_type" : "_ZTIi"
    },
    {
     "referenced_type" : "_ZTIPh"
    },
    {
     "referenced_type" : "_ZTIi"
    },
    {
     "referenced_type" : "_ZTIPh"
    },
    {
     "referenced_type" : "_ZTIi"
    },
    {
     "referenced_type" : "_ZTIPh"
    },
    {
     "referenced_type" : "_ZTIi"
    },
    {
     "referenced_type" : "_ZTIi"
    },
    {
     "referenced_type" : "_ZTIi"
    }
   ],
   "return_type" : "_ZTIi",
   "source_file" : "external/libyuv/include/libyuv/convert.h"
  },
  {
   "function_name" : "libyuv::ARGBToI422",
   "linker_set_key" : "ARGBToI422",
   "parameters" :
   [
    {
     "referenced_type" : "_ZTIPKh"
    },
    {
     "referenced_type" : "_ZTIi"
    },
    {
     "referenced_type" : "_ZTIPh"
    },
    {
     "referenced_type" : "_ZTIi"
    },
    {
     "referenced_type" : "_ZTIPh"
    },
    {
     "referenced_type" : "_ZTIi"
    },
    {
     "referenced_type" : "_ZTIPh"
    },
    {
     "referenced_type" : "_ZTIi"
    },
    {
     "referenced_type" : "_ZTIi"
    },
    {
     "referenced_type" : "_ZTIi"
    }
   ],
   "return_type" : "_ZTIi",
   "source_file" : "external/libyuv/include/libyuv/convert_from_argb.h"
  },
  {
   "function_name" : "libyuv::ARGBToI444",
   "linker_set_key" : "ARGBToI444",
   "parameters" :
   [
    {
     "referenced_type" : "_ZTIPKh"
    },
    {
     "referenced_type" : "_ZTIi"
    },
    {
     "referenced_type" : "_ZTIPh"
    },
    {
     "referenced_type" : "_ZTIi"
    },
    {
     "referenced_type" : "_ZTIPh"
    },
    {
     "referenced_type" : "_ZTIi"
    },
    {
     "referenced_type" : "_ZTIPh"
    },
    {
     "referenced_type" : "_ZTIi"
    },
    {
     "referenced_type" : "_ZTIi"
    },
    {
     "referenced_type" : "_ZTIi"
    }
   ],
   "return_type" : "_ZTIi",
   "source_file" : "external/libyuv/include/libyuv/convert_from_argb.h"
  },
  {
   "function_name" : "libyuv::ARGBToJ400",
   "linker_set_key" : "ARGBToJ400",
   "parameters" :
   [
    {
     "referenced_type" : "_ZTIPKh"
    },
    {
     "referenced_type" : "_ZTIi"
    },
    {
     "referenced_type" : "_ZTIPh"
    },
    {
     "referenced_type" : "_ZTIi"
    },
    {
     "referenced_type" : "_ZTIi"
    },
    {
     "referenced_type" : "_ZTIi"
    }
   ],
   "return_type" : "_ZTIi",
   "source_file" : "external/libyuv/include/libyuv/convert_from_argb.h"
  },
  {
   "function_name" : "libyuv::ARGBToJ420",
   "linker_set_key" : "ARGBToJ420",
   "parameters" :
   [
    {
     "referenced_type" : "_ZTIPKh"
    },
    {
     "referenced_type" : "_ZTIi"
    },
    {
     "referenced_type" : "_ZTIPh"
    },
    {
     "referenced_type" : "_ZTIi"
    },
    {
     "referenced_type" : "_ZTIPh"
    },
    {
     "referenced_type" : "_ZTIi"
    },
    {
     "referenced_type" : "_ZTIPh"
    },
    {
     "referenced_type" : "_ZTIi"
    },
    {
     "referenced_type" : "_ZTIi"
    },
    {
     "referenced_type" : "_ZTIi"
    }
   ],
   "return_type" : "_ZTIi",
   "source_file" : "external/libyuv/include/libyuv/convert_from_argb.h"
  },
  {
   "function_name" : "libyuv::ARGBToJ422",
   "linker_set_key" : "ARGBToJ422",
   "parameters" :
   [
    {
     "referenced_type" : "_ZTIPKh"
    },
    {
     "referenced_type" : "_ZTIi"
    },
    {
     "referenced_type" : "_ZTIPh"
    },
    {
     "referenced_type" : "_ZTIi"
    },
    {
     "referenced_type" : "_ZTIPh"
    },
    {
     "referenced_type" : "_ZTIi"
    },
    {
     "referenced_type" : "_ZTIPh"
    },
    {
     "referenced_type" : "_ZTIi"
    },
    {
     "referenced_type" : "_ZTIi"
    },
    {
     "referenced_type" : "_ZTIi"
    }
   ],
   "return_type" : "_ZTIi",
   "source_file" : "external/libyuv/include/libyuv/convert_from_argb.h"
  },
  {
   "function_name" : "libyuv::ARGBToNV12",
   "linker_set_key" : "ARGBToNV12",
   "parameters" :
   [
    {
     "referenced_type" : "_ZTIPKh"
    },
    {
     "referenced_type" : "_ZTIi"
    },
    {
     "referenced_type" : "_ZTIPh"
    },
    {
     "referenced_type" : "_ZTIi"
    },
    {
     "referenced_type" : "_ZTIPh"
    },
    {
     "referenced_type" : "_ZTIi"
    },
    {
     "referenced_type" : "_ZTIi"
    },
    {
     "referenced_type" : "_ZTIi"
    }
   ],
   "return_type" : "_ZTIi",
   "source_file" : "external/libyuv/include/libyuv/convert_from_argb.h"
  },
  {
   "function_name" : "libyuv::ARGBToNV21",
   "linker_set_key" : "ARGBToNV21",
   "parameters" :
   [
    {
     "referenced_type" : "_ZTIPKh"
    },
    {
     "referenced_type" : "_ZTIi"
    },
    {
     "referenced_type" : "_ZTIPh"
    },
    {
     "referenced_type" : "_ZTIi"
    },
    {
     "referenced_type" : "_ZTIPh"
    },
    {
     "referenced_type" : "_ZTIi"
    },
    {
     "referenced_type" : "_ZTIi"
    },
    {
     "referenced_type" : "_ZTIi"
    }
   ],
   "return_type" : "_ZTIi",
   "source_file" : "external/libyuv/include/libyuv/convert_from_argb.h"
  },
  {
   "function_name" : "libyuv::ARGBToRAW",
   "linker_set_key" : "ARGBToRAW",
   "parameters" :
   [
    {
     "referenced_type" : "_ZTIPKh"
    },
    {
     "referenced_type" : "_ZTIi"
    },
    {
     "referenced_type" : "_ZTIPh"
    },
    {
     "referenced_type" : "_ZTIi"
    },
    {
     "referenced_type" : "_ZTIi"
    },
    {
     "referenced_type" : "_ZTIi"
    }
   ],
   "return_type" : "_ZTIi",
   "source_file" : "external/libyuv/include/libyuv/convert_from_argb.h"
  },
  {
   "function_name" : "libyuv::ARGBToRAWRow_AVX2",
   "linker_set_key" : "ARGBToRAWRow_AVX2",
   "parameters" :
   [
    {
     "referenced_type" : "_ZTIPKh"
    },
    {
     "referenced_type" : "_ZTIPh"
    },
    {
     "referenced_type" : "_ZTIi"
    }
   ],
   "return_type" : "_ZTIv",
   "source_file" : "external/libyuv/include/libyuv/row.h"
  },
  {
   "function_name" : "libyuv::ARGBToRAWRow_Any_AVX2",
   "linker_set_key" : "ARGBToRAWRow_Any_AVX2",
   "parameters" :
   [
    {
     "referenced_type" : "_ZTIPKh"
    },
    {
     "referenced_type" : "_ZTIPh"
    },
    {
     "referenced_type" : "_ZTIi"
    }
   ],
   "return_type" : "_ZTIv",
   "source_file" : "external/libyuv/include/libyuv/row.h"
  },
  {
   "function_name" : "libyuv::ARGBToRAWRow_Any_SSSE3",
   "linker_set_key" : "ARGBToRAWRow_Any_SSSE3",
   "parameters" :
   [
    {
     "referenced_type" : "_ZTIPKh"
    },
    {
     "referenced_type" : "_ZTIPh"
    },
    {
     "referenced_type" : "_ZTIi"
    }
   ],
   "return_type" : "_ZTIv",
   "source_file" : "external/libyuv/include/libyuv/row.h"
  },
  {
   "function_name" : "libyuv::ARGBToRAWRow_C",
   "linker_set_key" : "ARGBToRAWRow_C",
   "parameters" :
   [
    {
     "referenced_type" : "_ZTIPKh"
    },
    {
     "referenced_type" : "_ZTIPh"
    },
    {
     "referenced_type" : "_ZTIi"
    }
   ],
   "return_type" : "_ZTIv",
   "source_file" : "external/libyuv/include/libyuv/row.h"
  },
  {
   "function_name" : "libyuv::ARGBToRAWRow_SSSE3",
   "linker_set_key" : "ARGBToRAWRow_SSSE3",
   "parameters" :
   [
    {
     "referenced_type" : "_ZTIPKh"
    },
    {
     "referenced_type" : "_ZTIPh"
    },
    {
     "referenced_type" : "_ZTIi"
    }
   ],
   "return_type" : "_ZTIv",
   "source_file" : "external/libyuv/include/libyuv/row.h"
  },
  {
   "function_name" : "libyuv::ARGBToRGB24",
   "linker_set_key" : "ARGBToRGB24",
   "parameters" :
   [
    {
     "referenced_type" : "_ZTIPKh"
    },
    {
     "referenced_type" : "_ZTIi"
    },
    {
     "referenced_type" : "_ZTIPh"
    },
    {
     "referenced_type" : "_ZTIi"
    },
    {
     "referenced_type" : "_ZTIi"
    },
    {
     "referenced_type" : "_ZTIi"
    }
   ],
   "return_type" : "_ZTIi",
   "source_file" : "external/libyuv/include/libyuv/convert_from_argb.h"
  },
  {
   "function_name" : "libyuv::ARGBToRGB24Row_AVX2",
   "linker_set_key" : "ARGBToRGB24Row_AVX2",
   "parameters" :
   [
    {
     "referenced_type" : "_ZTIPKh"
    },
    {
     "referenced_type" : "_ZTIPh"
    },
    {
     "referenced_type" : "_ZTIi"
    }
   ],
   "return_type" : "_ZTIv",
   "source_file" : "external/libyuv/include/libyuv/row.h"
  },
  {
   "function_name" : "libyuv::ARGBToRGB24Row_AVX512VBMI",
   "linker_set_key" : "ARGBToRGB24Row_AVX512VBMI",
   "parameters" :
   [
    {
     "referenced_type" : "_ZTIPKh"
    },
    {
     "referenced_type" : "_ZTIPh"
    },
    {
     "referenced_type" : "_ZTIi"
    }
   ],
   "return_type" : "_ZTIv",
   "source_file" : "external/libyuv/include/libyuv/row.h"
  },
  {
   "function_name" : "libyuv::ARGBToRGB24Row_Any_AVX2",
   "linker_set_key" : "ARGBToRGB24Row_Any_AVX2",
   "parameters" :
   [
    {
     "referenced_type" : "_ZTIPKh"
    },
    {
     "referenced_type" : "_ZTIPh"
    },
    {
     "referenced_type" : "_ZTIi"
    }
   ],
   "return_type" : "_ZTIv",
   "source_file" : "external/libyuv/include/libyuv/row.h"
  },
  {
   "function_name" : "libyuv::ARGBToRGB24Row_Any_AVX512VBMI",
   "linker_set_key" : "ARGBToRGB24Row_Any_AVX512VBMI",
   "parameters" :
   [
    {
     "referenced_type" : "_ZTIPKh"
    },
    {
     "referenced_type" : "_ZTIPh"
    },
    {
     "referenced_type" : "_ZTIi"
    }
   ],
   "return_type" : "_ZTIv",
   "source_file" : "external/libyuv/include/libyuv/row.h"
  },
  {
   "function_name" : "libyuv::ARGBToRGB24Row_Any_SSSE3",
   "linker_set_key" : "ARGBToRGB24Row_Any_SSSE3",
   "parameters" :
   [
    {
     "referenced_type" : "_ZTIPKh"
    },
    {
     "referenced_type" : "_ZTIPh"
    },
    {
     "referenced_type" : "_ZTIi"
    }
   ],
   "return_type" : "_ZTIv",
   "source_file" : "external/libyuv/include/libyuv/row.h"
  },
  {
   "function_name" : "libyuv::ARGBToRGB24Row_C",
   "linker_set_key" : "ARGBToRGB24Row_C",
   "parameters" :
   [
    {
     "referenced_type" : "_ZTIPKh"
    },
    {
     "referenced_type" : "_ZTIPh"
    },
    {
     "referenced_type" : "_ZTIi"
    }
   ],
   "return_type" : "_ZTIv",
   "source_file" : "external/libyuv/include/libyuv/row.h"
  },
  {
   "function_name" : "libyuv::ARGBToRGB24Row_SSSE3",
   "linker_set_key" : "ARGBToRGB24Row_SSSE3",
   "parameters" :
   [
    {
     "referenced_type" : "_ZTIPKh"
    },
    {
     "referenced_type" : "_ZTIPh"
    },
    {
     "referenced_type" : "_ZTIi"
    }
   ],
   "return_type" : "_ZTIv",
   "source_file" : "external/libyuv/include/libyuv/row.h"
  },
  {
   "function_name" : "libyuv::ARGBToRGB565",
   "linker_set_key" : "ARGBToRGB565",
   "parameters" :
   [
    {
     "referenced_type" : "_ZTIPKh"
    },
    {
     "referenced_type" : "_ZTIi"
    },
    {
     "referenced_type" : "_ZTIPh"
    },
    {
     "referenced_type" : "_ZTIi"
    },
    {
     "referenced_type" : "_ZTIi"
    },
    {
     "referenced_type" : "_ZTIi"
    }
   ],
   "return_type" : "_ZTIi",
   "source_file" : "external/libyuv/include/libyuv/convert_from_argb.h"
  },
  {
   "function_name" : "libyuv::ARGBToRGB565Dither",
   "linker_set_key" : "ARGBToRGB565Dither",
   "parameters" :
   [
    {
     "referenced_type" : "_ZTIPKh"
    },
    {
     "referenced_type" : "_ZTIi"
    },
    {
     "referenced_type" : "_ZTIPh"
    },
    {
     "referenced_type" : "_ZTIi"
    },
    {
     "referenced_type" : "_ZTIPKh"
    },
    {
     "referenced_type" : "_ZTIi"
    },
    {
     "referenced_type" : "_ZTIi"
    }
   ],
   "return_type" : "_ZTIi",
   "source_file" : "external/libyuv/include/libyuv/convert_from_argb.h"
  },
  {
   "function_name" : "libyuv::ARGBToRGB565DitherRow_AVX2",
   "linker_set_key" : "ARGBToRGB565DitherRow_AVX2",
   "parameters" :
   [
    {
     "referenced_type" : "_ZTIPKh"
    },
    {
     "referenced_type" : "_ZTIPh"
    },
    {
     "referenced_type" : "_ZTIj"
    },
    {
     "referenced_type" : "_ZTIi"
    }
   ],
   "return_type" : "_ZTIv",
   "source_file" : "external/libyuv/include/libyuv/row.h"
  },
  {
   "function_name" : "libyuv::ARGBToRGB565DitherRow_Any_AVX2",
   "linker_set_key" : "ARGBToRGB565DitherRow_Any_AVX2",
   "parameters" :
   [
    {
     "referenced_type" : "_ZTIPKh"
    },
    {
     "referenced_type" : "_ZTIPh"
    },
    {
     "referenced_type" : "_ZTIKj"
    },
    {
     "referenced_type" : "_ZTIi"
    }
   ],
   "return_type" : "_ZTIv",
   "source_file" : "external/libyuv/include/libyuv/row.h"
  },
  {
   "function_name" : "libyuv::ARGBToRGB565DitherRow_Any_SSE2",
   "linker_set_key" : "ARGBToRGB565DitherRow_Any_SSE2",
   "parameters" :
   [
    {
     "referenced_type" : "_ZTIPKh"
    },
    {
     "referenced_type" : "_ZTIPh"
    },
    {
     "referenced_type" : "_ZTIKj"
    },
    {
     "referenced_type" : "_ZTIi"
    }
   ],
   "return_type" : "_ZTIv",
   "source_file" : "external/libyuv/include/libyuv/row.h"
  },
  {
   "function_name" : "libyuv::ARGBToRGB565DitherRow_C",
   "linker_set_key" : "ARGBToRGB565DitherRow_C",
   "parameters" :
   [
    {
     "referenced_type" : "_ZTIPKh"
    },
    {
     "referenced_type" : "_ZTIPh"
    },
    {
     "referenced_type" : "_ZTIj"
    },
    {
     "referenced_type" : "_ZTIi"
    }
   ],
   "return_type" : "_ZTIv",
   "source_file" : "external/libyuv/include/libyuv/row.h"
  },
  {
   "function_name" : "libyuv::ARGBToRGB565DitherRow_SSE2",
   "linker_set_key" : "ARGBToRGB565DitherRow_SSE2",
   "parameters" :
   [
    {
     "referenced_type" : "_ZTIPKh"
    },
    {
     "referenced_type" : "_ZTIPh"
    },
    {
     "referenced_type" : "_ZTIj"
    },
    {
     "referenced_type" : "_ZTIi"
    }
   ],
   "return_type" : "_ZTIv",
   "source_file" : "external/libyuv/include/libyuv/row.h"
  },
  {
   "function_name" : "libyuv::ARGBToRGB565Row_Any_SSE2",
   "linker_set_key" : "ARGBToRGB565Row_Any_SSE2",
   "parameters" :
   [
    {
     "referenced_type" : "_ZTIPKh"
    },
    {
     "referenced_type" : "_ZTIPh"
    },
    {
     "referenced_type" : "_ZTIi"
    }
   ],
   "return_type" : "_ZTIv",
   "source_file" : "external/libyuv/include/libyuv/row.h"
  },
  {
   "function_name" : "libyuv::ARGBToRGB565Row_C",
   "linker_set_key" : "ARGBToRGB565Row_C",
   "parameters" :
   [
    {
     "referenced_type" : "_ZTIPKh"
    },
    {
     "referenced_type" : "_ZTIPh"
    },
    {
     "referenced_type" : "_ZTIi"
    }
   ],
   "return_type" : "_ZTIv",
   "source_file" : "external/libyuv/include/libyuv/row.h"
  },
  {
   "function_name" : "libyuv::ARGBToRGB565Row_SSE2",
   "linker_set_key" : "ARGBToRGB565Row_SSE2",
   "parameters" :
   [
    {
     "referenced_type" : "_ZTIPKh"
    },
    {
     "referenced_type" : "_ZTIPh"
    },
    {
     "referenced_type" : "_ZTIi"
    }
   ],
   "return_type" : "_ZTIv",
   "source_file" : "external/libyuv/include/libyuv/row.h"
  },
  {
   "function_name" : "libyuv::ARGBToRGBA",
   "linker_set_key" : "ARGBToRGBA",
   "parameters" :
   [
    {
     "referenced_type" : "_ZTIPKh"
    },
    {
     "referenced_type" : "_ZTIi"
    },
    {
     "referenced_type" : "_ZTIPh"
    },
    {
     "referenced_type" : "_ZTIi"
    },
    {
     "referenced_type" : "_ZTIi"
    },
    {
     "referenced_type" : "_ZTIi"
    }
   ],
   "return_type" : "_ZTIi",
   "source_file" : "external/libyuv/include/libyuv/convert_from_argb.h"
  },
  {
   "function_name" : "libyuv::ARGBToUV444Row_Any_SSSE3",
   "linker_set_key" : "ARGBToUV444Row_Any_SSSE3",
   "parameters" :
   [
    {
     "referenced_type" : "_ZTIPKh"
    },
    {
     "referenced_type" : "_ZTIPh"
    },
    {
     "referenced_type" : "_ZTIPh"
    },
    {
     "referenced_type" : "_ZTIi"
    }
   ],
   "return_type" : "_ZTIv",
   "source_file" : "external/libyuv/include/libyuv/row.h"
  },
  {
   "function_name" : "libyuv::ARGBToUV444Row_C",
   "linker_set_key" : "ARGBToUV444Row_C",
   "parameters" :
   [
    {
     "referenced_type" : "_ZTIPKh"
    },
    {
     "referenced_type" : "_ZTIPh"
    },
    {
     "referenced_type" : "_ZTIPh"
    },
    {
     "referenced_type" : "_ZTIi"
    }
   ],
   "return_type" : "_ZTIv",
   "source_file" : "external/libyuv/include/libyuv/row.h"
  },
  {
   "function_name" : "libyuv::ARGBToUV444Row_SSSE3",
   "linker_set_key" : "ARGBToUV444Row_SSSE3",
   "parameters" :
   [
    {
     "referenced_type" : "_ZTIPKh"
    },
    {
     "referenced_type" : "_ZTIPh"
    },
    {
     "referenced_type" : "_ZTIPh"
    },
    {
     "referenced_type" : "_ZTIi"
    }
   ],
   "return_type" : "_ZTIv",
   "source_file" : "external/libyuv/include/libyuv/row.h"
  },
  {
   "function_name" : "libyuv::ARGBToUVJRow_AVX2",
   "linker_set_key" : "ARGBToUVJRow_AVX2",
   "parameters" :
   [
    {
     "referenced_type" : "_ZTIPKh"
    },
    {
     "referenced_type" : "_ZTIi"
    },
    {
     "referenced_type" : "_ZTIPh"
    },
    {
     "referenced_type" : "_ZTIPh"
    },
    {
     "referenced_type" : "_ZTIi"
    }
   ],
   "return_type" : "_ZTIv",
   "source_file" : "external/libyuv/include/libyuv/row.h"
  },
  {
   "function_name" : "libyuv::ARGBToUVJRow_Any_AVX2",
   "linker_set_key" : "ARGBToUVJRow_Any_AVX2",
   "parameters" :
   [
    {
     "referenced_type" : "_ZTIPKh"
    },
    {
     "referenced_type" : "_ZTIi"
    },
    {
     "referenced_type" : "_ZTIPh"
    },
    {
     "referenced_type" : "_ZTIPh"
    },
    {
     "referenced_type" : "_ZTIi"
    }
   ],
   "return_type" : "_ZTIv",
   "source_file" : "external/libyuv/include/libyuv/row.h"
  },
  {
   "function_name" : "libyuv::ARGBToUVJRow_Any_SSSE3",
   "linker_set_key" : "ARGBToUVJRow_Any_SSSE3",
   "parameters" :
   [
    {
     "referenced_type" : "_ZTIPKh"
    },
    {
     "referenced_type" : "_ZTIi"
    },
    {
     "referenced_type" : "_ZTIPh"
    },
    {
     "referenced_type" : "_ZTIPh"
    },
    {
     "referenced_type" : "_ZTIi"
    }
   ],
   "return_type" : "_ZTIv",
   "source_file" : "external/libyuv/include/libyuv/row.h"
  },
  {
   "function_name" : "libyuv::ARGBToUVJRow_C",
   "linker_set_key" : "ARGBToUVJRow_C",
   "parameters" :
   [
    {
     "referenced_type" : "_ZTIPKh"
    },
    {
     "referenced_type" : "_ZTIi"
    },
    {
     "referenced_type" : "_ZTIPh"
    },
    {
     "referenced_type" : "_ZTIPh"
    },
    {
     "referenced_type" : "_ZTIi"
    }
   ],
   "return_type" : "_ZTIv",
   "source_file" : "external/libyuv/include/libyuv/row.h"
  },
  {
   "function_name" : "libyuv::ARGBToUVJRow_SSSE3",
   "linker_set_key" : "ARGBToUVJRow_SSSE3",
   "parameters" :
   [
    {
     "referenced_type" : "_ZTIPKh"
    },
    {
     "referenced_type" : "_ZTIi"
    },
    {
     "referenced_type" : "_ZTIPh"
    },
    {
     "referenced_type" : "_ZTIPh"
    },
    {
     "referenced_type" : "_ZTIi"
    }
   ],
   "return_type" : "_ZTIv",
   "source_file" : "external/libyuv/include/libyuv/row.h"
  },
  {
   "function_name" : "libyuv::ARGBToUVRow_AVX2",
   "linker_set_key" : "ARGBToUVRow_AVX2",
   "parameters" :
   [
    {
     "referenced_type" : "_ZTIPKh"
    },
    {
     "referenced_type" : "_ZTIi"
    },
    {
     "referenced_type" : "_ZTIPh"
    },
    {
     "referenced_type" : "_ZTIPh"
    },
    {
     "referenced_type" : "_ZTIi"
    }
   ],
   "return_type" : "_ZTIv",
   "source_file" : "external/libyuv/include/libyuv/row.h"
  },
  {
   "function_name" : "libyuv::ARGBToUVRow_Any_AVX2",
   "linker_set_key" : "ARGBToUVRow_Any_AVX2",
   "parameters" :
   [
    {
     "referenced_type" : "_ZTIPKh"
    },
    {
     "referenced_type" : "_ZTIi"
    },
    {
     "referenced_type" : "_ZTIPh"
    },
    {
     "referenced_type" : "_ZTIPh"
    },
    {
     "referenced_type" : "_ZTIi"
    }
   ],
   "return_type" : "_ZTIv",
   "source_file" : "external/libyuv/include/libyuv/row.h"
  },
  {
   "function_name" : "libyuv::ARGBToUVRow_Any_SSSE3",
   "linker_set_key" : "ARGBToUVRow_Any_SSSE3",
   "parameters" :
   [
    {
     "referenced_type" : "_ZTIPKh"
    },
    {
     "referenced_type" : "_ZTIi"
    },
    {
     "referenced_type" : "_ZTIPh"
    },
    {
     "referenced_type" : "_ZTIPh"
    },
    {
     "referenced_type" : "_ZTIi"
    }
   ],
   "return_type" : "_ZTIv",
   "source_file" : "external/libyuv/include/libyuv/row.h"
  },
  {
   "function_name" : "libyuv::ARGBToUVRow_C",
   "linker_set_key" : "ARGBToUVRow_C",
   "parameters" :
   [
    {
     "referenced_type" : "_ZTIPKh"
    },
    {
     "referenced_type" : "_ZTIi"
    },
    {
     "referenced_type" : "_ZTIPh"
    },
    {
     "referenced_type" : "_ZTIPh"
    },
    {
     "referenced_type" : "_ZTIi"
    }
   ],
   "return_type" : "_ZTIv",
   "source_file" : "external/libyuv/include/libyuv/row.h"
  },
  {
   "function_name" : "libyuv::ARGBToUVRow_SSSE3",
   "linker_set_key" : "ARGBToUVRow_SSSE3",
   "parameters" :
   [
    {
     "referenced_type" : "_ZTIPKh"
    },
    {
     "referenced_type" : "_ZTIi"
    },
    {
     "referenced_type" : "_ZTIPh"
    },
    {
     "referenced_type" : "_ZTIPh"
    },
    {
     "referenced_type" : "_ZTIi"
    }
   ],
   "return_type" : "_ZTIv",
   "source_file" : "external/libyuv/include/libyuv/row.h"
  },
  {
   "function_name" : "libyuv::ARGBToUYVY",
   "linker_set_key" : "ARGBToUYVY",
   "parameters" :
   [
    {
     "referenced_type" : "_ZTIPKh"
    },
    {
     "referenced_type" : "_ZTIi"
    },
    {
     "referenced_type" : "_ZTIPh"
    },
    {
     "referenced_type" : "_ZTIi"
    },
    {
     "referenced_type" : "_ZTIi"
    },
    {
     "referenced_type" : "_ZTIi"
    }
   ],
   "return_type" : "_ZTIi",
   "source_file" : "external/libyuv/include/libyuv/convert_from_argb.h"
  },
  {
   "function_name" : "libyuv::ARGBToYJRow_AVX2",
   "linker_set_key" : "ARGBToYJRow_AVX2",
   "parameters" :
   [
    {
     "referenced_type" : "_ZTIPKh"
    },
    {
     "referenced_type" : "_ZTIPh"
    },
    {
     "referenced_type" : "_ZTIi"
    }
   ],
   "return_type" : "_ZTIv",
   "source_file" : "external/libyuv/include/libyuv/row.h"
  },
  {
   "function_name" : "libyuv::ARGBToYJRow_Any_AVX2",
   "linker_set_key" : "ARGBToYJRow_Any_AVX2",
   "parameters" :
   [
    {
     "referenced_type" : "_ZTIPKh"
    },
    {
     "referenced_type" : "_ZTIPh"
    },
    {
     "referenced_type" : "_ZTIi"
    }
   ],
   "return_type" : "_ZTIv",
   "source_file" : "external/libyuv/include/libyuv/row.h"
  },
  {
   "function_name" : "libyuv::ARGBToYJRow_Any_SSSE3",
   "linker_set_key" : "ARGBToYJRow_Any_SSSE3",
   "parameters" :
   [
    {
     "referenced_type" : "_ZTIPKh"
    },
    {
     "referenced_type" : "_ZTIPh"
    },
    {
     "referenced_type" : "_ZTIi"
    }
   ],
   "return_type" : "_ZTIv",
   "source_file" : "external/libyuv/include/libyuv/row.h"
  },
  {
   "function_name" : "libyuv::ARGBToYJRow_C",
   "linker_set_key" : "ARGBToYJRow_C",
   "parameters" :
   [
    {
     "referenced_type" : "_ZTIPKh"
    },
    {
     "referenced_type" : "_ZTIPh"
    },
    {
     "referenced_type" : "_ZTIi"
    }
   ],
   "return_type" : "_ZTIv",
   "source_file" : "external/libyuv/include/libyuv/row.h"
  },
  {
   "function_name" : "libyuv::ARGBToYJRow_SSSE3",
   "linker_set_key" : "ARGBToYJRow_SSSE3",
   "parameters" :
   [
    {
     "referenced_type" : "_ZTIPKh"
    },
    {
     "referenced_type" : "_ZTIPh"
    },
    {
     "referenced_type" : "_ZTIi"
    }
   ],
   "return_type" : "_ZTIv",
   "source_file" : "external/libyuv/include/libyuv/row.h"
  },
  {
   "function_name" : "libyuv::ARGBToYRow_AVX2",
   "linker_set_key" : "ARGBToYRow_AVX2",
   "parameters" :
   [
    {
     "referenced_type" : "_ZTIPKh"
    },
    {
     "referenced_type" : "_ZTIPh"
    },
    {
     "referenced_type" : "_ZTIi"
    }
   ],
   "return_type" : "_ZTIv",
   "source_file" : "external/libyuv/include/libyuv/row.h"
  },
  {
   "function_name" : "libyuv::ARGBToYRow_Any_AVX2",
   "linker_set_key" : "ARGBToYRow_Any_AVX2",
   "parameters" :
   [
    {
     "referenced_type" : "_ZTIPKh"
    },
    {
     "referenced_type" : "_ZTIPh"
    },
    {
     "referenced_type" : "_ZTIi"
    }
   ],
   "return_type" : "_ZTIv",
   "source_file" : "external/libyuv/include/libyuv/row.h"
  },
  {
   "function_name" : "libyuv::ARGBToYRow_Any_SSSE3",
   "linker_set_key" : "ARGBToYRow_Any_SSSE3",
   "parameters" :
   [
    {
     "referenced_type" : "_ZTIPKh"
    },
    {
     "referenced_type" : "_ZTIPh"
    },
    {
     "referenced_type" : "_ZTIi"
    }
   ],
   "return_type" : "_ZTIv",
   "source_file" : "external/libyuv/include/libyuv/row.h"
  },
  {
   "function_name" : "libyuv::ARGBToYRow_C",
   "linker_set_key" : "ARGBToYRow_C",
   "parameters" :
   [
    {
     "referenced_type" : "_ZTIPKh"
    },
    {
     "referenced_type" : "_ZTIPh"
    },
    {
     "referenced_type" : "_ZTIi"
    }
   ],
   "return_type" : "_ZTIv",
   "source_file" : "external/libyuv/include/libyuv/row.h"
  },
  {
   "function_name" : "libyuv::ARGBToYRow_SSSE3",
   "linker_set_key" : "ARGBToYRow_SSSE3",
   "parameters" :
   [
    {
     "referenced_type" : "_ZTIPKh"
    },
    {
     "referenced_type" : "_ZTIPh"
    },
    {
     "referenced_type" : "_ZTIi"
    }
   ],
   "return_type" : "_ZTIv",
   "source_file" : "external/libyuv/include/libyuv/row.h"
  },
  {
   "function_name" : "libyuv::ARGBToYUY2",
   "linker_set_key" : "ARGBToYUY2",
   "parameters" :
   [
    {
     "referenced_type" : "_ZTIPKh"
    },
    {
     "referenced_type" : "_ZTIi"
    },
    {
     "referenced_type" : "_ZTIPh"
    },
    {
     "referenced_type" : "_ZTIi"
    },
    {
     "referenced_type" : "_ZTIi"
    },
    {
     "referenced_type" : "_ZTIi"
    }
   ],
   "return_type" : "_ZTIi",
   "source_file" : "external/libyuv/include/libyuv/convert_from_argb.h"
  },
  {
   "function_name" : "libyuv::ARGBUnattenuate",
   "linker_set_key" : "ARGBUnattenuate",
   "parameters" :
   [
    {
     "referenced_type" : "_ZTIPKh"
    },
    {
     "referenced_type" : "_ZTIi"
    },
    {
     "referenced_type" : "_ZTIPh"
    },
    {
     "referenced_type" : "_ZTIi"
    },
    {
     "referenced_type" : "_ZTIi"
    },
    {
     "referenced_type" : "_ZTIi"
    }
   ],
   "return_type" : "_ZTIi",
   "source_file" : "external/libyuv/include/libyuv/planar_functions.h"
  },
  {
   "function_name" : "libyuv::ARGBUnattenuateRow_AVX2",
   "linker_set_key" : "ARGBUnattenuateRow_AVX2",
   "parameters" :
   [
    {
     "referenced_type" : "_ZTIPKh"
    },
    {
     "referenced_type" : "_ZTIPh"
    },
    {
     "referenced_type" : "_ZTIi"
    }
   ],
   "return_type" : "_ZTIv",
   "source_file" : "external/libyuv/include/libyuv/row.h"
  },
  {
   "function_name" : "libyuv::ARGBUnattenuateRow_Any_AVX2",
   "linker_set_key" : "ARGBUnattenuateRow_Any_AVX2",
   "parameters" :
   [
    {
     "referenced_type" : "_ZTIPKh"
    },
    {
     "referenced_type" : "_ZTIPh"
    },
    {
     "referenced_type" : "_ZTIi"
    }
   ],
   "return_type" : "_ZTIv",
   "source_file" : "external/libyuv/include/libyuv/row.h"
  },
  {
   "function_name" : "libyuv::ARGBUnattenuateRow_Any_SSE2",
   "linker_set_key" : "ARGBUnattenuateRow_Any_SSE2",
   "parameters" :
   [
    {
     "referenced_type" : "_ZTIPKh"
    },
    {
     "referenced_type" : "_ZTIPh"
    },
    {
     "referenced_type" : "_ZTIi"
    }
   ],
   "return_type" : "_ZTIv",
   "source_file" : "external/libyuv/include/libyuv/row.h"
  },
  {
   "function_name" : "libyuv::ARGBUnattenuateRow_C",
   "linker_set_key" : "ARGBUnattenuateRow_C",
   "parameters" :
   [
    {
     "referenced_type" : "_ZTIPKh"
    },
    {
     "referenced_type" : "_ZTIPh"
    },
    {
     "referenced_type" : "_ZTIi"
    }
   ],
   "return_type" : "_ZTIv",
   "source_file" : "external/libyuv/include/libyuv/row.h"
  },
  {
   "function_name" : "libyuv::ARGBUnattenuateRow_SSE2",
   "linker_set_key" : "ARGBUnattenuateRow_SSE2",
   "parameters" :
   [
    {
     "referenced_type" : "_ZTIPKh"
    },
    {
     "referenced_type" : "_ZTIPh"
    },
    {
     "referenced_type" : "_ZTIi"
    }
   ],
   "return_type" : "_ZTIv",
   "source_file" : "external/libyuv/include/libyuv/row.h"
  },
  {
   "function_name" : "libyuv::AYUVToNV12",
   "linker_set_key" : "AYUVToNV12",
   "parameters" :
   [
    {
     "referenced_type" : "_ZTIPKh"
    },
    {
     "referenced_type" : "_ZTIi"
    },
    {
     "referenced_type" : "_ZTIPh"
    },
    {
     "referenced_type" : "_ZTIi"
    },
    {
     "referenced_type" : "_ZTIPh"
    },
    {
     "referenced_type" : "_ZTIi"
    },
    {
     "referenced_type" : "_ZTIi"
    },
    {
     "referenced_type" : "_ZTIi"
    }
   ],
   "return_type" : "_ZTIi",
   "source_file" : "external/libyuv/include/libyuv/convert.h"
  },
  {
   "function_name" : "libyuv::AYUVToNV21",
   "linker_set_key" : "AYUVToNV21",
   "parameters" :
   [
    {
     "referenced_type" : "_ZTIPKh"
    },
    {
     "referenced_type" : "_ZTIi"
    },
    {
     "referenced_type" : "_ZTIPh"
    },
    {
     "referenced_type" : "_ZTIi"
    },
    {
     "referenced_type" : "_ZTIPh"
    },
    {
     "referenced_type" : "_ZTIi"
    },
    {
     "referenced_type" : "_ZTIi"
    },
    {
     "referenced_type" : "_ZTIi"
    }
   ],
   "return_type" : "_ZTIi",
   "source_file" : "external/libyuv/include/libyuv/convert.h"
  },
  {
   "function_name" : "libyuv::AYUVToUVRow_C",
   "linker_set_key" : "AYUVToUVRow_C",
   "parameters" :
   [
    {
     "referenced_type" : "_ZTIPKh"
    },
    {
     "referenced_type" : "_ZTIi"
    },
    {
     "referenced_type" : "_ZTIPh"
    },
    {
     "referenced_type" : "_ZTIi"
    }
   ],
   "return_type" : "_ZTIv",
   "source_file" : "external/libyuv/include/libyuv/row.h"
  },
  {
   "function_name" : "libyuv::AYUVToVURow_C",
   "linker_set_key" : "AYUVToVURow_C",
   "parameters" :
   [
    {
     "referenced_type" : "_ZTIPKh"
    },
    {
     "referenced_type" : "_ZTIi"
    },
    {
     "referenced_type" : "_ZTIPh"
    },
    {
     "referenced_type" : "_ZTIi"
    }
   ],
   "return_type" : "_ZTIv",
   "source_file" : "external/libyuv/include/libyuv/row.h"
  },
  {
   "function_name" : "libyuv::AYUVToYRow_C",
   "linker_set_key" : "AYUVToYRow_C",
   "parameters" :
   [
    {
     "referenced_type" : "_ZTIPKh"
    },
    {
     "referenced_type" : "_ZTIPh"
    },
    {
     "referenced_type" : "_ZTIi"
    }
   ],
   "return_type" : "_ZTIv",
   "source_file" : "external/libyuv/include/libyuv/row.h"
  },
  {
   "function_name" : "libyuv::Android420ToABGR",
   "linker_set_key" : "Android420ToABGR",
   "parameters" :
   [
    {
     "referenced_type" : "_ZTIPKh"
    },
    {
     "referenced_type" : "_ZTIi"
    },
    {
     "referenced_type" : "_ZTIPKh"
    },
    {
     "referenced_type" : "_ZTIi"
    },
    {
     "referenced_type" : "_ZTIPKh"
    },
    {
     "referenced_type" : "_ZTIi"
    },
    {
     "referenced_type" : "_ZTIi"
    },
    {
     "referenced_type" : "_ZTIPh"
    },
    {
     "referenced_type" : "_ZTIi"
    },
    {
     "referenced_type" : "_ZTIi"
    },
    {
     "referenced_type" : "_ZTIi"
    }
   ],
   "return_type" : "_ZTIi",
   "source_file" : "external/libyuv/include/libyuv/convert_argb.h"
  },
  {
   "function_name" : "libyuv::Android420ToARGB",
   "linker_set_key" : "Android420ToARGB",
   "parameters" :
   [
    {
     "referenced_type" : "_ZTIPKh"
    },
    {
     "referenced_type" : "_ZTIi"
    },
    {
     "referenced_type" : "_ZTIPKh"
    },
    {
     "referenced_type" : "_ZTIi"
    },
    {
     "referenced_type" : "_ZTIPKh"
    },
    {
     "referenced_type" : "_ZTIi"
    },
    {
     "referenced_type" : "_ZTIi"
    },
    {
     "referenced_type" : "_ZTIPh"
    },
    {
     "referenced_type" : "_ZTIi"
    },
    {
     "referenced_type" : "_ZTIi"
    },
    {
     "referenced_type" : "_ZTIi"
    }
   ],
   "return_type" : "_ZTIi",
   "source_file" : "external/libyuv/include/libyuv/convert_argb.h"
  },
  {
   "function_name" : "libyuv::Android420ToARGBMatrix",
   "linker_set_key" : "Android420ToARGBMatrix",
   "parameters" :
   [
    {
     "referenced_type" : "_ZTIPKh"
    },
    {
     "referenced_type" : "_ZTIi"
    },
    {
     "referenced_type" : "_ZTIPKh"
    },
    {
     "referenced_type" : "_ZTIi"
    },
    {
     "referenced_type" : "_ZTIPKh"
    },
    {
     "referenced_type" : "_ZTIi"
    },
    {
     "referenced_type" : "_ZTIi"
    },
    {
     "referenced_type" : "_ZTIPh"
    },
    {
     "referenced_type" : "_ZTIi"
    },
    {
     "referenced_type" : "_ZTIPKN6libyuv12YuvConstantsE"
    },
    {
     "referenced_type" : "_ZTIi"
    },
    {
     "referenced_type" : "_ZTIi"
    }
   ],
   "return_type" : "_ZTIi",
   "source_file" : "external/libyuv/include/libyuv/convert_argb.h"
  },
  {
   "function_name" : "libyuv::Android420ToI420",
   "linker_set_key" : "Android420ToI420",
   "parameters" :
   [
    {
     "referenced_type" : "_ZTIPKh"
    },
    {
     "referenced_type" : "_ZTIi"
    },
    {
     "referenced_type" : "_ZTIPKh"
    },
    {
     "referenced_type" : "_ZTIi"
    },
    {
     "referenced_type" : "_ZTIPKh"
    },
    {
     "referenced_type" : "_ZTIi"
    },
    {
     "referenced_type" : "_ZTIi"
    },
    {
     "referenced_type" : "_ZTIPh"
    },
    {
     "referenced_type" : "_ZTIi"
    },
    {
     "referenced_type" : "_ZTIPh"
    },
    {
     "referenced_type" : "_ZTIi"
    },
    {
     "referenced_type" : "_ZTIPh"
    },
    {
     "referenced_type" : "_ZTIi"
    },
    {
     "referenced_type" : "_ZTIi"
    },
    {
     "referenced_type" : "_ZTIi"
    }
   ],
   "return_type" : "_ZTIi",
   "source_file" : "external/libyuv/include/libyuv/convert.h"
  },
  {
   "function_name" : "libyuv::Android420ToI420Rotate",
   "linker_set_key" : "Android420ToI420Rotate",
   "parameters" :
   [
    {
     "referenced_type" : "_ZTIPKh"
    },
    {
     "referenced_type" : "_ZTIi"
    },
    {
     "referenced_type" : "_ZTIPKh"
    },
    {
     "referenced_type" : "_ZTIi"
    },
    {
     "referenced_type" : "_ZTIPKh"
    },
    {
     "referenced_type" : "_ZTIi"
    },
    {
     "referenced_type" : "_ZTIi"
    },
    {
     "referenced_type" : "_ZTIPh"
    },
    {
     "referenced_type" : "_ZTIi"
    },
    {
     "referenced_type" : "_ZTIPh"
    },
    {
     "referenced_type" : "_ZTIi"
    },
    {
     "referenced_type" : "_ZTIPh"
    },
    {
     "referenced_type" : "_ZTIi"
    },
    {
     "referenced_type" : "_ZTIi"
    },
    {
     "referenced_type" : "_ZTIi"
    },
    {
     "referenced_type" : "_ZTIN6libyuv12RotationModeE"
    }
   ],
   "return_type" : "_ZTIi",
   "source_file" : "external/libyuv/include/libyuv/rotate.h"
  },
  {
   "function_name" : "libyuv::ArmCpuCaps",
   "linker_set_key" : "ArmCpuCaps",
   "parameters" :
   [
    {
     "referenced_type" : "_ZTIPKc"
    }
   ],
   "return_type" : "_ZTIi",
   "source_file" : "external/libyuv/include/libyuv/cpu_id.h"
  },
  {
   "function_name" : "libyuv::BGRAToARGB",
   "linker_set_key" : "BGRAToARGB",
   "parameters" :
   [
    {
     "referenced_type" : "_ZTIPKh"
    },
    {
     "referenced_type" : "_ZTIi"
    },
    {
     "referenced_type" : "_ZTIPh"
    },
    {
     "referenced_type" : "_ZTIi"
    },
    {
     "referenced_type" : "_ZTIi"
    },
    {
     "referenced_type" : "_ZTIi"
    }
   ],
   "return_type" : "_ZTIi",
   "source_file" : "external/libyuv/include/libyuv/convert_argb.h"
  },
  {
   "function_name" : "libyuv::BGRAToI420",
   "linker_set_key" : "BGRAToI420",
   "parameters" :
   [
    {
     "referenced_type" : "_ZTIPKh"
    },
    {
     "referenced_type" : "_ZTIi"
    },
    {
     "referenced_type" : "_ZTIPh"
    },
    {
     "referenced_type" : "_ZTIi"
    },
    {
     "referenced_type" : "_ZTIPh"
    },
    {
     "referenced_type" : "_ZTIi"
    },
    {
     "referenced_type" : "_ZTIPh"
    },
    {
     "referenced_type" : "_ZTIi"
    },
    {
     "referenced_type" : "_ZTIi"
    },
    {
     "referenced_type" : "_ZTIi"
    }
   ],
   "return_type" : "_ZTIi",
   "source_file" : "external/libyuv/include/libyuv/convert.h"
  },
  {
   "function_name" : "libyuv::BGRAToUVRow_Any_SSSE3",
   "linker_set_key" : "BGRAToUVRow_Any_SSSE3",
   "parameters" :
   [
    {
     "referenced_type" : "_ZTIPKh"
    },
    {
     "referenced_type" : "_ZTIi"
    },
    {
     "referenced_type" : "_ZTIPh"
    },
    {
     "referenced_type" : "_ZTIPh"
    },
    {
     "referenced_type" : "_ZTIi"
    }
   ],
   "return_type" : "_ZTIv",
   "source_file" : "external/libyuv/include/libyuv/row.h"
  },
  {
   "function_name" : "libyuv::BGRAToUVRow_C",
   "linker_set_key" : "BGRAToUVRow_C",
   "parameters" :
   [
    {
     "referenced_type" : "_ZTIPKh"
    },
    {
     "referenced_type" : "_ZTIi"
    },
    {
     "referenced_type" : "_ZTIPh"
    },
    {
     "referenced_type" : "_ZTIPh"
    },
    {
     "referenced_type" : "_ZTIi"
    }
   ],
   "return_type" : "_ZTIv",
   "source_file" : "external/libyuv/include/libyuv/row.h"
  },
  {
   "function_name" : "libyuv::BGRAToUVRow_SSSE3",
   "linker_set_key" : "BGRAToUVRow_SSSE3",
   "parameters" :
   [
    {
     "referenced_type" : "_ZTIPKh"
    },
    {
     "referenced_type" : "_ZTIi"
    },
    {
     "referenced_type" : "_ZTIPh"
    },
    {
     "referenced_type" : "_ZTIPh"
    },
    {
     "referenced_type" : "_ZTIi"
    }
   ],
   "return_type" : "_ZTIv",
   "source_file" : "external/libyuv/include/libyuv/row.h"
  },
  {
   "function_name" : "libyuv::BGRAToYRow_Any_SSSE3",
   "linker_set_key" : "BGRAToYRow_Any_SSSE3",
   "parameters" :
   [
    {
     "referenced_type" : "_ZTIPKh"
    },
    {
     "referenced_type" : "_ZTIPh"
    },
    {
     "referenced_type" : "_ZTIi"
    }
   ],
   "return_type" : "_ZTIv",
   "source_file" : "external/libyuv/include/libyuv/row.h"
  },
  {
   "function_name" : "libyuv::BGRAToYRow_C",
   "linker_set_key" : "BGRAToYRow_C",
   "parameters" :
   [
    {
     "referenced_type" : "_ZTIPKh"
    },
    {
     "referenced_type" : "_ZTIPh"
    },
    {
     "referenced_type" : "_ZTIi"
    }
   ],
   "return_type" : "_ZTIv",
   "source_file" : "external/libyuv/include/libyuv/row.h"
  },
  {
   "function_name" : "libyuv::BGRAToYRow_SSSE3",
   "linker_set_key" : "BGRAToYRow_SSSE3",
   "parameters" :
   [
    {
     "referenced_type" : "_ZTIPKh"
    },
    {
     "referenced_type" : "_ZTIPh"
    },
    {
     "referenced_type" : "_ZTIi"
    }
   ],
   "return_type" : "_ZTIv",
   "source_file" : "external/libyuv/include/libyuv/row.h"
  },
  {
   "function_name" : "libyuv::BlendPlane",
   "linker_set_key" : "BlendPlane",
   "parameters" :
   [
    {
     "referenced_type" : "_ZTIPKh"
    },
    {
     "referenced_type" : "_ZTIi"
    },
    {
     "referenced_type" : "_ZTIPKh"
    },
    {
     "referenced_type" : "_ZTIi"
    },
    {
     "referenced_type" : "_ZTIPKh"
    },
    {
     "referenced_type" : "_ZTIi"
    },
    {
     "referenced_type" : "_ZTIPh"
    },
    {
     "referenced_type" : "_ZTIi"
    },
    {
     "referenced_type" : "_ZTIi"
    },
    {
     "referenced_type" : "_ZTIi"
    }
   ],
   "return_type" : "_ZTIi",
   "source_file" : "external/libyuv/include/libyuv/planar_functions.h"
  },
  {
   "function_name" : "libyuv::BlendPlaneRow_AVX2",
   "linker_set_key" : "BlendPlaneRow_AVX2",
   "parameters" :
   [
    {
     "referenced_type" : "_ZTIPKh"
    },
    {
     "referenced_type" : "_ZTIPKh"
    },
    {
     "referenced_type" : "_ZTIPKh"
    },
    {
     "referenced_type" : "_ZTIPh"
    },
    {
     "referenced_type" : "_ZTIi"
    }
   ],
   "return_type" : "_ZTIv",
   "source_file" : "external/libyuv/include/libyuv/row.h"
  },
  {
   "function_name" : "libyuv::BlendPlaneRow_Any_AVX2",
   "linker_set_key" : "BlendPlaneRow_Any_AVX2",
   "parameters" :
   [
    {
     "referenced_type" : "_ZTIPKh"
    },
    {
     "referenced_type" : "_ZTIPKh"
    },
    {
     "referenced_type" : "_ZTIPKh"
    },
    {
     "referenced_type" : "_ZTIPh"
    },
    {
     "referenced_type" : "_ZTIi"
    }
   ],
   "return_type" : "_ZTIv",
   "source_file" : "external/libyuv/include/libyuv/row.h"
  },
  {
   "function_name" : "libyuv::BlendPlaneRow_Any_SSSE3",
   "linker_set_key" : "BlendPlaneRow_Any_SSSE3",
   "parameters" :
   [
    {
     "referenced_type" : "_ZTIPKh"
    },
    {
     "referenced_type" : "_ZTIPKh"
    },
    {
     "referenced_type" : "_ZTIPKh"
    },
    {
     "referenced_type" : "_ZTIPh"
    },
    {
     "referenced_type" : "_ZTIi"
    }
   ],
   "return_type" : "_ZTIv",
   "source_file" : "external/libyuv/include/libyuv/row.h"
  },
  {
   "function_name" : "libyuv::BlendPlaneRow_C",
   "linker_set_key" : "BlendPlaneRow_C",
   "parameters" :
   [
    {
     "referenced_type" : "_ZTIPKh"
    },
    {
     "referenced_type" : "_ZTIPKh"
    },
    {
     "referenced_type" : "_ZTIPKh"
    },
    {
     "referenced_type" : "_ZTIPh"
    },
    {
     "referenced_type" : "_ZTIi"
    }
   ],
   "return_type" : "_ZTIv",
   "source_file" : "external/libyuv/include/libyuv/row.h"
  },
  {
   "function_name" : "libyuv::BlendPlaneRow_SSSE3",
   "linker_set_key" : "BlendPlaneRow_SSSE3",
   "parameters" :
   [
    {
     "referenced_type" : "_ZTIPKh"
    },
    {
     "referenced_type" : "_ZTIPKh"
    },
    {
     "referenced_type" : "_ZTIPKh"
    },
    {
     "referenced_type" : "_ZTIPh"
    },
    {
     "referenced_type" : "_ZTIi"
    }
   ],
   "return_type" : "_ZTIv",
   "source_file" : "external/libyuv/include/libyuv/row.h"
  },
  {
   "function_name" : "libyuv::ByteToFloat",
   "linker_set_key" : "ByteToFloat",
   "parameters" :
   [
    {
     "referenced_type" : "_ZTIPKh"
    },
    {
     "referenced_type" : "_ZTIPf"
    },
    {
     "referenced_type" : "_ZTIf"
    },
    {
     "referenced_type" : "_ZTIi"
    }
   ],
   "return_type" : "_ZTIi",
   "source_file" : "external/libyuv/include/libyuv/planar_functions.h"
  },
  {
   "function_name" : "libyuv::ByteToFloatRow_C",
   "linker_set_key" : "ByteToFloatRow_C",
   "parameters" :
   [
    {
     "referenced_type" : "_ZTIPKh"
    },
    {
     "referenced_type" : "_ZTIPf"
    },
    {
     "referenced_type" : "_ZTIf"
    },
    {
     "referenced_type" : "_ZTIi"
    }
   ],
   "return_type" : "_ZTIv",
   "source_file" : "external/libyuv/include/libyuv/row.h"
  },
  {
   "function_name" : "libyuv::CalcFramePsnr",
   "linker_set_key" : "CalcFramePsnr",
   "parameters" :
   [
    {
     "referenced_type" : "_ZTIPKh"
    },
    {
     "referenced_type" : "_ZTIi"
    },
    {
     "referenced_type" : "_ZTIPKh"
    },
    {
     "referenced_type" : "_ZTIi"
    },
    {
     "referenced_type" : "_ZTIi"
    },
    {
     "referenced_type" : "_ZTIi"
    }
   ],
   "return_type" : "_ZTId",
   "source_file" : "external/libyuv/include/libyuv/compare.h"
  },
  {
   "function_name" : "libyuv::CalcFrameSsim",
   "linker_set_key" : "CalcFrameSsim",
   "parameters" :
   [
    {
     "referenced_type" : "_ZTIPKh"
    },
    {
     "referenced_type" : "_ZTIi"
    },
    {
     "referenced_type" : "_ZTIPKh"
    },
    {
     "referenced_type" : "_ZTIi"
    },
    {
     "referenced_type" : "_ZTIi"
    },
    {
     "referenced_type" : "_ZTIi"
    }
   ],
   "return_type" : "_ZTId",
   "source_file" : "external/libyuv/include/libyuv/compare.h"
  },
  {
   "function_name" : "libyuv::CanonicalFourCC",
   "linker_set_key" : "CanonicalFourCC",
   "parameters" :
   [
    {
     "referenced_type" : "_ZTIj"
    }
   ],
   "return_type" : "_ZTIj",
   "source_file" : "external/libyuv/include/libyuv/video_common.h"
  },
  {
   "function_name" : "libyuv::ClampFloatToZero_SSE2",
   "linker_set_key" : "ClampFloatToZero_SSE2",
   "parameters" :
   [
    {
     "referenced_type" : "_ZTIPKf"
    },
    {
     "referenced_type" : "_ZTIPf"
    },
    {
     "referenced_type" : "_ZTIi"
    }
   ],
   "return_type" : "_ZTIv",
   "source_file" : "external/libyuv/include/libyuv/row.h"
  },
  {
   "function_name" : "libyuv::ComputeCumulativeSumRow_C",
   "linker_set_key" : "ComputeCumulativeSumRow_C",
   "parameters" :
   [
    {
     "referenced_type" : "_ZTIPKh"
    },
    {
     "referenced_type" : "_ZTIPi"
    },
    {
     "referenced_type" : "_ZTIPKi"
    },
    {
     "referenced_type" : "_ZTIi"
    }
   ],
   "return_type" : "_ZTIv",
   "source_file" : "external/libyuv/include/libyuv/row.h"
  },
  {
   "function_name" : "libyuv::ComputeCumulativeSumRow_SSE2",
   "linker_set_key" : "ComputeCumulativeSumRow_SSE2",
   "parameters" :
   [
    {
     "referenced_type" : "_ZTIPKh"
    },
    {
     "referenced_type" : "_ZTIPi"
    },
    {
     "referenced_type" : "_ZTIPKi"
    },
    {
     "referenced_type" : "_ZTIi"
    }
   ],
   "return_type" : "_ZTIv",
   "source_file" : "external/libyuv/include/libyuv/row.h"
  },
  {
   "function_name" : "libyuv::ComputeHammingDistance",
   "linker_set_key" : "ComputeHammingDistance",
   "parameters" :
   [
    {
     "referenced_type" : "_ZTIPKh"
    },
    {
     "referenced_type" : "_ZTIPKh"
    },
    {
     "referenced_type" : "_ZTIi"
    }
   ],
   "return_type" : "_ZTIy",
   "source_file" : "external/libyuv/include/libyuv/compare.h"
  },
  {
   "function_name" : "libyuv::ComputeSumSquareError",
   "linker_set_key" : "ComputeSumSquareError",
   "parameters" :
   [
    {
     "referenced_type" : "_ZTIPKh"
    },
    {
     "referenced_type" : "_ZTIPKh"
    },
    {
     "referenced_type" : "_ZTIi"
    }
   ],
   "return_type" : "_ZTIy",
   "source_file" : "external/libyuv/include/libyuv/compare.h"
  },
  {
   "function_name" : "libyuv::ComputeSumSquareErrorPlane",
   "linker_set_key" : "ComputeSumSquareErrorPlane",
   "parameters" :
   [
    {
     "referenced_type" : "_ZTIPKh"
    },
    {
     "referenced_type" : "_ZTIi"
    },
    {
     "referenced_type" : "_ZTIPKh"
    },
    {
     "referenced_type" : "_ZTIi"
    },
    {
     "referenced_type" : "_ZTIi"
    },
    {
     "referenced_type" : "_ZTIi"
    }
   ],
   "return_type" : "_ZTIy",
   "source_file" : "external/libyuv/include/libyuv/compare.h"
  },
  {
   "function_name" : "libyuv::Convert16To8Plane",
   "linker_set_key" : "Convert16To8Plane",
   "parameters" :
   [
    {
     "referenced_type" : "_ZTIPKt"
    },
    {
     "referenced_type" : "_ZTIi"
    },
    {
     "referenced_type" : "_ZTIPh"
    },
    {
     "referenced_type" : "_ZTIi"
    },
    {
     "referenced_type" : "_ZTIi"
    },
    {
     "referenced_type" : "_ZTIi"
    },
    {
     "referenced_type" : "_ZTIi"
    }
   ],
   "return_type" : "_ZTIv",
   "source_file" : "external/libyuv/include/libyuv/planar_functions.h"
  },
  {
   "function_name" : "libyuv::Convert16To8Row_AVX2",
   "linker_set_key" : "Convert16To8Row_AVX2",
   "parameters" :
   [
    {
     "referenced_type" : "_ZTIPKt"
    },
    {
     "referenced_type" : "_ZTIPh"
    },
    {
     "referenced_type" : "_ZTIi"
    },
    {
     "referenced_type" : "_ZTIi"
    }
   ],
   "return_type" : "_ZTIv",
   "source_file" : "external/libyuv/include/libyuv/row.h"
  },
  {
   "function_name" : "libyuv::Convert16To8Row_Any_AVX2",
   "linker_set_key" : "Convert16To8Row_Any_AVX2",
   "parameters" :
   [
    {
     "referenced_type" : "_ZTIPKt"
    },
    {
     "referenced_type" : "_ZTIPh"
    },
    {
     "referenced_type" : "_ZTIi"
    },
    {
     "referenced_type" : "_ZTIi"
    }
   ],
   "return_type" : "_ZTIv",
   "source_file" : "external/libyuv/include/libyuv/row.h"
  },
  {
   "function_name" : "libyuv::Convert16To8Row_Any_SSSE3",
   "linker_set_key" : "Convert16To8Row_Any_SSSE3",
   "parameters" :
   [
    {
     "referenced_type" : "_ZTIPKt"
    },
    {
     "referenced_type" : "_ZTIPh"
    },
    {
     "referenced_type" : "_ZTIi"
    },
    {
     "referenced_type" : "_ZTIi"
    }
   ],
   "return_type" : "_ZTIv",
   "source_file" : "external/libyuv/include/libyuv/row.h"
  },
  {
   "function_name" : "libyuv::Convert16To8Row_C",
   "linker_set_key" : "Convert16To8Row_C",
   "parameters" :
   [
    {
     "referenced_type" : "_ZTIPKt"
    },
    {
     "referenced_type" : "_ZTIPh"
    },
    {
     "referenced_type" : "_ZTIi"
    },
    {
     "referenced_type" : "_ZTIi"
    }
   ],
   "return_type" : "_ZTIv",
   "source_file" : "external/libyuv/include/libyuv/row.h"
  },
  {
   "function_name" : "libyuv::Convert16To8Row_SSSE3",
   "linker_set_key" : "Convert16To8Row_SSSE3",
   "parameters" :
   [
    {
     "referenced_type" : "_ZTIPKt"
    },
    {
     "referenced_type" : "_ZTIPh"
    },
    {
     "referenced_type" : "_ZTIi"
    },
    {
     "referenced_type" : "_ZTIi"
    }
   ],
   "return_type" : "_ZTIv",
   "source_file" : "external/libyuv/include/libyuv/row.h"
  },
  {
   "function_name" : "libyuv::Convert8To16Plane",
   "linker_set_key" : "Convert8To16Plane",
   "parameters" :
   [
    {
     "referenced_type" : "_ZTIPKh"
    },
    {
     "referenced_type" : "_ZTIi"
    },
    {
     "referenced_type" : "_ZTIPt"
    },
    {
     "referenced_type" : "_ZTIi"
    },
    {
     "referenced_type" : "_ZTIi"
    },
    {
     "referenced_type" : "_ZTIi"
    },
    {
     "referenced_type" : "_ZTIi"
    }
   ],
   "return_type" : "_ZTIv",
   "source_file" : "external/libyuv/include/libyuv/planar_functions.h"
  },
  {
   "function_name" : "libyuv::Convert8To16Row_AVX2",
   "linker_set_key" : "Convert8To16Row_AVX2",
   "parameters" :
   [
    {
     "referenced_type" : "_ZTIPKh"
    },
    {
     "referenced_type" : "_ZTIPt"
    },
    {
     "referenced_type" : "_ZTIi"
    },
    {
     "referenced_type" : "_ZTIi"
    }
   ],
   "return_type" : "_ZTIv",
   "source_file" : "external/libyuv/include/libyuv/row.h"
  },
  {
   "function_name" : "libyuv::Convert8To16Row_Any_AVX2",
   "linker_set_key" : "Convert8To16Row_Any_AVX2",
   "parameters" :
   [
    {
     "referenced_type" : "_ZTIPKh"
    },
    {
     "referenced_type" : "_ZTIPt"
    },
    {
     "referenced_type" : "_ZTIi"
    },
    {
     "referenced_type" : "_ZTIi"
    }
   ],
   "return_type" : "_ZTIv",
   "source_file" : "external/libyuv/include/libyuv/row.h"
  },
  {
   "function_name" : "libyuv::Convert8To16Row_Any_SSE2",
   "linker_set_key" : "Convert8To16Row_Any_SSE2",
   "parameters" :
   [
    {
     "referenced_type" : "_ZTIPKh"
    },
    {
     "referenced_type" : "_ZTIPt"
    },
    {
     "referenced_type" : "_ZTIi"
    },
    {
     "referenced_type" : "_ZTIi"
    }
   ],
   "return_type" : "_ZTIv",
   "source_file" : "external/libyuv/include/libyuv/row.h"
  },
  {
   "function_name" : "libyuv::Convert8To16Row_C",
   "linker_set_key" : "Convert8To16Row_C",
   "parameters" :
   [
    {
     "referenced_type" : "_ZTIPKh"
    },
    {
     "referenced_type" : "_ZTIPt"
    },
    {
     "referenced_type" : "_ZTIi"
    },
    {
     "referenced_type" : "_ZTIi"
    }
   ],
   "return_type" : "_ZTIv",
   "source_file" : "external/libyuv/include/libyuv/row.h"
  },
  {
   "function_name" : "libyuv::Convert8To16Row_SSE2",
   "linker_set_key" : "Convert8To16Row_SSE2",
   "parameters" :
   [
    {
     "referenced_type" : "_ZTIPKh"
    },
    {
     "referenced_type" : "_ZTIPt"
    },
    {
     "referenced_type" : "_ZTIi"
    },
    {
     "referenced_type" : "_ZTIi"
    }
   ],
   "return_type" : "_ZTIv",
   "source_file" : "external/libyuv/include/libyuv/row.h"
  },
  {
   "function_name" : "libyuv::ConvertFromI420",
   "linker_set_key" : "ConvertFromI420",
   "parameters" :
   [
    {
     "referenced_type" : "_ZTIPKh"
    },
    {
     "referenced_type" : "_ZTIi"
    },
    {
     "referenced_type" : "_ZTIPKh"
    },
    {
     "referenced_type" : "_ZTIi"
    },
    {
     "referenced_type" : "_ZTIPKh"
    },
    {
     "referenced_type" : "_ZTIi"
    },
    {
     "referenced_type" : "_ZTIPh"
    },
    {
     "referenced_type" : "_ZTIi"
    },
    {
     "referenced_type" : "_ZTIi"
    },
    {
     "referenced_type" : "_ZTIi"
    },
    {
     "referenced_type" : "_ZTIj"
    }
   ],
   "return_type" : "_ZTIi",
   "source_file" : "external/libyuv/include/libyuv/convert_from.h"
  },
  {
   "function_name" : "libyuv::ConvertToARGB",
   "linker_set_key" : "ConvertToARGB",
   "parameters" :
   [
    {
     "referenced_type" : "_ZTIPKh"
    },
    {
     "referenced_type" : "_ZTIj"
    },
    {
     "referenced_type" : "_ZTIPh"
    },
    {
     "referenced_type" : "_ZTIi"
    },
    {
     "referenced_type" : "_ZTIi"
    },
    {
     "referenced_type" : "_ZTIi"
    },
    {
     "referenced_type" : "_ZTIi"
    },
    {
     "referenced_type" : "_ZTIi"
    },
    {
     "referenced_type" : "_ZTIi"
    },
    {
     "referenced_type" : "_ZTIi"
    },
    {
     "referenced_type" : "_ZTIN6libyuv12RotationModeE"
    },
    {
     "referenced_type" : "_ZTIj"
    }
   ],
   "return_type" : "_ZTIi",
   "source_file" : "external/libyuv/include/libyuv/convert_argb.h"
  },
  {
   "function_name" : "libyuv::ConvertToI420",
   "linker_set_key" : "ConvertToI420",
   "parameters" :
   [
    {
     "referenced_type" : "_ZTIPKh"
    },
    {
     "referenced_type" : "_ZTIj"
    },
    {
     "referenced_type" : "_ZTIPh"
    },
    {
     "referenced_type" : "_ZTIi"
    },
    {
     "referenced_type" : "_ZTIPh"
    },
    {
     "referenced_type" : "_ZTIi"
    },
    {
     "referenced_type" : "_ZTIPh"
    },
    {
     "referenced_type" : "_ZTIi"
    },
    {
     "referenced_type" : "_ZTIi"
    },
    {
     "referenced_type" : "_ZTIi"
    },
    {
     "referenced_type" : "_ZTIi"
    },
    {
     "referenced_type" : "_ZTIi"
    },
    {
     "referenced_type" : "_ZTIi"
    },
    {
     "referenced_type" : "_ZTIi"
    },
    {
     "referenced_type" : "_ZTIN6libyuv12RotationModeE"
    },
    {
     "referenced_type" : "_ZTIj"
    }
   ],
   "return_type" : "_ZTIi",
   "source_file" : "external/libyuv/include/libyuv/convert.h"
  },
  {
   "function_name" : "libyuv::ConvertToLSBPlane_16",
   "linker_set_key" : "ConvertToLSBPlane_16",
   "parameters" :
   [
    {
     "referenced_type" : "_ZTIPKt"
    },
    {
     "referenced_type" : "_ZTIi"
    },
    {
     "referenced_type" : "_ZTIPt"
    },
    {
     "referenced_type" : "_ZTIi"
    },
    {
     "referenced_type" : "_ZTIi"
    },
    {
     "referenced_type" : "_ZTIi"
    },
    {
     "referenced_type" : "_ZTIi"
    }
   ],
   "return_type" : "_ZTIv",
   "source_file" : "external/libyuv/include/libyuv/planar_functions.h"
  },
  {
   "function_name" : "libyuv::ConvertToMSBPlane_16",
   "linker_set_key" : "ConvertToMSBPlane_16",
   "parameters" :
   [
    {
     "referenced_type" : "_ZTIPKt"
    },
    {
     "referenced_type" : "_ZTIi"
    },
    {
     "referenced_type" : "_ZTIPt"
    },
    {
     "referenced_type" : "_ZTIi"
    },
    {
     "referenced_type" : "_ZTIi"
    },
    {
     "referenced_type" : "_ZTIi"
    },
    {
     "referenced_type" : "_ZTIi"
    }
   ],
   "return_type" : "_ZTIv",
   "source_file" : "external/libyuv/include/libyuv/planar_functions.h"
  },
  {
   "function_name" : "libyuv::CopyPlane",
   "linker_set_key" : "CopyPlane",
   "parameters" :
   [
    {
     "referenced_type" : "_ZTIPKh"
    },
    {
     "referenced_type" : "_ZTIi"
    },
    {
     "referenced_type" : "_ZTIPh"
    },
    {
     "referenced_type" : "_ZTIi"
    },
    {
     "referenced_type" : "_ZTIi"
    },
    {
     "referenced_type" : "_ZTIi"
    }
   ],
   "return_type" : "_ZTIv",
   "source_file" : "external/libyuv/include/libyuv/planar_functions.h"
  },
  {
   "function_name" : "libyuv::CopyPlane_16",
   "linker_set_key" : "CopyPlane_16",
   "parameters" :
   [
    {
     "referenced_type" : "_ZTIPKt"
    },
    {
     "referenced_type" : "_ZTIi"
    },
    {
     "referenced_type" : "_ZTIPt"
    },
    {
     "referenced_type" : "_ZTIi"
    },
    {
     "referenced_type" : "_ZTIi"
    },
    {
     "referenced_type" : "_ZTIi"
    }
   ],
   "return_type" : "_ZTIv",
   "source_file" : "external/libyuv/include/libyuv/planar_functions.h"
  },
  {
   "function_name" : "libyuv::CopyRow_16_C",
   "linker_set_key" : "CopyRow_16_C",
   "parameters" :
   [
    {
     "referenced_type" : "_ZTIPKt"
    },
    {
     "referenced_type" : "_ZTIPt"
    },
    {
     "referenced_type" : "_ZTIi"
    }
   ],
   "return_type" : "_ZTIv",
   "source_file" : "external/libyuv/include/libyuv/row.h"
  },
  {
   "function_name" : "libyuv::CopyRow_AVX",
   "linker_set_key" : "CopyRow_AVX",
   "parameters" :
   [
    {
     "referenced_type" : "_ZTIPKh"
    },
    {
     "referenced_type" : "_ZTIPh"
    },
    {
     "referenced_type" : "_ZTIi"
    }
   ],
   "return_type" : "_ZTIv",
   "source_file" : "external/libyuv/include/libyuv/row.h"
  },
  {
   "function_name" : "libyuv::CopyRow_Any_AVX",
   "linker_set_key" : "CopyRow_Any_AVX",
   "parameters" :
   [
    {
     "referenced_type" : "_ZTIPKh"
    },
    {
     "referenced_type" : "_ZTIPh"
    },
    {
     "referenced_type" : "_ZTIi"
    }
   ],
   "return_type" : "_ZTIv",
   "source_file" : "external/libyuv/include/libyuv/row.h"
  },
  {
   "function_name" : "libyuv::CopyRow_Any_SSE2",
   "linker_set_key" : "CopyRow_Any_SSE2",
   "parameters" :
   [
    {
     "referenced_type" : "_ZTIPKh"
    },
    {
     "referenced_type" : "_ZTIPh"
    },
    {
     "referenced_type" : "_ZTIi"
    }
   ],
   "return_type" : "_ZTIv",
   "source_file" : "external/libyuv/include/libyuv/row.h"
  },
  {
   "function_name" : "libyuv::CopyRow_C",
   "linker_set_key" : "CopyRow_C",
   "parameters" :
   [
    {
     "referenced_type" : "_ZTIPKh"
    },
    {
     "referenced_type" : "_ZTIPh"
    },
    {
     "referenced_type" : "_ZTIi"
    }
   ],
   "return_type" : "_ZTIv",
   "source_file" : "external/libyuv/include/libyuv/row.h"
  },
  {
   "function_name" : "libyuv::CopyRow_ERMS",
   "linker_set_key" : "CopyRow_ERMS",
   "parameters" :
   [
    {
     "referenced_type" : "_ZTIPKh"
    },
    {
     "referenced_type" : "_ZTIPh"
    },
    {
     "referenced_type" : "_ZTIi"
    }
   ],
   "return_type" : "_ZTIv",
   "source_file" : "external/libyuv/include/libyuv/row.h"
  },
  {
   "function_name" : "libyuv::CopyRow_SSE2",
   "linker_set_key" : "CopyRow_SSE2",
   "parameters" :
   [
    {
     "referenced_type" : "_ZTIPKh"
    },
    {
     "referenced_type" : "_ZTIPh"
    },
    {
     "referenced_type" : "_ZTIi"
    }
   ],
   "return_type" : "_ZTIv",
   "source_file" : "external/libyuv/include/libyuv/row.h"
  },
  {
   "function_name" : "libyuv::CpuId",
   "linker_set_key" : "CpuId",
   "parameters" :
   [
    {
     "referenced_type" : "_ZTIi"
    },
    {
     "referenced_type" : "_ZTIi"
    },
    {
     "referenced_type" : "_ZTIPi"
    }
   ],
   "return_type" : "_ZTIv",
   "source_file" : "external/libyuv/include/libyuv/cpu_id.h"
  },
  {
   "function_name" : "libyuv::CumulativeSumToAverageRow_C",
   "linker_set_key" : "CumulativeSumToAverageRow_C",
   "parameters" :
   [
    {
     "referenced_type" : "_ZTIPKi"
    },
    {
     "referenced_type" : "_ZTIPKi"
    },
    {
     "referenced_type" : "_ZTIi"
    },
    {
     "referenced_type" : "_ZTIi"
    },
    {
     "referenced_type" : "_ZTIPh"
    },
    {
     "referenced_type" : "_ZTIi"
    }
   ],
   "return_type" : "_ZTIv",
   "source_file" : "external/libyuv/include/libyuv/row.h"
  },
  {
   "function_name" : "libyuv::CumulativeSumToAverageRow_SSE2",
   "linker_set_key" : "CumulativeSumToAverageRow_SSE2",
   "parameters" :
   [
    {
     "referenced_type" : "_ZTIPKi"
    },
    {
     "referenced_type" : "_ZTIPKi"
    },
    {
     "referenced_type" : "_ZTIi"
    },
    {
     "referenced_type" : "_ZTIi"
    },
    {
     "referenced_type" : "_ZTIPh"
    },
    {
     "referenced_type" : "_ZTIi"
    }
   ],
   "return_type" : "_ZTIv",
   "source_file" : "external/libyuv/include/libyuv/row.h"
  },
  {
   "function_name" : "libyuv::DetilePlane",
   "linker_set_key" : "DetilePlane",
   "parameters" :
   [
    {
     "referenced_type" : "_ZTIPKh"
    },
    {
     "referenced_type" : "_ZTIi"
    },
    {
     "referenced_type" : "_ZTIPh"
    },
    {
     "referenced_type" : "_ZTIi"
    },
    {
     "referenced_type" : "_ZTIi"
    },
    {
     "referenced_type" : "_ZTIi"
    },
    {
     "referenced_type" : "_ZTIi"
    }
   ],
   "return_type" : "_ZTIi",
   "source_file" : "external/libyuv/include/libyuv/planar_functions.h"
  },
  {
   "function_name" : "libyuv::DetilePlane_16",
   "linker_set_key" : "DetilePlane_16",
   "parameters" :
   [
    {
     "referenced_type" : "_ZTIPKt"
    },
    {
     "referenced_type" : "_ZTIi"
    },
    {
     "referenced_type" : "_ZTIPt"
    },
    {
     "referenced_type" : "_ZTIi"
    },
    {
     "referenced_type" : "_ZTIi"
    },
    {
     "referenced_type" : "_ZTIi"
    },
    {
     "referenced_type" : "_ZTIi"
    }
   ],
   "return_type" : "_ZTIi",
   "source_file" : "external/libyuv/include/libyuv/planar_functions.h"
  },
  {
   "function_name" : "libyuv::DetileRow_16_AVX",
   "linker_set_key" : "DetileRow_16_AVX",
   "parameters" :
   [
    {
     "referenced_type" : "_ZTIPKt"
    },
    {
     "referenced_type" : "_ZTIi"
    },
    {
     "referenced_type" : "_ZTIPt"
    },
    {
     "referenced_type" : "_ZTIi"
    }
   ],
   "return_type" : "_ZTIv",
   "source_file" : "external/libyuv/include/libyuv/row.h"
  },
  {
   "function_name" : "libyuv::DetileRow_16_Any_AVX",
   "linker_set_key" : "DetileRow_16_Any_AVX",
   "parameters" :
   [
    {
     "referenced_type" : "_ZTIPKt"
    },
    {
     "referenced_type" : "_ZTIi"
    },
    {
     "referenced_type" : "_ZTIPt"
    },
    {
     "referenced_type" : "_ZTIi"
    }
   ],
   "return_type" : "_ZTIv",
   "source_file" : "external/libyuv/include/libyuv/row.h"
  },
  {
   "function_name" : "libyuv::DetileRow_16_Any_SSE2",
   "linker_set_key" : "DetileRow_16_Any_SSE2",
   "parameters" :
   [
    {
     "referenced_type" : "_ZTIPKt"
    },
    {
     "referenced_type" : "_ZTIi"
    },
    {
     "referenced_type" : "_ZTIPt"
    },
    {
     "referenced_type" : "_ZTIi"
    }
   ],
   "return_type" : "_ZTIv",
   "source_file" : "external/libyuv/include/libyuv/row.h"
  },
  {
   "function_name" : "libyuv::DetileRow_16_C",
   "linker_set_key" : "DetileRow_16_C",
   "parameters" :
   [
    {
     "referenced_type" : "_ZTIPKt"
    },
    {
     "referenced_type" : "_ZTIi"
    },
    {
     "referenced_type" : "_ZTIPt"
    },
    {
     "referenced_type" : "_ZTIi"
    }
   ],
   "return_type" : "_ZTIv",
   "source_file" : "external/libyuv/include/libyuv/row.h"
  },
  {
   "function_name" : "libyuv::DetileRow_16_SSE2",
   "linker_set_key" : "DetileRow_16_SSE2",
   "parameters" :
   [
    {
     "referenced_type" : "_ZTIPKt"
    },
    {
     "referenced_type" : "_ZTIi"
    },
    {
     "referenced_type" : "_ZTIPt"
    },
    {
     "referenced_type" : "_ZTIi"
    }
   ],
   "return_type" : "_ZTIv",
   "source_file" : "external/libyuv/include/libyuv/row.h"
  },
  {
   "function_name" : "libyuv::DetileRow_Any_SSE2",
   "linker_set_key" : "DetileRow_Any_SSE2",
   "parameters" :
   [
    {
     "referenced_type" : "_ZTIPKh"
    },
    {
     "referenced_type" : "_ZTIi"
    },
    {
     "referenced_type" : "_ZTIPh"
    },
    {
     "referenced_type" : "_ZTIi"
    }
   ],
   "return_type" : "_ZTIv",
   "source_file" : "external/libyuv/include/libyuv/row.h"
  },
  {
   "function_name" : "libyuv::DetileRow_C",
   "linker_set_key" : "DetileRow_C",
   "parameters" :
   [
    {
     "referenced_type" : "_ZTIPKh"
    },
    {
     "referenced_type" : "_ZTIi"
    },
    {
     "referenced_type" : "_ZTIPh"
    },
    {
     "referenced_type" : "_ZTIi"
    }
   ],
   "return_type" : "_ZTIv",
   "source_file" : "external/libyuv/include/libyuv/row.h"
  },
  {
   "function_name" : "libyuv::DetileRow_SSE2",
   "linker_set_key" : "DetileRow_SSE2",
   "parameters" :
   [
    {
     "referenced_type" : "_ZTIPKh"
    },
    {
     "referenced_type" : "_ZTIi"
    },
    {
     "referenced_type" : "_ZTIPh"
    },
    {
     "referenced_type" : "_ZTIi"
    }
   ],
   "return_type" : "_ZTIv",
   "source_file" : "external/libyuv/include/libyuv/row.h"
  },
  {
   "function_name" : "libyuv::DetileSplitUVPlane",
   "linker_set_key" : "DetileSplitUVPlane",
   "parameters" :
   [
    {
     "referenced_type" : "_ZTIPKh"
    },
    {
     "referenced_type" : "_ZTIi"
    },
    {
     "referenced_type" : "_ZTIPh"
    },
    {
     "referenced_type" : "_ZTIi"
    },
    {
     "referenced_type" : "_ZTIPh"
    },
    {
     "referenced_type" : "_ZTIi"
    },
    {
     "referenced_type" : "_ZTIi"
    },
    {
     "referenced_type" : "_ZTIi"
    },
    {
     "referenced_type" : "_ZTIi"
    }
   ],
   "return_type" : "_ZTIv",
   "source_file" : "external/libyuv/include/libyuv/planar_functions.h"
  },
  {
   "function_name" : "libyuv::DetileSplitUVRow_Any_SSSE3",
   "linker_set_key" : "DetileSplitUVRow_Any_SSSE3",
   "parameters" :
   [
    {
     "referenced_type" : "_ZTIPKh"
    },
    {
     "referenced_type" : "_ZTIi"
    },
    {
     "referenced_type" : "_ZTIPh"
    },
    {
     "referenced_type" : "_ZTIPh"
    },
    {
     "referenced_type" : "_ZTIi"
    }
   ],
   "return_type" : "_ZTIv",
   "source_file" : "external/libyuv/include/libyuv/row.h"
  },
  {
   "function_name" : "libyuv::DetileSplitUVRow_C",
   "linker_set_key" : "DetileSplitUVRow_C",
   "parameters" :
   [
    {
     "referenced_type" : "_ZTIPKh"
    },
    {
     "referenced_type" : "_ZTIi"
    },
    {
     "referenced_type" : "_ZTIPh"
    },
    {
     "referenced_type" : "_ZTIPh"
    },
    {
     "referenced_type" : "_ZTIi"
    }
   ],
   "return_type" : "_ZTIv",
   "source_file" : "external/libyuv/include/libyuv/row.h"
  },
  {
   "function_name" : "libyuv::DetileSplitUVRow_SSSE3",
   "linker_set_key" : "DetileSplitUVRow_SSSE3",
   "parameters" :
   [
    {
     "referenced_type" : "_ZTIPKh"
    },
    {
     "referenced_type" : "_ZTIi"
    },
    {
     "referenced_type" : "_ZTIPh"
    },
    {
     "referenced_type" : "_ZTIPh"
    },
    {
     "referenced_type" : "_ZTIi"
    }
   ],
   "return_type" : "_ZTIv",
   "source_file" : "external/libyuv/include/libyuv/row.h"
  },
  {
   "function_name" : "libyuv::DetileToYUY2",
   "linker_set_key" : "DetileToYUY2",
   "parameters" :
   [
    {
     "referenced_type" : "_ZTIPKh"
    },
    {
     "referenced_type" : "_ZTIi"
    },
    {
     "referenced_type" : "_ZTIPKh"
    },
    {
     "referenced_type" : "_ZTIi"
    },
    {
     "referenced_type" : "_ZTIPh"
    },
    {
     "referenced_type" : "_ZTIi"
    },
    {
     "referenced_type" : "_ZTIi"
    },
    {
     "referenced_type" : "_ZTIi"
    },
    {
     "referenced_type" : "_ZTIi"
    }
   ],
   "return_type" : "_ZTIv",
   "source_file" : "external/libyuv/include/libyuv/planar_functions.h"
  },
  {
   "function_name" : "libyuv::DetileToYUY2_Any_SSE2",
   "linker_set_key" : "DetileToYUY2_Any_SSE2",
   "parameters" :
   [
    {
     "referenced_type" : "_ZTIPKh"
    },
    {
     "referenced_type" : "_ZTIi"
    },
    {
     "referenced_type" : "_ZTIPKh"
    },
    {
     "referenced_type" : "_ZTIi"
    },
    {
     "referenced_type" : "_ZTIPh"
    },
    {
     "referenced_type" : "_ZTIi"
    }
   ],
   "return_type" : "_ZTIv",
   "source_file" : "external/libyuv/include/libyuv/row.h"
  },
  {
   "function_name" : "libyuv::DetileToYUY2_C",
   "linker_set_key" : "DetileToYUY2_C",
   "parameters" :
   [
    {
     "referenced_type" : "_ZTIPKh"
    },
    {
     "referenced_type" : "_ZTIi"
    },
    {
     "referenced_type" : "_ZTIPKh"
    },
    {
     "referenced_type" : "_ZTIi"
    },
    {
     "referenced_type" : "_ZTIPh"
    },
    {
     "referenced_type" : "_ZTIi"
    }
   ],
   "return_type" : "_ZTIv",
   "source_file" : "external/libyuv/include/libyuv/row.h"
  },
  {
   "function_name" : "libyuv::DetileToYUY2_SSE2",
   "linker_set_key" : "DetileToYUY2_SSE2",
   "parameters" :
   [
    {
     "referenced_type" : "_ZTIPKh"
    },
    {
     "referenced_type" : "_ZTIi"
    },
    {
     "referenced_type" : "_ZTIPKh"
    },
    {
     "referenced_type" : "_ZTIi"
    },
    {
     "referenced_type" : "_ZTIPh"
    },
    {
     "referenced_type" : "_ZTIi"
    }
   ],
   "return_type" : "_ZTIv",
   "source_file" : "external/libyuv/include/libyuv/row.h"
  },
  {
   "function_name" : "libyuv::DivideRow_16_AVX2",
   "linker_set_key" : "DivideRow_16_AVX2",
   "parameters" :
   [
    {
     "referenced_type" : "_ZTIPKt"
    },
    {
     "referenced_type" : "_ZTIPt"
    },
    {
     "referenced_type" : "_ZTIi"
    },
    {
     "referenced_type" : "_ZTIi"
    }
   ],
   "return_type" : "_ZTIv",
   "source_file" : "external/libyuv/include/libyuv/row.h"
  },
  {
   "function_name" : "libyuv::DivideRow_16_Any_AVX2",
   "linker_set_key" : "DivideRow_16_Any_AVX2",
   "parameters" :
   [
    {
     "referenced_type" : "_ZTIPKt"
    },
    {
     "referenced_type" : "_ZTIPt"
    },
    {
     "referenced_type" : "_ZTIi"
    },
    {
     "referenced_type" : "_ZTIi"
    }
   ],
   "return_type" : "_ZTIv",
   "source_file" : "external/libyuv/include/libyuv/row.h"
  },
  {
   "function_name" : "libyuv::DivideRow_16_C",
   "linker_set_key" : "DivideRow_16_C",
   "parameters" :
   [
    {
     "referenced_type" : "_ZTIPKt"
    },
    {
     "referenced_type" : "_ZTIPt"
    },
    {
     "referenced_type" : "_ZTIi"
    },
    {
     "referenced_type" : "_ZTIi"
    }
   ],
   "return_type" : "_ZTIv",
   "source_file" : "external/libyuv/include/libyuv/row.h"
  },
  {
   "function_name" : "libyuv::FixedDiv1_C",
   "linker_set_key" : "FixedDiv1_C",
   "parameters" :
   [
    {
     "referenced_type" : "_ZTIi"
    },
    {
     "referenced_type" : "_ZTIi"
    }
   ],
   "return_type" : "_ZTIi",
   "source_file" : "external/libyuv/include/libyuv/scale_row.h"
  },
  {
   "function_name" : "libyuv::FixedDiv1_X86",
   "linker_set_key" : "FixedDiv1_X86",
   "parameters" :
   [
    {
     "referenced_type" : "_ZTIi"
    },
    {
     "referenced_type" : "_ZTIi"
    }
   ],
   "return_type" : "_ZTIi",
   "source_file" : "external/libyuv/include/libyuv/scale_row.h"
  },
  {
   "function_name" : "libyuv::FixedDiv_C",
   "linker_set_key" : "FixedDiv_C",
   "parameters" :
   [
    {
     "referenced_type" : "_ZTIi"
    },
    {
     "referenced_type" : "_ZTIi"
    }
   ],
   "return_type" : "_ZTIi",
   "source_file" : "external/libyuv/include/libyuv/scale_row.h"
  },
  {
   "function_name" : "libyuv::FixedDiv_X86",
   "linker_set_key" : "FixedDiv_X86",
   "parameters" :
   [
    {
     "referenced_type" : "_ZTIi"
    },
    {
     "referenced_type" : "_ZTIi"
    }
   ],
   "return_type" : "_ZTIi",
   "source_file" : "external/libyuv/include/libyuv/scale_row.h"
  },
  {
   "function_name" : "libyuv::GaussCol_C",
   "linker_set_key" : "GaussCol_C",
   "parameters" :
   [
    {
     "referenced_type" : "_ZTIPKt"
    },
    {
     "referenced_type" : "_ZTIPKt"
    },
    {
     "referenced_type" : "_ZTIPKt"
    },
    {
     "referenced_type" : "_ZTIPKt"
    },
    {
     "referenced_type" : "_ZTIPKt"
    },
    {
     "referenced_type" : "_ZTIPj"
    },
    {
     "referenced_type" : "_ZTIi"
    }
   ],
   "return_type" : "_ZTIv",
   "source_file" : "external/libyuv/include/libyuv/row.h"
  },
  {
   "function_name" : "libyuv::GaussCol_F32_C",
   "linker_set_key" : "GaussCol_F32_C",
   "parameters" :
   [
    {
     "referenced_type" : "_ZTIPKf"
    },
    {
     "referenced_type" : "_ZTIPKf"
    },
    {
     "referenced_type" : "_ZTIPKf"
    },
    {
     "referenced_type" : "_ZTIPKf"
    },
    {
     "referenced_type" : "_ZTIPKf"
    },
    {
     "referenced_type" : "_ZTIPf"
    },
    {
     "referenced_type" : "_ZTIi"
    }
   ],
   "return_type" : "_ZTIv",
   "source_file" : "external/libyuv/include/libyuv/row.h"
  },
  {
   "function_name" : "libyuv::GaussPlane_F32",
   "linker_set_key" : "GaussPlane_F32",
   "parameters" :
   [
    {
     "referenced_type" : "_ZTIPKf"
    },
    {
     "referenced_type" : "_ZTIi"
    },
    {
     "referenced_type" : "_ZTIPf"
    },
    {
     "referenced_type" : "_ZTIi"
    },
    {
     "referenced_type" : "_ZTIi"
    },
    {
     "referenced_type" : "_ZTIi"
    }
   ],
   "return_type" : "_ZTIi",
   "source_file" : "external/libyuv/include/libyuv/planar_functions.h"
  },
  {
   "function_name" : "libyuv::GaussRow_C",
   "linker_set_key" : "GaussRow_C",
   "parameters" :
   [
    {
     "referenced_type" : "_ZTIPKj"
    },
    {
     "referenced_type" : "_ZTIPt"
    },
    {
     "referenced_type" : "_ZTIi"
    }
   ],
   "return_type" : "_ZTIv",
   "source_file" : "external/libyuv/include/libyuv/row.h"
  },
  {
   "function_name" : "libyuv::GaussRow_F32_C",
   "linker_set_key" : "GaussRow_F32_C",
   "parameters" :
   [
    {
     "referenced_type" : "_ZTIPKf"
    },
    {
     "referenced_type" : "_ZTIPf"
    },
    {
     "referenced_type" : "_ZTIi"
    }
   ],
   "return_type" : "_ZTIv",
   "source_file" : "external/libyuv/include/libyuv/row.h"
  },
  {
   "function_name" : "libyuv::GetARGBBlend",
   "linker_set_key" : "GetARGBBlend",
   "return_type" : "_ZTIPFvPKhS0_PhiE",
   "source_file" : "external/libyuv/include/libyuv/planar_functions.h"
  },
  {
   "function_name" : "libyuv::H010ToAB30",
   "linker_set_key" : "H010ToAB30",
   "parameters" :
   [
    {
     "referenced_type" : "_ZTIPKt"
    },
    {
     "referenced_type" : "_ZTIi"
    },
    {
     "referenced_type" : "_ZTIPKt"
    },
    {
     "referenced_type" : "_ZTIi"
    },
    {
     "referenced_type" : "_ZTIPKt"
    },
    {
     "referenced_type" : "_ZTIi"
    },
    {
     "referenced_type" : "_ZTIPh"
    },
    {
     "referenced_type" : "_ZTIi"
    },
    {
     "referenced_type" : "_ZTIi"
    },
    {
     "referenced_type" : "_ZTIi"
    }
   ],
   "return_type" : "_ZTIi",
   "source_file" : "external/libyuv/include/libyuv/convert_argb.h"
  },
  {
   "function_name" : "libyuv::H010ToABGR",
   "linker_set_key" : "H010ToABGR",
   "parameters" :
   [
    {
     "referenced_type" : "_ZTIPKt"
    },
    {
     "referenced_type" : "_ZTIi"
    },
    {
     "referenced_type" : "_ZTIPKt"
    },
    {
     "referenced_type" : "_ZTIi"
    },
    {
     "referenced_type" : "_ZTIPKt"
    },
    {
     "referenced_type" : "_ZTIi"
    },
    {
     "referenced_type" : "_ZTIPh"
    },
    {
     "referenced_type" : "_ZTIi"
    },
    {
     "referenced_type" : "_ZTIi"
    },
    {
     "referenced_type" : "_ZTIi"
    }
   ],
   "return_type" : "_ZTIi",
   "source_file" : "external/libyuv/include/libyuv/convert_argb.h"
  },
  {
   "function_name" : "libyuv::H010ToAR30",
   "linker_set_key" : "H010ToAR30",
   "parameters" :
   [
    {
     "referenced_type" : "_ZTIPKt"
    },
    {
     "referenced_type" : "_ZTIi"
    },
    {
     "referenced_type" : "_ZTIPKt"
    },
    {
     "referenced_type" : "_ZTIi"
    },
    {
     "referenced_type" : "_ZTIPKt"
    },
    {
     "referenced_type" : "_ZTIi"
    },
    {
     "referenced_type" : "_ZTIPh"
    },
    {
     "referenced_type" : "_ZTIi"
    },
    {
     "referenced_type" : "_ZTIi"
    },
    {
     "referenced_type" : "_ZTIi"
    }
   ],
   "return_type" : "_ZTIi",
   "source_file" : "external/libyuv/include/libyuv/convert_argb.h"
  },
  {
   "function_name" : "libyuv::H010ToARGB",
   "linker_set_key" : "H010ToARGB",
   "parameters" :
   [
    {
     "referenced_type" : "_ZTIPKt"
    },
    {
     "referenced_type" : "_ZTIi"
    },
    {
     "referenced_type" : "_ZTIPKt"
    },
    {
     "referenced_type" : "_ZTIi"
    },
    {
     "referenced_type" : "_ZTIPKt"
    },
    {
     "referenced_type" : "_ZTIi"
    },
    {
     "referenced_type" : "_ZTIPh"
    },
    {
     "referenced_type" : "_ZTIi"
    },
    {
     "referenced_type" : "_ZTIi"
    },
    {
     "referenced_type" : "_ZTIi"
    }
   ],
   "return_type" : "_ZTIi",
   "source_file" : "external/libyuv/include/libyuv/convert_argb.h"
  },
  {
   "function_name" : "libyuv::H210ToAB30",
   "linker_set_key" : "H210ToAB30",
   "parameters" :
   [
    {
     "referenced_type" : "_ZTIPKt"
    },
    {
     "referenced_type" : "_ZTIi"
    },
    {
     "referenced_type" : "_ZTIPKt"
    },
    {
     "referenced_type" : "_ZTIi"
    },
    {
     "referenced_type" : "_ZTIPKt"
    },
    {
     "referenced_type" : "_ZTIi"
    },
    {
     "referenced_type" : "_ZTIPh"
    },
    {
     "referenced_type" : "_ZTIi"
    },
    {
     "referenced_type" : "_ZTIi"
    },
    {
     "referenced_type" : "_ZTIi"
    }
   ],
   "return_type" : "_ZTIi",
   "source_file" : "external/libyuv/include/libyuv/convert_argb.h"
  },
  {
   "function_name" : "libyuv::H210ToABGR",
   "linker_set_key" : "H210ToABGR",
   "parameters" :
   [
    {
     "referenced_type" : "_ZTIPKt"
    },
    {
     "referenced_type" : "_ZTIi"
    },
    {
     "referenced_type" : "_ZTIPKt"
    },
    {
     "referenced_type" : "_ZTIi"
    },
    {
     "referenced_type" : "_ZTIPKt"
    },
    {
     "referenced_type" : "_ZTIi"
    },
    {
     "referenced_type" : "_ZTIPh"
    },
    {
     "referenced_type" : "_ZTIi"
    },
    {
     "referenced_type" : "_ZTIi"
    },
    {
     "referenced_type" : "_ZTIi"
    }
   ],
   "return_type" : "_ZTIi",
   "source_file" : "external/libyuv/include/libyuv/convert_argb.h"
  },
  {
   "function_name" : "libyuv::H210ToAR30",
   "linker_set_key" : "H210ToAR30",
   "parameters" :
   [
    {
     "referenced_type" : "_ZTIPKt"
    },
    {
     "referenced_type" : "_ZTIi"
    },
    {
     "referenced_type" : "_ZTIPKt"
    },
    {
     "referenced_type" : "_ZTIi"
    },
    {
     "referenced_type" : "_ZTIPKt"
    },
    {
     "referenced_type" : "_ZTIi"
    },
    {
     "referenced_type" : "_ZTIPh"
    },
    {
     "referenced_type" : "_ZTIi"
    },
    {
     "referenced_type" : "_ZTIi"
    },
    {
     "referenced_type" : "_ZTIi"
    }
   ],
   "return_type" : "_ZTIi",
   "source_file" : "external/libyuv/include/libyuv/convert_argb.h"
  },
  {
   "function_name" : "libyuv::H210ToARGB",
   "linker_set_key" : "H210ToARGB",
   "parameters" :
   [
    {
     "referenced_type" : "_ZTIPKt"
    },
    {
     "referenced_type" : "_ZTIi"
    },
    {
     "referenced_type" : "_ZTIPKt"
    },
    {
     "referenced_type" : "_ZTIi"
    },
    {
     "referenced_type" : "_ZTIPKt"
    },
    {
     "referenced_type" : "_ZTIi"
    },
    {
     "referenced_type" : "_ZTIPh"
    },
    {
     "referenced_type" : "_ZTIi"
    },
    {
     "referenced_type" : "_ZTIi"
    },
    {
     "referenced_type" : "_ZTIi"
    }
   ],
   "return_type" : "_ZTIi",
   "source_file" : "external/libyuv/include/libyuv/convert_argb.h"
  },
  {
   "function_name" : "libyuv::H420ToAB30",
   "linker_set_key" : "H420ToAB30",
   "parameters" :
   [
    {
     "referenced_type" : "_ZTIPKh"
    },
    {
     "referenced_type" : "_ZTIi"
    },
    {
     "referenced_type" : "_ZTIPKh"
    },
    {
     "referenced_type" : "_ZTIi"
    },
    {
     "referenced_type" : "_ZTIPKh"
    },
    {
     "referenced_type" : "_ZTIi"
    },
    {
     "referenced_type" : "_ZTIPh"
    },
    {
     "referenced_type" : "_ZTIi"
    },
    {
     "referenced_type" : "_ZTIi"
    },
    {
     "referenced_type" : "_ZTIi"
    }
   ],
   "return_type" : "_ZTIi",
   "source_file" : "external/libyuv/include/libyuv/convert_argb.h"
  },
  {
   "function_name" : "libyuv::H420ToABGR",
   "linker_set_key" : "H420ToABGR",
   "parameters" :
   [
    {
     "referenced_type" : "_ZTIPKh"
    },
    {
     "referenced_type" : "_ZTIi"
    },
    {
     "referenced_type" : "_ZTIPKh"
    },
    {
     "referenced_type" : "_ZTIi"
    },
    {
     "referenced_type" : "_ZTIPKh"
    },
    {
     "referenced_type" : "_ZTIi"
    },
    {
     "referenced_type" : "_ZTIPh"
    },
    {
     "referenced_type" : "_ZTIi"
    },
    {
     "referenced_type" : "_ZTIi"
    },
    {
     "referenced_type" : "_ZTIi"
    }
   ],
   "return_type" : "_ZTIi",
   "source_file" : "external/libyuv/include/libyuv/convert_argb.h"
  },
  {
   "function_name" : "libyuv::H420ToAR30",
   "linker_set_key" : "H420ToAR30",
   "parameters" :
   [
    {
     "referenced_type" : "_ZTIPKh"
    },
    {
     "referenced_type" : "_ZTIi"
    },
    {
     "referenced_type" : "_ZTIPKh"
    },
    {
     "referenced_type" : "_ZTIi"
    },
    {
     "referenced_type" : "_ZTIPKh"
    },
    {
     "referenced_type" : "_ZTIi"
    },
    {
     "referenced_type" : "_ZTIPh"
    },
    {
     "referenced_type" : "_ZTIi"
    },
    {
     "referenced_type" : "_ZTIi"
    },
    {
     "referenced_type" : "_ZTIi"
    }
   ],
   "return_type" : "_ZTIi",
   "source_file" : "external/libyuv/include/libyuv/convert_argb.h"
  },
  {
   "function_name" : "libyuv::H420ToARGB",
   "linker_set_key" : "H420ToARGB",
   "parameters" :
   [
    {
     "referenced_type" : "_ZTIPKh"
    },
    {
     "referenced_type" : "_ZTIi"
    },
    {
     "referenced_type" : "_ZTIPKh"
    },
    {
     "referenced_type" : "_ZTIi"
    },
    {
     "referenced_type" : "_ZTIPKh"
    },
    {
     "referenced_type" : "_ZTIi"
    },
    {
     "referenced_type" : "_ZTIPh"
    },
    {
     "referenced_type" : "_ZTIi"
    },
    {
     "referenced_type" : "_ZTIi"
    },
    {
     "referenced_type" : "_ZTIi"
    }
   ],
   "return_type" : "_ZTIi",
   "source_file" : "external/libyuv/include/libyuv/convert_argb.h"
  },
  {
   "function_name" : "libyuv::H420ToRAW",
   "linker_set_key" : "H420ToRAW",
   "parameters" :
   [
    {
     "referenced_type" : "_ZTIPKh"
    },
    {
     "referenced_type" : "_ZTIi"
    },
    {
     "referenced_type" : "_ZTIPKh"
    },
    {
     "referenced_type" : "_ZTIi"
    },
    {
     "referenced_type" : "_ZTIPKh"
    },
    {
     "referenced_type" : "_ZTIi"
    },
    {
     "referenced_type" : "_ZTIPh"
    },
    {
     "referenced_type" : "_ZTIi"
    },
    {
     "referenced_type" : "_ZTIi"
    },
    {
     "referenced_type" : "_ZTIi"
    }
   ],
   "return_type" : "_ZTIi",
   "source_file" : "external/libyuv/include/libyuv/convert_argb.h"
  },
  {
   "function_name" : "libyuv::H420ToRGB24",
   "linker_set_key" : "H420ToRGB24",
   "parameters" :
   [
    {
     "referenced_type" : "_ZTIPKh"
    },
    {
     "referenced_type" : "_ZTIi"
    },
    {
     "referenced_type" : "_ZTIPKh"
    },
    {
     "referenced_type" : "_ZTIi"
    },
    {
     "referenced_type" : "_ZTIPKh"
    },
    {
     "referenced_type" : "_ZTIi"
    },
    {
     "referenced_type" : "_ZTIPh"
    },
    {
     "referenced_type" : "_ZTIi"
    },
    {
     "referenced_type" : "_ZTIi"
    },
    {
     "referenced_type" : "_ZTIi"
    }
   ],
   "return_type" : "_ZTIi",
   "source_file" : "external/libyuv/include/libyuv/convert_argb.h"
  },
  {
   "function_name" : "libyuv::H420ToRGB565",
   "linker_set_key" : "H420ToRGB565",
   "parameters" :
   [
    {
     "referenced_type" : "_ZTIPKh"
    },
    {
     "referenced_type" : "_ZTIi"
    },
    {
     "referenced_type" : "_ZTIPKh"
    },
    {
     "referenced_type" : "_ZTIi"
    },
    {
     "referenced_type" : "_ZTIPKh"
    },
    {
     "referenced_type" : "_ZTIi"
    },
    {
     "referenced_type" : "_ZTIPh"
    },
    {
     "referenced_type" : "_ZTIi"
    },
    {
     "referenced_type" : "_ZTIi"
    },
    {
     "referenced_type" : "_ZTIi"
    }
   ],
   "return_type" : "_ZTIi",
   "source_file" : "external/libyuv/include/libyuv/convert_argb.h"
  },
  {
   "function_name" : "libyuv::H422ToABGR",
   "linker_set_key" : "H422ToABGR",
   "parameters" :
   [
    {
     "referenced_type" : "_ZTIPKh"
    },
    {
     "referenced_type" : "_ZTIi"
    },
    {
     "referenced_type" : "_ZTIPKh"
    },
    {
     "referenced_type" : "_ZTIi"
    },
    {
     "referenced_type" : "_ZTIPKh"
    },
    {
     "referenced_type" : "_ZTIi"
    },
    {
     "referenced_type" : "_ZTIPh"
    },
    {
     "referenced_type" : "_ZTIi"
    },
    {
     "referenced_type" : "_ZTIi"
    },
    {
     "referenced_type" : "_ZTIi"
    }
   ],
   "return_type" : "_ZTIi",
   "source_file" : "external/libyuv/include/libyuv/convert_argb.h"
  },
  {
   "function_name" : "libyuv::H422ToARGB",
   "linker_set_key" : "H422ToARGB",
   "parameters" :
   [
    {
     "referenced_type" : "_ZTIPKh"
    },
    {
     "referenced_type" : "_ZTIi"
    },
    {
     "referenced_type" : "_ZTIPKh"
    },
    {
     "referenced_type" : "_ZTIi"
    },
    {
     "referenced_type" : "_ZTIPKh"
    },
    {
     "referenced_type" : "_ZTIi"
    },
    {
     "referenced_type" : "_ZTIPh"
    },
    {
     "referenced_type" : "_ZTIi"
    },
    {
     "referenced_type" : "_ZTIi"
    },
    {
     "referenced_type" : "_ZTIi"
    }
   ],
   "return_type" : "_ZTIi",
   "source_file" : "external/libyuv/include/libyuv/convert_argb.h"
  },
  {
   "function_name" : "libyuv::H444ToABGR",
   "linker_set_key" : "H444ToABGR",
   "parameters" :
   [
    {
     "referenced_type" : "_ZTIPKh"
    },
    {
     "referenced_type" : "_ZTIi"
    },
    {
     "referenced_type" : "_ZTIPKh"
    },
    {
     "referenced_type" : "_ZTIi"
    },
    {
     "referenced_type" : "_ZTIPKh"
    },
    {
     "referenced_type" : "_ZTIi"
    },
    {
     "referenced_type" : "_ZTIPh"
    },
    {
     "referenced_type" : "_ZTIi"
    },
    {
     "referenced_type" : "_ZTIi"
    },
    {
     "referenced_type" : "_ZTIi"
    }
   ],
   "return_type" : "_ZTIi",
   "source_file" : "external/libyuv/include/libyuv/convert_argb.h"
  },
  {
   "function_name" : "libyuv::H444ToARGB",
   "linker_set_key" : "H444ToARGB",
   "parameters" :
   [
    {
     "referenced_type" : "_ZTIPKh"
    },
    {
     "referenced_type" : "_ZTIi"
    },
    {
     "referenced_type" : "_ZTIPKh"
    },
    {
     "referenced_type" : "_ZTIi"
    },
    {
     "referenced_type" : "_ZTIPKh"
    },
    {
     "referenced_type" : "_ZTIi"
    },
    {
     "referenced_type" : "_ZTIPh"
    },
    {
     "referenced_type" : "_ZTIi"
    },
    {
     "referenced_type" : "_ZTIi"
    },
    {
     "referenced_type" : "_ZTIi"
    }
   ],
   "return_type" : "_ZTIi",
   "source_file" : "external/libyuv/include/libyuv/convert_argb.h"
  },
  {
   "function_name" : "libyuv::HalfFloatPlane",
   "linker_set_key" : "HalfFloatPlane",
   "parameters" :
   [
    {
     "referenced_type" : "_ZTIPKt"
    },
    {
     "referenced_type" : "_ZTIi"
    },
    {
     "referenced_type" : "_ZTIPt"
    },
    {
     "referenced_type" : "_ZTIi"
    },
    {
     "referenced_type" : "_ZTIf"
    },
    {
     "referenced_type" : "_ZTIi"
    },
    {
     "referenced_type" : "_ZTIi"
    }
   ],
   "return_type" : "_ZTIi",
   "source_file" : "external/libyuv/include/libyuv/planar_functions.h"
  },
  {
   "function_name" : "libyuv::HalfFloatRow_AVX2",
   "linker_set_key" : "HalfFloatRow_AVX2",
   "parameters" :
   [
    {
     "referenced_type" : "_ZTIPKt"
    },
    {
     "referenced_type" : "_ZTIPt"
    },
    {
     "referenced_type" : "_ZTIf"
    },
    {
     "referenced_type" : "_ZTIi"
    }
   ],
   "return_type" : "_ZTIv",
   "source_file" : "external/libyuv/include/libyuv/row.h"
  },
  {
   "function_name" : "libyuv::HalfFloatRow_Any_AVX2",
   "linker_set_key" : "HalfFloatRow_Any_AVX2",
   "parameters" :
   [
    {
     "referenced_type" : "_ZTIPKt"
    },
    {
     "referenced_type" : "_ZTIPt"
    },
    {
     "referenced_type" : "_ZTIf"
    },
    {
     "referenced_type" : "_ZTIi"
    }
   ],
   "return_type" : "_ZTIv",
   "source_file" : "external/libyuv/include/libyuv/row.h"
  },
  {
   "function_name" : "libyuv::HalfFloatRow_Any_SSE2",
   "linker_set_key" : "HalfFloatRow_Any_SSE2",
   "parameters" :
   [
    {
     "referenced_type" : "_ZTIPKt"
    },
    {
     "referenced_type" : "_ZTIPt"
    },
    {
     "referenced_type" : "_ZTIf"
    },
    {
     "referenced_type" : "_ZTIi"
    }
   ],
   "return_type" : "_ZTIv",
   "source_file" : "external/libyuv/include/libyuv/row.h"
  },
  {
   "function_name" : "libyuv::HalfFloatRow_C",
   "linker_set_key" : "HalfFloatRow_C",
   "parameters" :
   [
    {
     "referenced_type" : "_ZTIPKt"
    },
    {
     "referenced_type" : "_ZTIPt"
    },
    {
     "referenced_type" : "_ZTIf"
    },
    {
     "referenced_type" : "_ZTIi"
    }
   ],
   "return_type" : "_ZTIv",
   "source_file" : "external/libyuv/include/libyuv/row.h"
  },
  {
   "function_name" : "libyuv::HalfFloatRow_SSE2",
   "linker_set_key" : "HalfFloatRow_SSE2",
   "parameters" :
   [
    {
     "referenced_type" : "_ZTIPKt"
    },
    {
     "referenced_type" : "_ZTIPt"
    },
    {
     "referenced_type" : "_ZTIf"
    },
    {
     "referenced_type" : "_ZTIi"
    }
   ],
   "return_type" : "_ZTIv",
   "source_file" : "external/libyuv/include/libyuv/row.h"
  },
  {
   "function_name" : "libyuv::HalfMergeUVPlane",
   "linker_set_key" : "HalfMergeUVPlane",
   "parameters" :
   [
    {
     "referenced_type" : "_ZTIPKh"
    },
    {
     "referenced_type" : "_ZTIi"
    },
    {
     "referenced_type" : "_ZTIPKh"
    },
    {
     "referenced_type" : "_ZTIi"
    },
    {
     "referenced_type" : "_ZTIPh"
    },
    {
     "referenced_type" : "_ZTIi"
    },
    {
     "referenced_type" : "_ZTIi"
    },
    {
     "referenced_type" : "_ZTIi"
    }
   ],
   "return_type" : "_ZTIv",
   "source_file" : "external/libyuv/include/libyuv/planar_functions.h"
  },
  {
   "function_name" : "libyuv::HalfMergeUVRow_AVX2",
   "linker_set_key" : "HalfMergeUVRow_AVX2",
   "parameters" :
   [
    {
     "referenced_type" : "_ZTIPKh"
    },
    {
     "referenced_type" : "_ZTIi"
    },
    {
     "referenced_type" : "_ZTIPKh"
    },
    {
     "referenced_type" : "_ZTIi"
    },
    {
     "referenced_type" : "_ZTIPh"
    },
    {
     "referenced_type" : "_ZTIi"
    }
   ],
   "return_type" : "_ZTIv",
   "source_file" : "external/libyuv/include/libyuv/row.h"
  },
  {
   "function_name" : "libyuv::HalfMergeUVRow_C",
   "linker_set_key" : "HalfMergeUVRow_C",
   "parameters" :
   [
    {
     "referenced_type" : "_ZTIPKh"
    },
    {
     "referenced_type" : "_ZTIi"
    },
    {
     "referenced_type" : "_ZTIPKh"
    },
    {
     "referenced_type" : "_ZTIi"
    },
    {
     "referenced_type" : "_ZTIPh"
    },
    {
     "referenced_type" : "_ZTIi"
    }
   ],
   "return_type" : "_ZTIv",
   "source_file" : "external/libyuv/include/libyuv/row.h"
  },
  {
   "function_name" : "libyuv::HalfMergeUVRow_SSSE3",
   "linker_set_key" : "HalfMergeUVRow_SSSE3",
   "parameters" :
   [
    {
     "referenced_type" : "_ZTIPKh"
    },
    {
     "referenced_type" : "_ZTIi"
    },
    {
     "referenced_type" : "_ZTIPKh"
    },
    {
     "referenced_type" : "_ZTIi"
    },
    {
     "referenced_type" : "_ZTIPh"
    },
    {
     "referenced_type" : "_ZTIi"
    }
   ],
   "return_type" : "_ZTIv",
   "source_file" : "external/libyuv/include/libyuv/row.h"
  },
  {
   "function_name" : "libyuv::HammingDistance_AVX2",
   "linker_set_key" : "HammingDistance_AVX2",
   "parameters" :
   [
    {
     "referenced_type" : "_ZTIPKh"
    },
    {
     "referenced_type" : "_ZTIPKh"
    },
    {
     "referenced_type" : "_ZTIi"
    }
   ],
   "return_type" : "_ZTIj",
   "source_file" : "external/libyuv/include/libyuv/compare_row.h"
  },
  {
   "function_name" : "libyuv::HammingDistance_C",
   "linker_set_key" : "HammingDistance_C",
   "parameters" :
   [
    {
     "referenced_type" : "_ZTIPKh"
    },
    {
     "referenced_type" : "_ZTIPKh"
    },
    {
     "referenced_type" : "_ZTIi"
    }
   ],
   "return_type" : "_ZTIj",
   "source_file" : "external/libyuv/include/libyuv/compare_row.h"
  },
  {
   "function_name" : "libyuv::HammingDistance_SSE42",
   "linker_set_key" : "HammingDistance_SSE42",
   "parameters" :
   [
    {
     "referenced_type" : "_ZTIPKh"
    },
    {
     "referenced_type" : "_ZTIPKh"
    },
    {
     "referenced_type" : "_ZTIi"
    }
   ],
   "return_type" : "_ZTIj",
   "source_file" : "external/libyuv/include/libyuv/compare_row.h"
  },
  {
   "function_name" : "libyuv::HammingDistance_SSSE3",
   "linker_set_key" : "HammingDistance_SSSE3",
   "parameters" :
   [
    {
     "referenced_type" : "_ZTIPKh"
    },
    {
     "referenced_type" : "_ZTIPKh"
    },
    {
     "referenced_type" : "_ZTIi"
    }
   ],
   "return_type" : "_ZTIj",
   "source_file" : "external/libyuv/include/libyuv/compare_row.h"
  },
  {
   "function_name" : "libyuv::HashDjb2",
   "linker_set_key" : "HashDjb2",
   "parameters" :
   [
    {
     "referenced_type" : "_ZTIPKh"
    },
    {
     "referenced_type" : "_ZTIy"
    },
    {
     "referenced_type" : "_ZTIj"
    }
   ],
   "return_type" : "_ZTIj",
   "source_file" : "external/libyuv/include/libyuv/compare.h"
  },
  {
   "function_name" : "libyuv::HashDjb2_C",
   "linker_set_key" : "HashDjb2_C",
   "parameters" :
   [
    {
     "referenced_type" : "_ZTIPKh"
    },
    {
     "referenced_type" : "_ZTIi"
    },
    {
     "referenced_type" : "_ZTIj"
    }
   ],
   "return_type" : "_ZTIj",
   "source_file" : "external/libyuv/include/libyuv/compare_row.h"
  },
  {
   "function_name" : "libyuv::HashDjb2_SSE41",
   "linker_set_key" : "HashDjb2_SSE41",
   "parameters" :
   [
    {
     "referenced_type" : "_ZTIPKh"
    },
    {
     "referenced_type" : "_ZTIi"
    },
    {
     "referenced_type" : "_ZTIj"
    }
   ],
   "return_type" : "_ZTIj",
   "source_file" : "external/libyuv/include/libyuv/compare_row.h"
  },
  {
   "function_name" : "libyuv::I010AlphaToARGBMatrix",
   "linker_set_key" : "I010AlphaToARGBMatrix",
   "parameters" :
   [
    {
     "referenced_type" : "_ZTIPKt"
    },
    {
     "referenced_type" : "_ZTIi"
    },
    {
     "referenced_type" : "_ZTIPKt"
    },
    {
     "referenced_type" : "_ZTIi"
    },
    {
     "referenced_type" : "_ZTIPKt"
    },
    {
     "referenced_type" : "_ZTIi"
    },
    {
     "referenced_type" : "_ZTIPKt"
    },
    {
     "referenced_type" : "_ZTIi"
    },
    {
     "referenced_type" : "_ZTIPh"
    },
    {
     "referenced_type" : "_ZTIi"
    },
    {
     "referenced_type" : "_ZTIPKN6libyuv12YuvConstantsE"
    },
    {
     "referenced_type" : "_ZTIi"
    },
    {
     "referenced_type" : "_ZTIi"
    },
    {
     "referenced_type" : "_ZTIi"
    }
   ],
   "return_type" : "_ZTIi",
   "source_file" : "external/libyuv/include/libyuv/convert_argb.h"
  },
  {
   "function_name" : "libyuv::I010AlphaToARGBMatrixFilter",
   "linker_set_key" : "I010AlphaToARGBMatrixFilter",
   "parameters" :
   [
    {
     "referenced_type" : "_ZTIPKt"
    },
    {
     "referenced_type" : "_ZTIi"
    },
    {
     "referenced_type" : "_ZTIPKt"
    },
    {
     "referenced_type" : "_ZTIi"
    },
    {
     "referenced_type" : "_ZTIPKt"
    },
    {
     "referenced_type" : "_ZTIi"
    },
    {
     "referenced_type" : "_ZTIPKt"
    },
    {
     "referenced_type" : "_ZTIi"
    },
    {
     "referenced_type" : "_ZTIPh"
    },
    {
     "referenced_type" : "_ZTIi"
    },
    {
     "referenced_type" : "_ZTIPKN6libyuv12YuvConstantsE"
    },
    {
     "referenced_type" : "_ZTIi"
    },
    {
     "referenced_type" : "_ZTIi"
    },
    {
     "referenced_type" : "_ZTIi"
    },
    {
     "referenced_type" : "_ZTIN6libyuv10FilterModeE"
    }
   ],
   "return_type" : "_ZTIi",
   "source_file" : "external/libyuv/include/libyuv/convert_argb.h"
  },
  {
   "function_name" : "libyuv::I010Copy",
   "linker_set_key" : "I010Copy",
   "parameters" :
   [
    {
     "referenced_type" : "_ZTIPKt"
    },
    {
     "referenced_type" : "_ZTIi"
    },
    {
     "referenced_type" : "_ZTIPKt"
    },
    {
     "referenced_type" : "_ZTIi"
    },
    {
     "referenced_type" : "_ZTIPKt"
    },
    {
     "referenced_type" : "_ZTIi"
    },
    {
     "referenced_type" : "_ZTIPt"
    },
    {
     "referenced_type" : "_ZTIi"
    },
    {
     "referenced_type" : "_ZTIPt"
    },
    {
     "referenced_type" : "_ZTIi"
    },
    {
     "referenced_type" : "_ZTIPt"
    },
    {
     "referenced_type" : "_ZTIi"
    },
    {
     "referenced_type" : "_ZTIi"
    },
    {
     "referenced_type" : "_ZTIi"
    }
   ],
   "return_type" : "_ZTIi",
   "source_file" : "external/libyuv/include/libyuv/convert.h"
  },
  {
   "function_name" : "libyuv::I010Rotate",
   "linker_set_key" : "I010Rotate",
   "parameters" :
   [
    {
     "referenced_type" : "_ZTIPKt"
    },
    {
     "referenced_type" : "_ZTIi"
    },
    {
     "referenced_type" : "_ZTIPKt"
    },
    {
     "referenced_type" : "_ZTIi"
    },
    {
     "referenced_type" : "_ZTIPKt"
    },
    {
     "referenced_type" : "_ZTIi"
    },
    {
     "referenced_type" : "_ZTIPt"
    },
    {
     "referenced_type" : "_ZTIi"
    },
    {
     "referenced_type" : "_ZTIPt"
    },
    {
     "referenced_type" : "_ZTIi"
    },
    {
     "referenced_type" : "_ZTIPt"
    },
    {
     "referenced_type" : "_ZTIi"
    },
    {
     "referenced_type" : "_ZTIi"
    },
    {
     "referenced_type" : "_ZTIi"
    },
    {
     "referenced_type" : "_ZTIN6libyuv12RotationModeE"
    }
   ],
   "return_type" : "_ZTIi",
   "source_file" : "external/libyuv/include/libyuv/rotate.h"
  },
  {
   "function_name" : "libyuv::I010ToAB30",
   "linker_set_key" : "I010ToAB30",
   "parameters" :
   [
    {
     "referenced_type" : "_ZTIPKt"
    },
    {
     "referenced_type" : "_ZTIi"
    },
    {
     "referenced_type" : "_ZTIPKt"
    },
    {
     "referenced_type" : "_ZTIi"
    },
    {
     "referenced_type" : "_ZTIPKt"
    },
    {
     "referenced_type" : "_ZTIi"
    },
    {
     "referenced_type" : "_ZTIPh"
    },
    {
     "referenced_type" : "_ZTIi"
    },
    {
     "referenced_type" : "_ZTIi"
    },
    {
     "referenced_type" : "_ZTIi"
    }
   ],
   "return_type" : "_ZTIi",
   "source_file" : "external/libyuv/include/libyuv/convert_argb.h"
  },
  {
   "function_name" : "libyuv::I010ToABGR",
   "linker_set_key" : "I010ToABGR",
   "parameters" :
   [
    {
     "referenced_type" : "_ZTIPKt"
    },
    {
     "referenced_type" : "_ZTIi"
    },
    {
     "referenced_type" : "_ZTIPKt"
    },
    {
     "referenced_type" : "_ZTIi"
    },
    {
     "referenced_type" : "_ZTIPKt"
    },
    {
     "referenced_type" : "_ZTIi"
    },
    {
     "referenced_type" : "_ZTIPh"
    },
    {
     "referenced_type" : "_ZTIi"
    },
    {
     "referenced_type" : "_ZTIi"
    },
    {
     "referenced_type" : "_ZTIi"
    }
   ],
   "return_type" : "_ZTIi",
   "source_file" : "external/libyuv/include/libyuv/convert_argb.h"
  },
  {
   "function_name" : "libyuv::I010ToAR30",
   "linker_set_key" : "I010ToAR30",
   "parameters" :
   [
    {
     "referenced_type" : "_ZTIPKt"
    },
    {
     "referenced_type" : "_ZTIi"
    },
    {
     "referenced_type" : "_ZTIPKt"
    },
    {
     "referenced_type" : "_ZTIi"
    },
    {
     "referenced_type" : "_ZTIPKt"
    },
    {
     "referenced_type" : "_ZTIi"
    },
    {
     "referenced_type" : "_ZTIPh"
    },
    {
     "referenced_type" : "_ZTIi"
    },
    {
     "referenced_type" : "_ZTIi"
    },
    {
     "referenced_type" : "_ZTIi"
    }
   ],
   "return_type" : "_ZTIi",
   "source_file" : "external/libyuv/include/libyuv/convert_argb.h"
  },
  {
   "function_name" : "libyuv::I010ToAR30Matrix",
   "linker_set_key" : "I010ToAR30Matrix",
   "parameters" :
   [
    {
     "referenced_type" : "_ZTIPKt"
    },
    {
     "referenced_type" : "_ZTIi"
    },
    {
     "referenced_type" : "_ZTIPKt"
    },
    {
     "referenced_type" : "_ZTIi"
    },
    {
     "referenced_type" : "_ZTIPKt"
    },
    {
     "referenced_type" : "_ZTIi"
    },
    {
     "referenced_type" : "_ZTIPh"
    },
    {
     "referenced_type" : "_ZTIi"
    },
    {
     "referenced_type" : "_ZTIPKN6libyuv12YuvConstantsE"
    },
    {
     "referenced_type" : "_ZTIi"
    },
    {
     "referenced_type" : "_ZTIi"
    }
   ],
   "return_type" : "_ZTIi",
   "source_file" : "external/libyuv/include/libyuv/convert_argb.h"
  },
  {
   "function_name" : "libyuv::I010ToAR30MatrixFilter",
   "linker_set_key" : "I010ToAR30MatrixFilter",
   "parameters" :
   [
    {
     "referenced_type" : "_ZTIPKt"
    },
    {
     "referenced_type" : "_ZTIi"
    },
    {
     "referenced_type" : "_ZTIPKt"
    },
    {
     "referenced_type" : "_ZTIi"
    },
    {
     "referenced_type" : "_ZTIPKt"
    },
    {
     "referenced_type" : "_ZTIi"
    },
    {
     "referenced_type" : "_ZTIPh"
    },
    {
     "referenced_type" : "_ZTIi"
    },
    {
     "referenced_type" : "_ZTIPKN6libyuv12YuvConstantsE"
    },
    {
     "referenced_type" : "_ZTIi"
    },
    {
     "referenced_type" : "_ZTIi"
    },
    {
     "referenced_type" : "_ZTIN6libyuv10FilterModeE"
    }
   ],
   "return_type" : "_ZTIi",
   "source_file" : "external/libyuv/include/libyuv/convert_argb.h"
  },
  {
   "function_name" : "libyuv::I010ToARGB",
   "linker_set_key" : "I010ToARGB",
   "parameters" :
   [
    {
     "referenced_type" : "_ZTIPKt"
    },
    {
     "referenced_type" : "_ZTIi"
    },
    {
     "referenced_type" : "_ZTIPKt"
    },
    {
     "referenced_type" : "_ZTIi"
    },
    {
     "referenced_type" : "_ZTIPKt"
    },
    {
     "referenced_type" : "_ZTIi"
    },
    {
     "referenced_type" : "_ZTIPh"
    },
    {
     "referenced_type" : "_ZTIi"
    },
    {
     "referenced_type" : "_ZTIi"
    },
    {
     "referenced_type" : "_ZTIi"
    }
   ],
   "return_type" : "_ZTIi",
   "source_file" : "external/libyuv/include/libyuv/convert_argb.h"
  },
  {
   "function_name" : "libyuv::I010ToARGBMatrix",
   "linker_set_key" : "I010ToARGBMatrix",
   "parameters" :
   [
    {
     "referenced_type" : "_ZTIPKt"
    },
    {
     "referenced_type" : "_ZTIi"
    },
    {
     "referenced_type" : "_ZTIPKt"
    },
    {
     "referenced_type" : "_ZTIi"
    },
    {
     "referenced_type" : "_ZTIPKt"
    },
    {
     "referenced_type" : "_ZTIi"
    },
    {
     "referenced_type" : "_ZTIPh"
    },
    {
     "referenced_type" : "_ZTIi"
    },
    {
     "referenced_type" : "_ZTIPKN6libyuv12YuvConstantsE"
    },
    {
     "referenced_type" : "_ZTIi"
    },
    {
     "referenced_type" : "_ZTIi"
    }
   ],
   "return_type" : "_ZTIi",
   "source_file" : "external/libyuv/include/libyuv/convert_argb.h"
  },
  {
   "function_name" : "libyuv::I010ToARGBMatrixFilter",
   "linker_set_key" : "I010ToARGBMatrixFilter",
   "parameters" :
   [
    {
     "referenced_type" : "_ZTIPKt"
    },
    {
     "referenced_type" : "_ZTIi"
    },
    {
     "referenced_type" : "_ZTIPKt"
    },
    {
     "referenced_type" : "_ZTIi"
    },
    {
     "referenced_type" : "_ZTIPKt"
    },
    {
     "referenced_type" : "_ZTIi"
    },
    {
     "referenced_type" : "_ZTIPh"
    },
    {
     "referenced_type" : "_ZTIi"
    },
    {
     "referenced_type" : "_ZTIPKN6libyuv12YuvConstantsE"
    },
    {
     "referenced_type" : "_ZTIi"
    },
    {
     "referenced_type" : "_ZTIi"
    },
    {
     "referenced_type" : "_ZTIN6libyuv10FilterModeE"
    }
   ],
   "return_type" : "_ZTIi",
   "source_file" : "external/libyuv/include/libyuv/convert_argb.h"
  },
  {
   "function_name" : "libyuv::I010ToI410",
   "linker_set_key" : "I010ToI410",
   "parameters" :
   [
    {
     "referenced_type" : "_ZTIPKt"
    },
    {
     "referenced_type" : "_ZTIi"
    },
    {
     "referenced_type" : "_ZTIPKt"
    },
    {
     "referenced_type" : "_ZTIi"
    },
    {
     "referenced_type" : "_ZTIPKt"
    },
    {
     "referenced_type" : "_ZTIi"
    },
    {
     "referenced_type" : "_ZTIPt"
    },
    {
     "referenced_type" : "_ZTIi"
    },
    {
     "referenced_type" : "_ZTIPt"
    },
    {
     "referenced_type" : "_ZTIi"
    },
    {
     "referenced_type" : "_ZTIPt"
    },
    {
     "referenced_type" : "_ZTIi"
    },
    {
     "referenced_type" : "_ZTIi"
    },
    {
     "referenced_type" : "_ZTIi"
    }
   ],
   "return_type" : "_ZTIi",
   "source_file" : "external/libyuv/include/libyuv/convert.h"
  },
  {
   "function_name" : "libyuv::I010ToI420",
   "linker_set_key" : "I010ToI420",
   "parameters" :
   [
    {
     "referenced_type" : "_ZTIPKt"
    },
    {
     "referenced_type" : "_ZTIi"
    },
    {
     "referenced_type" : "_ZTIPKt"
    },
    {
     "referenced_type" : "_ZTIi"
    },
    {
     "referenced_type" : "_ZTIPKt"
    },
    {
     "referenced_type" : "_ZTIi"
    },
    {
     "referenced_type" : "_ZTIPh"
    },
    {
     "referenced_type" : "_ZTIi"
    },
    {
     "referenced_type" : "_ZTIPh"
    },
    {
     "referenced_type" : "_ZTIi"
    },
    {
     "referenced_type" : "_ZTIPh"
    },
    {
     "referenced_type" : "_ZTIi"
    },
    {
     "referenced_type" : "_ZTIi"
    },
    {
     "referenced_type" : "_ZTIi"
    }
   ],
   "return_type" : "_ZTIi",
   "source_file" : "external/libyuv/include/libyuv/convert.h"
  },
  {
   "function_name" : "libyuv::I010ToP010",
   "linker_set_key" : "I010ToP010",
   "parameters" :
   [
    {
     "referenced_type" : "_ZTIPKt"
    },
    {
     "referenced_type" : "_ZTIi"
    },
    {
     "referenced_type" : "_ZTIPKt"
    },
    {
     "referenced_type" : "_ZTIi"
    },
    {
     "referenced_type" : "_ZTIPKt"
    },
    {
     "referenced_type" : "_ZTIi"
    },
    {
     "referenced_type" : "_ZTIPt"
    },
    {
     "referenced_type" : "_ZTIi"
    },
    {
     "referenced_type" : "_ZTIPt"
    },
    {
     "referenced_type" : "_ZTIi"
    },
    {
     "referenced_type" : "_ZTIi"
    },
    {
     "referenced_type" : "_ZTIi"
    }
   ],
   "return_type" : "_ZTIi",
   "source_file" : "external/libyuv/include/libyuv/convert.h"
  },
  {
   "function_name" : "libyuv::I012ToAR30Matrix",
   "linker_set_key" : "I012ToAR30Matrix",
   "parameters" :
   [
    {
     "referenced_type" : "_ZTIPKt"
    },
    {
     "referenced_type" : "_ZTIi"
    },
    {
     "referenced_type" : "_ZTIPKt"
    },
    {
     "referenced_type" : "_ZTIi"
    },
    {
     "referenced_type" : "_ZTIPKt"
    },
    {
     "referenced_type" : "_ZTIi"
    },
    {
     "referenced_type" : "_ZTIPh"
    },
    {
     "referenced_type" : "_ZTIi"
    },
    {
     "referenced_type" : "_ZTIPKN6libyuv12YuvConstantsE"
    },
    {
     "referenced_type" : "_ZTIi"
    },
    {
     "referenced_type" : "_ZTIi"
    }
   ],
   "return_type" : "_ZTIi",
   "source_file" : "external/libyuv/include/libyuv/convert_argb.h"
  },
  {
   "function_name" : "libyuv::I012ToARGBMatrix",
   "linker_set_key" : "I012ToARGBMatrix",
   "parameters" :
   [
    {
     "referenced_type" : "_ZTIPKt"
    },
    {
     "referenced_type" : "_ZTIi"
    },
    {
     "referenced_type" : "_ZTIPKt"
    },
    {
     "referenced_type" : "_ZTIi"
    },
    {
     "referenced_type" : "_ZTIPKt"
    },
    {
     "referenced_type" : "_ZTIi"
    },
    {
     "referenced_type" : "_ZTIPh"
    },
    {
     "referenced_type" : "_ZTIi"
    },
    {
     "referenced_type" : "_ZTIPKN6libyuv12YuvConstantsE"
    },
    {
     "referenced_type" : "_ZTIi"
    },
    {
     "referenced_type" : "_ZTIi"
    }
   ],
   "return_type" : "_ZTIi",
   "source_file" : "external/libyuv/include/libyuv/convert_argb.h"
  },
  {
   "function_name" : "libyuv::I012ToI420",
   "linker_set_key" : "I012ToI420",
   "parameters" :
   [
    {
     "referenced_type" : "_ZTIPKt"
    },
    {
     "referenced_type" : "_ZTIi"
    },
    {
     "referenced_type" : "_ZTIPKt"
    },
    {
     "referenced_type" : "_ZTIi"
    },
    {
     "referenced_type" : "_ZTIPKt"
    },
    {
     "referenced_type" : "_ZTIi"
    },
    {
     "referenced_type" : "_ZTIPh"
    },
    {
     "referenced_type" : "_ZTIi"
    },
    {
     "referenced_type" : "_ZTIPh"
    },
    {
     "referenced_type" : "_ZTIi"
    },
    {
     "referenced_type" : "_ZTIPh"
    },
    {
     "referenced_type" : "_ZTIi"
    },
    {
     "referenced_type" : "_ZTIi"
    },
    {
     "referenced_type" : "_ZTIi"
    }
   ],
   "return_type" : "_ZTIi",
   "source_file" : "external/libyuv/include/libyuv/convert.h"
  },
  {
   "function_name" : "libyuv::I012ToP012",
   "linker_set_key" : "I012ToP012",
   "parameters" :
   [
    {
     "referenced_type" : "_ZTIPKt"
    },
    {
     "referenced_type" : "_ZTIi"
    },
    {
     "referenced_type" : "_ZTIPKt"
    },
    {
     "referenced_type" : "_ZTIi"
    },
    {
     "referenced_type" : "_ZTIPKt"
    },
    {
     "referenced_type" : "_ZTIi"
    },
    {
     "referenced_type" : "_ZTIPt"
    },
    {
     "referenced_type" : "_ZTIi"
    },
    {
     "referenced_type" : "_ZTIPt"
    },
    {
     "referenced_type" : "_ZTIi"
    },
    {
     "referenced_type" : "_ZTIi"
    },
    {
     "referenced_type" : "_ZTIi"
    }
   ],
   "return_type" : "_ZTIi",
   "source_file" : "external/libyuv/include/libyuv/convert.h"
  },
  {
   "function_name" : "libyuv::I210AlphaToARGBMatrix",
   "linker_set_key" : "I210AlphaToARGBMatrix",
   "parameters" :
   [
    {
     "referenced_type" : "_ZTIPKt"
    },
    {
     "referenced_type" : "_ZTIi"
    },
    {
     "referenced_type" : "_ZTIPKt"
    },
    {
     "referenced_type" : "_ZTIi"
    },
    {
     "referenced_type" : "_ZTIPKt"
    },
    {
     "referenced_type" : "_ZTIi"
    },
    {
     "referenced_type" : "_ZTIPKt"
    },
    {
     "referenced_type" : "_ZTIi"
    },
    {
     "referenced_type" : "_ZTIPh"
    },
    {
     "referenced_type" : "_ZTIi"
    },
    {
     "referenced_type" : "_ZTIPKN6libyuv12YuvConstantsE"
    },
    {
     "referenced_type" : "_ZTIi"
    },
    {
     "referenced_type" : "_ZTIi"
    },
    {
     "referenced_type" : "_ZTIi"
    }
   ],
   "return_type" : "_ZTIi",
   "source_file" : "external/libyuv/include/libyuv/convert_argb.h"
  },
  {
   "function_name" : "libyuv::I210AlphaToARGBMatrixFilter",
   "linker_set_key" : "I210AlphaToARGBMatrixFilter",
   "parameters" :
   [
    {
     "referenced_type" : "_ZTIPKt"
    },
    {
     "referenced_type" : "_ZTIi"
    },
    {
     "referenced_type" : "_ZTIPKt"
    },
    {
     "referenced_type" : "_ZTIi"
    },
    {
     "referenced_type" : "_ZTIPKt"
    },
    {
     "referenced_type" : "_ZTIi"
    },
    {
     "referenced_type" : "_ZTIPKt"
    },
    {
     "referenced_type" : "_ZTIi"
    },
    {
     "referenced_type" : "_ZTIPh"
    },
    {
     "referenced_type" : "_ZTIi"
    },
    {
     "referenced_type" : "_ZTIPKN6libyuv12YuvConstantsE"
    },
    {
     "referenced_type" : "_ZTIi"
    },
    {
     "referenced_type" : "_ZTIi"
    },
    {
     "referenced_type" : "_ZTIi"
    },
    {
     "referenced_type" : "_ZTIN6libyuv10FilterModeE"
    }
   ],
   "return_type" : "_ZTIi",
   "source_file" : "external/libyuv/include/libyuv/convert_argb.h"
  },
  {
   "function_name" : "libyuv::I210AlphaToARGBRow_C",
   "linker_set_key" : "I210AlphaToARGBRow_C",
   "parameters" :
   [
    {
     "referenced_type" : "_ZTIPKt"
    },
    {
     "referenced_type" : "_ZTIPKt"
    },
    {
     "referenced_type" : "_ZTIPKt"
    },
    {
     "referenced_type" : "_ZTIPKt"
    },
    {
     "referenced_type" : "_ZTIPh"
    },
    {
     "referenced_type" : "_ZTIPKN6libyuv12YuvConstantsE"
    },
    {
     "referenced_type" : "_ZTIi"
    }
   ],
   "return_type" : "_ZTIv",
   "source_file" : "external/libyuv/include/libyuv/row.h"
  },
  {
   "function_name" : "libyuv::I210Copy",
   "linker_set_key" : "I210Copy",
   "parameters" :
   [
    {
     "referenced_type" : "_ZTIPKt"
    },
    {
     "referenced_type" : "_ZTIi"
    },
    {
     "referenced_type" : "_ZTIPKt"
    },
    {
     "referenced_type" : "_ZTIi"
    },
    {
     "referenced_type" : "_ZTIPKt"
    },
    {
     "referenced_type" : "_ZTIi"
    },
    {
     "referenced_type" : "_ZTIPt"
    },
    {
     "referenced_type" : "_ZTIi"
    },
    {
     "referenced_type" : "_ZTIPt"
    },
    {
     "referenced_type" : "_ZTIi"
    },
    {
     "referenced_type" : "_ZTIPt"
    },
    {
     "referenced_type" : "_ZTIi"
    },
    {
     "referenced_type" : "_ZTIi"
    },
    {
     "referenced_type" : "_ZTIi"
    }
   ],
   "return_type" : "_ZTIi",
   "source_file" : "external/libyuv/include/libyuv/planar_functions.h"
  },
  {
   "function_name" : "libyuv::I210Rotate",
   "linker_set_key" : "I210Rotate",
   "parameters" :
   [
    {
     "referenced_type" : "_ZTIPKt"
    },
    {
     "referenced_type" : "_ZTIi"
    },
    {
     "referenced_type" : "_ZTIPKt"
    },
    {
     "referenced_type" : "_ZTIi"
    },
    {
     "referenced_type" : "_ZTIPKt"
    },
    {
     "referenced_type" : "_ZTIi"
    },
    {
     "referenced_type" : "_ZTIPt"
    },
    {
     "referenced_type" : "_ZTIi"
    },
    {
     "referenced_type" : "_ZTIPt"
    },
    {
     "referenced_type" : "_ZTIi"
    },
    {
     "referenced_type" : "_ZTIPt"
    },
    {
     "referenced_type" : "_ZTIi"
    },
    {
     "referenced_type" : "_ZTIi"
    },
    {
     "referenced_type" : "_ZTIi"
    },
    {
     "referenced_type" : "_ZTIN6libyuv12RotationModeE"
    }
   ],
   "return_type" : "_ZTIi",
   "source_file" : "external/libyuv/include/libyuv/rotate.h"
  },
  {
   "function_name" : "libyuv::I210ToAB30",
   "linker_set_key" : "I210ToAB30",
   "parameters" :
   [
    {
     "referenced_type" : "_ZTIPKt"
    },
    {
     "referenced_type" : "_ZTIi"
    },
    {
     "referenced_type" : "_ZTIPKt"
    },
    {
     "referenced_type" : "_ZTIi"
    },
    {
     "referenced_type" : "_ZTIPKt"
    },
    {
     "referenced_type" : "_ZTIi"
    },
    {
     "referenced_type" : "_ZTIPh"
    },
    {
     "referenced_type" : "_ZTIi"
    },
    {
     "referenced_type" : "_ZTIi"
    },
    {
     "referenced_type" : "_ZTIi"
    }
   ],
   "return_type" : "_ZTIi",
   "source_file" : "external/libyuv/include/libyuv/convert_argb.h"
  },
  {
   "function_name" : "libyuv::I210ToABGR",
   "linker_set_key" : "I210ToABGR",
   "parameters" :
   [
    {
     "referenced_type" : "_ZTIPKt"
    },
    {
     "referenced_type" : "_ZTIi"
    },
    {
     "referenced_type" : "_ZTIPKt"
    },
    {
     "referenced_type" : "_ZTIi"
    },
    {
     "referenced_type" : "_ZTIPKt"
    },
    {
     "referenced_type" : "_ZTIi"
    },
    {
     "referenced_type" : "_ZTIPh"
    },
    {
     "referenced_type" : "_ZTIi"
    },
    {
     "referenced_type" : "_ZTIi"
    },
    {
     "referenced_type" : "_ZTIi"
    }
   ],
   "return_type" : "_ZTIi",
   "source_file" : "external/libyuv/include/libyuv/convert_argb.h"
  },
  {
   "function_name" : "libyuv::I210ToAR30",
   "linker_set_key" : "I210ToAR30",
   "parameters" :
   [
    {
     "referenced_type" : "_ZTIPKt"
    },
    {
     "referenced_type" : "_ZTIi"
    },
    {
     "referenced_type" : "_ZTIPKt"
    },
    {
     "referenced_type" : "_ZTIi"
    },
    {
     "referenced_type" : "_ZTIPKt"
    },
    {
     "referenced_type" : "_ZTIi"
    },
    {
     "referenced_type" : "_ZTIPh"
    },
    {
     "referenced_type" : "_ZTIi"
    },
    {
     "referenced_type" : "_ZTIi"
    },
    {
     "referenced_type" : "_ZTIi"
    }
   ],
   "return_type" : "_ZTIi",
   "source_file" : "external/libyuv/include/libyuv/convert_argb.h"
  },
  {
   "function_name" : "libyuv::I210ToAR30Matrix",
   "linker_set_key" : "I210ToAR30Matrix",
   "parameters" :
   [
    {
     "referenced_type" : "_ZTIPKt"
    },
    {
     "referenced_type" : "_ZTIi"
    },
    {
     "referenced_type" : "_ZTIPKt"
    },
    {
     "referenced_type" : "_ZTIi"
    },
    {
     "referenced_type" : "_ZTIPKt"
    },
    {
     "referenced_type" : "_ZTIi"
    },
    {
     "referenced_type" : "_ZTIPh"
    },
    {
     "referenced_type" : "_ZTIi"
    },
    {
     "referenced_type" : "_ZTIPKN6libyuv12YuvConstantsE"
    },
    {
     "referenced_type" : "_ZTIi"
    },
    {
     "referenced_type" : "_ZTIi"
    }
   ],
   "return_type" : "_ZTIi",
   "source_file" : "external/libyuv/include/libyuv/convert_argb.h"
  },
  {
   "function_name" : "libyuv::I210ToAR30MatrixFilter",
   "linker_set_key" : "I210ToAR30MatrixFilter",
   "parameters" :
   [
    {
     "referenced_type" : "_ZTIPKt"
    },
    {
     "referenced_type" : "_ZTIi"
    },
    {
     "referenced_type" : "_ZTIPKt"
    },
    {
     "referenced_type" : "_ZTIi"
    },
    {
     "referenced_type" : "_ZTIPKt"
    },
    {
     "referenced_type" : "_ZTIi"
    },
    {
     "referenced_type" : "_ZTIPh"
    },
    {
     "referenced_type" : "_ZTIi"
    },
    {
     "referenced_type" : "_ZTIPKN6libyuv12YuvConstantsE"
    },
    {
     "referenced_type" : "_ZTIi"
    },
    {
     "referenced_type" : "_ZTIi"
    },
    {
     "referenced_type" : "_ZTIN6libyuv10FilterModeE"
    }
   ],
   "return_type" : "_ZTIi",
   "source_file" : "external/libyuv/include/libyuv/convert_argb.h"
  },
  {
   "function_name" : "libyuv::I210ToAR30Row_AVX2",
   "linker_set_key" : "I210ToAR30Row_AVX2",
   "parameters" :
   [
    {
     "referenced_type" : "_ZTIPKt"
    },
    {
     "referenced_type" : "_ZTIPKt"
    },
    {
     "referenced_type" : "_ZTIPKt"
    },
    {
     "referenced_type" : "_ZTIPh"
    },
    {
     "referenced_type" : "_ZTIPKN6libyuv12YuvConstantsE"
    },
    {
     "referenced_type" : "_ZTIi"
    }
   ],
   "return_type" : "_ZTIv",
   "source_file" : "external/libyuv/include/libyuv/row.h"
  },
  {
   "function_name" : "libyuv::I210ToAR30Row_Any_AVX2",
   "linker_set_key" : "I210ToAR30Row_Any_AVX2",
   "parameters" :
   [
    {
     "referenced_type" : "_ZTIPKt"
    },
    {
     "referenced_type" : "_ZTIPKt"
    },
    {
     "referenced_type" : "_ZTIPKt"
    },
    {
     "referenced_type" : "_ZTIPh"
    },
    {
     "referenced_type" : "_ZTIPKN6libyuv12YuvConstantsE"
    },
    {
     "referenced_type" : "_ZTIi"
    }
   ],
   "return_type" : "_ZTIv",
   "source_file" : "external/libyuv/include/libyuv/row.h"
  },
  {
   "function_name" : "libyuv::I210ToAR30Row_Any_SSSE3",
   "linker_set_key" : "I210ToAR30Row_Any_SSSE3",
   "parameters" :
   [
    {
     "referenced_type" : "_ZTIPKt"
    },
    {
     "referenced_type" : "_ZTIPKt"
    },
    {
     "referenced_type" : "_ZTIPKt"
    },
    {
     "referenced_type" : "_ZTIPh"
    },
    {
     "referenced_type" : "_ZTIPKN6libyuv12YuvConstantsE"
    },
    {
     "referenced_type" : "_ZTIi"
    }
   ],
   "return_type" : "_ZTIv",
   "source_file" : "external/libyuv/include/libyuv/row.h"
  },
  {
   "function_name" : "libyuv::I210ToAR30Row_C",
   "linker_set_key" : "I210ToAR30Row_C",
   "parameters" :
   [
    {
     "referenced_type" : "_ZTIPKt"
    },
    {
     "referenced_type" : "_ZTIPKt"
    },
    {
     "referenced_type" : "_ZTIPKt"
    },
    {
     "referenced_type" : "_ZTIPh"
    },
    {
     "referenced_type" : "_ZTIPKN6libyuv12YuvConstantsE"
    },
    {
     "referenced_type" : "_ZTIi"
    }
   ],
   "return_type" : "_ZTIv",
   "source_file" : "external/libyuv/include/libyuv/row.h"
  },
  {
   "function_name" : "libyuv::I210ToAR30Row_SSSE3",
   "linker_set_key" : "I210ToAR30Row_SSSE3",
   "parameters" :
   [
    {
     "referenced_type" : "_ZTIPKt"
    },
    {
     "referenced_type" : "_ZTIPKt"
    },
    {
     "referenced_type" : "_ZTIPKt"
    },
    {
     "referenced_type" : "_ZTIPh"
    },
    {
     "referenced_type" : "_ZTIPKN6libyuv12YuvConstantsE"
    },
    {
     "referenced_type" : "_ZTIi"
    }
   ],
   "return_type" : "_ZTIv",
   "source_file" : "external/libyuv/include/libyuv/row.h"
  },
  {
   "function_name" : "libyuv::I210ToARGB",
   "linker_set_key" : "I210ToARGB",
   "parameters" :
   [
    {
     "referenced_type" : "_ZTIPKt"
    },
    {
     "referenced_type" : "_ZTIi"
    },
    {
     "referenced_type" : "_ZTIPKt"
    },
    {
     "referenced_type" : "_ZTIi"
    },
    {
     "referenced_type" : "_ZTIPKt"
    },
    {
     "referenced_type" : "_ZTIi"
    },
    {
     "referenced_type" : "_ZTIPh"
    },
    {
     "referenced_type" : "_ZTIi"
    },
    {
     "referenced_type" : "_ZTIi"
    },
    {
     "referenced_type" : "_ZTIi"
    }
   ],
   "return_type" : "_ZTIi",
   "source_file" : "external/libyuv/include/libyuv/convert_argb.h"
  },
  {
   "function_name" : "libyuv::I210ToARGBMatrix",
   "linker_set_key" : "I210ToARGBMatrix",
   "parameters" :
   [
    {
     "referenced_type" : "_ZTIPKt"
    },
    {
     "referenced_type" : "_ZTIi"
    },
    {
     "referenced_type" : "_ZTIPKt"
    },
    {
     "referenced_type" : "_ZTIi"
    },
    {
     "referenced_type" : "_ZTIPKt"
    },
    {
     "referenced_type" : "_ZTIi"
    },
    {
     "referenced_type" : "_ZTIPh"
    },
    {
     "referenced_type" : "_ZTIi"
    },
    {
     "referenced_type" : "_ZTIPKN6libyuv12YuvConstantsE"
    },
    {
     "referenced_type" : "_ZTIi"
    },
    {
     "referenced_type" : "_ZTIi"
    }
   ],
   "return_type" : "_ZTIi",
   "source_file" : "external/libyuv/include/libyuv/convert_argb.h"
  },
  {
   "function_name" : "libyuv::I210ToARGBMatrixFilter",
   "linker_set_key" : "I210ToARGBMatrixFilter",
   "parameters" :
   [
    {
     "referenced_type" : "_ZTIPKt"
    },
    {
     "referenced_type" : "_ZTIi"
    },
    {
     "referenced_type" : "_ZTIPKt"
    },
    {
     "referenced_type" : "_ZTIi"
    },
    {
     "referenced_type" : "_ZTIPKt"
    },
    {
     "referenced_type" : "_ZTIi"
    },
    {
     "referenced_type" : "_ZTIPh"
    },
    {
     "referenced_type" : "_ZTIi"
    },
    {
     "referenced_type" : "_ZTIPKN6libyuv12YuvConstantsE"
    },
    {
     "referenced_type" : "_ZTIi"
    },
    {
     "referenced_type" : "_ZTIi"
    },
    {
     "referenced_type" : "_ZTIN6libyuv10FilterModeE"
    }
   ],
   "return_type" : "_ZTIi",
   "source_file" : "external/libyuv/include/libyuv/convert_argb.h"
  },
  {
   "function_name" : "libyuv::I210ToARGBRow_AVX2",
   "linker_set_key" : "I210ToARGBRow_AVX2",
   "parameters" :
   [
    {
     "referenced_type" : "_ZTIPKt"
    },
    {
     "referenced_type" : "_ZTIPKt"
    },
    {
     "referenced_type" : "_ZTIPKt"
    },
    {
     "referenced_type" : "_ZTIPh"
    },
    {
     "referenced_type" : "_ZTIPKN6libyuv12YuvConstantsE"
    },
    {
     "referenced_type" : "_ZTIi"
    }
   ],
   "return_type" : "_ZTIv",
   "source_file" : "external/libyuv/include/libyuv/row.h"
  },
  {
   "function_name" : "libyuv::I210ToARGBRow_Any_AVX2",
   "linker_set_key" : "I210ToARGBRow_Any_AVX2",
   "parameters" :
   [
    {
     "referenced_type" : "_ZTIPKt"
    },
    {
     "referenced_type" : "_ZTIPKt"
    },
    {
     "referenced_type" : "_ZTIPKt"
    },
    {
     "referenced_type" : "_ZTIPh"
    },
    {
     "referenced_type" : "_ZTIPKN6libyuv12YuvConstantsE"
    },
    {
     "referenced_type" : "_ZTIi"
    }
   ],
   "return_type" : "_ZTIv",
   "source_file" : "external/libyuv/include/libyuv/row.h"
  },
  {
   "function_name" : "libyuv::I210ToARGBRow_Any_SSSE3",
   "linker_set_key" : "I210ToARGBRow_Any_SSSE3",
   "parameters" :
   [
    {
     "referenced_type" : "_ZTIPKt"
    },
    {
     "referenced_type" : "_ZTIPKt"
    },
    {
     "referenced_type" : "_ZTIPKt"
    },
    {
     "referenced_type" : "_ZTIPh"
    },
    {
     "referenced_type" : "_ZTIPKN6libyuv12YuvConstantsE"
    },
    {
     "referenced_type" : "_ZTIi"
    }
   ],
   "return_type" : "_ZTIv",
   "source_file" : "external/libyuv/include/libyuv/row.h"
  },
  {
   "function_name" : "libyuv::I210ToARGBRow_C",
   "linker_set_key" : "I210ToARGBRow_C",
   "parameters" :
   [
    {
     "referenced_type" : "_ZTIPKt"
    },
    {
     "referenced_type" : "_ZTIPKt"
    },
    {
     "referenced_type" : "_ZTIPKt"
    },
    {
     "referenced_type" : "_ZTIPh"
    },
    {
     "referenced_type" : "_ZTIPKN6libyuv12YuvConstantsE"
    },
    {
     "referenced_type" : "_ZTIi"
    }
   ],
   "return_type" : "_ZTIv",
   "source_file" : "external/libyuv/include/libyuv/row.h"
  },
  {
   "function_name" : "libyuv::I210ToARGBRow_SSSE3",
   "linker_set_key" : "I210ToARGBRow_SSSE3",
   "parameters" :
   [
    {
     "referenced_type" : "_ZTIPKt"
    },
    {
     "referenced_type" : "_ZTIPKt"
    },
    {
     "referenced_type" : "_ZTIPKt"
    },
    {
     "referenced_type" : "_ZTIPh"
    },
    {
     "referenced_type" : "_ZTIPKN6libyuv12YuvConstantsE"
    },
    {
     "referenced_type" : "_ZTIi"
    }
   ],
   "return_type" : "_ZTIv",
   "source_file" : "external/libyuv/include/libyuv/row.h"
  },
  {
   "function_name" : "libyuv::I210ToI010",
   "linker_set_key" : "I210ToI010",
   "parameters" :
   [
    {
     "referenced_type" : "_ZTIPKt"
    },
    {
     "referenced_type" : "_ZTIi"
    },
    {
     "referenced_type" : "_ZTIPKt"
    },
    {
     "referenced_type" : "_ZTIi"
    },
    {
     "referenced_type" : "_ZTIPKt"
    },
    {
     "referenced_type" : "_ZTIi"
    },
    {
     "referenced_type" : "_ZTIPt"
    },
    {
     "referenced_type" : "_ZTIi"
    },
    {
     "referenced_type" : "_ZTIPt"
    },
    {
     "referenced_type" : "_ZTIi"
    },
    {
     "referenced_type" : "_ZTIPt"
    },
    {
     "referenced_type" : "_ZTIi"
    },
    {
     "referenced_type" : "_ZTIi"
    },
    {
     "referenced_type" : "_ZTIi"
    }
   ],
   "return_type" : "_ZTIi",
   "source_file" : "external/libyuv/include/libyuv/convert.h"
  },
  {
   "function_name" : "libyuv::I210ToI410",
   "linker_set_key" : "I210ToI410",
   "parameters" :
   [
    {
     "referenced_type" : "_ZTIPKt"
    },
    {
     "referenced_type" : "_ZTIi"
    },
    {
     "referenced_type" : "_ZTIPKt"
    },
    {
     "referenced_type" : "_ZTIi"
    },
    {
     "referenced_type" : "_ZTIPKt"
    },
    {
     "referenced_type" : "_ZTIi"
    },
    {
     "referenced_type" : "_ZTIPt"
    },
    {
     "referenced_type" : "_ZTIi"
    },
    {
     "referenced_type" : "_ZTIPt"
    },
    {
     "referenced_type" : "_ZTIi"
    },
    {
     "referenced_type" : "_ZTIPt"
    },
    {
     "referenced_type" : "_ZTIi"
    },
    {
     "referenced_type" : "_ZTIi"
    },
    {
     "referenced_type" : "_ZTIi"
    }
   ],
   "return_type" : "_ZTIi",
   "source_file" : "external/libyuv/include/libyuv/convert.h"
  },
  {
   "function_name" : "libyuv::I210ToI420",
   "linker_set_key" : "I210ToI420",
   "parameters" :
   [
    {
     "referenced_type" : "_ZTIPKt"
    },
    {
     "referenced_type" : "_ZTIi"
    },
    {
     "referenced_type" : "_ZTIPKt"
    },
    {
     "referenced_type" : "_ZTIi"
    },
    {
     "referenced_type" : "_ZTIPKt"
    },
    {
     "referenced_type" : "_ZTIi"
    },
    {
     "referenced_type" : "_ZTIPh"
    },
    {
     "referenced_type" : "_ZTIi"
    },
    {
     "referenced_type" : "_ZTIPh"
    },
    {
     "referenced_type" : "_ZTIi"
    },
    {
     "referenced_type" : "_ZTIPh"
    },
    {
     "referenced_type" : "_ZTIi"
    },
    {
     "referenced_type" : "_ZTIi"
    },
    {
     "referenced_type" : "_ZTIi"
    }
   ],
   "return_type" : "_ZTIi",
   "source_file" : "external/libyuv/include/libyuv/convert.h"
  },
  {
   "function_name" : "libyuv::I210ToI422",
   "linker_set_key" : "I210ToI422",
   "parameters" :
   [
    {
     "referenced_type" : "_ZTIPKt"
    },
    {
     "referenced_type" : "_ZTIi"
    },
    {
     "referenced_type" : "_ZTIPKt"
    },
    {
     "referenced_type" : "_ZTIi"
    },
    {
     "referenced_type" : "_ZTIPKt"
    },
    {
     "referenced_type" : "_ZTIi"
    },
    {
     "referenced_type" : "_ZTIPh"
    },
    {
     "referenced_type" : "_ZTIi"
    },
    {
     "referenced_type" : "_ZTIPh"
    },
    {
     "referenced_type" : "_ZTIi"
    },
    {
     "referenced_type" : "_ZTIPh"
    },
    {
     "referenced_type" : "_ZTIi"
    },
    {
     "referenced_type" : "_ZTIi"
    },
    {
     "referenced_type" : "_ZTIi"
    }
   ],
   "return_type" : "_ZTIi",
   "source_file" : "external/libyuv/include/libyuv/convert.h"
  },
  {
   "function_name" : "libyuv::I210ToP210",
   "linker_set_key" : "I210ToP210",
   "parameters" :
   [
    {
     "referenced_type" : "_ZTIPKt"
    },
    {
     "referenced_type" : "_ZTIi"
    },
    {
     "referenced_type" : "_ZTIPKt"
    },
    {
     "referenced_type" : "_ZTIi"
    },
    {
     "referenced_type" : "_ZTIPKt"
    },
    {
     "referenced_type" : "_ZTIi"
    },
    {
     "referenced_type" : "_ZTIPt"
    },
    {
     "referenced_type" : "_ZTIi"
    },
    {
     "referenced_type" : "_ZTIPt"
    },
    {
     "referenced_type" : "_ZTIi"
    },
    {
     "referenced_type" : "_ZTIi"
    },
    {
     "referenced_type" : "_ZTIi"
    }
   ],
   "return_type" : "_ZTIi",
   "source_file" : "external/libyuv/include/libyuv/convert.h"
  },
  {
   "function_name" : "libyuv::I212ToAR30Row_AVX2",
   "linker_set_key" : "I212ToAR30Row_AVX2",
   "parameters" :
   [
    {
     "referenced_type" : "_ZTIPKt"
    },
    {
     "referenced_type" : "_ZTIPKt"
    },
    {
     "referenced_type" : "_ZTIPKt"
    },
    {
     "referenced_type" : "_ZTIPh"
    },
    {
     "referenced_type" : "_ZTIPKN6libyuv12YuvConstantsE"
    },
    {
     "referenced_type" : "_ZTIi"
    }
   ],
   "return_type" : "_ZTIv",
   "source_file" : "external/libyuv/include/libyuv/row.h"
  },
  {
   "function_name" : "libyuv::I212ToAR30Row_Any_AVX2",
   "linker_set_key" : "I212ToAR30Row_Any_AVX2",
   "parameters" :
   [
    {
     "referenced_type" : "_ZTIPKt"
    },
    {
     "referenced_type" : "_ZTIPKt"
    },
    {
     "referenced_type" : "_ZTIPKt"
    },
    {
     "referenced_type" : "_ZTIPh"
    },
    {
     "referenced_type" : "_ZTIPKN6libyuv12YuvConstantsE"
    },
    {
     "referenced_type" : "_ZTIi"
    }
   ],
   "return_type" : "_ZTIv",
   "source_file" : "external/libyuv/include/libyuv/row.h"
  },
  {
   "function_name" : "libyuv::I212ToAR30Row_Any_SSSE3",
   "linker_set_key" : "I212ToAR30Row_Any_SSSE3",
   "parameters" :
   [
    {
     "referenced_type" : "_ZTIPKt"
    },
    {
     "referenced_type" : "_ZTIPKt"
    },
    {
     "referenced_type" : "_ZTIPKt"
    },
    {
     "referenced_type" : "_ZTIPh"
    },
    {
     "referenced_type" : "_ZTIPKN6libyuv12YuvConstantsE"
    },
    {
     "referenced_type" : "_ZTIi"
    }
   ],
   "return_type" : "_ZTIv",
   "source_file" : "external/libyuv/include/libyuv/row.h"
  },
  {
   "function_name" : "libyuv::I212ToAR30Row_C",
   "linker_set_key" : "I212ToAR30Row_C",
   "parameters" :
   [
    {
     "referenced_type" : "_ZTIPKt"
    },
    {
     "referenced_type" : "_ZTIPKt"
    },
    {
     "referenced_type" : "_ZTIPKt"
    },
    {
     "referenced_type" : "_ZTIPh"
    },
    {
     "referenced_type" : "_ZTIPKN6libyuv12YuvConstantsE"
    },
    {
     "referenced_type" : "_ZTIi"
    }
   ],
   "return_type" : "_ZTIv",
   "source_file" : "external/libyuv/include/libyuv/row.h"
  },
  {
   "function_name" : "libyuv::I212ToAR30Row_SSSE3",
   "linker_set_key" : "I212ToAR30Row_SSSE3",
   "parameters" :
   [
    {
     "referenced_type" : "_ZTIPKt"
    },
    {
     "referenced_type" : "_ZTIPKt"
    },
    {
     "referenced_type" : "_ZTIPKt"
    },
    {
     "referenced_type" : "_ZTIPh"
    },
    {
     "referenced_type" : "_ZTIPKN6libyuv12YuvConstantsE"
    },
    {
     "referenced_type" : "_ZTIi"
    }
   ],
   "return_type" : "_ZTIv",
   "source_file" : "external/libyuv/include/libyuv/row.h"
  },
  {
   "function_name" : "libyuv::I212ToARGBRow_AVX2",
   "linker_set_key" : "I212ToARGBRow_AVX2",
   "parameters" :
   [
    {
     "referenced_type" : "_ZTIPKt"
    },
    {
     "referenced_type" : "_ZTIPKt"
    },
    {
     "referenced_type" : "_ZTIPKt"
    },
    {
     "referenced_type" : "_ZTIPh"
    },
    {
     "referenced_type" : "_ZTIPKN6libyuv12YuvConstantsE"
    },
    {
     "referenced_type" : "_ZTIi"
    }
   ],
   "return_type" : "_ZTIv",
   "source_file" : "external/libyuv/include/libyuv/row.h"
  },
  {
   "function_name" : "libyuv::I212ToARGBRow_Any_AVX2",
   "linker_set_key" : "I212ToARGBRow_Any_AVX2",
   "parameters" :
   [
    {
     "referenced_type" : "_ZTIPKt"
    },
    {
     "referenced_type" : "_ZTIPKt"
    },
    {
     "referenced_type" : "_ZTIPKt"
    },
    {
     "referenced_type" : "_ZTIPh"
    },
    {
     "referenced_type" : "_ZTIPKN6libyuv12YuvConstantsE"
    },
    {
     "referenced_type" : "_ZTIi"
    }
   ],
   "return_type" : "_ZTIv",
   "source_file" : "external/libyuv/include/libyuv/row.h"
  },
  {
   "function_name" : "libyuv::I212ToARGBRow_Any_SSSE3",
   "linker_set_key" : "I212ToARGBRow_Any_SSSE3",
   "parameters" :
   [
    {
     "referenced_type" : "_ZTIPKt"
    },
    {
     "referenced_type" : "_ZTIPKt"
    },
    {
     "referenced_type" : "_ZTIPKt"
    },
    {
     "referenced_type" : "_ZTIPh"
    },
    {
     "referenced_type" : "_ZTIPKN6libyuv12YuvConstantsE"
    },
    {
     "referenced_type" : "_ZTIi"
    }
   ],
   "return_type" : "_ZTIv",
   "source_file" : "external/libyuv/include/libyuv/row.h"
  },
  {
   "function_name" : "libyuv::I212ToARGBRow_C",
   "linker_set_key" : "I212ToARGBRow_C",
   "parameters" :
   [
    {
     "referenced_type" : "_ZTIPKt"
    },
    {
     "referenced_type" : "_ZTIPKt"
    },
    {
     "referenced_type" : "_ZTIPKt"
    },
    {
     "referenced_type" : "_ZTIPh"
    },
    {
     "referenced_type" : "_ZTIPKN6libyuv12YuvConstantsE"
    },
    {
     "referenced_type" : "_ZTIi"
    }
   ],
   "return_type" : "_ZTIv",
   "source_file" : "external/libyuv/include/libyuv/row.h"
  },
  {
   "function_name" : "libyuv::I212ToARGBRow_SSSE3",
   "linker_set_key" : "I212ToARGBRow_SSSE3",
   "parameters" :
   [
    {
     "referenced_type" : "_ZTIPKt"
    },
    {
     "referenced_type" : "_ZTIPKt"
    },
    {
     "referenced_type" : "_ZTIPKt"
    },
    {
     "referenced_type" : "_ZTIPh"
    },
    {
     "referenced_type" : "_ZTIPKN6libyuv12YuvConstantsE"
    },
    {
     "referenced_type" : "_ZTIi"
    }
   ],
   "return_type" : "_ZTIv",
   "source_file" : "external/libyuv/include/libyuv/row.h"
  },
  {
   "function_name" : "libyuv::I212ToI420",
   "linker_set_key" : "I212ToI420",
   "parameters" :
   [
    {
     "referenced_type" : "_ZTIPKt"
    },
    {
     "referenced_type" : "_ZTIi"
    },
    {
     "referenced_type" : "_ZTIPKt"
    },
    {
     "referenced_type" : "_ZTIi"
    },
    {
     "referenced_type" : "_ZTIPKt"
    },
    {
     "referenced_type" : "_ZTIi"
    },
    {
     "referenced_type" : "_ZTIPh"
    },
    {
     "referenced_type" : "_ZTIi"
    },
    {
     "referenced_type" : "_ZTIPh"
    },
    {
     "referenced_type" : "_ZTIi"
    },
    {
     "referenced_type" : "_ZTIPh"
    },
    {
     "referenced_type" : "_ZTIi"
    },
    {
     "referenced_type" : "_ZTIi"
    },
    {
     "referenced_type" : "_ZTIi"
    }
   ],
   "return_type" : "_ZTIi",
   "source_file" : "external/libyuv/include/libyuv/convert.h"
  },
  {
   "function_name" : "libyuv::I212ToI422",
   "linker_set_key" : "I212ToI422",
   "parameters" :
   [
    {
     "referenced_type" : "_ZTIPKt"
    },
    {
     "referenced_type" : "_ZTIi"
    },
    {
     "referenced_type" : "_ZTIPKt"
    },
    {
     "referenced_type" : "_ZTIi"
    },
    {
     "referenced_type" : "_ZTIPKt"
    },
    {
     "referenced_type" : "_ZTIi"
    },
    {
     "referenced_type" : "_ZTIPh"
    },
    {
     "referenced_type" : "_ZTIi"
    },
    {
     "referenced_type" : "_ZTIPh"
    },
    {
     "referenced_type" : "_ZTIi"
    },
    {
     "referenced_type" : "_ZTIPh"
    },
    {
     "referenced_type" : "_ZTIi"
    },
    {
     "referenced_type" : "_ZTIi"
    },
    {
     "referenced_type" : "_ZTIi"
    }
   ],
   "return_type" : "_ZTIi",
   "source_file" : "external/libyuv/include/libyuv/convert.h"
  },
  {
   "function_name" : "libyuv::I212ToP212",
   "linker_set_key" : "I212ToP212",
   "parameters" :
   [
    {
     "referenced_type" : "_ZTIPKt"
    },
    {
     "referenced_type" : "_ZTIi"
    },
    {
     "referenced_type" : "_ZTIPKt"
    },
    {
     "referenced_type" : "_ZTIi"
    },
    {
     "referenced_type" : "_ZTIPKt"
    },
    {
     "referenced_type" : "_ZTIi"
    },
    {
     "referenced_type" : "_ZTIPt"
    },
    {
     "referenced_type" : "_ZTIi"
    },
    {
     "referenced_type" : "_ZTIPt"
    },
    {
     "referenced_type" : "_ZTIi"
    },
    {
     "referenced_type" : "_ZTIi"
    },
    {
     "referenced_type" : "_ZTIi"
    }
   ],
   "return_type" : "_ZTIi",
   "source_file" : "external/libyuv/include/libyuv/convert.h"
  },
  {
   "function_name" : "libyuv::I400Copy",
   "linker_set_key" : "I400Copy",
   "parameters" :
   [
    {
     "referenced_type" : "_ZTIPKh"
    },
    {
     "referenced_type" : "_ZTIi"
    },
    {
     "referenced_type" : "_ZTIPh"
    },
    {
     "referenced_type" : "_ZTIi"
    },
    {
     "referenced_type" : "_ZTIi"
    },
    {
     "referenced_type" : "_ZTIi"
    }
   ],
   "return_type" : "_ZTIi",
   "source_file" : "external/libyuv/include/libyuv/convert_from.h"
  },
  {
   "function_name" : "libyuv::I400Mirror",
   "linker_set_key" : "I400Mirror",
   "parameters" :
   [
    {
     "referenced_type" : "_ZTIPKh"
    },
    {
     "referenced_type" : "_ZTIi"
    },
    {
     "referenced_type" : "_ZTIPh"
    },
    {
     "referenced_type" : "_ZTIi"
    },
    {
     "referenced_type" : "_ZTIi"
    },
    {
     "referenced_type" : "_ZTIi"
    }
   ],
   "return_type" : "_ZTIi",
   "source_file" : "external/libyuv/include/libyuv/planar_functions.h"
  },
  {
   "function_name" : "libyuv::I400ToARGB",
   "linker_set_key" : "I400ToARGB",
   "parameters" :
   [
    {
     "referenced_type" : "_ZTIPKh"
    },
    {
     "referenced_type" : "_ZTIi"
    },
    {
     "referenced_type" : "_ZTIPh"
    },
    {
     "referenced_type" : "_ZTIi"
    },
    {
     "referenced_type" : "_ZTIi"
    },
    {
     "referenced_type" : "_ZTIi"
    }
   ],
   "return_type" : "_ZTIi",
   "source_file" : "external/libyuv/include/libyuv/convert_argb.h"
  },
  {
   "function_name" : "libyuv::I400ToARGBMatrix",
   "linker_set_key" : "I400ToARGBMatrix",
   "parameters" :
   [
    {
     "referenced_type" : "_ZTIPKh"
    },
    {
     "referenced_type" : "_ZTIi"
    },
    {
     "referenced_type" : "_ZTIPh"
    },
    {
     "referenced_type" : "_ZTIi"
    },
    {
     "referenced_type" : "_ZTIPKN6libyuv12YuvConstantsE"
    },
    {
     "referenced_type" : "_ZTIi"
    },
    {
     "referenced_type" : "_ZTIi"
    }
   ],
   "return_type" : "_ZTIi",
   "source_file" : "external/libyuv/include/libyuv/convert_argb.h"
  },
  {
   "function_name" : "libyuv::I400ToARGBRow_AVX2",
   "linker_set_key" : "I400ToARGBRow_AVX2",
   "parameters" :
   [
    {
     "referenced_type" : "_ZTIPKh"
    },
    {
     "referenced_type" : "_ZTIPh"
    },
    {
     "referenced_type" : "_ZTIPKN6libyuv12YuvConstantsE"
    },
    {
     "referenced_type" : "_ZTIi"
    }
   ],
   "return_type" : "_ZTIv",
   "source_file" : "external/libyuv/include/libyuv/row.h"
  },
  {
   "function_name" : "libyuv::I400ToARGBRow_Any_AVX2",
   "linker_set_key" : "I400ToARGBRow_Any_AVX2",
   "parameters" :
   [
    {
     "referenced_type" : "_ZTIPKh"
    },
    {
     "referenced_type" : "_ZTIPh"
    },
    {
     "referenced_type" : "_ZTIPKN6libyuv12YuvConstantsE"
    },
    {
     "referenced_type" : "_ZTIi"
    }
   ],
   "return_type" : "_ZTIv",
   "source_file" : "external/libyuv/include/libyuv/row.h"
  },
  {
   "function_name" : "libyuv::I400ToARGBRow_Any_SSE2",
   "linker_set_key" : "I400ToARGBRow_Any_SSE2",
   "parameters" :
   [
    {
     "referenced_type" : "_ZTIPKh"
    },
    {
     "referenced_type" : "_ZTIPh"
    },
    {
     "referenced_type" : "_ZTIPKN6libyuv12YuvConstantsE"
    },
    {
     "referenced_type" : "_ZTIi"
    }
   ],
   "return_type" : "_ZTIv",
   "source_file" : "external/libyuv/include/libyuv/row.h"
  },
  {
   "function_name" : "libyuv::I400ToARGBRow_C",
   "linker_set_key" : "I400ToARGBRow_C",
   "parameters" :
   [
    {
     "referenced_type" : "_ZTIPKh"
    },
    {
     "referenced_type" : "_ZTIPh"
    },
    {
     "referenced_type" : "_ZTIPKN6libyuv12YuvConstantsE"
    },
    {
     "referenced_type" : "_ZTIi"
    }
   ],
   "return_type" : "_ZTIv",
   "source_file" : "external/libyuv/include/libyuv/row.h"
  },
  {
   "function_name" : "libyuv::I400ToARGBRow_SSE2",
   "linker_set_key" : "I400ToARGBRow_SSE2",
   "parameters" :
   [
    {
     "referenced_type" : "_ZTIPKh"
    },
    {
     "referenced_type" : "_ZTIPh"
    },
    {
     "referenced_type" : "_ZTIPKN6libyuv12YuvConstantsE"
    },
    {
     "referenced_type" : "_ZTIi"
    }
   ],
   "return_type" : "_ZTIv",
   "source_file" : "external/libyuv/include/libyuv/row.h"
  },
  {
   "function_name" : "libyuv::I400ToI400",
   "linker_set_key" : "I400ToI400",
   "parameters" :
   [
    {
     "referenced_type" : "_ZTIPKh"
    },
    {
     "referenced_type" : "_ZTIi"
    },
    {
     "referenced_type" : "_ZTIPh"
    },
    {
     "referenced_type" : "_ZTIi"
    },
    {
     "referenced_type" : "_ZTIi"
    },
    {
     "referenced_type" : "_ZTIi"
    }
   ],
   "return_type" : "_ZTIi",
   "source_file" : "external/libyuv/include/libyuv/planar_functions.h"
  },
  {
   "function_name" : "libyuv::I400ToI420",
   "linker_set_key" : "I400ToI420",
   "parameters" :
   [
    {
     "referenced_type" : "_ZTIPKh"
    },
    {
     "referenced_type" : "_ZTIi"
    },
    {
     "referenced_type" : "_ZTIPh"
    },
    {
     "referenced_type" : "_ZTIi"
    },
    {
     "referenced_type" : "_ZTIPh"
    },
    {
     "referenced_type" : "_ZTIi"
    },
    {
     "referenced_type" : "_ZTIPh"
    },
    {
     "referenced_type" : "_ZTIi"
    },
    {
     "referenced_type" : "_ZTIi"
    },
    {
     "referenced_type" : "_ZTIi"
    }
   ],
   "return_type" : "_ZTIi",
   "source_file" : "external/libyuv/include/libyuv/convert.h"
  },
  {
   "function_name" : "libyuv::I400ToNV21",
   "linker_set_key" : "I400ToNV21",
   "parameters" :
   [
    {
     "referenced_type" : "_ZTIPKh"
    },
    {
     "referenced_type" : "_ZTIi"
    },
    {
     "referenced_type" : "_ZTIPh"
    },
    {
     "referenced_type" : "_ZTIi"
    },
    {
     "referenced_type" : "_ZTIPh"
    },
    {
     "referenced_type" : "_ZTIi"
    },
    {
     "referenced_type" : "_ZTIi"
    },
    {
     "referenced_type" : "_ZTIi"
    }
   ],
   "return_type" : "_ZTIi",
   "source_file" : "external/libyuv/include/libyuv/convert.h"
  },
  {
   "function_name" : "libyuv::I410AlphaToARGBMatrix",
   "linker_set_key" : "I410AlphaToARGBMatrix",
   "parameters" :
   [
    {
     "referenced_type" : "_ZTIPKt"
    },
    {
     "referenced_type" : "_ZTIi"
    },
    {
     "referenced_type" : "_ZTIPKt"
    },
    {
     "referenced_type" : "_ZTIi"
    },
    {
     "referenced_type" : "_ZTIPKt"
    },
    {
     "referenced_type" : "_ZTIi"
    },
    {
     "referenced_type" : "_ZTIPKt"
    },
    {
     "referenced_type" : "_ZTIi"
    },
    {
     "referenced_type" : "_ZTIPh"
    },
    {
     "referenced_type" : "_ZTIi"
    },
    {
     "referenced_type" : "_ZTIPKN6libyuv12YuvConstantsE"
    },
    {
     "referenced_type" : "_ZTIi"
    },
    {
     "referenced_type" : "_ZTIi"
    },
    {
     "referenced_type" : "_ZTIi"
    }
   ],
   "return_type" : "_ZTIi",
   "source_file" : "external/libyuv/include/libyuv/convert_argb.h"
  },
  {
   "function_name" : "libyuv::I410AlphaToARGBRow_C",
   "linker_set_key" : "I410AlphaToARGBRow_C",
   "parameters" :
   [
    {
     "referenced_type" : "_ZTIPKt"
    },
    {
     "referenced_type" : "_ZTIPKt"
    },
    {
     "referenced_type" : "_ZTIPKt"
    },
    {
     "referenced_type" : "_ZTIPKt"
    },
    {
     "referenced_type" : "_ZTIPh"
    },
    {
     "referenced_type" : "_ZTIPKN6libyuv12YuvConstantsE"
    },
    {
     "referenced_type" : "_ZTIi"
    }
   ],
   "return_type" : "_ZTIv",
   "source_file" : "external/libyuv/include/libyuv/row.h"
  },
  {
   "function_name" : "libyuv::I410Copy",
   "linker_set_key" : "I410Copy",
   "parameters" :
   [
    {
     "referenced_type" : "_ZTIPKt"
    },
    {
     "referenced_type" : "_ZTIi"
    },
    {
     "referenced_type" : "_ZTIPKt"
    },
    {
     "referenced_type" : "_ZTIi"
    },
    {
     "referenced_type" : "_ZTIPKt"
    },
    {
     "referenced_type" : "_ZTIi"
    },
    {
     "referenced_type" : "_ZTIPt"
    },
    {
     "referenced_type" : "_ZTIi"
    },
    {
     "referenced_type" : "_ZTIPt"
    },
    {
     "referenced_type" : "_ZTIi"
    },
    {
     "referenced_type" : "_ZTIPt"
    },
    {
     "referenced_type" : "_ZTIi"
    },
    {
     "referenced_type" : "_ZTIi"
    },
    {
     "referenced_type" : "_ZTIi"
    }
   ],
   "return_type" : "_ZTIi",
   "source_file" : "external/libyuv/include/libyuv/planar_functions.h"
  },
  {
   "function_name" : "libyuv::I410Rotate",
   "linker_set_key" : "I410Rotate",
   "parameters" :
   [
    {
     "referenced_type" : "_ZTIPKt"
    },
    {
     "referenced_type" : "_ZTIi"
    },
    {
     "referenced_type" : "_ZTIPKt"
    },
    {
     "referenced_type" : "_ZTIi"
    },
    {
     "referenced_type" : "_ZTIPKt"
    },
    {
     "referenced_type" : "_ZTIi"
    },
    {
     "referenced_type" : "_ZTIPt"
    },
    {
     "referenced_type" : "_ZTIi"
    },
    {
     "referenced_type" : "_ZTIPt"
    },
    {
     "referenced_type" : "_ZTIi"
    },
    {
     "referenced_type" : "_ZTIPt"
    },
    {
     "referenced_type" : "_ZTIi"
    },
    {
     "referenced_type" : "_ZTIi"
    },
    {
     "referenced_type" : "_ZTIi"
    },
    {
     "referenced_type" : "_ZTIN6libyuv12RotationModeE"
    }
   ],
   "return_type" : "_ZTIi",
   "source_file" : "external/libyuv/include/libyuv/rotate.h"
  },
  {
   "function_name" : "libyuv::I410ToAR30Matrix",
   "linker_set_key" : "I410ToAR30Matrix",
   "parameters" :
   [
    {
     "referenced_type" : "_ZTIPKt"
    },
    {
     "referenced_type" : "_ZTIi"
    },
    {
     "referenced_type" : "_ZTIPKt"
    },
    {
     "referenced_type" : "_ZTIi"
    },
    {
     "referenced_type" : "_ZTIPKt"
    },
    {
     "referenced_type" : "_ZTIi"
    },
    {
     "referenced_type" : "_ZTIPh"
    },
    {
     "referenced_type" : "_ZTIi"
    },
    {
     "referenced_type" : "_ZTIPKN6libyuv12YuvConstantsE"
    },
    {
     "referenced_type" : "_ZTIi"
    },
    {
     "referenced_type" : "_ZTIi"
    }
   ],
   "return_type" : "_ZTIi",
   "source_file" : "external/libyuv/include/libyuv/convert_argb.h"
  },
  {
   "function_name" : "libyuv::I410ToAR30Row_AVX2",
   "linker_set_key" : "I410ToAR30Row_AVX2",
   "parameters" :
   [
    {
     "referenced_type" : "_ZTIPKt"
    },
    {
     "referenced_type" : "_ZTIPKt"
    },
    {
     "referenced_type" : "_ZTIPKt"
    },
    {
     "referenced_type" : "_ZTIPh"
    },
    {
     "referenced_type" : "_ZTIPKN6libyuv12YuvConstantsE"
    },
    {
     "referenced_type" : "_ZTIi"
    }
   ],
   "return_type" : "_ZTIv",
   "source_file" : "external/libyuv/include/libyuv/row.h"
  },
  {
   "function_name" : "libyuv::I410ToAR30Row_Any_AVX2",
   "linker_set_key" : "I410ToAR30Row_Any_AVX2",
   "parameters" :
   [
    {
     "referenced_type" : "_ZTIPKt"
    },
    {
     "referenced_type" : "_ZTIPKt"
    },
    {
     "referenced_type" : "_ZTIPKt"
    },
    {
     "referenced_type" : "_ZTIPh"
    },
    {
     "referenced_type" : "_ZTIPKN6libyuv12YuvConstantsE"
    },
    {
     "referenced_type" : "_ZTIi"
    }
   ],
   "return_type" : "_ZTIv",
   "source_file" : "external/libyuv/include/libyuv/row.h"
  },
  {
   "function_name" : "libyuv::I410ToAR30Row_Any_SSSE3",
   "linker_set_key" : "I410ToAR30Row_Any_SSSE3",
   "parameters" :
   [
    {
     "referenced_type" : "_ZTIPKt"
    },
    {
     "referenced_type" : "_ZTIPKt"
    },
    {
     "referenced_type" : "_ZTIPKt"
    },
    {
     "referenced_type" : "_ZTIPh"
    },
    {
     "referenced_type" : "_ZTIPKN6libyuv12YuvConstantsE"
    },
    {
     "referenced_type" : "_ZTIi"
    }
   ],
   "return_type" : "_ZTIv",
   "source_file" : "external/libyuv/include/libyuv/row.h"
  },
  {
   "function_name" : "libyuv::I410ToAR30Row_C",
   "linker_set_key" : "I410ToAR30Row_C",
   "parameters" :
   [
    {
     "referenced_type" : "_ZTIPKt"
    },
    {
     "referenced_type" : "_ZTIPKt"
    },
    {
     "referenced_type" : "_ZTIPKt"
    },
    {
     "referenced_type" : "_ZTIPh"
    },
    {
     "referenced_type" : "_ZTIPKN6libyuv12YuvConstantsE"
    },
    {
     "referenced_type" : "_ZTIi"
    }
   ],
   "return_type" : "_ZTIv",
   "source_file" : "external/libyuv/include/libyuv/row.h"
  },
  {
   "function_name" : "libyuv::I410ToAR30Row_SSSE3",
   "linker_set_key" : "I410ToAR30Row_SSSE3",
   "parameters" :
   [
    {
     "referenced_type" : "_ZTIPKt"
    },
    {
     "referenced_type" : "_ZTIPKt"
    },
    {
     "referenced_type" : "_ZTIPKt"
    },
    {
     "referenced_type" : "_ZTIPh"
    },
    {
     "referenced_type" : "_ZTIPKN6libyuv12YuvConstantsE"
    },
    {
     "referenced_type" : "_ZTIi"
    }
   ],
   "return_type" : "_ZTIv",
   "source_file" : "external/libyuv/include/libyuv/row.h"
  },
  {
   "function_name" : "libyuv::I410ToARGBMatrix",
   "linker_set_key" : "I410ToARGBMatrix",
   "parameters" :
   [
    {
     "referenced_type" : "_ZTIPKt"
    },
    {
     "referenced_type" : "_ZTIi"
    },
    {
     "referenced_type" : "_ZTIPKt"
    },
    {
     "referenced_type" : "_ZTIi"
    },
    {
     "referenced_type" : "_ZTIPKt"
    },
    {
     "referenced_type" : "_ZTIi"
    },
    {
     "referenced_type" : "_ZTIPh"
    },
    {
     "referenced_type" : "_ZTIi"
    },
    {
     "referenced_type" : "_ZTIPKN6libyuv12YuvConstantsE"
    },
    {
     "referenced_type" : "_ZTIi"
    },
    {
     "referenced_type" : "_ZTIi"
    }
   ],
   "return_type" : "_ZTIi",
   "source_file" : "external/libyuv/include/libyuv/convert_argb.h"
  },
  {
   "function_name" : "libyuv::I410ToARGBRow_AVX2",
   "linker_set_key" : "I410ToARGBRow_AVX2",
   "parameters" :
   [
    {
     "referenced_type" : "_ZTIPKt"
    },
    {
     "referenced_type" : "_ZTIPKt"
    },
    {
     "referenced_type" : "_ZTIPKt"
    },
    {
     "referenced_type" : "_ZTIPh"
    },
    {
     "referenced_type" : "_ZTIPKN6libyuv12YuvConstantsE"
    },
    {
     "referenced_type" : "_ZTIi"
    }
   ],
   "return_type" : "_ZTIv",
   "source_file" : "external/libyuv/include/libyuv/row.h"
  },
  {
   "function_name" : "libyuv::I410ToARGBRow_Any_AVX2",
   "linker_set_key" : "I410ToARGBRow_Any_AVX2",
   "parameters" :
   [
    {
     "referenced_type" : "_ZTIPKt"
    },
    {
     "referenced_type" : "_ZTIPKt"
    },
    {
     "referenced_type" : "_ZTIPKt"
    },
    {
     "referenced_type" : "_ZTIPh"
    },
    {
     "referenced_type" : "_ZTIPKN6libyuv12YuvConstantsE"
    },
    {
     "referenced_type" : "_ZTIi"
    }
   ],
   "return_type" : "_ZTIv",
   "source_file" : "external/libyuv/include/libyuv/row.h"
  },
  {
   "function_name" : "libyuv::I410ToARGBRow_Any_SSSE3",
   "linker_set_key" : "I410ToARGBRow_Any_SSSE3",
   "parameters" :
   [
    {
     "referenced_type" : "_ZTIPKt"
    },
    {
     "referenced_type" : "_ZTIPKt"
    },
    {
     "referenced_type" : "_ZTIPKt"
    },
    {
     "referenced_type" : "_ZTIPh"
    },
    {
     "referenced_type" : "_ZTIPKN6libyuv12YuvConstantsE"
    },
    {
     "referenced_type" : "_ZTIi"
    }
   ],
   "return_type" : "_ZTIv",
   "source_file" : "external/libyuv/include/libyuv/row.h"
  },
  {
   "function_name" : "libyuv::I410ToARGBRow_C",
   "linker_set_key" : "I410ToARGBRow_C",
   "parameters" :
   [
    {
     "referenced_type" : "_ZTIPKt"
    },
    {
     "referenced_type" : "_ZTIPKt"
    },
    {
     "referenced_type" : "_ZTIPKt"
    },
    {
     "referenced_type" : "_ZTIPh"
    },
    {
     "referenced_type" : "_ZTIPKN6libyuv12YuvConstantsE"
    },
    {
     "referenced_type" : "_ZTIi"
    }
   ],
   "return_type" : "_ZTIv",
   "source_file" : "external/libyuv/include/libyuv/row.h"
  },
  {
   "function_name" : "libyuv::I410ToARGBRow_SSSE3",
   "linker_set_key" : "I410ToARGBRow_SSSE3",
   "parameters" :
   [
    {
     "referenced_type" : "_ZTIPKt"
    },
    {
     "referenced_type" : "_ZTIPKt"
    },
    {
     "referenced_type" : "_ZTIPKt"
    },
    {
     "referenced_type" : "_ZTIPh"
    },
    {
     "referenced_type" : "_ZTIPKN6libyuv12YuvConstantsE"
    },
    {
     "referenced_type" : "_ZTIi"
    }
   ],
   "return_type" : "_ZTIv",
   "source_file" : "external/libyuv/include/libyuv/row.h"
  },
  {
   "function_name" : "libyuv::I410ToI010",
   "linker_set_key" : "I410ToI010",
   "parameters" :
   [
    {
     "referenced_type" : "_ZTIPKt"
    },
    {
     "referenced_type" : "_ZTIi"
    },
    {
     "referenced_type" : "_ZTIPKt"
    },
    {
     "referenced_type" : "_ZTIi"
    },
    {
     "referenced_type" : "_ZTIPKt"
    },
    {
     "referenced_type" : "_ZTIi"
    },
    {
     "referenced_type" : "_ZTIPt"
    },
    {
     "referenced_type" : "_ZTIi"
    },
    {
     "referenced_type" : "_ZTIPt"
    },
    {
     "referenced_type" : "_ZTIi"
    },
    {
     "referenced_type" : "_ZTIPt"
    },
    {
     "referenced_type" : "_ZTIi"
    },
    {
     "referenced_type" : "_ZTIi"
    },
    {
     "referenced_type" : "_ZTIi"
    }
   ],
   "return_type" : "_ZTIi",
   "source_file" : "external/libyuv/include/libyuv/convert.h"
  },
  {
   "function_name" : "libyuv::I410ToI420",
   "linker_set_key" : "I410ToI420",
   "parameters" :
   [
    {
     "referenced_type" : "_ZTIPKt"
    },
    {
     "referenced_type" : "_ZTIi"
    },
    {
     "referenced_type" : "_ZTIPKt"
    },
    {
     "referenced_type" : "_ZTIi"
    },
    {
     "referenced_type" : "_ZTIPKt"
    },
    {
     "referenced_type" : "_ZTIi"
    },
    {
     "referenced_type" : "_ZTIPh"
    },
    {
     "referenced_type" : "_ZTIi"
    },
    {
     "referenced_type" : "_ZTIPh"
    },
    {
     "referenced_type" : "_ZTIi"
    },
    {
     "referenced_type" : "_ZTIPh"
    },
    {
     "referenced_type" : "_ZTIi"
    },
    {
     "referenced_type" : "_ZTIi"
    },
    {
     "referenced_type" : "_ZTIi"
    }
   ],
   "return_type" : "_ZTIi",
   "source_file" : "external/libyuv/include/libyuv/convert.h"
  },
  {
   "function_name" : "libyuv::I410ToI444",
   "linker_set_key" : "I410ToI444",
   "parameters" :
   [
    {
     "referenced_type" : "_ZTIPKt"
    },
    {
     "referenced_type" : "_ZTIi"
    },
    {
     "referenced_type" : "_ZTIPKt"
    },
    {
     "referenced_type" : "_ZTIi"
    },
    {
     "referenced_type" : "_ZTIPKt"
    },
    {
     "referenced_type" : "_ZTIi"
    },
    {
     "referenced_type" : "_ZTIPh"
    },
    {
     "referenced_type" : "_ZTIi"
    },
    {
     "referenced_type" : "_ZTIPh"
    },
    {
     "referenced_type" : "_ZTIi"
    },
    {
     "referenced_type" : "_ZTIPh"
    },
    {
     "referenced_type" : "_ZTIi"
    },
    {
     "referenced_type" : "_ZTIi"
    },
    {
     "referenced_type" : "_ZTIi"
    }
   ],
   "return_type" : "_ZTIi",
   "source_file" : "external/libyuv/include/libyuv/convert.h"
  },
  {
   "function_name" : "libyuv::I412ToI420",
   "linker_set_key" : "I412ToI420",
   "parameters" :
   [
    {
     "referenced_type" : "_ZTIPKt"
    },
    {
     "referenced_type" : "_ZTIi"
    },
    {
     "referenced_type" : "_ZTIPKt"
    },
    {
     "referenced_type" : "_ZTIi"
    },
    {
     "referenced_type" : "_ZTIPKt"
    },
    {
     "referenced_type" : "_ZTIi"
    },
    {
     "referenced_type" : "_ZTIPh"
    },
    {
     "referenced_type" : "_ZTIi"
    },
    {
     "referenced_type" : "_ZTIPh"
    },
    {
     "referenced_type" : "_ZTIi"
    },
    {
     "referenced_type" : "_ZTIPh"
    },
    {
     "referenced_type" : "_ZTIi"
    },
    {
     "referenced_type" : "_ZTIi"
    },
    {
     "referenced_type" : "_ZTIi"
    }
   ],
   "return_type" : "_ZTIi",
   "source_file" : "external/libyuv/include/libyuv/convert.h"
  },
  {
   "function_name" : "libyuv::I412ToI444",
   "linker_set_key" : "I412ToI444",
   "parameters" :
   [
    {
     "referenced_type" : "_ZTIPKt"
    },
    {
     "referenced_type" : "_ZTIi"
    },
    {
     "referenced_type" : "_ZTIPKt"
    },
    {
     "referenced_type" : "_ZTIi"
    },
    {
     "referenced_type" : "_ZTIPKt"
    },
    {
     "referenced_type" : "_ZTIi"
    },
    {
     "referenced_type" : "_ZTIPh"
    },
    {
     "referenced_type" : "_ZTIi"
    },
    {
     "referenced_type" : "_ZTIPh"
    },
    {
     "referenced_type" : "_ZTIi"
    },
    {
     "referenced_type" : "_ZTIPh"
    },
    {
     "referenced_type" : "_ZTIi"
    },
    {
     "referenced_type" : "_ZTIi"
    },
    {
     "referenced_type" : "_ZTIi"
    }
   ],
   "return_type" : "_ZTIi",
   "source_file" : "external/libyuv/include/libyuv/convert.h"
  },
  {
   "function_name" : "libyuv::I420AlphaToABGR",
   "linker_set_key" : "I420AlphaToABGR",
   "parameters" :
   [
    {
     "referenced_type" : "_ZTIPKh"
    },
    {
     "referenced_type" : "_ZTIi"
    },
    {
     "referenced_type" : "_ZTIPKh"
    },
    {
     "referenced_type" : "_ZTIi"
    },
    {
     "referenced_type" : "_ZTIPKh"
    },
    {
     "referenced_type" : "_ZTIi"
    },
    {
     "referenced_type" : "_ZTIPKh"
    },
    {
     "referenced_type" : "_ZTIi"
    },
    {
     "referenced_type" : "_ZTIPh"
    },
    {
     "referenced_type" : "_ZTIi"
    },
    {
     "referenced_type" : "_ZTIi"
    },
    {
     "referenced_type" : "_ZTIi"
    },
    {
     "referenced_type" : "_ZTIi"
    }
   ],
   "return_type" : "_ZTIi",
   "source_file" : "external/libyuv/include/libyuv/convert_argb.h"
  },
  {
   "function_name" : "libyuv::I420AlphaToARGB",
   "linker_set_key" : "I420AlphaToARGB",
   "parameters" :
   [
    {
     "referenced_type" : "_ZTIPKh"
    },
    {
     "referenced_type" : "_ZTIi"
    },
    {
     "referenced_type" : "_ZTIPKh"
    },
    {
     "referenced_type" : "_ZTIi"
    },
    {
     "referenced_type" : "_ZTIPKh"
    },
    {
     "referenced_type" : "_ZTIi"
    },
    {
     "referenced_type" : "_ZTIPKh"
    },
    {
     "referenced_type" : "_ZTIi"
    },
    {
     "referenced_type" : "_ZTIPh"
    },
    {
     "referenced_type" : "_ZTIi"
    },
    {
     "referenced_type" : "_ZTIi"
    },
    {
     "referenced_type" : "_ZTIi"
    },
    {
     "referenced_type" : "_ZTIi"
    }
   ],
   "return_type" : "_ZTIi",
   "source_file" : "external/libyuv/include/libyuv/convert_argb.h"
  },
  {
   "function_name" : "libyuv::I420AlphaToARGBMatrix",
   "linker_set_key" : "I420AlphaToARGBMatrix",
   "parameters" :
   [
    {
     "referenced_type" : "_ZTIPKh"
    },
    {
     "referenced_type" : "_ZTIi"
    },
    {
     "referenced_type" : "_ZTIPKh"
    },
    {
     "referenced_type" : "_ZTIi"
    },
    {
     "referenced_type" : "_ZTIPKh"
    },
    {
     "referenced_type" : "_ZTIi"
    },
    {
     "referenced_type" : "_ZTIPKh"
    },
    {
     "referenced_type" : "_ZTIi"
    },
    {
     "referenced_type" : "_ZTIPh"
    },
    {
     "referenced_type" : "_ZTIi"
    },
    {
     "referenced_type" : "_ZTIPKN6libyuv12YuvConstantsE"
    },
    {
     "referenced_type" : "_ZTIi"
    },
    {
     "referenced_type" : "_ZTIi"
    },
    {
     "referenced_type" : "_ZTIi"
    }
   ],
   "return_type" : "_ZTIi",
   "source_file" : "external/libyuv/include/libyuv/convert_argb.h"
  },
  {
   "function_name" : "libyuv::I420AlphaToARGBMatrixFilter",
   "linker_set_key" : "I420AlphaToARGBMatrixFilter",
   "parameters" :
   [
    {
     "referenced_type" : "_ZTIPKh"
    },
    {
     "referenced_type" : "_ZTIi"
    },
    {
     "referenced_type" : "_ZTIPKh"
    },
    {
     "referenced_type" : "_ZTIi"
    },
    {
     "referenced_type" : "_ZTIPKh"
    },
    {
     "referenced_type" : "_ZTIi"
    },
    {
     "referenced_type" : "_ZTIPKh"
    },
    {
     "referenced_type" : "_ZTIi"
    },
    {
     "referenced_type" : "_ZTIPh"
    },
    {
     "referenced_type" : "_ZTIi"
    },
    {
     "referenced_type" : "_ZTIPKN6libyuv12YuvConstantsE"
    },
    {
     "referenced_type" : "_ZTIi"
    },
    {
     "referenced_type" : "_ZTIi"
    },
    {
     "referenced_type" : "_ZTIi"
    },
    {
     "referenced_type" : "_ZTIN6libyuv10FilterModeE"
    }
   ],
   "return_type" : "_ZTIi",
   "source_file" : "external/libyuv/include/libyuv/convert_argb.h"
  },
  {
   "function_name" : "libyuv::I420Blend",
   "linker_set_key" : "I420Blend",
   "parameters" :
   [
    {
     "referenced_type" : "_ZTIPKh"
    },
    {
     "referenced_type" : "_ZTIi"
    },
    {
     "referenced_type" : "_ZTIPKh"
    },
    {
     "referenced_type" : "_ZTIi"
    },
    {
     "referenced_type" : "_ZTIPKh"
    },
    {
     "referenced_type" : "_ZTIi"
    },
    {
     "referenced_type" : "_ZTIPKh"
    },
    {
     "referenced_type" : "_ZTIi"
    },
    {
     "referenced_type" : "_ZTIPKh"
    },
    {
     "referenced_type" : "_ZTIi"
    },
    {
     "referenced_type" : "_ZTIPKh"
    },
    {
     "referenced_type" : "_ZTIi"
    },
    {
     "referenced_type" : "_ZTIPKh"
    },
    {
     "referenced_type" : "_ZTIi"
    },
    {
     "referenced_type" : "_ZTIPh"
    },
    {
     "referenced_type" : "_ZTIi"
    },
    {
     "referenced_type" : "_ZTIPh"
    },
    {
     "referenced_type" : "_ZTIi"
    },
    {
     "referenced_type" : "_ZTIPh"
    },
    {
     "referenced_type" : "_ZTIi"
    },
    {
     "referenced_type" : "_ZTIi"
    },
    {
     "referenced_type" : "_ZTIi"
    }
   ],
   "return_type" : "_ZTIi",
   "source_file" : "external/libyuv/include/libyuv/planar_functions.h"
  },
  {
   "function_name" : "libyuv::I420Copy",
   "linker_set_key" : "I420Copy",
   "parameters" :
   [
    {
     "referenced_type" : "_ZTIPKh"
    },
    {
     "referenced_type" : "_ZTIi"
    },
    {
     "referenced_type" : "_ZTIPKh"
    },
    {
     "referenced_type" : "_ZTIi"
    },
    {
     "referenced_type" : "_ZTIPKh"
    },
    {
     "referenced_type" : "_ZTIi"
    },
    {
     "referenced_type" : "_ZTIPh"
    },
    {
     "referenced_type" : "_ZTIi"
    },
    {
     "referenced_type" : "_ZTIPh"
    },
    {
     "referenced_type" : "_ZTIi"
    },
    {
     "referenced_type" : "_ZTIPh"
    },
    {
     "referenced_type" : "_ZTIi"
    },
    {
     "referenced_type" : "_ZTIi"
    },
    {
     "referenced_type" : "_ZTIi"
    }
   ],
   "return_type" : "_ZTIi",
   "source_file" : "external/libyuv/include/libyuv/convert.h"
  },
  {
   "function_name" : "libyuv::I420Interpolate",
   "linker_set_key" : "I420Interpolate",
   "parameters" :
   [
    {
     "referenced_type" : "_ZTIPKh"
    },
    {
     "referenced_type" : "_ZTIi"
    },
    {
     "referenced_type" : "_ZTIPKh"
    },
    {
     "referenced_type" : "_ZTIi"
    },
    {
     "referenced_type" : "_ZTIPKh"
    },
    {
     "referenced_type" : "_ZTIi"
    },
    {
     "referenced_type" : "_ZTIPKh"
    },
    {
     "referenced_type" : "_ZTIi"
    },
    {
     "referenced_type" : "_ZTIPKh"
    },
    {
     "referenced_type" : "_ZTIi"
    },
    {
     "referenced_type" : "_ZTIPKh"
    },
    {
     "referenced_type" : "_ZTIi"
    },
    {
     "referenced_type" : "_ZTIPh"
    },
    {
     "referenced_type" : "_ZTIi"
    },
    {
     "referenced_type" : "_ZTIPh"
    },
    {
     "referenced_type" : "_ZTIi"
    },
    {
     "referenced_type" : "_ZTIPh"
    },
    {
     "referenced_type" : "_ZTIi"
    },
    {
     "referenced_type" : "_ZTIi"
    },
    {
     "referenced_type" : "_ZTIi"
    },
    {
     "referenced_type" : "_ZTIi"
    }
   ],
   "return_type" : "_ZTIi",
   "source_file" : "external/libyuv/include/libyuv/planar_functions.h"
  },
  {
   "function_name" : "libyuv::I420Mirror",
   "linker_set_key" : "I420Mirror",
   "parameters" :
   [
    {
     "referenced_type" : "_ZTIPKh"
    },
    {
     "referenced_type" : "_ZTIi"
    },
    {
     "referenced_type" : "_ZTIPKh"
    },
    {
     "referenced_type" : "_ZTIi"
    },
    {
     "referenced_type" : "_ZTIPKh"
    },
    {
     "referenced_type" : "_ZTIi"
    },
    {
     "referenced_type" : "_ZTIPh"
    },
    {
     "referenced_type" : "_ZTIi"
    },
    {
     "referenced_type" : "_ZTIPh"
    },
    {
     "referenced_type" : "_ZTIi"
    },
    {
     "referenced_type" : "_ZTIPh"
    },
    {
     "referenced_type" : "_ZTIi"
    },
    {
     "referenced_type" : "_ZTIi"
    },
    {
     "referenced_type" : "_ZTIi"
    }
   ],
   "return_type" : "_ZTIi",
   "source_file" : "external/libyuv/include/libyuv/planar_functions.h"
  },
  {
   "function_name" : "libyuv::I420Psnr",
   "linker_set_key" : "I420Psnr",
   "parameters" :
   [
    {
     "referenced_type" : "_ZTIPKh"
    },
    {
     "referenced_type" : "_ZTIi"
    },
    {
     "referenced_type" : "_ZTIPKh"
    },
    {
     "referenced_type" : "_ZTIi"
    },
    {
     "referenced_type" : "_ZTIPKh"
    },
    {
     "referenced_type" : "_ZTIi"
    },
    {
     "referenced_type" : "_ZTIPKh"
    },
    {
     "referenced_type" : "_ZTIi"
    },
    {
     "referenced_type" : "_ZTIPKh"
    },
    {
     "referenced_type" : "_ZTIi"
    },
    {
     "referenced_type" : "_ZTIPKh"
    },
    {
     "referenced_type" : "_ZTIi"
    },
    {
     "referenced_type" : "_ZTIi"
    },
    {
     "referenced_type" : "_ZTIi"
    }
   ],
   "return_type" : "_ZTId",
   "source_file" : "external/libyuv/include/libyuv/compare.h"
  },
  {
   "function_name" : "libyuv::I420Rect",
   "linker_set_key" : "I420Rect",
   "parameters" :
   [
    {
     "referenced_type" : "_ZTIPh"
    },
    {
     "referenced_type" : "_ZTIi"
    },
    {
     "referenced_type" : "_ZTIPh"
    },
    {
     "referenced_type" : "_ZTIi"
    },
    {
     "referenced_type" : "_ZTIPh"
    },
    {
     "referenced_type" : "_ZTIi"
    },
    {
     "referenced_type" : "_ZTIi"
    },
    {
     "referenced_type" : "_ZTIi"
    },
    {
     "referenced_type" : "_ZTIi"
    },
    {
     "referenced_type" : "_ZTIi"
    },
    {
     "referenced_type" : "_ZTIi"
    },
    {
     "referenced_type" : "_ZTIi"
    },
    {
     "referenced_type" : "_ZTIi"
    }
   ],
   "return_type" : "_ZTIi",
   "source_file" : "external/libyuv/include/libyuv/planar_functions.h"
  },
  {
   "function_name" : "libyuv::I420Rotate",
   "linker_set_key" : "I420Rotate",
   "parameters" :
   [
    {
     "referenced_type" : "_ZTIPKh"
    },
    {
     "referenced_type" : "_ZTIi"
    },
    {
     "referenced_type" : "_ZTIPKh"
    },
    {
     "referenced_type" : "_ZTIi"
    },
    {
     "referenced_type" : "_ZTIPKh"
    },
    {
     "referenced_type" : "_ZTIi"
    },
    {
     "referenced_type" : "_ZTIPh"
    },
    {
     "referenced_type" : "_ZTIi"
    },
    {
     "referenced_type" : "_ZTIPh"
    },
    {
     "referenced_type" : "_ZTIi"
    },
    {
     "referenced_type" : "_ZTIPh"
    },
    {
     "referenced_type" : "_ZTIi"
    },
    {
     "referenced_type" : "_ZTIi"
    },
    {
     "referenced_type" : "_ZTIi"
    },
    {
     "referenced_type" : "_ZTIN6libyuv12RotationModeE"
    }
   ],
   "return_type" : "_ZTIi",
   "source_file" : "external/libyuv/include/libyuv/rotate.h"
  },
  {
   "function_name" : "libyuv::I420Scale",
   "linker_set_key" : "I420Scale",
   "parameters" :
   [
    {
     "referenced_type" : "_ZTIPKh"
    },
    {
     "referenced_type" : "_ZTIi"
    },
    {
     "referenced_type" : "_ZTIPKh"
    },
    {
     "referenced_type" : "_ZTIi"
    },
    {
     "referenced_type" : "_ZTIPKh"
    },
    {
     "referenced_type" : "_ZTIi"
    },
    {
     "referenced_type" : "_ZTIi"
    },
    {
     "referenced_type" : "_ZTIi"
    },
    {
     "referenced_type" : "_ZTIPh"
    },
    {
     "referenced_type" : "_ZTIi"
    },
    {
     "referenced_type" : "_ZTIPh"
    },
    {
     "referenced_type" : "_ZTIi"
    },
    {
     "referenced_type" : "_ZTIPh"
    },
    {
     "referenced_type" : "_ZTIi"
    },
    {
     "referenced_type" : "_ZTIi"
    },
    {
     "referenced_type" : "_ZTIi"
    },
    {
     "referenced_type" : "_ZTIN6libyuv10FilterModeE"
    }
   ],
   "return_type" : "_ZTIi",
   "source_file" : "external/libyuv/include/libyuv/scale.h"
  },
  {
   "function_name" : "libyuv::I420Scale_12",
   "linker_set_key" : "I420Scale_12",
   "parameters" :
   [
    {
     "referenced_type" : "_ZTIPKt"
    },
    {
     "referenced_type" : "_ZTIi"
    },
    {
     "referenced_type" : "_ZTIPKt"
    },
    {
     "referenced_type" : "_ZTIi"
    },
    {
     "referenced_type" : "_ZTIPKt"
    },
    {
     "referenced_type" : "_ZTIi"
    },
    {
     "referenced_type" : "_ZTIi"
    },
    {
     "referenced_type" : "_ZTIi"
    },
    {
     "referenced_type" : "_ZTIPt"
    },
    {
     "referenced_type" : "_ZTIi"
    },
    {
     "referenced_type" : "_ZTIPt"
    },
    {
     "referenced_type" : "_ZTIi"
    },
    {
     "referenced_type" : "_ZTIPt"
    },
    {
     "referenced_type" : "_ZTIi"
    },
    {
     "referenced_type" : "_ZTIi"
    },
    {
     "referenced_type" : "_ZTIi"
    },
    {
     "referenced_type" : "_ZTIN6libyuv10FilterModeE"
    }
   ],
   "return_type" : "_ZTIi",
   "source_file" : "external/libyuv/include/libyuv/scale.h"
  },
  {
   "function_name" : "libyuv::I420Scale_16",
   "linker_set_key" : "I420Scale_16",
   "parameters" :
   [
    {
     "referenced_type" : "_ZTIPKt"
    },
    {
     "referenced_type" : "_ZTIi"
    },
    {
     "referenced_type" : "_ZTIPKt"
    },
    {
     "referenced_type" : "_ZTIi"
    },
    {
     "referenced_type" : "_ZTIPKt"
    },
    {
     "referenced_type" : "_ZTIi"
    },
    {
     "referenced_type" : "_ZTIi"
    },
    {
     "referenced_type" : "_ZTIi"
    },
    {
     "referenced_type" : "_ZTIPt"
    },
    {
     "referenced_type" : "_ZTIi"
    },
    {
     "referenced_type" : "_ZTIPt"
    },
    {
     "referenced_type" : "_ZTIi"
    },
    {
     "referenced_type" : "_ZTIPt"
    },
    {
     "referenced_type" : "_ZTIi"
    },
    {
     "referenced_type" : "_ZTIi"
    },
    {
     "referenced_type" : "_ZTIi"
    },
    {
     "referenced_type" : "_ZTIN6libyuv10FilterModeE"
    }
   ],
   "return_type" : "_ZTIi",
   "source_file" : "external/libyuv/include/libyuv/scale.h"
  },
  {
   "function_name" : "libyuv::I420Ssim",
   "linker_set_key" : "I420Ssim",
   "parameters" :
   [
    {
     "referenced_type" : "_ZTIPKh"
    },
    {
     "referenced_type" : "_ZTIi"
    },
    {
     "referenced_type" : "_ZTIPKh"
    },
    {
     "referenced_type" : "_ZTIi"
    },
    {
     "referenced_type" : "_ZTIPKh"
    },
    {
     "referenced_type" : "_ZTIi"
    },
    {
     "referenced_type" : "_ZTIPKh"
    },
    {
     "referenced_type" : "_ZTIi"
    },
    {
     "referenced_type" : "_ZTIPKh"
    },
    {
     "referenced_type" : "_ZTIi"
    },
    {
     "referenced_type" : "_ZTIPKh"
    },
    {
     "referenced_type" : "_ZTIi"
    },
    {
     "referenced_type" : "_ZTIi"
    },
    {
     "referenced_type" : "_ZTIi"
    }
   ],
   "return_type" : "_ZTId",
   "source_file" : "external/libyuv/include/libyuv/compare.h"
  },
  {
   "function_name" : "libyuv::I420ToAB30",
   "linker_set_key" : "I420ToAB30",
   "parameters" :
   [
    {
     "referenced_type" : "_ZTIPKh"
    },
    {
     "referenced_type" : "_ZTIi"
    },
    {
     "referenced_type" : "_ZTIPKh"
    },
    {
     "referenced_type" : "_ZTIi"
    },
    {
     "referenced_type" : "_ZTIPKh"
    },
    {
     "referenced_type" : "_ZTIi"
    },
    {
     "referenced_type" : "_ZTIPh"
    },
    {
     "referenced_type" : "_ZTIi"
    },
    {
     "referenced_type" : "_ZTIi"
    },
    {
     "referenced_type" : "_ZTIi"
    }
   ],
   "return_type" : "_ZTIi",
   "source_file" : "external/libyuv/include/libyuv/convert_argb.h"
  },
  {
   "function_name" : "libyuv::I420ToABGR",
   "linker_set_key" : "I420ToABGR",
   "parameters" :
   [
    {
     "referenced_type" : "_ZTIPKh"
    },
    {
     "referenced_type" : "_ZTIi"
    },
    {
     "referenced_type" : "_ZTIPKh"
    },
    {
     "referenced_type" : "_ZTIi"
    },
    {
     "referenced_type" : "_ZTIPKh"
    },
    {
     "referenced_type" : "_ZTIi"
    },
    {
     "referenced_type" : "_ZTIPh"
    },
    {
     "referenced_type" : "_ZTIi"
    },
    {
     "referenced_type" : "_ZTIi"
    },
    {
     "referenced_type" : "_ZTIi"
    }
   ],
   "return_type" : "_ZTIi",
   "source_file" : "external/libyuv/include/libyuv/convert_argb.h"
  },
  {
   "function_name" : "libyuv::I420ToAR30",
   "linker_set_key" : "I420ToAR30",
   "parameters" :
   [
    {
     "referenced_type" : "_ZTIPKh"
    },
    {
     "referenced_type" : "_ZTIi"
    },
    {
     "referenced_type" : "_ZTIPKh"
    },
    {
     "referenced_type" : "_ZTIi"
    },
    {
     "referenced_type" : "_ZTIPKh"
    },
    {
     "referenced_type" : "_ZTIi"
    },
    {
     "referenced_type" : "_ZTIPh"
    },
    {
     "referenced_type" : "_ZTIi"
    },
    {
     "referenced_type" : "_ZTIi"
    },
    {
     "referenced_type" : "_ZTIi"
    }
   ],
   "return_type" : "_ZTIi",
   "source_file" : "external/libyuv/include/libyuv/convert_argb.h"
  },
  {
   "function_name" : "libyuv::I420ToAR30Matrix",
   "linker_set_key" : "I420ToAR30Matrix",
   "parameters" :
   [
    {
     "referenced_type" : "_ZTIPKh"
    },
    {
     "referenced_type" : "_ZTIi"
    },
    {
     "referenced_type" : "_ZTIPKh"
    },
    {
     "referenced_type" : "_ZTIi"
    },
    {
     "referenced_type" : "_ZTIPKh"
    },
    {
     "referenced_type" : "_ZTIi"
    },
    {
     "referenced_type" : "_ZTIPh"
    },
    {
     "referenced_type" : "_ZTIi"
    },
    {
     "referenced_type" : "_ZTIPKN6libyuv12YuvConstantsE"
    },
    {
     "referenced_type" : "_ZTIi"
    },
    {
     "referenced_type" : "_ZTIi"
    }
   ],
   "return_type" : "_ZTIi",
   "source_file" : "external/libyuv/include/libyuv/convert_argb.h"
  },
  {
   "function_name" : "libyuv::I420ToARGB",
   "linker_set_key" : "I420ToARGB",
   "parameters" :
   [
    {
     "referenced_type" : "_ZTIPKh"
    },
    {
     "referenced_type" : "_ZTIi"
    },
    {
     "referenced_type" : "_ZTIPKh"
    },
    {
     "referenced_type" : "_ZTIi"
    },
    {
     "referenced_type" : "_ZTIPKh"
    },
    {
     "referenced_type" : "_ZTIi"
    },
    {
     "referenced_type" : "_ZTIPh"
    },
    {
     "referenced_type" : "_ZTIi"
    },
    {
     "referenced_type" : "_ZTIi"
    },
    {
     "referenced_type" : "_ZTIi"
    }
   ],
   "return_type" : "_ZTIi",
   "source_file" : "external/libyuv/include/libyuv/convert_argb.h"
  },
  {
   "function_name" : "libyuv::I420ToARGB1555",
   "linker_set_key" : "I420ToARGB1555",
   "parameters" :
   [
    {
     "referenced_type" : "_ZTIPKh"
    },
    {
     "referenced_type" : "_ZTIi"
    },
    {
     "referenced_type" : "_ZTIPKh"
    },
    {
     "referenced_type" : "_ZTIi"
    },
    {
     "referenced_type" : "_ZTIPKh"
    },
    {
     "referenced_type" : "_ZTIi"
    },
    {
     "referenced_type" : "_ZTIPh"
    },
    {
     "referenced_type" : "_ZTIi"
    },
    {
     "referenced_type" : "_ZTIi"
    },
    {
     "referenced_type" : "_ZTIi"
    }
   ],
   "return_type" : "_ZTIi",
   "source_file" : "external/libyuv/include/libyuv/convert_argb.h"
  },
  {
   "function_name" : "libyuv::I420ToARGB4444",
   "linker_set_key" : "I420ToARGB4444",
   "parameters" :
   [
    {
     "referenced_type" : "_ZTIPKh"
    },
    {
     "referenced_type" : "_ZTIi"
    },
    {
     "referenced_type" : "_ZTIPKh"
    },
    {
     "referenced_type" : "_ZTIi"
    },
    {
     "referenced_type" : "_ZTIPKh"
    },
    {
     "referenced_type" : "_ZTIi"
    },
    {
     "referenced_type" : "_ZTIPh"
    },
    {
     "referenced_type" : "_ZTIi"
    },
    {
     "referenced_type" : "_ZTIi"
    },
    {
     "referenced_type" : "_ZTIi"
    }
   ],
   "return_type" : "_ZTIi",
   "source_file" : "external/libyuv/include/libyuv/convert_argb.h"
  },
  {
   "function_name" : "libyuv::I420ToARGBMatrix",
   "linker_set_key" : "I420ToARGBMatrix",
   "parameters" :
   [
    {
     "referenced_type" : "_ZTIPKh"
    },
    {
     "referenced_type" : "_ZTIi"
    },
    {
     "referenced_type" : "_ZTIPKh"
    },
    {
     "referenced_type" : "_ZTIi"
    },
    {
     "referenced_type" : "_ZTIPKh"
    },
    {
     "referenced_type" : "_ZTIi"
    },
    {
     "referenced_type" : "_ZTIPh"
    },
    {
     "referenced_type" : "_ZTIi"
    },
    {
     "referenced_type" : "_ZTIPKN6libyuv12YuvConstantsE"
    },
    {
     "referenced_type" : "_ZTIi"
    },
    {
     "referenced_type" : "_ZTIi"
    }
   ],
   "return_type" : "_ZTIi",
   "source_file" : "external/libyuv/include/libyuv/convert_argb.h"
  },
  {
   "function_name" : "libyuv::I420ToARGBMatrixFilter",
   "linker_set_key" : "I420ToARGBMatrixFilter",
   "parameters" :
   [
    {
     "referenced_type" : "_ZTIPKh"
    },
    {
     "referenced_type" : "_ZTIi"
    },
    {
     "referenced_type" : "_ZTIPKh"
    },
    {
     "referenced_type" : "_ZTIi"
    },
    {
     "referenced_type" : "_ZTIPKh"
    },
    {
     "referenced_type" : "_ZTIi"
    },
    {
     "referenced_type" : "_ZTIPh"
    },
    {
     "referenced_type" : "_ZTIi"
    },
    {
     "referenced_type" : "_ZTIPKN6libyuv12YuvConstantsE"
    },
    {
     "referenced_type" : "_ZTIi"
    },
    {
     "referenced_type" : "_ZTIi"
    },
    {
     "referenced_type" : "_ZTIN6libyuv10FilterModeE"
    }
   ],
   "return_type" : "_ZTIi",
   "source_file" : "external/libyuv/include/libyuv/convert_argb.h"
  },
  {
   "function_name" : "libyuv::I420ToBGRA",
   "linker_set_key" : "I420ToBGRA",
   "parameters" :
   [
    {
     "referenced_type" : "_ZTIPKh"
    },
    {
     "referenced_type" : "_ZTIi"
    },
    {
     "referenced_type" : "_ZTIPKh"
    },
    {
     "referenced_type" : "_ZTIi"
    },
    {
     "referenced_type" : "_ZTIPKh"
    },
    {
     "referenced_type" : "_ZTIi"
    },
    {
     "referenced_type" : "_ZTIPh"
    },
    {
     "referenced_type" : "_ZTIi"
    },
    {
     "referenced_type" : "_ZTIi"
    },
    {
     "referenced_type" : "_ZTIi"
    }
   ],
   "return_type" : "_ZTIi",
   "source_file" : "external/libyuv/include/libyuv/convert_argb.h"
  },
  {
   "function_name" : "libyuv::I420ToI010",
   "linker_set_key" : "I420ToI010",
   "parameters" :
   [
    {
     "referenced_type" : "_ZTIPKh"
    },
    {
     "referenced_type" : "_ZTIi"
    },
    {
     "referenced_type" : "_ZTIPKh"
    },
    {
     "referenced_type" : "_ZTIi"
    },
    {
     "referenced_type" : "_ZTIPKh"
    },
    {
     "referenced_type" : "_ZTIi"
    },
    {
     "referenced_type" : "_ZTIPt"
    },
    {
     "referenced_type" : "_ZTIi"
    },
    {
     "referenced_type" : "_ZTIPt"
    },
    {
     "referenced_type" : "_ZTIi"
    },
    {
     "referenced_type" : "_ZTIPt"
    },
    {
     "referenced_type" : "_ZTIi"
    },
    {
     "referenced_type" : "_ZTIi"
    },
    {
     "referenced_type" : "_ZTIi"
    }
   ],
   "return_type" : "_ZTIi",
   "source_file" : "external/libyuv/include/libyuv/convert_from.h"
  },
  {
   "function_name" : "libyuv::I420ToI012",
   "linker_set_key" : "I420ToI012",
   "parameters" :
   [
    {
     "referenced_type" : "_ZTIPKh"
    },
    {
     "referenced_type" : "_ZTIi"
    },
    {
     "referenced_type" : "_ZTIPKh"
    },
    {
     "referenced_type" : "_ZTIi"
    },
    {
     "referenced_type" : "_ZTIPKh"
    },
    {
     "referenced_type" : "_ZTIi"
    },
    {
     "referenced_type" : "_ZTIPt"
    },
    {
     "referenced_type" : "_ZTIi"
    },
    {
     "referenced_type" : "_ZTIPt"
    },
    {
     "referenced_type" : "_ZTIi"
    },
    {
     "referenced_type" : "_ZTIPt"
    },
    {
     "referenced_type" : "_ZTIi"
    },
    {
     "referenced_type" : "_ZTIi"
    },
    {
     "referenced_type" : "_ZTIi"
    }
   ],
   "return_type" : "_ZTIi",
   "source_file" : "external/libyuv/include/libyuv/convert_from.h"
  },
  {
   "function_name" : "libyuv::I420ToI400",
   "linker_set_key" : "I420ToI400",
   "parameters" :
   [
    {
     "referenced_type" : "_ZTIPKh"
    },
    {
     "referenced_type" : "_ZTIi"
    },
    {
     "referenced_type" : "_ZTIPKh"
    },
    {
     "referenced_type" : "_ZTIi"
    },
    {
     "referenced_type" : "_ZTIPKh"
    },
    {
     "referenced_type" : "_ZTIi"
    },
    {
     "referenced_type" : "_ZTIPh"
    },
    {
     "referenced_type" : "_ZTIi"
    },
    {
     "referenced_type" : "_ZTIi"
    },
    {
     "referenced_type" : "_ZTIi"
    }
   ],
   "return_type" : "_ZTIi",
   "source_file" : "external/libyuv/include/libyuv/planar_functions.h"
  },
  {
   "function_name" : "libyuv::I420ToI422",
   "linker_set_key" : "I420ToI422",
   "parameters" :
   [
    {
     "referenced_type" : "_ZTIPKh"
    },
    {
     "referenced_type" : "_ZTIi"
    },
    {
     "referenced_type" : "_ZTIPKh"
    },
    {
     "referenced_type" : "_ZTIi"
    },
    {
     "referenced_type" : "_ZTIPKh"
    },
    {
     "referenced_type" : "_ZTIi"
    },
    {
     "referenced_type" : "_ZTIPh"
    },
    {
     "referenced_type" : "_ZTIi"
    },
    {
     "referenced_type" : "_ZTIPh"
    },
    {
     "referenced_type" : "_ZTIi"
    },
    {
     "referenced_type" : "_ZTIPh"
    },
    {
     "referenced_type" : "_ZTIi"
    },
    {
     "referenced_type" : "_ZTIi"
    },
    {
     "referenced_type" : "_ZTIi"
    }
   ],
   "return_type" : "_ZTIi",
   "source_file" : "external/libyuv/include/libyuv/convert_from.h"
  },
  {
   "function_name" : "libyuv::I420ToI444",
   "linker_set_key" : "I420ToI444",
   "parameters" :
   [
    {
     "referenced_type" : "_ZTIPKh"
    },
    {
     "referenced_type" : "_ZTIi"
    },
    {
     "referenced_type" : "_ZTIPKh"
    },
    {
     "referenced_type" : "_ZTIi"
    },
    {
     "referenced_type" : "_ZTIPKh"
    },
    {
     "referenced_type" : "_ZTIi"
    },
    {
     "referenced_type" : "_ZTIPh"
    },
    {
     "referenced_type" : "_ZTIi"
    },
    {
     "referenced_type" : "_ZTIPh"
    },
    {
     "referenced_type" : "_ZTIi"
    },
    {
     "referenced_type" : "_ZTIPh"
    },
    {
     "referenced_type" : "_ZTIi"
    },
    {
     "referenced_type" : "_ZTIi"
    },
    {
     "referenced_type" : "_ZTIi"
    }
   ],
   "return_type" : "_ZTIi",
   "source_file" : "external/libyuv/include/libyuv/convert_from.h"
  },
  {
   "function_name" : "libyuv::I420ToNV12",
   "linker_set_key" : "I420ToNV12",
   "parameters" :
   [
    {
     "referenced_type" : "_ZTIPKh"
    },
    {
     "referenced_type" : "_ZTIi"
    },
    {
     "referenced_type" : "_ZTIPKh"
    },
    {
     "referenced_type" : "_ZTIi"
    },
    {
     "referenced_type" : "_ZTIPKh"
    },
    {
     "referenced_type" : "_ZTIi"
    },
    {
     "referenced_type" : "_ZTIPh"
    },
    {
     "referenced_type" : "_ZTIi"
    },
    {
     "referenced_type" : "_ZTIPh"
    },
    {
     "referenced_type" : "_ZTIi"
    },
    {
     "referenced_type" : "_ZTIi"
    },
    {
     "referenced_type" : "_ZTIi"
    }
   ],
   "return_type" : "_ZTIi",
   "source_file" : "external/libyuv/include/libyuv/convert_from.h"
  },
  {
   "function_name" : "libyuv::I420ToNV21",
   "linker_set_key" : "I420ToNV21",
   "parameters" :
   [
    {
     "referenced_type" : "_ZTIPKh"
    },
    {
     "referenced_type" : "_ZTIi"
    },
    {
     "referenced_type" : "_ZTIPKh"
    },
    {
     "referenced_type" : "_ZTIi"
    },
    {
     "referenced_type" : "_ZTIPKh"
    },
    {
     "referenced_type" : "_ZTIi"
    },
    {
     "referenced_type" : "_ZTIPh"
    },
    {
     "referenced_type" : "_ZTIi"
    },
    {
     "referenced_type" : "_ZTIPh"
    },
    {
     "referenced_type" : "_ZTIi"
    },
    {
     "referenced_type" : "_ZTIi"
    },
    {
     "referenced_type" : "_ZTIi"
    }
   ],
   "return_type" : "_ZTIi",
   "source_file" : "external/libyuv/include/libyuv/convert_from.h"
  },
  {
   "function_name" : "libyuv::I420ToRAW",
   "linker_set_key" : "I420ToRAW",
   "parameters" :
   [
    {
     "referenced_type" : "_ZTIPKh"
    },
    {
     "referenced_type" : "_ZTIi"
    },
    {
     "referenced_type" : "_ZTIPKh"
    },
    {
     "referenced_type" : "_ZTIi"
    },
    {
     "referenced_type" : "_ZTIPKh"
    },
    {
     "referenced_type" : "_ZTIi"
    },
    {
     "referenced_type" : "_ZTIPh"
    },
    {
     "referenced_type" : "_ZTIi"
    },
    {
     "referenced_type" : "_ZTIi"
    },
    {
     "referenced_type" : "_ZTIi"
    }
   ],
   "return_type" : "_ZTIi",
   "source_file" : "external/libyuv/include/libyuv/convert_argb.h"
  },
  {
   "function_name" : "libyuv::I420ToRGB24",
   "linker_set_key" : "I420ToRGB24",
   "parameters" :
   [
    {
     "referenced_type" : "_ZTIPKh"
    },
    {
     "referenced_type" : "_ZTIi"
    },
    {
     "referenced_type" : "_ZTIPKh"
    },
    {
     "referenced_type" : "_ZTIi"
    },
    {
     "referenced_type" : "_ZTIPKh"
    },
    {
     "referenced_type" : "_ZTIi"
    },
    {
     "referenced_type" : "_ZTIPh"
    },
    {
     "referenced_type" : "_ZTIi"
    },
    {
     "referenced_type" : "_ZTIi"
    },
    {
     "referenced_type" : "_ZTIi"
    }
   ],
   "return_type" : "_ZTIi",
   "source_file" : "external/libyuv/include/libyuv/convert_argb.h"
  },
  {
   "function_name" : "libyuv::I420ToRGB24Matrix",
   "linker_set_key" : "I420ToRGB24Matrix",
   "parameters" :
   [
    {
     "referenced_type" : "_ZTIPKh"
    },
    {
     "referenced_type" : "_ZTIi"
    },
    {
     "referenced_type" : "_ZTIPKh"
    },
    {
     "referenced_type" : "_ZTIi"
    },
    {
     "referenced_type" : "_ZTIPKh"
    },
    {
     "referenced_type" : "_ZTIi"
    },
    {
     "referenced_type" : "_ZTIPh"
    },
    {
     "referenced_type" : "_ZTIi"
    },
    {
     "referenced_type" : "_ZTIPKN6libyuv12YuvConstantsE"
    },
    {
     "referenced_type" : "_ZTIi"
    },
    {
     "referenced_type" : "_ZTIi"
    }
   ],
   "return_type" : "_ZTIi",
   "source_file" : "external/libyuv/include/libyuv/convert_argb.h"
  },
  {
   "function_name" : "libyuv::I420ToRGB24MatrixFilter",
   "linker_set_key" : "I420ToRGB24MatrixFilter",
   "parameters" :
   [
    {
     "referenced_type" : "_ZTIPKh"
    },
    {
     "referenced_type" : "_ZTIi"
    },
    {
     "referenced_type" : "_ZTIPKh"
    },
    {
     "referenced_type" : "_ZTIi"
    },
    {
     "referenced_type" : "_ZTIPKh"
    },
    {
     "referenced_type" : "_ZTIi"
    },
    {
     "referenced_type" : "_ZTIPh"
    },
    {
     "referenced_type" : "_ZTIi"
    },
    {
     "referenced_type" : "_ZTIPKN6libyuv12YuvConstantsE"
    },
    {
     "referenced_type" : "_ZTIi"
    },
    {
     "referenced_type" : "_ZTIi"
    },
    {
     "referenced_type" : "_ZTIN6libyuv10FilterModeE"
    }
   ],
   "return_type" : "_ZTIi",
   "source_file" : "external/libyuv/include/libyuv/convert_argb.h"
  },
  {
   "function_name" : "libyuv::I420ToRGB565",
   "linker_set_key" : "I420ToRGB565",
   "parameters" :
   [
    {
     "referenced_type" : "_ZTIPKh"
    },
    {
     "referenced_type" : "_ZTIi"
    },
    {
     "referenced_type" : "_ZTIPKh"
    },
    {
     "referenced_type" : "_ZTIi"
    },
    {
     "referenced_type" : "_ZTIPKh"
    },
    {
     "referenced_type" : "_ZTIi"
    },
    {
     "referenced_type" : "_ZTIPh"
    },
    {
     "referenced_type" : "_ZTIi"
    },
    {
     "referenced_type" : "_ZTIi"
    },
    {
     "referenced_type" : "_ZTIi"
    }
   ],
   "return_type" : "_ZTIi",
   "source_file" : "external/libyuv/include/libyuv/convert_argb.h"
  },
  {
   "function_name" : "libyuv::I420ToRGB565Dither",
   "linker_set_key" : "I420ToRGB565Dither",
   "parameters" :
   [
    {
     "referenced_type" : "_ZTIPKh"
    },
    {
     "referenced_type" : "_ZTIi"
    },
    {
     "referenced_type" : "_ZTIPKh"
    },
    {
     "referenced_type" : "_ZTIi"
    },
    {
     "referenced_type" : "_ZTIPKh"
    },
    {
     "referenced_type" : "_ZTIi"
    },
    {
     "referenced_type" : "_ZTIPh"
    },
    {
     "referenced_type" : "_ZTIi"
    },
    {
     "referenced_type" : "_ZTIPKh"
    },
    {
     "referenced_type" : "_ZTIi"
    },
    {
     "referenced_type" : "_ZTIi"
    }
   ],
   "return_type" : "_ZTIi",
   "source_file" : "external/libyuv/include/libyuv/convert_argb.h"
  },
  {
   "function_name" : "libyuv::I420ToRGB565Matrix",
   "linker_set_key" : "I420ToRGB565Matrix",
   "parameters" :
   [
    {
     "referenced_type" : "_ZTIPKh"
    },
    {
     "referenced_type" : "_ZTIi"
    },
    {
     "referenced_type" : "_ZTIPKh"
    },
    {
     "referenced_type" : "_ZTIi"
    },
    {
     "referenced_type" : "_ZTIPKh"
    },
    {
     "referenced_type" : "_ZTIi"
    },
    {
     "referenced_type" : "_ZTIPh"
    },
    {
     "referenced_type" : "_ZTIi"
    },
    {
     "referenced_type" : "_ZTIPKN6libyuv12YuvConstantsE"
    },
    {
     "referenced_type" : "_ZTIi"
    },
    {
     "referenced_type" : "_ZTIi"
    }
   ],
   "return_type" : "_ZTIi",
   "source_file" : "external/libyuv/include/libyuv/convert_argb.h"
  },
  {
   "function_name" : "libyuv::I420ToRGBA",
   "linker_set_key" : "I420ToRGBA",
   "parameters" :
   [
    {
     "referenced_type" : "_ZTIPKh"
    },
    {
     "referenced_type" : "_ZTIi"
    },
    {
     "referenced_type" : "_ZTIPKh"
    },
    {
     "referenced_type" : "_ZTIi"
    },
    {
     "referenced_type" : "_ZTIPKh"
    },
    {
     "referenced_type" : "_ZTIi"
    },
    {
     "referenced_type" : "_ZTIPh"
    },
    {
     "referenced_type" : "_ZTIi"
    },
    {
     "referenced_type" : "_ZTIi"
    },
    {
     "referenced_type" : "_ZTIi"
    }
   ],
   "return_type" : "_ZTIi",
   "source_file" : "external/libyuv/include/libyuv/convert_argb.h"
  },
  {
   "function_name" : "libyuv::I420ToRGBAMatrix",
   "linker_set_key" : "I420ToRGBAMatrix",
   "parameters" :
   [
    {
     "referenced_type" : "_ZTIPKh"
    },
    {
     "referenced_type" : "_ZTIi"
    },
    {
     "referenced_type" : "_ZTIPKh"
    },
    {
     "referenced_type" : "_ZTIi"
    },
    {
     "referenced_type" : "_ZTIPKh"
    },
    {
     "referenced_type" : "_ZTIi"
    },
    {
     "referenced_type" : "_ZTIPh"
    },
    {
     "referenced_type" : "_ZTIi"
    },
    {
     "referenced_type" : "_ZTIPKN6libyuv12YuvConstantsE"
    },
    {
     "referenced_type" : "_ZTIi"
    },
    {
     "referenced_type" : "_ZTIi"
    }
   ],
   "return_type" : "_ZTIi",
   "source_file" : "external/libyuv/include/libyuv/convert_argb.h"
  },
  {
   "function_name" : "libyuv::I420ToUYVY",
   "linker_set_key" : "I420ToUYVY",
   "parameters" :
   [
    {
     "referenced_type" : "_ZTIPKh"
    },
    {
     "referenced_type" : "_ZTIi"
    },
    {
     "referenced_type" : "_ZTIPKh"
    },
    {
     "referenced_type" : "_ZTIi"
    },
    {
     "referenced_type" : "_ZTIPKh"
    },
    {
     "referenced_type" : "_ZTIi"
    },
    {
     "referenced_type" : "_ZTIPh"
    },
    {
     "referenced_type" : "_ZTIi"
    },
    {
     "referenced_type" : "_ZTIi"
    },
    {
     "referenced_type" : "_ZTIi"
    }
   ],
   "return_type" : "_ZTIi",
   "source_file" : "external/libyuv/include/libyuv/convert_from.h"
  },
  {
   "function_name" : "libyuv::I420ToYUY2",
   "linker_set_key" : "I420ToYUY2",
   "parameters" :
   [
    {
     "referenced_type" : "_ZTIPKh"
    },
    {
     "referenced_type" : "_ZTIi"
    },
    {
     "referenced_type" : "_ZTIPKh"
    },
    {
     "referenced_type" : "_ZTIi"
    },
    {
     "referenced_type" : "_ZTIPKh"
    },
    {
     "referenced_type" : "_ZTIi"
    },
    {
     "referenced_type" : "_ZTIPh"
    },
    {
     "referenced_type" : "_ZTIi"
    },
    {
     "referenced_type" : "_ZTIi"
    },
    {
     "referenced_type" : "_ZTIi"
    }
   ],
   "return_type" : "_ZTIi",
   "source_file" : "external/libyuv/include/libyuv/convert_from.h"
  },
  {
   "function_name" : "libyuv::I422AlphaToABGR",
   "linker_set_key" : "I422AlphaToABGR",
   "parameters" :
   [
    {
     "referenced_type" : "_ZTIPKh"
    },
    {
     "referenced_type" : "_ZTIi"
    },
    {
     "referenced_type" : "_ZTIPKh"
    },
    {
     "referenced_type" : "_ZTIi"
    },
    {
     "referenced_type" : "_ZTIPKh"
    },
    {
     "referenced_type" : "_ZTIi"
    },
    {
     "referenced_type" : "_ZTIPKh"
    },
    {
     "referenced_type" : "_ZTIi"
    },
    {
     "referenced_type" : "_ZTIPh"
    },
    {
     "referenced_type" : "_ZTIi"
    },
    {
     "referenced_type" : "_ZTIi"
    },
    {
     "referenced_type" : "_ZTIi"
    },
    {
     "referenced_type" : "_ZTIi"
    }
   ],
   "return_type" : "_ZTIi",
   "source_file" : "external/libyuv/include/libyuv/convert_argb.h"
  },
  {
   "function_name" : "libyuv::I422AlphaToARGB",
   "linker_set_key" : "I422AlphaToARGB",
   "parameters" :
   [
    {
     "referenced_type" : "_ZTIPKh"
    },
    {
     "referenced_type" : "_ZTIi"
    },
    {
     "referenced_type" : "_ZTIPKh"
    },
    {
     "referenced_type" : "_ZTIi"
    },
    {
     "referenced_type" : "_ZTIPKh"
    },
    {
     "referenced_type" : "_ZTIi"
    },
    {
     "referenced_type" : "_ZTIPKh"
    },
    {
     "referenced_type" : "_ZTIi"
    },
    {
     "referenced_type" : "_ZTIPh"
    },
    {
     "referenced_type" : "_ZTIi"
    },
    {
     "referenced_type" : "_ZTIi"
    },
    {
     "referenced_type" : "_ZTIi"
    },
    {
     "referenced_type" : "_ZTIi"
    }
   ],
   "return_type" : "_ZTIi",
   "source_file" : "external/libyuv/include/libyuv/convert_argb.h"
  },
  {
   "function_name" : "libyuv::I422AlphaToARGBMatrix",
   "linker_set_key" : "I422AlphaToARGBMatrix",
   "parameters" :
   [
    {
     "referenced_type" : "_ZTIPKh"
    },
    {
     "referenced_type" : "_ZTIi"
    },
    {
     "referenced_type" : "_ZTIPKh"
    },
    {
     "referenced_type" : "_ZTIi"
    },
    {
     "referenced_type" : "_ZTIPKh"
    },
    {
     "referenced_type" : "_ZTIi"
    },
    {
     "referenced_type" : "_ZTIPKh"
    },
    {
     "referenced_type" : "_ZTIi"
    },
    {
     "referenced_type" : "_ZTIPh"
    },
    {
     "referenced_type" : "_ZTIi"
    },
    {
     "referenced_type" : "_ZTIPKN6libyuv12YuvConstantsE"
    },
    {
     "referenced_type" : "_ZTIi"
    },
    {
     "referenced_type" : "_ZTIi"
    },
    {
     "referenced_type" : "_ZTIi"
    }
   ],
   "return_type" : "_ZTIi",
   "source_file" : "external/libyuv/include/libyuv/convert_argb.h"
  },
  {
   "function_name" : "libyuv::I422AlphaToARGBMatrixFilter",
   "linker_set_key" : "I422AlphaToARGBMatrixFilter",
   "parameters" :
   [
    {
     "referenced_type" : "_ZTIPKh"
    },
    {
     "referenced_type" : "_ZTIi"
    },
    {
     "referenced_type" : "_ZTIPKh"
    },
    {
     "referenced_type" : "_ZTIi"
    },
    {
     "referenced_type" : "_ZTIPKh"
    },
    {
     "referenced_type" : "_ZTIi"
    },
    {
     "referenced_type" : "_ZTIPKh"
    },
    {
     "referenced_type" : "_ZTIi"
    },
    {
     "referenced_type" : "_ZTIPh"
    },
    {
     "referenced_type" : "_ZTIi"
    },
    {
     "referenced_type" : "_ZTIPKN6libyuv12YuvConstantsE"
    },
    {
     "referenced_type" : "_ZTIi"
    },
    {
     "referenced_type" : "_ZTIi"
    },
    {
     "referenced_type" : "_ZTIi"
    },
    {
     "referenced_type" : "_ZTIN6libyuv10FilterModeE"
    }
   ],
   "return_type" : "_ZTIi",
   "source_file" : "external/libyuv/include/libyuv/convert_argb.h"
  },
  {
   "function_name" : "libyuv::I422AlphaToARGBRow_AVX2",
   "linker_set_key" : "I422AlphaToARGBRow_AVX2",
   "parameters" :
   [
    {
     "referenced_type" : "_ZTIPKh"
    },
    {
     "referenced_type" : "_ZTIPKh"
    },
    {
     "referenced_type" : "_ZTIPKh"
    },
    {
     "referenced_type" : "_ZTIPKh"
    },
    {
     "referenced_type" : "_ZTIPh"
    },
    {
     "referenced_type" : "_ZTIPKN6libyuv12YuvConstantsE"
    },
    {
     "referenced_type" : "_ZTIi"
    }
   ],
   "return_type" : "_ZTIv",
   "source_file" : "external/libyuv/include/libyuv/row.h"
  },
  {
   "function_name" : "libyuv::I422AlphaToARGBRow_Any_AVX2",
   "linker_set_key" : "I422AlphaToARGBRow_Any_AVX2",
   "parameters" :
   [
    {
     "referenced_type" : "_ZTIPKh"
    },
    {
     "referenced_type" : "_ZTIPKh"
    },
    {
     "referenced_type" : "_ZTIPKh"
    },
    {
     "referenced_type" : "_ZTIPKh"
    },
    {
     "referenced_type" : "_ZTIPh"
    },
    {
     "referenced_type" : "_ZTIPKN6libyuv12YuvConstantsE"
    },
    {
     "referenced_type" : "_ZTIi"
    }
   ],
   "return_type" : "_ZTIv",
   "source_file" : "external/libyuv/include/libyuv/row.h"
  },
  {
   "function_name" : "libyuv::I422AlphaToARGBRow_Any_SSSE3",
   "linker_set_key" : "I422AlphaToARGBRow_Any_SSSE3",
   "parameters" :
   [
    {
     "referenced_type" : "_ZTIPKh"
    },
    {
     "referenced_type" : "_ZTIPKh"
    },
    {
     "referenced_type" : "_ZTIPKh"
    },
    {
     "referenced_type" : "_ZTIPKh"
    },
    {
     "referenced_type" : "_ZTIPh"
    },
    {
     "referenced_type" : "_ZTIPKN6libyuv12YuvConstantsE"
    },
    {
     "referenced_type" : "_ZTIi"
    }
   ],
   "return_type" : "_ZTIv",
   "source_file" : "external/libyuv/include/libyuv/row.h"
  },
  {
   "function_name" : "libyuv::I422AlphaToARGBRow_C",
   "linker_set_key" : "I422AlphaToARGBRow_C",
   "parameters" :
   [
    {
     "referenced_type" : "_ZTIPKh"
    },
    {
     "referenced_type" : "_ZTIPKh"
    },
    {
     "referenced_type" : "_ZTIPKh"
    },
    {
     "referenced_type" : "_ZTIPKh"
    },
    {
     "referenced_type" : "_ZTIPh"
    },
    {
     "referenced_type" : "_ZTIPKN6libyuv12YuvConstantsE"
    },
    {
     "referenced_type" : "_ZTIi"
    }
   ],
   "return_type" : "_ZTIv",
   "source_file" : "external/libyuv/include/libyuv/row.h"
  },
  {
   "function_name" : "libyuv::I422AlphaToARGBRow_SSSE3",
   "linker_set_key" : "I422AlphaToARGBRow_SSSE3",
   "parameters" :
   [
    {
     "referenced_type" : "_ZTIPKh"
    },
    {
     "referenced_type" : "_ZTIPKh"
    },
    {
     "referenced_type" : "_ZTIPKh"
    },
    {
     "referenced_type" : "_ZTIPKh"
    },
    {
     "referenced_type" : "_ZTIPh"
    },
    {
     "referenced_type" : "_ZTIPKN6libyuv12YuvConstantsE"
    },
    {
     "referenced_type" : "_ZTIi"
    }
   ],
   "return_type" : "_ZTIv",
   "source_file" : "external/libyuv/include/libyuv/row.h"
  },
  {
   "function_name" : "libyuv::I422Copy",
   "linker_set_key" : "I422Copy",
   "parameters" :
   [
    {
     "referenced_type" : "_ZTIPKh"
    },
    {
     "referenced_type" : "_ZTIi"
    },
    {
     "referenced_type" : "_ZTIPKh"
    },
    {
     "referenced_type" : "_ZTIi"
    },
    {
     "referenced_type" : "_ZTIPKh"
    },
    {
     "referenced_type" : "_ZTIi"
    },
    {
     "referenced_type" : "_ZTIPh"
    },
    {
     "referenced_type" : "_ZTIi"
    },
    {
     "referenced_type" : "_ZTIPh"
    },
    {
     "referenced_type" : "_ZTIi"
    },
    {
     "referenced_type" : "_ZTIPh"
    },
    {
     "referenced_type" : "_ZTIi"
    },
    {
     "referenced_type" : "_ZTIi"
    },
    {
     "referenced_type" : "_ZTIi"
    }
   ],
   "return_type" : "_ZTIi",
   "source_file" : "external/libyuv/include/libyuv/planar_functions.h"
  },
  {
   "function_name" : "libyuv::I422Rotate",
   "linker_set_key" : "I422Rotate",
   "parameters" :
   [
    {
     "referenced_type" : "_ZTIPKh"
    },
    {
     "referenced_type" : "_ZTIi"
    },
    {
     "referenced_type" : "_ZTIPKh"
    },
    {
     "referenced_type" : "_ZTIi"
    },
    {
     "referenced_type" : "_ZTIPKh"
    },
    {
     "referenced_type" : "_ZTIi"
    },
    {
     "referenced_type" : "_ZTIPh"
    },
    {
     "referenced_type" : "_ZTIi"
    },
    {
     "referenced_type" : "_ZTIPh"
    },
    {
     "referenced_type" : "_ZTIi"
    },
    {
     "referenced_type" : "_ZTIPh"
    },
    {
     "referenced_type" : "_ZTIi"
    },
    {
     "referenced_type" : "_ZTIi"
    },
    {
     "referenced_type" : "_ZTIi"
    },
    {
     "referenced_type" : "_ZTIN6libyuv12RotationModeE"
    }
   ],
   "return_type" : "_ZTIi",
   "source_file" : "external/libyuv/include/libyuv/rotate.h"
  },
  {
   "function_name" : "libyuv::I422Scale",
   "linker_set_key" : "I422Scale",
   "parameters" :
   [
    {
     "referenced_type" : "_ZTIPKh"
    },
    {
     "referenced_type" : "_ZTIi"
    },
    {
     "referenced_type" : "_ZTIPKh"
    },
    {
     "referenced_type" : "_ZTIi"
    },
    {
     "referenced_type" : "_ZTIPKh"
    },
    {
     "referenced_type" : "_ZTIi"
    },
    {
     "referenced_type" : "_ZTIi"
    },
    {
     "referenced_type" : "_ZTIi"
    },
    {
     "referenced_type" : "_ZTIPh"
    },
    {
     "referenced_type" : "_ZTIi"
    },
    {
     "referenced_type" : "_ZTIPh"
    },
    {
     "referenced_type" : "_ZTIi"
    },
    {
     "referenced_type" : "_ZTIPh"
    },
    {
     "referenced_type" : "_ZTIi"
    },
    {
     "referenced_type" : "_ZTIi"
    },
    {
     "referenced_type" : "_ZTIi"
    },
    {
     "referenced_type" : "_ZTIN6libyuv10FilterModeE"
    }
   ],
   "return_type" : "_ZTIi",
   "source_file" : "external/libyuv/include/libyuv/scale.h"
  },
  {
   "function_name" : "libyuv::I422Scale_12",
   "linker_set_key" : "I422Scale_12",
   "parameters" :
   [
    {
     "referenced_type" : "_ZTIPKt"
    },
    {
     "referenced_type" : "_ZTIi"
    },
    {
     "referenced_type" : "_ZTIPKt"
    },
    {
     "referenced_type" : "_ZTIi"
    },
    {
     "referenced_type" : "_ZTIPKt"
    },
    {
     "referenced_type" : "_ZTIi"
    },
    {
     "referenced_type" : "_ZTIi"
    },
    {
     "referenced_type" : "_ZTIi"
    },
    {
     "referenced_type" : "_ZTIPt"
    },
    {
     "referenced_type" : "_ZTIi"
    },
    {
     "referenced_type" : "_ZTIPt"
    },
    {
     "referenced_type" : "_ZTIi"
    },
    {
     "referenced_type" : "_ZTIPt"
    },
    {
     "referenced_type" : "_ZTIi"
    },
    {
     "referenced_type" : "_ZTIi"
    },
    {
     "referenced_type" : "_ZTIi"
    },
    {
     "referenced_type" : "_ZTIN6libyuv10FilterModeE"
    }
   ],
   "return_type" : "_ZTIi",
   "source_file" : "external/libyuv/include/libyuv/scale.h"
  },
  {
   "function_name" : "libyuv::I422Scale_16",
   "linker_set_key" : "I422Scale_16",
   "parameters" :
   [
    {
     "referenced_type" : "_ZTIPKt"
    },
    {
     "referenced_type" : "_ZTIi"
    },
    {
     "referenced_type" : "_ZTIPKt"
    },
    {
     "referenced_type" : "_ZTIi"
    },
    {
     "referenced_type" : "_ZTIPKt"
    },
    {
     "referenced_type" : "_ZTIi"
    },
    {
     "referenced_type" : "_ZTIi"
    },
    {
     "referenced_type" : "_ZTIi"
    },
    {
     "referenced_type" : "_ZTIPt"
    },
    {
     "referenced_type" : "_ZTIi"
    },
    {
     "referenced_type" : "_ZTIPt"
    },
    {
     "referenced_type" : "_ZTIi"
    },
    {
     "referenced_type" : "_ZTIPt"
    },
    {
     "referenced_type" : "_ZTIi"
    },
    {
     "referenced_type" : "_ZTIi"
    },
    {
     "referenced_type" : "_ZTIi"
    },
    {
     "referenced_type" : "_ZTIN6libyuv10FilterModeE"
    }
   ],
   "return_type" : "_ZTIi",
   "source_file" : "external/libyuv/include/libyuv/scale.h"
  },
  {
   "function_name" : "libyuv::I422ToABGR",
   "linker_set_key" : "I422ToABGR",
   "parameters" :
   [
    {
     "referenced_type" : "_ZTIPKh"
    },
    {
     "referenced_type" : "_ZTIi"
    },
    {
     "referenced_type" : "_ZTIPKh"
    },
    {
     "referenced_type" : "_ZTIi"
    },
    {
     "referenced_type" : "_ZTIPKh"
    },
    {
     "referenced_type" : "_ZTIi"
    },
    {
     "referenced_type" : "_ZTIPh"
    },
    {
     "referenced_type" : "_ZTIi"
    },
    {
     "referenced_type" : "_ZTIi"
    },
    {
     "referenced_type" : "_ZTIi"
    }
   ],
   "return_type" : "_ZTIi",
   "source_file" : "external/libyuv/include/libyuv/convert_argb.h"
  },
  {
   "function_name" : "libyuv::I422ToAR30Row_AVX2",
   "linker_set_key" : "I422ToAR30Row_AVX2",
   "parameters" :
   [
    {
     "referenced_type" : "_ZTIPKh"
    },
    {
     "referenced_type" : "_ZTIPKh"
    },
    {
     "referenced_type" : "_ZTIPKh"
    },
    {
     "referenced_type" : "_ZTIPh"
    },
    {
     "referenced_type" : "_ZTIPKN6libyuv12YuvConstantsE"
    },
    {
     "referenced_type" : "_ZTIi"
    }
   ],
   "return_type" : "_ZTIv",
   "source_file" : "external/libyuv/include/libyuv/row.h"
  },
  {
   "function_name" : "libyuv::I422ToAR30Row_Any_AVX2",
   "linker_set_key" : "I422ToAR30Row_Any_AVX2",
   "parameters" :
   [
    {
     "referenced_type" : "_ZTIPKh"
    },
    {
     "referenced_type" : "_ZTIPKh"
    },
    {
     "referenced_type" : "_ZTIPKh"
    },
    {
     "referenced_type" : "_ZTIPh"
    },
    {
     "referenced_type" : "_ZTIPKN6libyuv12YuvConstantsE"
    },
    {
     "referenced_type" : "_ZTIi"
    }
   ],
   "return_type" : "_ZTIv",
   "source_file" : "external/libyuv/include/libyuv/row.h"
  },
  {
   "function_name" : "libyuv::I422ToAR30Row_Any_SSSE3",
   "linker_set_key" : "I422ToAR30Row_Any_SSSE3",
   "parameters" :
   [
    {
     "referenced_type" : "_ZTIPKh"
    },
    {
     "referenced_type" : "_ZTIPKh"
    },
    {
     "referenced_type" : "_ZTIPKh"
    },
    {
     "referenced_type" : "_ZTIPh"
    },
    {
     "referenced_type" : "_ZTIPKN6libyuv12YuvConstantsE"
    },
    {
     "referenced_type" : "_ZTIi"
    }
   ],
   "return_type" : "_ZTIv",
   "source_file" : "external/libyuv/include/libyuv/row.h"
  },
  {
   "function_name" : "libyuv::I422ToAR30Row_C",
   "linker_set_key" : "I422ToAR30Row_C",
   "parameters" :
   [
    {
     "referenced_type" : "_ZTIPKh"
    },
    {
     "referenced_type" : "_ZTIPKh"
    },
    {
     "referenced_type" : "_ZTIPKh"
    },
    {
     "referenced_type" : "_ZTIPh"
    },
    {
     "referenced_type" : "_ZTIPKN6libyuv12YuvConstantsE"
    },
    {
     "referenced_type" : "_ZTIi"
    }
   ],
   "return_type" : "_ZTIv",
   "source_file" : "external/libyuv/include/libyuv/row.h"
  },
  {
   "function_name" : "libyuv::I422ToAR30Row_SSSE3",
   "linker_set_key" : "I422ToAR30Row_SSSE3",
   "parameters" :
   [
    {
     "referenced_type" : "_ZTIPKh"
    },
    {
     "referenced_type" : "_ZTIPKh"
    },
    {
     "referenced_type" : "_ZTIPKh"
    },
    {
     "referenced_type" : "_ZTIPh"
    },
    {
     "referenced_type" : "_ZTIPKN6libyuv12YuvConstantsE"
    },
    {
     "referenced_type" : "_ZTIi"
    }
   ],
   "return_type" : "_ZTIv",
   "source_file" : "external/libyuv/include/libyuv/row.h"
  },
  {
   "function_name" : "libyuv::I422ToARGB",
   "linker_set_key" : "I422ToARGB",
   "parameters" :
   [
    {
     "referenced_type" : "_ZTIPKh"
    },
    {
     "referenced_type" : "_ZTIi"
    },
    {
     "referenced_type" : "_ZTIPKh"
    },
    {
     "referenced_type" : "_ZTIi"
    },
    {
     "referenced_type" : "_ZTIPKh"
    },
    {
     "referenced_type" : "_ZTIi"
    },
    {
     "referenced_type" : "_ZTIPh"
    },
    {
     "referenced_type" : "_ZTIi"
    },
    {
     "referenced_type" : "_ZTIi"
    },
    {
     "referenced_type" : "_ZTIi"
    }
   ],
   "return_type" : "_ZTIi",
   "source_file" : "external/libyuv/include/libyuv/convert_argb.h"
  },
  {
   "function_name" : "libyuv::I422ToARGB1555Row_AVX2",
   "linker_set_key" : "I422ToARGB1555Row_AVX2",
   "parameters" :
   [
    {
     "referenced_type" : "_ZTIPKh"
    },
    {
     "referenced_type" : "_ZTIPKh"
    },
    {
     "referenced_type" : "_ZTIPKh"
    },
    {
     "referenced_type" : "_ZTIPh"
    },
    {
     "referenced_type" : "_ZTIPKN6libyuv12YuvConstantsE"
    },
    {
     "referenced_type" : "_ZTIi"
    }
   ],
   "return_type" : "_ZTIv",
   "source_file" : "external/libyuv/include/libyuv/row.h"
  },
  {
   "function_name" : "libyuv::I422ToARGB1555Row_Any_AVX2",
   "linker_set_key" : "I422ToARGB1555Row_Any_AVX2",
   "parameters" :
   [
    {
     "referenced_type" : "_ZTIPKh"
    },
    {
     "referenced_type" : "_ZTIPKh"
    },
    {
     "referenced_type" : "_ZTIPKh"
    },
    {
     "referenced_type" : "_ZTIPh"
    },
    {
     "referenced_type" : "_ZTIPKN6libyuv12YuvConstantsE"
    },
    {
     "referenced_type" : "_ZTIi"
    }
   ],
   "return_type" : "_ZTIv",
   "source_file" : "external/libyuv/include/libyuv/row.h"
  },
  {
   "function_name" : "libyuv::I422ToARGB1555Row_Any_SSSE3",
   "linker_set_key" : "I422ToARGB1555Row_Any_SSSE3",
   "parameters" :
   [
    {
     "referenced_type" : "_ZTIPKh"
    },
    {
     "referenced_type" : "_ZTIPKh"
    },
    {
     "referenced_type" : "_ZTIPKh"
    },
    {
     "referenced_type" : "_ZTIPh"
    },
    {
     "referenced_type" : "_ZTIPKN6libyuv12YuvConstantsE"
    },
    {
     "referenced_type" : "_ZTIi"
    }
   ],
   "return_type" : "_ZTIv",
   "source_file" : "external/libyuv/include/libyuv/row.h"
  },
  {
   "function_name" : "libyuv::I422ToARGB1555Row_C",
   "linker_set_key" : "I422ToARGB1555Row_C",
   "parameters" :
   [
    {
     "referenced_type" : "_ZTIPKh"
    },
    {
     "referenced_type" : "_ZTIPKh"
    },
    {
     "referenced_type" : "_ZTIPKh"
    },
    {
     "referenced_type" : "_ZTIPh"
    },
    {
     "referenced_type" : "_ZTIPKN6libyuv12YuvConstantsE"
    },
    {
     "referenced_type" : "_ZTIi"
    }
   ],
   "return_type" : "_ZTIv",
   "source_file" : "external/libyuv/include/libyuv/row.h"
  },
  {
   "function_name" : "libyuv::I422ToARGB1555Row_SSSE3",
   "linker_set_key" : "I422ToARGB1555Row_SSSE3",
   "parameters" :
   [
    {
     "referenced_type" : "_ZTIPKh"
    },
    {
     "referenced_type" : "_ZTIPKh"
    },
    {
     "referenced_type" : "_ZTIPKh"
    },
    {
     "referenced_type" : "_ZTIPh"
    },
    {
     "referenced_type" : "_ZTIPKN6libyuv12YuvConstantsE"
    },
    {
     "referenced_type" : "_ZTIi"
    }
   ],
   "return_type" : "_ZTIv",
   "source_file" : "external/libyuv/include/libyuv/row.h"
  },
  {
   "function_name" : "libyuv::I422ToARGB4444Row_AVX2",
   "linker_set_key" : "I422ToARGB4444Row_AVX2",
   "parameters" :
   [
    {
     "referenced_type" : "_ZTIPKh"
    },
    {
     "referenced_type" : "_ZTIPKh"
    },
    {
     "referenced_type" : "_ZTIPKh"
    },
    {
     "referenced_type" : "_ZTIPh"
    },
    {
     "referenced_type" : "_ZTIPKN6libyuv12YuvConstantsE"
    },
    {
     "referenced_type" : "_ZTIi"
    }
   ],
   "return_type" : "_ZTIv",
   "source_file" : "external/libyuv/include/libyuv/row.h"
  },
  {
   "function_name" : "libyuv::I422ToARGB4444Row_Any_AVX2",
   "linker_set_key" : "I422ToARGB4444Row_Any_AVX2",
   "parameters" :
   [
    {
     "referenced_type" : "_ZTIPKh"
    },
    {
     "referenced_type" : "_ZTIPKh"
    },
    {
     "referenced_type" : "_ZTIPKh"
    },
    {
     "referenced_type" : "_ZTIPh"
    },
    {
     "referenced_type" : "_ZTIPKN6libyuv12YuvConstantsE"
    },
    {
     "referenced_type" : "_ZTIi"
    }
   ],
   "return_type" : "_ZTIv",
   "source_file" : "external/libyuv/include/libyuv/row.h"
  },
  {
   "function_name" : "libyuv::I422ToARGB4444Row_Any_SSSE3",
   "linker_set_key" : "I422ToARGB4444Row_Any_SSSE3",
   "parameters" :
   [
    {
     "referenced_type" : "_ZTIPKh"
    },
    {
     "referenced_type" : "_ZTIPKh"
    },
    {
     "referenced_type" : "_ZTIPKh"
    },
    {
     "referenced_type" : "_ZTIPh"
    },
    {
     "referenced_type" : "_ZTIPKN6libyuv12YuvConstantsE"
    },
    {
     "referenced_type" : "_ZTIi"
    }
   ],
   "return_type" : "_ZTIv",
   "source_file" : "external/libyuv/include/libyuv/row.h"
  },
  {
   "function_name" : "libyuv::I422ToARGB4444Row_C",
   "linker_set_key" : "I422ToARGB4444Row_C",
   "parameters" :
   [
    {
     "referenced_type" : "_ZTIPKh"
    },
    {
     "referenced_type" : "_ZTIPKh"
    },
    {
     "referenced_type" : "_ZTIPKh"
    },
    {
     "referenced_type" : "_ZTIPh"
    },
    {
     "referenced_type" : "_ZTIPKN6libyuv12YuvConstantsE"
    },
    {
     "referenced_type" : "_ZTIi"
    }
   ],
   "return_type" : "_ZTIv",
   "source_file" : "external/libyuv/include/libyuv/row.h"
  },
  {
   "function_name" : "libyuv::I422ToARGB4444Row_SSSE3",
   "linker_set_key" : "I422ToARGB4444Row_SSSE3",
   "parameters" :
   [
    {
     "referenced_type" : "_ZTIPKh"
    },
    {
     "referenced_type" : "_ZTIPKh"
    },
    {
     "referenced_type" : "_ZTIPKh"
    },
    {
     "referenced_type" : "_ZTIPh"
    },
    {
     "referenced_type" : "_ZTIPKN6libyuv12YuvConstantsE"
    },
    {
     "referenced_type" : "_ZTIi"
    }
   ],
   "return_type" : "_ZTIv",
   "source_file" : "external/libyuv/include/libyuv/row.h"
  },
  {
   "function_name" : "libyuv::I422ToARGBMatrix",
   "linker_set_key" : "I422ToARGBMatrix",
   "parameters" :
   [
    {
     "referenced_type" : "_ZTIPKh"
    },
    {
     "referenced_type" : "_ZTIi"
    },
    {
     "referenced_type" : "_ZTIPKh"
    },
    {
     "referenced_type" : "_ZTIi"
    },
    {
     "referenced_type" : "_ZTIPKh"
    },
    {
     "referenced_type" : "_ZTIi"
    },
    {
     "referenced_type" : "_ZTIPh"
    },
    {
     "referenced_type" : "_ZTIi"
    },
    {
     "referenced_type" : "_ZTIPKN6libyuv12YuvConstantsE"
    },
    {
     "referenced_type" : "_ZTIi"
    },
    {
     "referenced_type" : "_ZTIi"
    }
   ],
   "return_type" : "_ZTIi",
   "source_file" : "external/libyuv/include/libyuv/convert_argb.h"
  },
  {
   "function_name" : "libyuv::I422ToARGBMatrixFilter",
   "linker_set_key" : "I422ToARGBMatrixFilter",
   "parameters" :
   [
    {
     "referenced_type" : "_ZTIPKh"
    },
    {
     "referenced_type" : "_ZTIi"
    },
    {
     "referenced_type" : "_ZTIPKh"
    },
    {
     "referenced_type" : "_ZTIi"
    },
    {
     "referenced_type" : "_ZTIPKh"
    },
    {
     "referenced_type" : "_ZTIi"
    },
    {
     "referenced_type" : "_ZTIPh"
    },
    {
     "referenced_type" : "_ZTIi"
    },
    {
     "referenced_type" : "_ZTIPKN6libyuv12YuvConstantsE"
    },
    {
     "referenced_type" : "_ZTIi"
    },
    {
     "referenced_type" : "_ZTIi"
    },
    {
     "referenced_type" : "_ZTIN6libyuv10FilterModeE"
    }
   ],
   "return_type" : "_ZTIi",
   "source_file" : "external/libyuv/include/libyuv/convert_argb.h"
  },
  {
   "function_name" : "libyuv::I422ToARGBRow_AVX2",
   "linker_set_key" : "I422ToARGBRow_AVX2",
   "parameters" :
   [
    {
     "referenced_type" : "_ZTIPKh"
    },
    {
     "referenced_type" : "_ZTIPKh"
    },
    {
     "referenced_type" : "_ZTIPKh"
    },
    {
     "referenced_type" : "_ZTIPh"
    },
    {
     "referenced_type" : "_ZTIPKN6libyuv12YuvConstantsE"
    },
    {
     "referenced_type" : "_ZTIi"
    }
   ],
   "return_type" : "_ZTIv",
   "source_file" : "external/libyuv/include/libyuv/row.h"
  },
  {
   "function_name" : "libyuv::I422ToARGBRow_Any_AVX2",
   "linker_set_key" : "I422ToARGBRow_Any_AVX2",
   "parameters" :
   [
    {
     "referenced_type" : "_ZTIPKh"
    },
    {
     "referenced_type" : "_ZTIPKh"
    },
    {
     "referenced_type" : "_ZTIPKh"
    },
    {
     "referenced_type" : "_ZTIPh"
    },
    {
     "referenced_type" : "_ZTIPKN6libyuv12YuvConstantsE"
    },
    {
     "referenced_type" : "_ZTIi"
    }
   ],
   "return_type" : "_ZTIv",
   "source_file" : "external/libyuv/include/libyuv/row.h"
  },
  {
   "function_name" : "libyuv::I422ToARGBRow_Any_SSSE3",
   "linker_set_key" : "I422ToARGBRow_Any_SSSE3",
   "parameters" :
   [
    {
     "referenced_type" : "_ZTIPKh"
    },
    {
     "referenced_type" : "_ZTIPKh"
    },
    {
     "referenced_type" : "_ZTIPKh"
    },
    {
     "referenced_type" : "_ZTIPh"
    },
    {
     "referenced_type" : "_ZTIPKN6libyuv12YuvConstantsE"
    },
    {
     "referenced_type" : "_ZTIi"
    }
   ],
   "return_type" : "_ZTIv",
   "source_file" : "external/libyuv/include/libyuv/row.h"
  },
  {
   "function_name" : "libyuv::I422ToARGBRow_C",
   "linker_set_key" : "I422ToARGBRow_C",
   "parameters" :
   [
    {
     "referenced_type" : "_ZTIPKh"
    },
    {
     "referenced_type" : "_ZTIPKh"
    },
    {
     "referenced_type" : "_ZTIPKh"
    },
    {
     "referenced_type" : "_ZTIPh"
    },
    {
     "referenced_type" : "_ZTIPKN6libyuv12YuvConstantsE"
    },
    {
     "referenced_type" : "_ZTIi"
    }
   ],
   "return_type" : "_ZTIv",
   "source_file" : "external/libyuv/include/libyuv/row.h"
  },
  {
   "function_name" : "libyuv::I422ToARGBRow_SSSE3",
   "linker_set_key" : "I422ToARGBRow_SSSE3",
   "parameters" :
   [
    {
     "referenced_type" : "_ZTIPKh"
    },
    {
     "referenced_type" : "_ZTIPKh"
    },
    {
     "referenced_type" : "_ZTIPKh"
    },
    {
     "referenced_type" : "_ZTIPh"
    },
    {
     "referenced_type" : "_ZTIPKN6libyuv12YuvConstantsE"
    },
    {
     "referenced_type" : "_ZTIi"
    }
   ],
   "return_type" : "_ZTIv",
   "source_file" : "external/libyuv/include/libyuv/row.h"
  },
  {
   "function_name" : "libyuv::I422ToBGRA",
   "linker_set_key" : "I422ToBGRA",
   "parameters" :
   [
    {
     "referenced_type" : "_ZTIPKh"
    },
    {
     "referenced_type" : "_ZTIi"
    },
    {
     "referenced_type" : "_ZTIPKh"
    },
    {
     "referenced_type" : "_ZTIi"
    },
    {
     "referenced_type" : "_ZTIPKh"
    },
    {
     "referenced_type" : "_ZTIi"
    },
    {
     "referenced_type" : "_ZTIPh"
    },
    {
     "referenced_type" : "_ZTIi"
    },
    {
     "referenced_type" : "_ZTIi"
    },
    {
     "referenced_type" : "_ZTIi"
    }
   ],
   "return_type" : "_ZTIi",
   "source_file" : "external/libyuv/include/libyuv/convert_argb.h"
  },
  {
   "function_name" : "libyuv::I422ToI210",
   "linker_set_key" : "I422ToI210",
   "parameters" :
   [
    {
     "referenced_type" : "_ZTIPKh"
    },
    {
     "referenced_type" : "_ZTIi"
    },
    {
     "referenced_type" : "_ZTIPKh"
    },
    {
     "referenced_type" : "_ZTIi"
    },
    {
     "referenced_type" : "_ZTIPKh"
    },
    {
     "referenced_type" : "_ZTIi"
    },
    {
     "referenced_type" : "_ZTIPt"
    },
    {
     "referenced_type" : "_ZTIi"
    },
    {
     "referenced_type" : "_ZTIPt"
    },
    {
     "referenced_type" : "_ZTIi"
    },
    {
     "referenced_type" : "_ZTIPt"
    },
    {
     "referenced_type" : "_ZTIi"
    },
    {
     "referenced_type" : "_ZTIi"
    },
    {
     "referenced_type" : "_ZTIi"
    }
   ],
   "return_type" : "_ZTIi",
   "source_file" : "external/libyuv/include/libyuv/convert.h"
  },
  {
   "function_name" : "libyuv::I422ToI420",
   "linker_set_key" : "I422ToI420",
   "parameters" :
   [
    {
     "referenced_type" : "_ZTIPKh"
    },
    {
     "referenced_type" : "_ZTIi"
    },
    {
     "referenced_type" : "_ZTIPKh"
    },
    {
     "referenced_type" : "_ZTIi"
    },
    {
     "referenced_type" : "_ZTIPKh"
    },
    {
     "referenced_type" : "_ZTIi"
    },
    {
     "referenced_type" : "_ZTIPh"
    },
    {
     "referenced_type" : "_ZTIi"
    },
    {
     "referenced_type" : "_ZTIPh"
    },
    {
     "referenced_type" : "_ZTIi"
    },
    {
     "referenced_type" : "_ZTIPh"
    },
    {
     "referenced_type" : "_ZTIi"
    },
    {
     "referenced_type" : "_ZTIi"
    },
    {
     "referenced_type" : "_ZTIi"
    }
   ],
   "return_type" : "_ZTIi",
   "source_file" : "external/libyuv/include/libyuv/convert.h"
  },
  {
   "function_name" : "libyuv::I422ToI444",
   "linker_set_key" : "I422ToI444",
   "parameters" :
   [
    {
     "referenced_type" : "_ZTIPKh"
    },
    {
     "referenced_type" : "_ZTIi"
    },
    {
     "referenced_type" : "_ZTIPKh"
    },
    {
     "referenced_type" : "_ZTIi"
    },
    {
     "referenced_type" : "_ZTIPKh"
    },
    {
     "referenced_type" : "_ZTIi"
    },
    {
     "referenced_type" : "_ZTIPh"
    },
    {
     "referenced_type" : "_ZTIi"
    },
    {
     "referenced_type" : "_ZTIPh"
    },
    {
     "referenced_type" : "_ZTIi"
    },
    {
     "referenced_type" : "_ZTIPh"
    },
    {
     "referenced_type" : "_ZTIi"
    },
    {
     "referenced_type" : "_ZTIi"
    },
    {
     "referenced_type" : "_ZTIi"
    }
   ],
   "return_type" : "_ZTIi",
   "source_file" : "external/libyuv/include/libyuv/convert.h"
  },
  {
   "function_name" : "libyuv::I422ToNV21",
   "linker_set_key" : "I422ToNV21",
   "parameters" :
   [
    {
     "referenced_type" : "_ZTIPKh"
    },
    {
     "referenced_type" : "_ZTIi"
    },
    {
     "referenced_type" : "_ZTIPKh"
    },
    {
     "referenced_type" : "_ZTIi"
    },
    {
     "referenced_type" : "_ZTIPKh"
    },
    {
     "referenced_type" : "_ZTIi"
    },
    {
     "referenced_type" : "_ZTIPh"
    },
    {
     "referenced_type" : "_ZTIi"
    },
    {
     "referenced_type" : "_ZTIPh"
    },
    {
     "referenced_type" : "_ZTIi"
    },
    {
     "referenced_type" : "_ZTIi"
    },
    {
     "referenced_type" : "_ZTIi"
    }
   ],
   "return_type" : "_ZTIi",
   "source_file" : "external/libyuv/include/libyuv/convert.h"
  },
  {
   "function_name" : "libyuv::I422ToRAW",
   "linker_set_key" : "I422ToRAW",
   "parameters" :
   [
    {
     "referenced_type" : "_ZTIPKh"
    },
    {
     "referenced_type" : "_ZTIi"
    },
    {
     "referenced_type" : "_ZTIPKh"
    },
    {
     "referenced_type" : "_ZTIi"
    },
    {
     "referenced_type" : "_ZTIPKh"
    },
    {
     "referenced_type" : "_ZTIi"
    },
    {
     "referenced_type" : "_ZTIPh"
    },
    {
     "referenced_type" : "_ZTIi"
    },
    {
     "referenced_type" : "_ZTIi"
    },
    {
     "referenced_type" : "_ZTIi"
    }
   ],
   "return_type" : "_ZTIi",
   "source_file" : "external/libyuv/include/libyuv/convert_argb.h"
  },
  {
   "function_name" : "libyuv::I422ToRGB24",
   "linker_set_key" : "I422ToRGB24",
   "parameters" :
   [
    {
     "referenced_type" : "_ZTIPKh"
    },
    {
     "referenced_type" : "_ZTIi"
    },
    {
     "referenced_type" : "_ZTIPKh"
    },
    {
     "referenced_type" : "_ZTIi"
    },
    {
     "referenced_type" : "_ZTIPKh"
    },
    {
     "referenced_type" : "_ZTIi"
    },
    {
     "referenced_type" : "_ZTIPh"
    },
    {
     "referenced_type" : "_ZTIi"
    },
    {
     "referenced_type" : "_ZTIi"
    },
    {
     "referenced_type" : "_ZTIi"
    }
   ],
   "return_type" : "_ZTIi",
   "source_file" : "external/libyuv/include/libyuv/convert_argb.h"
  },
  {
   "function_name" : "libyuv::I422ToRGB24Matrix",
   "linker_set_key" : "I422ToRGB24Matrix",
   "parameters" :
   [
    {
     "referenced_type" : "_ZTIPKh"
    },
    {
     "referenced_type" : "_ZTIi"
    },
    {
     "referenced_type" : "_ZTIPKh"
    },
    {
     "referenced_type" : "_ZTIi"
    },
    {
     "referenced_type" : "_ZTIPKh"
    },
    {
     "referenced_type" : "_ZTIi"
    },
    {
     "referenced_type" : "_ZTIPh"
    },
    {
     "referenced_type" : "_ZTIi"
    },
    {
     "referenced_type" : "_ZTIPKN6libyuv12YuvConstantsE"
    },
    {
     "referenced_type" : "_ZTIi"
    },
    {
     "referenced_type" : "_ZTIi"
    }
   ],
   "return_type" : "_ZTIi",
   "source_file" : "external/libyuv/include/libyuv/convert_argb.h"
  },
  {
   "function_name" : "libyuv::I422ToRGB24MatrixFilter",
   "linker_set_key" : "I422ToRGB24MatrixFilter",
   "parameters" :
   [
    {
     "referenced_type" : "_ZTIPKh"
    },
    {
     "referenced_type" : "_ZTIi"
    },
    {
     "referenced_type" : "_ZTIPKh"
    },
    {
     "referenced_type" : "_ZTIi"
    },
    {
     "referenced_type" : "_ZTIPKh"
    },
    {
     "referenced_type" : "_ZTIi"
    },
    {
     "referenced_type" : "_ZTIPh"
    },
    {
     "referenced_type" : "_ZTIi"
    },
    {
     "referenced_type" : "_ZTIPKN6libyuv12YuvConstantsE"
    },
    {
     "referenced_type" : "_ZTIi"
    },
    {
     "referenced_type" : "_ZTIi"
    },
    {
     "referenced_type" : "_ZTIN6libyuv10FilterModeE"
    }
   ],
   "return_type" : "_ZTIi",
   "source_file" : "external/libyuv/include/libyuv/convert_argb.h"
  },
  {
   "function_name" : "libyuv::I422ToRGB24Row_AVX2",
   "linker_set_key" : "I422ToRGB24Row_AVX2",
   "parameters" :
   [
    {
     "referenced_type" : "_ZTIPKh"
    },
    {
     "referenced_type" : "_ZTIPKh"
    },
    {
     "referenced_type" : "_ZTIPKh"
    },
    {
     "referenced_type" : "_ZTIPh"
    },
    {
     "referenced_type" : "_ZTIPKN6libyuv12YuvConstantsE"
    },
    {
     "referenced_type" : "_ZTIi"
    }
   ],
   "return_type" : "_ZTIv",
   "source_file" : "external/libyuv/include/libyuv/row.h"
  },
  {
   "function_name" : "libyuv::I422ToRGB24Row_Any_AVX2",
   "linker_set_key" : "I422ToRGB24Row_Any_AVX2",
   "parameters" :
   [
    {
     "referenced_type" : "_ZTIPKh"
    },
    {
     "referenced_type" : "_ZTIPKh"
    },
    {
     "referenced_type" : "_ZTIPKh"
    },
    {
     "referenced_type" : "_ZTIPh"
    },
    {
     "referenced_type" : "_ZTIPKN6libyuv12YuvConstantsE"
    },
    {
     "referenced_type" : "_ZTIi"
    }
   ],
   "return_type" : "_ZTIv",
   "source_file" : "external/libyuv/include/libyuv/row.h"
  },
  {
   "function_name" : "libyuv::I422ToRGB24Row_Any_SSSE3",
   "linker_set_key" : "I422ToRGB24Row_Any_SSSE3",
   "parameters" :
   [
    {
     "referenced_type" : "_ZTIPKh"
    },
    {
     "referenced_type" : "_ZTIPKh"
    },
    {
     "referenced_type" : "_ZTIPKh"
    },
    {
     "referenced_type" : "_ZTIPh"
    },
    {
     "referenced_type" : "_ZTIPKN6libyuv12YuvConstantsE"
    },
    {
     "referenced_type" : "_ZTIi"
    }
   ],
   "return_type" : "_ZTIv",
   "source_file" : "external/libyuv/include/libyuv/row.h"
  },
  {
   "function_name" : "libyuv::I422ToRGB24Row_C",
   "linker_set_key" : "I422ToRGB24Row_C",
   "parameters" :
   [
    {
     "referenced_type" : "_ZTIPKh"
    },
    {
     "referenced_type" : "_ZTIPKh"
    },
    {
     "referenced_type" : "_ZTIPKh"
    },
    {
     "referenced_type" : "_ZTIPh"
    },
    {
     "referenced_type" : "_ZTIPKN6libyuv12YuvConstantsE"
    },
    {
     "referenced_type" : "_ZTIi"
    }
   ],
   "return_type" : "_ZTIv",
   "source_file" : "external/libyuv/include/libyuv/row.h"
  },
  {
   "function_name" : "libyuv::I422ToRGB24Row_SSSE3",
   "linker_set_key" : "I422ToRGB24Row_SSSE3",
   "parameters" :
   [
    {
     "referenced_type" : "_ZTIPKh"
    },
    {
     "referenced_type" : "_ZTIPKh"
    },
    {
     "referenced_type" : "_ZTIPKh"
    },
    {
     "referenced_type" : "_ZTIPh"
    },
    {
     "referenced_type" : "_ZTIPKN6libyuv12YuvConstantsE"
    },
    {
     "referenced_type" : "_ZTIi"
    }
   ],
   "return_type" : "_ZTIv",
   "source_file" : "external/libyuv/include/libyuv/row.h"
  },
  {
   "function_name" : "libyuv::I422ToRGB565",
   "linker_set_key" : "I422ToRGB565",
   "parameters" :
   [
    {
     "referenced_type" : "_ZTIPKh"
    },
    {
     "referenced_type" : "_ZTIi"
    },
    {
     "referenced_type" : "_ZTIPKh"
    },
    {
     "referenced_type" : "_ZTIi"
    },
    {
     "referenced_type" : "_ZTIPKh"
    },
    {
     "referenced_type" : "_ZTIi"
    },
    {
     "referenced_type" : "_ZTIPh"
    },
    {
     "referenced_type" : "_ZTIi"
    },
    {
     "referenced_type" : "_ZTIi"
    },
    {
     "referenced_type" : "_ZTIi"
    }
   ],
   "return_type" : "_ZTIi",
   "source_file" : "external/libyuv/include/libyuv/convert_argb.h"
  },
  {
   "function_name" : "libyuv::I422ToRGB565Matrix",
   "linker_set_key" : "I422ToRGB565Matrix",
   "parameters" :
   [
    {
     "referenced_type" : "_ZTIPKh"
    },
    {
     "referenced_type" : "_ZTIi"
    },
    {
     "referenced_type" : "_ZTIPKh"
    },
    {
     "referenced_type" : "_ZTIi"
    },
    {
     "referenced_type" : "_ZTIPKh"
    },
    {
     "referenced_type" : "_ZTIi"
    },
    {
     "referenced_type" : "_ZTIPh"
    },
    {
     "referenced_type" : "_ZTIi"
    },
    {
     "referenced_type" : "_ZTIPKN6libyuv12YuvConstantsE"
    },
    {
     "referenced_type" : "_ZTIi"
    },
    {
     "referenced_type" : "_ZTIi"
    }
   ],
   "return_type" : "_ZTIi",
   "source_file" : "external/libyuv/include/libyuv/convert_argb.h"
  },
  {
   "function_name" : "libyuv::I422ToRGB565Row_AVX2",
   "linker_set_key" : "I422ToRGB565Row_AVX2",
   "parameters" :
   [
    {
     "referenced_type" : "_ZTIPKh"
    },
    {
     "referenced_type" : "_ZTIPKh"
    },
    {
     "referenced_type" : "_ZTIPKh"
    },
    {
     "referenced_type" : "_ZTIPh"
    },
    {
     "referenced_type" : "_ZTIPKN6libyuv12YuvConstantsE"
    },
    {
     "referenced_type" : "_ZTIi"
    }
   ],
   "return_type" : "_ZTIv",
   "source_file" : "external/libyuv/include/libyuv/row.h"
  },
  {
   "function_name" : "libyuv::I422ToRGB565Row_Any_AVX2",
   "linker_set_key" : "I422ToRGB565Row_Any_AVX2",
   "parameters" :
   [
    {
     "referenced_type" : "_ZTIPKh"
    },
    {
     "referenced_type" : "_ZTIPKh"
    },
    {
     "referenced_type" : "_ZTIPKh"
    },
    {
     "referenced_type" : "_ZTIPh"
    },
    {
     "referenced_type" : "_ZTIPKN6libyuv12YuvConstantsE"
    },
    {
     "referenced_type" : "_ZTIi"
    }
   ],
   "return_type" : "_ZTIv",
   "source_file" : "external/libyuv/include/libyuv/row.h"
  },
  {
   "function_name" : "libyuv::I422ToRGB565Row_Any_SSSE3",
   "linker_set_key" : "I422ToRGB565Row_Any_SSSE3",
   "parameters" :
   [
    {
     "referenced_type" : "_ZTIPKh"
    },
    {
     "referenced_type" : "_ZTIPKh"
    },
    {
     "referenced_type" : "_ZTIPKh"
    },
    {
     "referenced_type" : "_ZTIPh"
    },
    {
     "referenced_type" : "_ZTIPKN6libyuv12YuvConstantsE"
    },
    {
     "referenced_type" : "_ZTIi"
    }
   ],
   "return_type" : "_ZTIv",
   "source_file" : "external/libyuv/include/libyuv/row.h"
  },
  {
   "function_name" : "libyuv::I422ToRGB565Row_C",
   "linker_set_key" : "I422ToRGB565Row_C",
   "parameters" :
   [
    {
     "referenced_type" : "_ZTIPKh"
    },
    {
     "referenced_type" : "_ZTIPKh"
    },
    {
     "referenced_type" : "_ZTIPKh"
    },
    {
     "referenced_type" : "_ZTIPh"
    },
    {
     "referenced_type" : "_ZTIPKN6libyuv12YuvConstantsE"
    },
    {
     "referenced_type" : "_ZTIi"
    }
   ],
   "return_type" : "_ZTIv",
   "source_file" : "external/libyuv/include/libyuv/row.h"
  },
  {
   "function_name" : "libyuv::I422ToRGB565Row_SSSE3",
   "linker_set_key" : "I422ToRGB565Row_SSSE3",
   "parameters" :
   [
    {
     "referenced_type" : "_ZTIPKh"
    },
    {
     "referenced_type" : "_ZTIPKh"
    },
    {
     "referenced_type" : "_ZTIPKh"
    },
    {
     "referenced_type" : "_ZTIPh"
    },
    {
     "referenced_type" : "_ZTIPKN6libyuv12YuvConstantsE"
    },
    {
     "referenced_type" : "_ZTIi"
    }
   ],
   "return_type" : "_ZTIv",
   "source_file" : "external/libyuv/include/libyuv/row.h"
  },
  {
   "function_name" : "libyuv::I422ToRGBA",
   "linker_set_key" : "I422ToRGBA",
   "parameters" :
   [
    {
     "referenced_type" : "_ZTIPKh"
    },
    {
     "referenced_type" : "_ZTIi"
    },
    {
     "referenced_type" : "_ZTIPKh"
    },
    {
     "referenced_type" : "_ZTIi"
    },
    {
     "referenced_type" : "_ZTIPKh"
    },
    {
     "referenced_type" : "_ZTIi"
    },
    {
     "referenced_type" : "_ZTIPh"
    },
    {
     "referenced_type" : "_ZTIi"
    },
    {
     "referenced_type" : "_ZTIi"
    },
    {
     "referenced_type" : "_ZTIi"
    }
   ],
   "return_type" : "_ZTIi",
   "source_file" : "external/libyuv/include/libyuv/convert_argb.h"
  },
  {
   "function_name" : "libyuv::I422ToRGBAMatrix",
   "linker_set_key" : "I422ToRGBAMatrix",
   "parameters" :
   [
    {
     "referenced_type" : "_ZTIPKh"
    },
    {
     "referenced_type" : "_ZTIi"
    },
    {
     "referenced_type" : "_ZTIPKh"
    },
    {
     "referenced_type" : "_ZTIi"
    },
    {
     "referenced_type" : "_ZTIPKh"
    },
    {
     "referenced_type" : "_ZTIi"
    },
    {
     "referenced_type" : "_ZTIPh"
    },
    {
     "referenced_type" : "_ZTIi"
    },
    {
     "referenced_type" : "_ZTIPKN6libyuv12YuvConstantsE"
    },
    {
     "referenced_type" : "_ZTIi"
    },
    {
     "referenced_type" : "_ZTIi"
    }
   ],
   "return_type" : "_ZTIi",
   "source_file" : "external/libyuv/include/libyuv/convert_argb.h"
  },
  {
   "function_name" : "libyuv::I422ToRGBARow_AVX2",
   "linker_set_key" : "I422ToRGBARow_AVX2",
   "parameters" :
   [
    {
     "referenced_type" : "_ZTIPKh"
    },
    {
     "referenced_type" : "_ZTIPKh"
    },
    {
     "referenced_type" : "_ZTIPKh"
    },
    {
     "referenced_type" : "_ZTIPh"
    },
    {
     "referenced_type" : "_ZTIPKN6libyuv12YuvConstantsE"
    },
    {
     "referenced_type" : "_ZTIi"
    }
   ],
   "return_type" : "_ZTIv",
   "source_file" : "external/libyuv/include/libyuv/row.h"
  },
  {
   "function_name" : "libyuv::I422ToRGBARow_Any_AVX2",
   "linker_set_key" : "I422ToRGBARow_Any_AVX2",
   "parameters" :
   [
    {
     "referenced_type" : "_ZTIPKh"
    },
    {
     "referenced_type" : "_ZTIPKh"
    },
    {
     "referenced_type" : "_ZTIPKh"
    },
    {
     "referenced_type" : "_ZTIPh"
    },
    {
     "referenced_type" : "_ZTIPKN6libyuv12YuvConstantsE"
    },
    {
     "referenced_type" : "_ZTIi"
    }
   ],
   "return_type" : "_ZTIv",
   "source_file" : "external/libyuv/include/libyuv/row.h"
  },
  {
   "function_name" : "libyuv::I422ToRGBARow_Any_SSSE3",
   "linker_set_key" : "I422ToRGBARow_Any_SSSE3",
   "parameters" :
   [
    {
     "referenced_type" : "_ZTIPKh"
    },
    {
     "referenced_type" : "_ZTIPKh"
    },
    {
     "referenced_type" : "_ZTIPKh"
    },
    {
     "referenced_type" : "_ZTIPh"
    },
    {
     "referenced_type" : "_ZTIPKN6libyuv12YuvConstantsE"
    },
    {
     "referenced_type" : "_ZTIi"
    }
   ],
   "return_type" : "_ZTIv",
   "source_file" : "external/libyuv/include/libyuv/row.h"
  },
  {
   "function_name" : "libyuv::I422ToRGBARow_C",
   "linker_set_key" : "I422ToRGBARow_C",
   "parameters" :
   [
    {
     "referenced_type" : "_ZTIPKh"
    },
    {
     "referenced_type" : "_ZTIPKh"
    },
    {
     "referenced_type" : "_ZTIPKh"
    },
    {
     "referenced_type" : "_ZTIPh"
    },
    {
     "referenced_type" : "_ZTIPKN6libyuv12YuvConstantsE"
    },
    {
     "referenced_type" : "_ZTIi"
    }
   ],
   "return_type" : "_ZTIv",
   "source_file" : "external/libyuv/include/libyuv/row.h"
  },
  {
   "function_name" : "libyuv::I422ToRGBARow_SSSE3",
   "linker_set_key" : "I422ToRGBARow_SSSE3",
   "parameters" :
   [
    {
     "referenced_type" : "_ZTIPKh"
    },
    {
     "referenced_type" : "_ZTIPKh"
    },
    {
     "referenced_type" : "_ZTIPKh"
    },
    {
     "referenced_type" : "_ZTIPh"
    },
    {
     "referenced_type" : "_ZTIPKN6libyuv12YuvConstantsE"
    },
    {
     "referenced_type" : "_ZTIi"
    }
   ],
   "return_type" : "_ZTIv",
   "source_file" : "external/libyuv/include/libyuv/row.h"
  },
  {
   "function_name" : "libyuv::I422ToUYVY",
   "linker_set_key" : "I422ToUYVY",
   "parameters" :
   [
    {
     "referenced_type" : "_ZTIPKh"
    },
    {
     "referenced_type" : "_ZTIi"
    },
    {
     "referenced_type" : "_ZTIPKh"
    },
    {
     "referenced_type" : "_ZTIi"
    },
    {
     "referenced_type" : "_ZTIPKh"
    },
    {
     "referenced_type" : "_ZTIi"
    },
    {
     "referenced_type" : "_ZTIPh"
    },
    {
     "referenced_type" : "_ZTIi"
    },
    {
     "referenced_type" : "_ZTIi"
    },
    {
     "referenced_type" : "_ZTIi"
    }
   ],
   "return_type" : "_ZTIi",
   "source_file" : "external/libyuv/include/libyuv/planar_functions.h"
  },
  {
   "function_name" : "libyuv::I422ToUYVYRow_AVX2",
   "linker_set_key" : "I422ToUYVYRow_AVX2",
   "parameters" :
   [
    {
     "referenced_type" : "_ZTIPKh"
    },
    {
     "referenced_type" : "_ZTIPKh"
    },
    {
     "referenced_type" : "_ZTIPKh"
    },
    {
     "referenced_type" : "_ZTIPh"
    },
    {
     "referenced_type" : "_ZTIi"
    }
   ],
   "return_type" : "_ZTIv",
   "source_file" : "external/libyuv/include/libyuv/row.h"
  },
  {
   "function_name" : "libyuv::I422ToUYVYRow_Any_AVX2",
   "linker_set_key" : "I422ToUYVYRow_Any_AVX2",
   "parameters" :
   [
    {
     "referenced_type" : "_ZTIPKh"
    },
    {
     "referenced_type" : "_ZTIPKh"
    },
    {
     "referenced_type" : "_ZTIPKh"
    },
    {
     "referenced_type" : "_ZTIPh"
    },
    {
     "referenced_type" : "_ZTIi"
    }
   ],
   "return_type" : "_ZTIv",
   "source_file" : "external/libyuv/include/libyuv/row.h"
  },
  {
   "function_name" : "libyuv::I422ToUYVYRow_Any_SSE2",
   "linker_set_key" : "I422ToUYVYRow_Any_SSE2",
   "parameters" :
   [
    {
     "referenced_type" : "_ZTIPKh"
    },
    {
     "referenced_type" : "_ZTIPKh"
    },
    {
     "referenced_type" : "_ZTIPKh"
    },
    {
     "referenced_type" : "_ZTIPh"
    },
    {
     "referenced_type" : "_ZTIi"
    }
   ],
   "return_type" : "_ZTIv",
   "source_file" : "external/libyuv/include/libyuv/row.h"
  },
  {
   "function_name" : "libyuv::I422ToUYVYRow_C",
   "linker_set_key" : "I422ToUYVYRow_C",
   "parameters" :
   [
    {
     "referenced_type" : "_ZTIPKh"
    },
    {
     "referenced_type" : "_ZTIPKh"
    },
    {
     "referenced_type" : "_ZTIPKh"
    },
    {
     "referenced_type" : "_ZTIPh"
    },
    {
     "referenced_type" : "_ZTIi"
    }
   ],
   "return_type" : "_ZTIv",
   "source_file" : "external/libyuv/include/libyuv/row.h"
  },
  {
   "function_name" : "libyuv::I422ToUYVYRow_SSE2",
   "linker_set_key" : "I422ToUYVYRow_SSE2",
   "parameters" :
   [
    {
     "referenced_type" : "_ZTIPKh"
    },
    {
     "referenced_type" : "_ZTIPKh"
    },
    {
     "referenced_type" : "_ZTIPKh"
    },
    {
     "referenced_type" : "_ZTIPh"
    },
    {
     "referenced_type" : "_ZTIi"
    }
   ],
   "return_type" : "_ZTIv",
   "source_file" : "external/libyuv/include/libyuv/row.h"
  },
  {
   "function_name" : "libyuv::I422ToYUY2",
   "linker_set_key" : "I422ToYUY2",
   "parameters" :
   [
    {
     "referenced_type" : "_ZTIPKh"
    },
    {
     "referenced_type" : "_ZTIi"
    },
    {
     "referenced_type" : "_ZTIPKh"
    },
    {
     "referenced_type" : "_ZTIi"
    },
    {
     "referenced_type" : "_ZTIPKh"
    },
    {
     "referenced_type" : "_ZTIi"
    },
    {
     "referenced_type" : "_ZTIPh"
    },
    {
     "referenced_type" : "_ZTIi"
    },
    {
     "referenced_type" : "_ZTIi"
    },
    {
     "referenced_type" : "_ZTIi"
    }
   ],
   "return_type" : "_ZTIi",
   "source_file" : "external/libyuv/include/libyuv/planar_functions.h"
  },
  {
   "function_name" : "libyuv::I422ToYUY2Row_AVX2",
   "linker_set_key" : "I422ToYUY2Row_AVX2",
   "parameters" :
   [
    {
     "referenced_type" : "_ZTIPKh"
    },
    {
     "referenced_type" : "_ZTIPKh"
    },
    {
     "referenced_type" : "_ZTIPKh"
    },
    {
     "referenced_type" : "_ZTIPh"
    },
    {
     "referenced_type" : "_ZTIi"
    }
   ],
   "return_type" : "_ZTIv",
   "source_file" : "external/libyuv/include/libyuv/row.h"
  },
  {
   "function_name" : "libyuv::I422ToYUY2Row_Any_AVX2",
   "linker_set_key" : "I422ToYUY2Row_Any_AVX2",
   "parameters" :
   [
    {
     "referenced_type" : "_ZTIPKh"
    },
    {
     "referenced_type" : "_ZTIPKh"
    },
    {
     "referenced_type" : "_ZTIPKh"
    },
    {
     "referenced_type" : "_ZTIPh"
    },
    {
     "referenced_type" : "_ZTIi"
    }
   ],
   "return_type" : "_ZTIv",
   "source_file" : "external/libyuv/include/libyuv/row.h"
  },
  {
   "function_name" : "libyuv::I422ToYUY2Row_Any_SSE2",
   "linker_set_key" : "I422ToYUY2Row_Any_SSE2",
   "parameters" :
   [
    {
     "referenced_type" : "_ZTIPKh"
    },
    {
     "referenced_type" : "_ZTIPKh"
    },
    {
     "referenced_type" : "_ZTIPKh"
    },
    {
     "referenced_type" : "_ZTIPh"
    },
    {
     "referenced_type" : "_ZTIi"
    }
   ],
   "return_type" : "_ZTIv",
   "source_file" : "external/libyuv/include/libyuv/row.h"
  },
  {
   "function_name" : "libyuv::I422ToYUY2Row_C",
   "linker_set_key" : "I422ToYUY2Row_C",
   "parameters" :
   [
    {
     "referenced_type" : "_ZTIPKh"
    },
    {
     "referenced_type" : "_ZTIPKh"
    },
    {
     "referenced_type" : "_ZTIPKh"
    },
    {
     "referenced_type" : "_ZTIPh"
    },
    {
     "referenced_type" : "_ZTIi"
    }
   ],
   "return_type" : "_ZTIv",
   "source_file" : "external/libyuv/include/libyuv/row.h"
  },
  {
   "function_name" : "libyuv::I422ToYUY2Row_SSE2",
   "linker_set_key" : "I422ToYUY2Row_SSE2",
   "parameters" :
   [
    {
     "referenced_type" : "_ZTIPKh"
    },
    {
     "referenced_type" : "_ZTIPKh"
    },
    {
     "referenced_type" : "_ZTIPKh"
    },
    {
     "referenced_type" : "_ZTIPh"
    },
    {
     "referenced_type" : "_ZTIi"
    }
   ],
   "return_type" : "_ZTIv",
   "source_file" : "external/libyuv/include/libyuv/row.h"
  },
  {
   "function_name" : "libyuv::I444AlphaToABGR",
   "linker_set_key" : "I444AlphaToABGR",
   "parameters" :
   [
    {
     "referenced_type" : "_ZTIPKh"
    },
    {
     "referenced_type" : "_ZTIi"
    },
    {
     "referenced_type" : "_ZTIPKh"
    },
    {
     "referenced_type" : "_ZTIi"
    },
    {
     "referenced_type" : "_ZTIPKh"
    },
    {
     "referenced_type" : "_ZTIi"
    },
    {
     "referenced_type" : "_ZTIPKh"
    },
    {
     "referenced_type" : "_ZTIi"
    },
    {
     "referenced_type" : "_ZTIPh"
    },
    {
     "referenced_type" : "_ZTIi"
    },
    {
     "referenced_type" : "_ZTIi"
    },
    {
     "referenced_type" : "_ZTIi"
    },
    {
     "referenced_type" : "_ZTIi"
    }
   ],
   "return_type" : "_ZTIi",
   "source_file" : "external/libyuv/include/libyuv/convert_argb.h"
  },
  {
   "function_name" : "libyuv::I444AlphaToARGB",
   "linker_set_key" : "I444AlphaToARGB",
   "parameters" :
   [
    {
     "referenced_type" : "_ZTIPKh"
    },
    {
     "referenced_type" : "_ZTIi"
    },
    {
     "referenced_type" : "_ZTIPKh"
    },
    {
     "referenced_type" : "_ZTIi"
    },
    {
     "referenced_type" : "_ZTIPKh"
    },
    {
     "referenced_type" : "_ZTIi"
    },
    {
     "referenced_type" : "_ZTIPKh"
    },
    {
     "referenced_type" : "_ZTIi"
    },
    {
     "referenced_type" : "_ZTIPh"
    },
    {
     "referenced_type" : "_ZTIi"
    },
    {
     "referenced_type" : "_ZTIi"
    },
    {
     "referenced_type" : "_ZTIi"
    },
    {
     "referenced_type" : "_ZTIi"
    }
   ],
   "return_type" : "_ZTIi",
   "source_file" : "external/libyuv/include/libyuv/convert_argb.h"
  },
  {
   "function_name" : "libyuv::I444AlphaToARGBMatrix",
   "linker_set_key" : "I444AlphaToARGBMatrix",
   "parameters" :
   [
    {
     "referenced_type" : "_ZTIPKh"
    },
    {
     "referenced_type" : "_ZTIi"
    },
    {
     "referenced_type" : "_ZTIPKh"
    },
    {
     "referenced_type" : "_ZTIi"
    },
    {
     "referenced_type" : "_ZTIPKh"
    },
    {
     "referenced_type" : "_ZTIi"
    },
    {
     "referenced_type" : "_ZTIPKh"
    },
    {
     "referenced_type" : "_ZTIi"
    },
    {
     "referenced_type" : "_ZTIPh"
    },
    {
     "referenced_type" : "_ZTIi"
    },
    {
     "referenced_type" : "_ZTIPKN6libyuv12YuvConstantsE"
    },
    {
     "referenced_type" : "_ZTIi"
    },
    {
     "referenced_type" : "_ZTIi"
    },
    {
     "referenced_type" : "_ZTIi"
    }
   ],
   "return_type" : "_ZTIi",
   "source_file" : "external/libyuv/include/libyuv/convert_argb.h"
  },
  {
   "function_name" : "libyuv::I444AlphaToARGBRow_AVX2",
   "linker_set_key" : "I444AlphaToARGBRow_AVX2",
   "parameters" :
   [
    {
     "referenced_type" : "_ZTIPKh"
    },
    {
     "referenced_type" : "_ZTIPKh"
    },
    {
     "referenced_type" : "_ZTIPKh"
    },
    {
     "referenced_type" : "_ZTIPKh"
    },
    {
     "referenced_type" : "_ZTIPh"
    },
    {
     "referenced_type" : "_ZTIPKN6libyuv12YuvConstantsE"
    },
    {
     "referenced_type" : "_ZTIi"
    }
   ],
   "return_type" : "_ZTIv",
   "source_file" : "external/libyuv/include/libyuv/row.h"
  },
  {
   "function_name" : "libyuv::I444AlphaToARGBRow_Any_AVX2",
   "linker_set_key" : "I444AlphaToARGBRow_Any_AVX2",
   "parameters" :
   [
    {
     "referenced_type" : "_ZTIPKh"
    },
    {
     "referenced_type" : "_ZTIPKh"
    },
    {
     "referenced_type" : "_ZTIPKh"
    },
    {
     "referenced_type" : "_ZTIPKh"
    },
    {
     "referenced_type" : "_ZTIPh"
    },
    {
     "referenced_type" : "_ZTIPKN6libyuv12YuvConstantsE"
    },
    {
     "referenced_type" : "_ZTIi"
    }
   ],
   "return_type" : "_ZTIv",
   "source_file" : "external/libyuv/include/libyuv/row.h"
  },
  {
   "function_name" : "libyuv::I444AlphaToARGBRow_Any_SSSE3",
   "linker_set_key" : "I444AlphaToARGBRow_Any_SSSE3",
   "parameters" :
   [
    {
     "referenced_type" : "_ZTIPKh"
    },
    {
     "referenced_type" : "_ZTIPKh"
    },
    {
     "referenced_type" : "_ZTIPKh"
    },
    {
     "referenced_type" : "_ZTIPKh"
    },
    {
     "referenced_type" : "_ZTIPh"
    },
    {
     "referenced_type" : "_ZTIPKN6libyuv12YuvConstantsE"
    },
    {
     "referenced_type" : "_ZTIi"
    }
   ],
   "return_type" : "_ZTIv",
   "source_file" : "external/libyuv/include/libyuv/row.h"
  },
  {
   "function_name" : "libyuv::I444AlphaToARGBRow_C",
   "linker_set_key" : "I444AlphaToARGBRow_C",
   "parameters" :
   [
    {
     "referenced_type" : "_ZTIPKh"
    },
    {
     "referenced_type" : "_ZTIPKh"
    },
    {
     "referenced_type" : "_ZTIPKh"
    },
    {
     "referenced_type" : "_ZTIPKh"
    },
    {
     "referenced_type" : "_ZTIPh"
    },
    {
     "referenced_type" : "_ZTIPKN6libyuv12YuvConstantsE"
    },
    {
     "referenced_type" : "_ZTIi"
    }
   ],
   "return_type" : "_ZTIv",
   "source_file" : "external/libyuv/include/libyuv/row.h"
  },
  {
   "function_name" : "libyuv::I444AlphaToARGBRow_SSSE3",
   "linker_set_key" : "I444AlphaToARGBRow_SSSE3",
   "parameters" :
   [
    {
     "referenced_type" : "_ZTIPKh"
    },
    {
     "referenced_type" : "_ZTIPKh"
    },
    {
     "referenced_type" : "_ZTIPKh"
    },
    {
     "referenced_type" : "_ZTIPKh"
    },
    {
     "referenced_type" : "_ZTIPh"
    },
    {
     "referenced_type" : "_ZTIPKN6libyuv12YuvConstantsE"
    },
    {
     "referenced_type" : "_ZTIi"
    }
   ],
   "return_type" : "_ZTIv",
   "source_file" : "external/libyuv/include/libyuv/row.h"
  },
  {
   "function_name" : "libyuv::I444Copy",
   "linker_set_key" : "I444Copy",
   "parameters" :
   [
    {
     "referenced_type" : "_ZTIPKh"
    },
    {
     "referenced_type" : "_ZTIi"
    },
    {
     "referenced_type" : "_ZTIPKh"
    },
    {
     "referenced_type" : "_ZTIi"
    },
    {
     "referenced_type" : "_ZTIPKh"
    },
    {
     "referenced_type" : "_ZTIi"
    },
    {
     "referenced_type" : "_ZTIPh"
    },
    {
     "referenced_type" : "_ZTIi"
    },
    {
     "referenced_type" : "_ZTIPh"
    },
    {
     "referenced_type" : "_ZTIi"
    },
    {
     "referenced_type" : "_ZTIPh"
    },
    {
     "referenced_type" : "_ZTIi"
    },
    {
     "referenced_type" : "_ZTIi"
    },
    {
     "referenced_type" : "_ZTIi"
    }
   ],
   "return_type" : "_ZTIi",
   "source_file" : "external/libyuv/include/libyuv/planar_functions.h"
  },
  {
   "function_name" : "libyuv::I444Rotate",
   "linker_set_key" : "I444Rotate",
   "parameters" :
   [
    {
     "referenced_type" : "_ZTIPKh"
    },
    {
     "referenced_type" : "_ZTIi"
    },
    {
     "referenced_type" : "_ZTIPKh"
    },
    {
     "referenced_type" : "_ZTIi"
    },
    {
     "referenced_type" : "_ZTIPKh"
    },
    {
     "referenced_type" : "_ZTIi"
    },
    {
     "referenced_type" : "_ZTIPh"
    },
    {
     "referenced_type" : "_ZTIi"
    },
    {
     "referenced_type" : "_ZTIPh"
    },
    {
     "referenced_type" : "_ZTIi"
    },
    {
     "referenced_type" : "_ZTIPh"
    },
    {
     "referenced_type" : "_ZTIi"
    },
    {
     "referenced_type" : "_ZTIi"
    },
    {
     "referenced_type" : "_ZTIi"
    },
    {
     "referenced_type" : "_ZTIN6libyuv12RotationModeE"
    }
   ],
   "return_type" : "_ZTIi",
   "source_file" : "external/libyuv/include/libyuv/rotate.h"
  },
  {
   "function_name" : "libyuv::I444Scale",
   "linker_set_key" : "I444Scale",
   "parameters" :
   [
    {
     "referenced_type" : "_ZTIPKh"
    },
    {
     "referenced_type" : "_ZTIi"
    },
    {
     "referenced_type" : "_ZTIPKh"
    },
    {
     "referenced_type" : "_ZTIi"
    },
    {
     "referenced_type" : "_ZTIPKh"
    },
    {
     "referenced_type" : "_ZTIi"
    },
    {
     "referenced_type" : "_ZTIi"
    },
    {
     "referenced_type" : "_ZTIi"
    },
    {
     "referenced_type" : "_ZTIPh"
    },
    {
     "referenced_type" : "_ZTIi"
    },
    {
     "referenced_type" : "_ZTIPh"
    },
    {
     "referenced_type" : "_ZTIi"
    },
    {
     "referenced_type" : "_ZTIPh"
    },
    {
     "referenced_type" : "_ZTIi"
    },
    {
     "referenced_type" : "_ZTIi"
    },
    {
     "referenced_type" : "_ZTIi"
    },
    {
     "referenced_type" : "_ZTIN6libyuv10FilterModeE"
    }
   ],
   "return_type" : "_ZTIi",
   "source_file" : "external/libyuv/include/libyuv/scale.h"
  },
  {
   "function_name" : "libyuv::I444Scale_12",
   "linker_set_key" : "I444Scale_12",
   "parameters" :
   [
    {
     "referenced_type" : "_ZTIPKt"
    },
    {
     "referenced_type" : "_ZTIi"
    },
    {
     "referenced_type" : "_ZTIPKt"
    },
    {
     "referenced_type" : "_ZTIi"
    },
    {
     "referenced_type" : "_ZTIPKt"
    },
    {
     "referenced_type" : "_ZTIi"
    },
    {
     "referenced_type" : "_ZTIi"
    },
    {
     "referenced_type" : "_ZTIi"
    },
    {
     "referenced_type" : "_ZTIPt"
    },
    {
     "referenced_type" : "_ZTIi"
    },
    {
     "referenced_type" : "_ZTIPt"
    },
    {
     "referenced_type" : "_ZTIi"
    },
    {
     "referenced_type" : "_ZTIPt"
    },
    {
     "referenced_type" : "_ZTIi"
    },
    {
     "referenced_type" : "_ZTIi"
    },
    {
     "referenced_type" : "_ZTIi"
    },
    {
     "referenced_type" : "_ZTIN6libyuv10FilterModeE"
    }
   ],
   "return_type" : "_ZTIi",
   "source_file" : "external/libyuv/include/libyuv/scale.h"
  },
  {
   "function_name" : "libyuv::I444Scale_16",
   "linker_set_key" : "I444Scale_16",
   "parameters" :
   [
    {
     "referenced_type" : "_ZTIPKt"
    },
    {
     "referenced_type" : "_ZTIi"
    },
    {
     "referenced_type" : "_ZTIPKt"
    },
    {
     "referenced_type" : "_ZTIi"
    },
    {
     "referenced_type" : "_ZTIPKt"
    },
    {
     "referenced_type" : "_ZTIi"
    },
    {
     "referenced_type" : "_ZTIi"
    },
    {
     "referenced_type" : "_ZTIi"
    },
    {
     "referenced_type" : "_ZTIPt"
    },
    {
     "referenced_type" : "_ZTIi"
    },
    {
     "referenced_type" : "_ZTIPt"
    },
    {
     "referenced_type" : "_ZTIi"
    },
    {
     "referenced_type" : "_ZTIPt"
    },
    {
     "referenced_type" : "_ZTIi"
    },
    {
     "referenced_type" : "_ZTIi"
    },
    {
     "referenced_type" : "_ZTIi"
    },
    {
     "referenced_type" : "_ZTIN6libyuv10FilterModeE"
    }
   ],
   "return_type" : "_ZTIi",
   "source_file" : "external/libyuv/include/libyuv/scale.h"
  },
  {
   "function_name" : "libyuv::I444ToABGR",
   "linker_set_key" : "I444ToABGR",
   "parameters" :
   [
    {
     "referenced_type" : "_ZTIPKh"
    },
    {
     "referenced_type" : "_ZTIi"
    },
    {
     "referenced_type" : "_ZTIPKh"
    },
    {
     "referenced_type" : "_ZTIi"
    },
    {
     "referenced_type" : "_ZTIPKh"
    },
    {
     "referenced_type" : "_ZTIi"
    },
    {
     "referenced_type" : "_ZTIPh"
    },
    {
     "referenced_type" : "_ZTIi"
    },
    {
     "referenced_type" : "_ZTIi"
    },
    {
     "referenced_type" : "_ZTIi"
    }
   ],
   "return_type" : "_ZTIi",
   "source_file" : "external/libyuv/include/libyuv/convert_argb.h"
  },
  {
   "function_name" : "libyuv::I444ToARGB",
   "linker_set_key" : "I444ToARGB",
   "parameters" :
   [
    {
     "referenced_type" : "_ZTIPKh"
    },
    {
     "referenced_type" : "_ZTIi"
    },
    {
     "referenced_type" : "_ZTIPKh"
    },
    {
     "referenced_type" : "_ZTIi"
    },
    {
     "referenced_type" : "_ZTIPKh"
    },
    {
     "referenced_type" : "_ZTIi"
    },
    {
     "referenced_type" : "_ZTIPh"
    },
    {
     "referenced_type" : "_ZTIi"
    },
    {
     "referenced_type" : "_ZTIi"
    },
    {
     "referenced_type" : "_ZTIi"
    }
   ],
   "return_type" : "_ZTIi",
   "source_file" : "external/libyuv/include/libyuv/convert_argb.h"
  },
  {
   "function_name" : "libyuv::I444ToARGBMatrix",
   "linker_set_key" : "I444ToARGBMatrix",
   "parameters" :
   [
    {
     "referenced_type" : "_ZTIPKh"
    },
    {
     "referenced_type" : "_ZTIi"
    },
    {
     "referenced_type" : "_ZTIPKh"
    },
    {
     "referenced_type" : "_ZTIi"
    },
    {
     "referenced_type" : "_ZTIPKh"
    },
    {
     "referenced_type" : "_ZTIi"
    },
    {
     "referenced_type" : "_ZTIPh"
    },
    {
     "referenced_type" : "_ZTIi"
    },
    {
     "referenced_type" : "_ZTIPKN6libyuv12YuvConstantsE"
    },
    {
     "referenced_type" : "_ZTIi"
    },
    {
     "referenced_type" : "_ZTIi"
    }
   ],
   "return_type" : "_ZTIi",
   "source_file" : "external/libyuv/include/libyuv/convert_argb.h"
  },
  {
   "function_name" : "libyuv::I444ToARGBRow_AVX2",
   "linker_set_key" : "I444ToARGBRow_AVX2",
   "parameters" :
   [
    {
     "referenced_type" : "_ZTIPKh"
    },
    {
     "referenced_type" : "_ZTIPKh"
    },
    {
     "referenced_type" : "_ZTIPKh"
    },
    {
     "referenced_type" : "_ZTIPh"
    },
    {
     "referenced_type" : "_ZTIPKN6libyuv12YuvConstantsE"
    },
    {
     "referenced_type" : "_ZTIi"
    }
   ],
   "return_type" : "_ZTIv",
   "source_file" : "external/libyuv/include/libyuv/row.h"
  },
  {
   "function_name" : "libyuv::I444ToARGBRow_Any_AVX2",
   "linker_set_key" : "I444ToARGBRow_Any_AVX2",
   "parameters" :
   [
    {
     "referenced_type" : "_ZTIPKh"
    },
    {
     "referenced_type" : "_ZTIPKh"
    },
    {
     "referenced_type" : "_ZTIPKh"
    },
    {
     "referenced_type" : "_ZTIPh"
    },
    {
     "referenced_type" : "_ZTIPKN6libyuv12YuvConstantsE"
    },
    {
     "referenced_type" : "_ZTIi"
    }
   ],
   "return_type" : "_ZTIv",
   "source_file" : "external/libyuv/include/libyuv/row.h"
  },
  {
   "function_name" : "libyuv::I444ToARGBRow_Any_SSSE3",
   "linker_set_key" : "I444ToARGBRow_Any_SSSE3",
   "parameters" :
   [
    {
     "referenced_type" : "_ZTIPKh"
    },
    {
     "referenced_type" : "_ZTIPKh"
    },
    {
     "referenced_type" : "_ZTIPKh"
    },
    {
     "referenced_type" : "_ZTIPh"
    },
    {
     "referenced_type" : "_ZTIPKN6libyuv12YuvConstantsE"
    },
    {
     "referenced_type" : "_ZTIi"
    }
   ],
   "return_type" : "_ZTIv",
   "source_file" : "external/libyuv/include/libyuv/row.h"
  },
  {
   "function_name" : "libyuv::I444ToARGBRow_C",
   "linker_set_key" : "I444ToARGBRow_C",
   "parameters" :
   [
    {
     "referenced_type" : "_ZTIPKh"
    },
    {
     "referenced_type" : "_ZTIPKh"
    },
    {
     "referenced_type" : "_ZTIPKh"
    },
    {
     "referenced_type" : "_ZTIPh"
    },
    {
     "referenced_type" : "_ZTIPKN6libyuv12YuvConstantsE"
    },
    {
     "referenced_type" : "_ZTIi"
    }
   ],
   "return_type" : "_ZTIv",
   "source_file" : "external/libyuv/include/libyuv/row.h"
  },
  {
   "function_name" : "libyuv::I444ToARGBRow_SSSE3",
   "linker_set_key" : "I444ToARGBRow_SSSE3",
   "parameters" :
   [
    {
     "referenced_type" : "_ZTIPKh"
    },
    {
     "referenced_type" : "_ZTIPKh"
    },
    {
     "referenced_type" : "_ZTIPKh"
    },
    {
     "referenced_type" : "_ZTIPh"
    },
    {
     "referenced_type" : "_ZTIPKN6libyuv12YuvConstantsE"
    },
    {
     "referenced_type" : "_ZTIi"
    }
   ],
   "return_type" : "_ZTIv",
   "source_file" : "external/libyuv/include/libyuv/row.h"
  },
  {
   "function_name" : "libyuv::I444ToI420",
   "linker_set_key" : "I444ToI420",
   "parameters" :
   [
    {
     "referenced_type" : "_ZTIPKh"
    },
    {
     "referenced_type" : "_ZTIi"
    },
    {
     "referenced_type" : "_ZTIPKh"
    },
    {
     "referenced_type" : "_ZTIi"
    },
    {
     "referenced_type" : "_ZTIPKh"
    },
    {
     "referenced_type" : "_ZTIi"
    },
    {
     "referenced_type" : "_ZTIPh"
    },
    {
     "referenced_type" : "_ZTIi"
    },
    {
     "referenced_type" : "_ZTIPh"
    },
    {
     "referenced_type" : "_ZTIi"
    },
    {
     "referenced_type" : "_ZTIPh"
    },
    {
     "referenced_type" : "_ZTIi"
    },
    {
     "referenced_type" : "_ZTIi"
    },
    {
     "referenced_type" : "_ZTIi"
    }
   ],
   "return_type" : "_ZTIi",
   "source_file" : "external/libyuv/include/libyuv/convert.h"
  },
  {
   "function_name" : "libyuv::I444ToNV12",
   "linker_set_key" : "I444ToNV12",
   "parameters" :
   [
    {
     "referenced_type" : "_ZTIPKh"
    },
    {
     "referenced_type" : "_ZTIi"
    },
    {
     "referenced_type" : "_ZTIPKh"
    },
    {
     "referenced_type" : "_ZTIi"
    },
    {
     "referenced_type" : "_ZTIPKh"
    },
    {
     "referenced_type" : "_ZTIi"
    },
    {
     "referenced_type" : "_ZTIPh"
    },
    {
     "referenced_type" : "_ZTIi"
    },
    {
     "referenced_type" : "_ZTIPh"
    },
    {
     "referenced_type" : "_ZTIi"
    },
    {
     "referenced_type" : "_ZTIi"
    },
    {
     "referenced_type" : "_ZTIi"
    }
   ],
   "return_type" : "_ZTIi",
   "source_file" : "external/libyuv/include/libyuv/convert.h"
  },
  {
   "function_name" : "libyuv::I444ToNV21",
   "linker_set_key" : "I444ToNV21",
   "parameters" :
   [
    {
     "referenced_type" : "_ZTIPKh"
    },
    {
     "referenced_type" : "_ZTIi"
    },
    {
     "referenced_type" : "_ZTIPKh"
    },
    {
     "referenced_type" : "_ZTIi"
    },
    {
     "referenced_type" : "_ZTIPKh"
    },
    {
     "referenced_type" : "_ZTIi"
    },
    {
     "referenced_type" : "_ZTIPh"
    },
    {
     "referenced_type" : "_ZTIi"
    },
    {
     "referenced_type" : "_ZTIPh"
    },
    {
     "referenced_type" : "_ZTIi"
    },
    {
     "referenced_type" : "_ZTIi"
    },
    {
     "referenced_type" : "_ZTIi"
    }
   ],
   "return_type" : "_ZTIi",
   "source_file" : "external/libyuv/include/libyuv/convert.h"
  },
  {
   "function_name" : "libyuv::I444ToRAW",
   "linker_set_key" : "I444ToRAW",
   "parameters" :
   [
    {
     "referenced_type" : "_ZTIPKh"
    },
    {
     "referenced_type" : "_ZTIi"
    },
    {
     "referenced_type" : "_ZTIPKh"
    },
    {
     "referenced_type" : "_ZTIi"
    },
    {
     "referenced_type" : "_ZTIPKh"
    },
    {
     "referenced_type" : "_ZTIi"
    },
    {
     "referenced_type" : "_ZTIPh"
    },
    {
     "referenced_type" : "_ZTIi"
    },
    {
     "referenced_type" : "_ZTIi"
    },
    {
     "referenced_type" : "_ZTIi"
    }
   ],
   "return_type" : "_ZTIi",
   "source_file" : "external/libyuv/include/libyuv/convert_argb.h"
  },
  {
   "function_name" : "libyuv::I444ToRGB24",
   "linker_set_key" : "I444ToRGB24",
   "parameters" :
   [
    {
     "referenced_type" : "_ZTIPKh"
    },
    {
     "referenced_type" : "_ZTIi"
    },
    {
     "referenced_type" : "_ZTIPKh"
    },
    {
     "referenced_type" : "_ZTIi"
    },
    {
     "referenced_type" : "_ZTIPKh"
    },
    {
     "referenced_type" : "_ZTIi"
    },
    {
     "referenced_type" : "_ZTIPh"
    },
    {
     "referenced_type" : "_ZTIi"
    },
    {
     "referenced_type" : "_ZTIi"
    },
    {
     "referenced_type" : "_ZTIi"
    }
   ],
   "return_type" : "_ZTIi",
   "source_file" : "external/libyuv/include/libyuv/convert_argb.h"
  },
  {
   "function_name" : "libyuv::I444ToRGB24Matrix",
   "linker_set_key" : "I444ToRGB24Matrix",
   "parameters" :
   [
    {
     "referenced_type" : "_ZTIPKh"
    },
    {
     "referenced_type" : "_ZTIi"
    },
    {
     "referenced_type" : "_ZTIPKh"
    },
    {
     "referenced_type" : "_ZTIi"
    },
    {
     "referenced_type" : "_ZTIPKh"
    },
    {
     "referenced_type" : "_ZTIi"
    },
    {
     "referenced_type" : "_ZTIPh"
    },
    {
     "referenced_type" : "_ZTIi"
    },
    {
     "referenced_type" : "_ZTIPKN6libyuv12YuvConstantsE"
    },
    {
     "referenced_type" : "_ZTIi"
    },
    {
     "referenced_type" : "_ZTIi"
    }
   ],
   "return_type" : "_ZTIi",
   "source_file" : "external/libyuv/include/libyuv/convert_argb.h"
  },
  {
   "function_name" : "libyuv::I444ToRGB24Row_AVX2",
   "linker_set_key" : "I444ToRGB24Row_AVX2",
   "parameters" :
   [
    {
     "referenced_type" : "_ZTIPKh"
    },
    {
     "referenced_type" : "_ZTIPKh"
    },
    {
     "referenced_type" : "_ZTIPKh"
    },
    {
     "referenced_type" : "_ZTIPh"
    },
    {
     "referenced_type" : "_ZTIPKN6libyuv12YuvConstantsE"
    },
    {
     "referenced_type" : "_ZTIi"
    }
   ],
   "return_type" : "_ZTIv",
   "source_file" : "external/libyuv/include/libyuv/row.h"
  },
  {
   "function_name" : "libyuv::I444ToRGB24Row_Any_AVX2",
   "linker_set_key" : "I444ToRGB24Row_Any_AVX2",
   "parameters" :
   [
    {
     "referenced_type" : "_ZTIPKh"
    },
    {
     "referenced_type" : "_ZTIPKh"
    },
    {
     "referenced_type" : "_ZTIPKh"
    },
    {
     "referenced_type" : "_ZTIPh"
    },
    {
     "referenced_type" : "_ZTIPKN6libyuv12YuvConstantsE"
    },
    {
     "referenced_type" : "_ZTIi"
    }
   ],
   "return_type" : "_ZTIv",
   "source_file" : "external/libyuv/include/libyuv/row.h"
  },
  {
   "function_name" : "libyuv::I444ToRGB24Row_Any_SSSE3",
   "linker_set_key" : "I444ToRGB24Row_Any_SSSE3",
   "parameters" :
   [
    {
     "referenced_type" : "_ZTIPKh"
    },
    {
     "referenced_type" : "_ZTIPKh"
    },
    {
     "referenced_type" : "_ZTIPKh"
    },
    {
     "referenced_type" : "_ZTIPh"
    },
    {
     "referenced_type" : "_ZTIPKN6libyuv12YuvConstantsE"
    },
    {
     "referenced_type" : "_ZTIi"
    }
   ],
   "return_type" : "_ZTIv",
   "source_file" : "external/libyuv/include/libyuv/row.h"
  },
  {
   "function_name" : "libyuv::I444ToRGB24Row_C",
   "linker_set_key" : "I444ToRGB24Row_C",
   "parameters" :
   [
    {
     "referenced_type" : "_ZTIPKh"
    },
    {
     "referenced_type" : "_ZTIPKh"
    },
    {
     "referenced_type" : "_ZTIPKh"
    },
    {
     "referenced_type" : "_ZTIPh"
    },
    {
     "referenced_type" : "_ZTIPKN6libyuv12YuvConstantsE"
    },
    {
     "referenced_type" : "_ZTIi"
    }
   ],
   "return_type" : "_ZTIv",
   "source_file" : "external/libyuv/include/libyuv/row.h"
  },
  {
   "function_name" : "libyuv::I444ToRGB24Row_SSSE3",
   "linker_set_key" : "I444ToRGB24Row_SSSE3",
   "parameters" :
   [
    {
     "referenced_type" : "_ZTIPKh"
    },
    {
     "referenced_type" : "_ZTIPKh"
    },
    {
     "referenced_type" : "_ZTIPKh"
    },
    {
     "referenced_type" : "_ZTIPh"
    },
    {
     "referenced_type" : "_ZTIPKN6libyuv12YuvConstantsE"
    },
    {
     "referenced_type" : "_ZTIi"
    }
   ],
   "return_type" : "_ZTIv",
   "source_file" : "external/libyuv/include/libyuv/row.h"
  },
  {
   "function_name" : "libyuv::InitCpuFlags",
   "linker_set_key" : "InitCpuFlags",
   "return_type" : "_ZTIi",
   "source_file" : "external/libyuv/include/libyuv/cpu_id.h"
  },
  {
   "function_name" : "libyuv::InterpolatePlane",
   "linker_set_key" : "InterpolatePlane",
   "parameters" :
   [
    {
     "referenced_type" : "_ZTIPKh"
    },
    {
     "referenced_type" : "_ZTIi"
    },
    {
     "referenced_type" : "_ZTIPKh"
    },
    {
     "referenced_type" : "_ZTIi"
    },
    {
     "referenced_type" : "_ZTIPh"
    },
    {
     "referenced_type" : "_ZTIi"
    },
    {
     "referenced_type" : "_ZTIi"
    },
    {
     "referenced_type" : "_ZTIi"
    },
    {
     "referenced_type" : "_ZTIi"
    }
   ],
   "return_type" : "_ZTIi",
   "source_file" : "external/libyuv/include/libyuv/planar_functions.h"
  },
  {
   "function_name" : "libyuv::InterpolatePlane_16",
   "linker_set_key" : "InterpolatePlane_16",
   "parameters" :
   [
    {
     "referenced_type" : "_ZTIPKt"
    },
    {
     "referenced_type" : "_ZTIi"
    },
    {
     "referenced_type" : "_ZTIPKt"
    },
    {
     "referenced_type" : "_ZTIi"
    },
    {
     "referenced_type" : "_ZTIPt"
    },
    {
     "referenced_type" : "_ZTIi"
    },
    {
     "referenced_type" : "_ZTIi"
    },
    {
     "referenced_type" : "_ZTIi"
    },
    {
     "referenced_type" : "_ZTIi"
    }
   ],
   "return_type" : "_ZTIi",
   "source_file" : "external/libyuv/include/libyuv/planar_functions.h"
  },
  {
   "function_name" : "libyuv::InterpolateRow_16To8_AVX2",
   "linker_set_key" : "InterpolateRow_16To8_AVX2",
   "parameters" :
   [
    {
     "referenced_type" : "_ZTIPh"
    },
    {
     "referenced_type" : "_ZTIPKt"
    },
    {
     "referenced_type" : "_ZTIi"
    },
    {
     "referenced_type" : "_ZTIi"
    },
    {
     "referenced_type" : "_ZTIi"
    },
    {
     "referenced_type" : "_ZTIi"
    }
   ],
   "return_type" : "_ZTIv",
   "source_file" : "external/libyuv/include/libyuv/row.h"
  },
  {
   "function_name" : "libyuv::InterpolateRow_16To8_Any_AVX2",
   "linker_set_key" : "InterpolateRow_16To8_Any_AVX2",
   "parameters" :
   [
    {
     "referenced_type" : "_ZTIPh"
    },
    {
     "referenced_type" : "_ZTIPKt"
    },
    {
     "referenced_type" : "_ZTIi"
    },
    {
     "referenced_type" : "_ZTIi"
    },
    {
     "referenced_type" : "_ZTIi"
    },
    {
     "referenced_type" : "_ZTIi"
    }
   ],
   "return_type" : "_ZTIv",
   "source_file" : "external/libyuv/include/libyuv/row.h"
  },
  {
   "function_name" : "libyuv::InterpolateRow_16To8_C",
   "linker_set_key" : "InterpolateRow_16To8_C",
   "parameters" :
   [
    {
     "referenced_type" : "_ZTIPh"
    },
    {
     "referenced_type" : "_ZTIPKt"
    },
    {
     "referenced_type" : "_ZTIi"
    },
    {
     "referenced_type" : "_ZTIi"
    },
    {
     "referenced_type" : "_ZTIi"
    },
    {
     "referenced_type" : "_ZTIi"
    }
   ],
   "return_type" : "_ZTIv",
   "source_file" : "external/libyuv/include/libyuv/row.h"
  },
  {
   "function_name" : "libyuv::InterpolateRow_16_C",
   "linker_set_key" : "InterpolateRow_16_C",
   "parameters" :
   [
    {
     "referenced_type" : "_ZTIPt"
    },
    {
     "referenced_type" : "_ZTIPKt"
    },
    {
     "referenced_type" : "_ZTIi"
    },
    {
     "referenced_type" : "_ZTIi"
    },
    {
     "referenced_type" : "_ZTIi"
    }
   ],
   "return_type" : "_ZTIv",
   "source_file" : "external/libyuv/include/libyuv/row.h"
  },
  {
   "function_name" : "libyuv::InterpolateRow_AVX2",
   "linker_set_key" : "InterpolateRow_AVX2",
   "parameters" :
   [
    {
     "referenced_type" : "_ZTIPh"
    },
    {
     "referenced_type" : "_ZTIPKh"
    },
    {
     "referenced_type" : "_ZTIi"
    },
    {
     "referenced_type" : "_ZTIi"
    },
    {
     "referenced_type" : "_ZTIi"
    }
   ],
   "return_type" : "_ZTIv",
   "source_file" : "external/libyuv/include/libyuv/row.h"
  },
  {
   "function_name" : "libyuv::InterpolateRow_Any_AVX2",
   "linker_set_key" : "InterpolateRow_Any_AVX2",
   "parameters" :
   [
    {
     "referenced_type" : "_ZTIPh"
    },
    {
     "referenced_type" : "_ZTIPKh"
    },
    {
     "referenced_type" : "_ZTIi"
    },
    {
     "referenced_type" : "_ZTIi"
    },
    {
     "referenced_type" : "_ZTIi"
    }
   ],
   "return_type" : "_ZTIv",
   "source_file" : "external/libyuv/include/libyuv/row.h"
  },
  {
   "function_name" : "libyuv::InterpolateRow_Any_SSSE3",
   "linker_set_key" : "InterpolateRow_Any_SSSE3",
   "parameters" :
   [
    {
     "referenced_type" : "_ZTIPh"
    },
    {
     "referenced_type" : "_ZTIPKh"
    },
    {
     "referenced_type" : "_ZTIi"
    },
    {
     "referenced_type" : "_ZTIi"
    },
    {
     "referenced_type" : "_ZTIi"
    }
   ],
   "return_type" : "_ZTIv",
   "source_file" : "external/libyuv/include/libyuv/row.h"
  },
  {
   "function_name" : "libyuv::InterpolateRow_C",
   "linker_set_key" : "InterpolateRow_C",
   "parameters" :
   [
    {
     "referenced_type" : "_ZTIPh"
    },
    {
     "referenced_type" : "_ZTIPKh"
    },
    {
     "referenced_type" : "_ZTIi"
    },
    {
     "referenced_type" : "_ZTIi"
    },
    {
     "referenced_type" : "_ZTIi"
    }
   ],
   "return_type" : "_ZTIv",
   "source_file" : "external/libyuv/include/libyuv/row.h"
  },
  {
   "function_name" : "libyuv::InterpolateRow_SSSE3",
   "linker_set_key" : "InterpolateRow_SSSE3",
   "parameters" :
   [
    {
     "referenced_type" : "_ZTIPh"
    },
    {
     "referenced_type" : "_ZTIPKh"
    },
    {
     "referenced_type" : "_ZTIi"
    },
    {
     "referenced_type" : "_ZTIi"
    },
    {
     "referenced_type" : "_ZTIi"
    }
   ],
   "return_type" : "_ZTIv",
   "source_file" : "external/libyuv/include/libyuv/row.h"
  },
  {
   "function_name" : "libyuv::J400ToARGB",
   "linker_set_key" : "J400ToARGB",
   "parameters" :
   [
    {
     "referenced_type" : "_ZTIPKh"
    },
    {
     "referenced_type" : "_ZTIi"
    },
    {
     "referenced_type" : "_ZTIPh"
    },
    {
     "referenced_type" : "_ZTIi"
    },
    {
     "referenced_type" : "_ZTIi"
    },
    {
     "referenced_type" : "_ZTIi"
    }
   ],
   "return_type" : "_ZTIi",
   "source_file" : "external/libyuv/include/libyuv/convert_argb.h"
  },
  {
   "function_name" : "libyuv::J400ToARGBRow_Any_SSE2",
   "linker_set_key" : "J400ToARGBRow_Any_SSE2",
   "parameters" :
   [
    {
     "referenced_type" : "_ZTIPKh"
    },
    {
     "referenced_type" : "_ZTIPh"
    },
    {
     "referenced_type" : "_ZTIi"
    }
   ],
   "return_type" : "_ZTIv",
   "source_file" : "external/libyuv/include/libyuv/row.h"
  },
  {
   "function_name" : "libyuv::J400ToARGBRow_C",
   "linker_set_key" : "J400ToARGBRow_C",
   "parameters" :
   [
    {
     "referenced_type" : "_ZTIPKh"
    },
    {
     "referenced_type" : "_ZTIPh"
    },
    {
     "referenced_type" : "_ZTIi"
    }
   ],
   "return_type" : "_ZTIv",
   "source_file" : "external/libyuv/include/libyuv/row.h"
  },
  {
   "function_name" : "libyuv::J400ToARGBRow_SSE2",
   "linker_set_key" : "J400ToARGBRow_SSE2",
   "parameters" :
   [
    {
     "referenced_type" : "_ZTIPKh"
    },
    {
     "referenced_type" : "_ZTIPh"
    },
    {
     "referenced_type" : "_ZTIi"
    }
   ],
   "return_type" : "_ZTIv",
   "source_file" : "external/libyuv/include/libyuv/row.h"
  },
  {
   "function_name" : "libyuv::J420ToABGR",
   "linker_set_key" : "J420ToABGR",
   "parameters" :
   [
    {
     "referenced_type" : "_ZTIPKh"
    },
    {
     "referenced_type" : "_ZTIi"
    },
    {
     "referenced_type" : "_ZTIPKh"
    },
    {
     "referenced_type" : "_ZTIi"
    },
    {
     "referenced_type" : "_ZTIPKh"
    },
    {
     "referenced_type" : "_ZTIi"
    },
    {
     "referenced_type" : "_ZTIPh"
    },
    {
     "referenced_type" : "_ZTIi"
    },
    {
     "referenced_type" : "_ZTIi"
    },
    {
     "referenced_type" : "_ZTIi"
    }
   ],
   "return_type" : "_ZTIi",
   "source_file" : "external/libyuv/include/libyuv/convert_argb.h"
  },
  {
   "function_name" : "libyuv::J420ToARGB",
   "linker_set_key" : "J420ToARGB",
   "parameters" :
   [
    {
     "referenced_type" : "_ZTIPKh"
    },
    {
     "referenced_type" : "_ZTIi"
    },
    {
     "referenced_type" : "_ZTIPKh"
    },
    {
     "referenced_type" : "_ZTIi"
    },
    {
     "referenced_type" : "_ZTIPKh"
    },
    {
     "referenced_type" : "_ZTIi"
    },
    {
     "referenced_type" : "_ZTIPh"
    },
    {
     "referenced_type" : "_ZTIi"
    },
    {
     "referenced_type" : "_ZTIi"
    },
    {
     "referenced_type" : "_ZTIi"
    }
   ],
   "return_type" : "_ZTIi",
   "source_file" : "external/libyuv/include/libyuv/convert_argb.h"
  },
  {
   "function_name" : "libyuv::J420ToRAW",
   "linker_set_key" : "J420ToRAW",
   "parameters" :
   [
    {
     "referenced_type" : "_ZTIPKh"
    },
    {
     "referenced_type" : "_ZTIi"
    },
    {
     "referenced_type" : "_ZTIPKh"
    },
    {
     "referenced_type" : "_ZTIi"
    },
    {
     "referenced_type" : "_ZTIPKh"
    },
    {
     "referenced_type" : "_ZTIi"
    },
    {
     "referenced_type" : "_ZTIPh"
    },
    {
     "referenced_type" : "_ZTIi"
    },
    {
     "referenced_type" : "_ZTIi"
    },
    {
     "referenced_type" : "_ZTIi"
    }
   ],
   "return_type" : "_ZTIi",
   "source_file" : "external/libyuv/include/libyuv/convert_argb.h"
  },
  {
   "function_name" : "libyuv::J420ToRGB24",
   "linker_set_key" : "J420ToRGB24",
   "parameters" :
   [
    {
     "referenced_type" : "_ZTIPKh"
    },
    {
     "referenced_type" : "_ZTIi"
    },
    {
     "referenced_type" : "_ZTIPKh"
    },
    {
     "referenced_type" : "_ZTIi"
    },
    {
     "referenced_type" : "_ZTIPKh"
    },
    {
     "referenced_type" : "_ZTIi"
    },
    {
     "referenced_type" : "_ZTIPh"
    },
    {
     "referenced_type" : "_ZTIi"
    },
    {
     "referenced_type" : "_ZTIi"
    },
    {
     "referenced_type" : "_ZTIi"
    }
   ],
   "return_type" : "_ZTIi",
   "source_file" : "external/libyuv/include/libyuv/convert_argb.h"
  },
  {
   "function_name" : "libyuv::J420ToRGB565",
   "linker_set_key" : "J420ToRGB565",
   "parameters" :
   [
    {
     "referenced_type" : "_ZTIPKh"
    },
    {
     "referenced_type" : "_ZTIi"
    },
    {
     "referenced_type" : "_ZTIPKh"
    },
    {
     "referenced_type" : "_ZTIi"
    },
    {
     "referenced_type" : "_ZTIPKh"
    },
    {
     "referenced_type" : "_ZTIi"
    },
    {
     "referenced_type" : "_ZTIPh"
    },
    {
     "referenced_type" : "_ZTIi"
    },
    {
     "referenced_type" : "_ZTIi"
    },
    {
     "referenced_type" : "_ZTIi"
    }
   ],
   "return_type" : "_ZTIi",
   "source_file" : "external/libyuv/include/libyuv/convert_argb.h"
  },
  {
   "function_name" : "libyuv::J422ToABGR",
   "linker_set_key" : "J422ToABGR",
   "parameters" :
   [
    {
     "referenced_type" : "_ZTIPKh"
    },
    {
     "referenced_type" : "_ZTIi"
    },
    {
     "referenced_type" : "_ZTIPKh"
    },
    {
     "referenced_type" : "_ZTIi"
    },
    {
     "referenced_type" : "_ZTIPKh"
    },
    {
     "referenced_type" : "_ZTIi"
    },
    {
     "referenced_type" : "_ZTIPh"
    },
    {
     "referenced_type" : "_ZTIi"
    },
    {
     "referenced_type" : "_ZTIi"
    },
    {
     "referenced_type" : "_ZTIi"
    }
   ],
   "return_type" : "_ZTIi",
   "source_file" : "external/libyuv/include/libyuv/convert_argb.h"
  },
  {
   "function_name" : "libyuv::J422ToARGB",
   "linker_set_key" : "J422ToARGB",
   "parameters" :
   [
    {
     "referenced_type" : "_ZTIPKh"
    },
    {
     "referenced_type" : "_ZTIi"
    },
    {
     "referenced_type" : "_ZTIPKh"
    },
    {
     "referenced_type" : "_ZTIi"
    },
    {
     "referenced_type" : "_ZTIPKh"
    },
    {
     "referenced_type" : "_ZTIi"
    },
    {
     "referenced_type" : "_ZTIPh"
    },
    {
     "referenced_type" : "_ZTIi"
    },
    {
     "referenced_type" : "_ZTIi"
    },
    {
     "referenced_type" : "_ZTIi"
    }
   ],
   "return_type" : "_ZTIi",
   "source_file" : "external/libyuv/include/libyuv/convert_argb.h"
  },
  {
   "function_name" : "libyuv::J444ToABGR",
   "linker_set_key" : "J444ToABGR",
   "parameters" :
   [
    {
     "referenced_type" : "_ZTIPKh"
    },
    {
     "referenced_type" : "_ZTIi"
    },
    {
     "referenced_type" : "_ZTIPKh"
    },
    {
     "referenced_type" : "_ZTIi"
    },
    {
     "referenced_type" : "_ZTIPKh"
    },
    {
     "referenced_type" : "_ZTIi"
    },
    {
     "referenced_type" : "_ZTIPh"
    },
    {
     "referenced_type" : "_ZTIi"
    },
    {
     "referenced_type" : "_ZTIi"
    },
    {
     "referenced_type" : "_ZTIi"
    }
   ],
   "return_type" : "_ZTIi",
   "source_file" : "external/libyuv/include/libyuv/convert_argb.h"
  },
  {
   "function_name" : "libyuv::J444ToARGB",
   "linker_set_key" : "J444ToARGB",
   "parameters" :
   [
    {
     "referenced_type" : "_ZTIPKh"
    },
    {
     "referenced_type" : "_ZTIi"
    },
    {
     "referenced_type" : "_ZTIPKh"
    },
    {
     "referenced_type" : "_ZTIi"
    },
    {
     "referenced_type" : "_ZTIPKh"
    },
    {
     "referenced_type" : "_ZTIi"
    },
    {
     "referenced_type" : "_ZTIPh"
    },
    {
     "referenced_type" : "_ZTIi"
    },
    {
     "referenced_type" : "_ZTIi"
    },
    {
     "referenced_type" : "_ZTIi"
    }
   ],
   "return_type" : "_ZTIi",
   "source_file" : "external/libyuv/include/libyuv/convert_argb.h"
  },
  {
   "function_name" : "libyuv::MJPGSize",
   "linker_set_key" : "MJPGSize",
   "parameters" :
   [
    {
     "referenced_type" : "_ZTIPKh"
    },
    {
     "referenced_type" : "_ZTIj"
    },
    {
     "referenced_type" : "_ZTIPi"
    },
    {
     "referenced_type" : "_ZTIPi"
    }
   ],
   "return_type" : "_ZTIi",
   "source_file" : "external/libyuv/include/libyuv/convert.h"
  },
  {
   "function_name" : "libyuv::MJPGToARGB",
   "linker_set_key" : "MJPGToARGB",
   "parameters" :
   [
    {
     "referenced_type" : "_ZTIPKh"
    },
    {
     "referenced_type" : "_ZTIj"
    },
    {
     "referenced_type" : "_ZTIPh"
    },
    {
     "referenced_type" : "_ZTIi"
    },
    {
     "referenced_type" : "_ZTIi"
    },
    {
     "referenced_type" : "_ZTIi"
    },
    {
     "referenced_type" : "_ZTIi"
    },
    {
     "referenced_type" : "_ZTIi"
    }
   ],
   "return_type" : "_ZTIi",
   "source_file" : "external/libyuv/include/libyuv/convert_argb.h"
  },
  {
   "function_name" : "libyuv::MJPGToI420",
   "linker_set_key" : "MJPGToI420",
   "parameters" :
   [
    {
     "referenced_type" : "_ZTIPKh"
    },
    {
     "referenced_type" : "_ZTIj"
    },
    {
     "referenced_type" : "_ZTIPh"
    },
    {
     "referenced_type" : "_ZTIi"
    },
    {
     "referenced_type" : "_ZTIPh"
    },
    {
     "referenced_type" : "_ZTIi"
    },
    {
     "referenced_type" : "_ZTIPh"
    },
    {
     "referenced_type" : "_ZTIi"
    },
    {
     "referenced_type" : "_ZTIi"
    },
    {
     "referenced_type" : "_ZTIi"
    },
    {
     "referenced_type" : "_ZTIi"
    },
    {
     "referenced_type" : "_ZTIi"
    }
   ],
   "return_type" : "_ZTIi",
   "source_file" : "external/libyuv/include/libyuv/convert.h"
  },
  {
   "function_name" : "libyuv::MJPGToNV12",
   "linker_set_key" : "MJPGToNV12",
   "parameters" :
   [
    {
     "referenced_type" : "_ZTIPKh"
    },
    {
     "referenced_type" : "_ZTIj"
    },
    {
     "referenced_type" : "_ZTIPh"
    },
    {
     "referenced_type" : "_ZTIi"
    },
    {
     "referenced_type" : "_ZTIPh"
    },
    {
     "referenced_type" : "_ZTIi"
    },
    {
     "referenced_type" : "_ZTIi"
    },
    {
     "referenced_type" : "_ZTIi"
    },
    {
     "referenced_type" : "_ZTIi"
    },
    {
     "referenced_type" : "_ZTIi"
    }
   ],
   "return_type" : "_ZTIi",
   "source_file" : "external/libyuv/include/libyuv/convert.h"
  },
  {
   "function_name" : "libyuv::MJPGToNV21",
   "linker_set_key" : "MJPGToNV21",
   "parameters" :
   [
    {
     "referenced_type" : "_ZTIPKh"
    },
    {
     "referenced_type" : "_ZTIj"
    },
    {
     "referenced_type" : "_ZTIPh"
    },
    {
     "referenced_type" : "_ZTIi"
    },
    {
     "referenced_type" : "_ZTIPh"
    },
    {
     "referenced_type" : "_ZTIi"
    },
    {
     "referenced_type" : "_ZTIi"
    },
    {
     "referenced_type" : "_ZTIi"
    },
    {
     "referenced_type" : "_ZTIi"
    },
    {
     "referenced_type" : "_ZTIi"
    }
   ],
   "return_type" : "_ZTIi",
   "source_file" : "external/libyuv/include/libyuv/convert.h"
  },
  {
   "function_name" : "libyuv::MM21ToI420",
   "linker_set_key" : "MM21ToI420",
   "parameters" :
   [
    {
     "referenced_type" : "_ZTIPKh"
    },
    {
     "referenced_type" : "_ZTIi"
    },
    {
     "referenced_type" : "_ZTIPKh"
    },
    {
     "referenced_type" : "_ZTIi"
    },
    {
     "referenced_type" : "_ZTIPh"
    },
    {
     "referenced_type" : "_ZTIi"
    },
    {
     "referenced_type" : "_ZTIPh"
    },
    {
     "referenced_type" : "_ZTIi"
    },
    {
     "referenced_type" : "_ZTIPh"
    },
    {
     "referenced_type" : "_ZTIi"
    },
    {
     "referenced_type" : "_ZTIi"
    },
    {
     "referenced_type" : "_ZTIi"
    }
   ],
   "return_type" : "_ZTIi",
   "source_file" : "external/libyuv/include/libyuv/convert.h"
  },
  {
   "function_name" : "libyuv::MM21ToNV12",
   "linker_set_key" : "MM21ToNV12",
   "parameters" :
   [
    {
     "referenced_type" : "_ZTIPKh"
    },
    {
     "referenced_type" : "_ZTIi"
    },
    {
     "referenced_type" : "_ZTIPKh"
    },
    {
     "referenced_type" : "_ZTIi"
    },
    {
     "referenced_type" : "_ZTIPh"
    },
    {
     "referenced_type" : "_ZTIi"
    },
    {
     "referenced_type" : "_ZTIPh"
    },
    {
     "referenced_type" : "_ZTIi"
    },
    {
     "referenced_type" : "_ZTIi"
    },
    {
     "referenced_type" : "_ZTIi"
    }
   ],
   "return_type" : "_ZTIi",
   "source_file" : "external/libyuv/include/libyuv/convert.h"
  },
  {
   "function_name" : "libyuv::MM21ToYUY2",
   "linker_set_key" : "MM21ToYUY2",
   "parameters" :
   [
    {
     "referenced_type" : "_ZTIPKh"
    },
    {
     "referenced_type" : "_ZTIi"
    },
    {
     "referenced_type" : "_ZTIPKh"
    },
    {
     "referenced_type" : "_ZTIi"
    },
    {
     "referenced_type" : "_ZTIPh"
    },
    {
     "referenced_type" : "_ZTIi"
    },
    {
     "referenced_type" : "_ZTIi"
    },
    {
     "referenced_type" : "_ZTIi"
    }
   ],
   "return_type" : "_ZTIi",
   "source_file" : "external/libyuv/include/libyuv/convert.h"
  },
  {
   "function_name" : "libyuv::MT2TToP010",
   "linker_set_key" : "MT2TToP010",
   "parameters" :
   [
    {
     "referenced_type" : "_ZTIPKh"
    },
    {
     "referenced_type" : "_ZTIi"
    },
    {
     "referenced_type" : "_ZTIPKh"
    },
    {
     "referenced_type" : "_ZTIi"
    },
    {
     "referenced_type" : "_ZTIPt"
    },
    {
     "referenced_type" : "_ZTIi"
    },
    {
     "referenced_type" : "_ZTIPt"
    },
    {
     "referenced_type" : "_ZTIi"
    },
    {
     "referenced_type" : "_ZTIi"
    },
    {
     "referenced_type" : "_ZTIi"
    }
   ],
   "return_type" : "_ZTIi",
   "source_file" : "external/libyuv/include/libyuv/convert.h"
  },
  {
   "function_name" : "libyuv::MaskCpuFlags",
   "linker_set_key" : "MaskCpuFlags",
   "parameters" :
   [
    {
     "referenced_type" : "_ZTIi"
    }
   ],
   "return_type" : "_ZTIi",
   "source_file" : "external/libyuv/include/libyuv/cpu_id.h"
  },
  {
   "function_name" : "libyuv::MergeAR64Plane",
   "linker_set_key" : "MergeAR64Plane",
   "parameters" :
   [
    {
     "referenced_type" : "_ZTIPKt"
    },
    {
     "referenced_type" : "_ZTIi"
    },
    {
     "referenced_type" : "_ZTIPKt"
    },
    {
     "referenced_type" : "_ZTIi"
    },
    {
     "referenced_type" : "_ZTIPKt"
    },
    {
     "referenced_type" : "_ZTIi"
    },
    {
     "referenced_type" : "_ZTIPKt"
    },
    {
     "referenced_type" : "_ZTIi"
    },
    {
     "referenced_type" : "_ZTIPt"
    },
    {
     "referenced_type" : "_ZTIi"
    },
    {
     "referenced_type" : "_ZTIi"
    },
    {
     "referenced_type" : "_ZTIi"
    },
    {
     "referenced_type" : "_ZTIi"
    }
   ],
   "return_type" : "_ZTIv",
   "source_file" : "external/libyuv/include/libyuv/planar_functions.h"
  },
  {
   "function_name" : "libyuv::MergeAR64Row_AVX2",
   "linker_set_key" : "MergeAR64Row_AVX2",
   "parameters" :
   [
    {
     "referenced_type" : "_ZTIPKt"
    },
    {
     "referenced_type" : "_ZTIPKt"
    },
    {
     "referenced_type" : "_ZTIPKt"
    },
    {
     "referenced_type" : "_ZTIPKt"
    },
    {
     "referenced_type" : "_ZTIPt"
    },
    {
     "referenced_type" : "_ZTIi"
    },
    {
     "referenced_type" : "_ZTIi"
    }
   ],
   "return_type" : "_ZTIv",
   "source_file" : "external/libyuv/include/libyuv/row.h"
  },
  {
   "function_name" : "libyuv::MergeAR64Row_Any_AVX2",
   "linker_set_key" : "MergeAR64Row_Any_AVX2",
   "parameters" :
   [
    {
     "referenced_type" : "_ZTIPKt"
    },
    {
     "referenced_type" : "_ZTIPKt"
    },
    {
     "referenced_type" : "_ZTIPKt"
    },
    {
     "referenced_type" : "_ZTIPKt"
    },
    {
     "referenced_type" : "_ZTIPt"
    },
    {
     "referenced_type" : "_ZTIi"
    },
    {
     "referenced_type" : "_ZTIi"
    }
   ],
   "return_type" : "_ZTIv",
   "source_file" : "external/libyuv/include/libyuv/row.h"
  },
  {
   "function_name" : "libyuv::MergeAR64Row_C",
   "linker_set_key" : "MergeAR64Row_C",
   "parameters" :
   [
    {
     "referenced_type" : "_ZTIPKt"
    },
    {
     "referenced_type" : "_ZTIPKt"
    },
    {
     "referenced_type" : "_ZTIPKt"
    },
    {
     "referenced_type" : "_ZTIPKt"
    },
    {
     "referenced_type" : "_ZTIPt"
    },
    {
     "referenced_type" : "_ZTIi"
    },
    {
     "referenced_type" : "_ZTIi"
    }
   ],
   "return_type" : "_ZTIv",
   "source_file" : "external/libyuv/include/libyuv/row.h"
  },
  {
   "function_name" : "libyuv::MergeARGB16To8Plane",
   "linker_set_key" : "MergeARGB16To8Plane",
   "parameters" :
   [
    {
     "referenced_type" : "_ZTIPKt"
    },
    {
     "referenced_type" : "_ZTIi"
    },
    {
     "referenced_type" : "_ZTIPKt"
    },
    {
     "referenced_type" : "_ZTIi"
    },
    {
     "referenced_type" : "_ZTIPKt"
    },
    {
     "referenced_type" : "_ZTIi"
    },
    {
     "referenced_type" : "_ZTIPKt"
    },
    {
     "referenced_type" : "_ZTIi"
    },
    {
     "referenced_type" : "_ZTIPh"
    },
    {
     "referenced_type" : "_ZTIi"
    },
    {
     "referenced_type" : "_ZTIi"
    },
    {
     "referenced_type" : "_ZTIi"
    },
    {
     "referenced_type" : "_ZTIi"
    }
   ],
   "return_type" : "_ZTIv",
   "source_file" : "external/libyuv/include/libyuv/planar_functions.h"
  },
  {
   "function_name" : "libyuv::MergeARGB16To8Row_AVX2",
   "linker_set_key" : "MergeARGB16To8Row_AVX2",
   "parameters" :
   [
    {
     "referenced_type" : "_ZTIPKt"
    },
    {
     "referenced_type" : "_ZTIPKt"
    },
    {
     "referenced_type" : "_ZTIPKt"
    },
    {
     "referenced_type" : "_ZTIPKt"
    },
    {
     "referenced_type" : "_ZTIPh"
    },
    {
     "referenced_type" : "_ZTIi"
    },
    {
     "referenced_type" : "_ZTIi"
    }
   ],
   "return_type" : "_ZTIv",
   "source_file" : "external/libyuv/include/libyuv/row.h"
  },
  {
   "function_name" : "libyuv::MergeARGB16To8Row_Any_AVX2",
   "linker_set_key" : "MergeARGB16To8Row_Any_AVX2",
   "parameters" :
   [
    {
     "referenced_type" : "_ZTIPKt"
    },
    {
     "referenced_type" : "_ZTIPKt"
    },
    {
     "referenced_type" : "_ZTIPKt"
    },
    {
     "referenced_type" : "_ZTIPKt"
    },
    {
     "referenced_type" : "_ZTIPh"
    },
    {
     "referenced_type" : "_ZTIi"
    },
    {
     "referenced_type" : "_ZTIi"
    }
   ],
   "return_type" : "_ZTIv",
   "source_file" : "external/libyuv/include/libyuv/row.h"
  },
  {
   "function_name" : "libyuv::MergeARGB16To8Row_C",
   "linker_set_key" : "MergeARGB16To8Row_C",
   "parameters" :
   [
    {
     "referenced_type" : "_ZTIPKt"
    },
    {
     "referenced_type" : "_ZTIPKt"
    },
    {
     "referenced_type" : "_ZTIPKt"
    },
    {
     "referenced_type" : "_ZTIPKt"
    },
    {
     "referenced_type" : "_ZTIPh"
    },
    {
     "referenced_type" : "_ZTIi"
    },
    {
     "referenced_type" : "_ZTIi"
    }
   ],
   "return_type" : "_ZTIv",
   "source_file" : "external/libyuv/include/libyuv/row.h"
  },
  {
   "function_name" : "libyuv::MergeARGBPlane",
   "linker_set_key" : "MergeARGBPlane",
   "parameters" :
   [
    {
     "referenced_type" : "_ZTIPKh"
    },
    {
     "referenced_type" : "_ZTIi"
    },
    {
     "referenced_type" : "_ZTIPKh"
    },
    {
     "referenced_type" : "_ZTIi"
    },
    {
     "referenced_type" : "_ZTIPKh"
    },
    {
     "referenced_type" : "_ZTIi"
    },
    {
     "referenced_type" : "_ZTIPKh"
    },
    {
     "referenced_type" : "_ZTIi"
    },
    {
     "referenced_type" : "_ZTIPh"
    },
    {
     "referenced_type" : "_ZTIi"
    },
    {
     "referenced_type" : "_ZTIi"
    },
    {
     "referenced_type" : "_ZTIi"
    }
   ],
   "return_type" : "_ZTIv",
   "source_file" : "external/libyuv/include/libyuv/planar_functions.h"
  },
  {
   "function_name" : "libyuv::MergeARGBRow_AVX2",
   "linker_set_key" : "MergeARGBRow_AVX2",
   "parameters" :
   [
    {
     "referenced_type" : "_ZTIPKh"
    },
    {
     "referenced_type" : "_ZTIPKh"
    },
    {
     "referenced_type" : "_ZTIPKh"
    },
    {
     "referenced_type" : "_ZTIPKh"
    },
    {
     "referenced_type" : "_ZTIPh"
    },
    {
     "referenced_type" : "_ZTIi"
    }
   ],
   "return_type" : "_ZTIv",
   "source_file" : "external/libyuv/include/libyuv/row.h"
  },
  {
   "function_name" : "libyuv::MergeARGBRow_Any_AVX2",
   "linker_set_key" : "MergeARGBRow_Any_AVX2",
   "parameters" :
   [
    {
     "referenced_type" : "_ZTIPKh"
    },
    {
     "referenced_type" : "_ZTIPKh"
    },
    {
     "referenced_type" : "_ZTIPKh"
    },
    {
     "referenced_type" : "_ZTIPKh"
    },
    {
     "referenced_type" : "_ZTIPh"
    },
    {
     "referenced_type" : "_ZTIi"
    }
   ],
   "return_type" : "_ZTIv",
   "source_file" : "external/libyuv/include/libyuv/row.h"
  },
  {
   "function_name" : "libyuv::MergeARGBRow_Any_SSE2",
   "linker_set_key" : "MergeARGBRow_Any_SSE2",
   "parameters" :
   [
    {
     "referenced_type" : "_ZTIPKh"
    },
    {
     "referenced_type" : "_ZTIPKh"
    },
    {
     "referenced_type" : "_ZTIPKh"
    },
    {
     "referenced_type" : "_ZTIPKh"
    },
    {
     "referenced_type" : "_ZTIPh"
    },
    {
     "referenced_type" : "_ZTIi"
    }
   ],
   "return_type" : "_ZTIv",
   "source_file" : "external/libyuv/include/libyuv/row.h"
  },
  {
   "function_name" : "libyuv::MergeARGBRow_C",
   "linker_set_key" : "MergeARGBRow_C",
   "parameters" :
   [
    {
     "referenced_type" : "_ZTIPKh"
    },
    {
     "referenced_type" : "_ZTIPKh"
    },
    {
     "referenced_type" : "_ZTIPKh"
    },
    {
     "referenced_type" : "_ZTIPKh"
    },
    {
     "referenced_type" : "_ZTIPh"
    },
    {
     "referenced_type" : "_ZTIi"
    }
   ],
   "return_type" : "_ZTIv",
   "source_file" : "external/libyuv/include/libyuv/row.h"
  },
  {
   "function_name" : "libyuv::MergeARGBRow_SSE2",
   "linker_set_key" : "MergeARGBRow_SSE2",
   "parameters" :
   [
    {
     "referenced_type" : "_ZTIPKh"
    },
    {
     "referenced_type" : "_ZTIPKh"
    },
    {
     "referenced_type" : "_ZTIPKh"
    },
    {
     "referenced_type" : "_ZTIPKh"
    },
    {
     "referenced_type" : "_ZTIPh"
    },
    {
     "referenced_type" : "_ZTIi"
    }
   ],
   "return_type" : "_ZTIv",
   "source_file" : "external/libyuv/include/libyuv/row.h"
  },
  {
   "function_name" : "libyuv::MergeRGBPlane",
   "linker_set_key" : "MergeRGBPlane",
   "parameters" :
   [
    {
     "referenced_type" : "_ZTIPKh"
    },
    {
     "referenced_type" : "_ZTIi"
    },
    {
     "referenced_type" : "_ZTIPKh"
    },
    {
     "referenced_type" : "_ZTIi"
    },
    {
     "referenced_type" : "_ZTIPKh"
    },
    {
     "referenced_type" : "_ZTIi"
    },
    {
     "referenced_type" : "_ZTIPh"
    },
    {
     "referenced_type" : "_ZTIi"
    },
    {
     "referenced_type" : "_ZTIi"
    },
    {
     "referenced_type" : "_ZTIi"
    }
   ],
   "return_type" : "_ZTIv",
   "source_file" : "external/libyuv/include/libyuv/planar_functions.h"
  },
  {
   "function_name" : "libyuv::MergeRGBRow_Any_SSSE3",
   "linker_set_key" : "MergeRGBRow_Any_SSSE3",
   "parameters" :
   [
    {
     "referenced_type" : "_ZTIPKh"
    },
    {
     "referenced_type" : "_ZTIPKh"
    },
    {
     "referenced_type" : "_ZTIPKh"
    },
    {
     "referenced_type" : "_ZTIPh"
    },
    {
     "referenced_type" : "_ZTIi"
    }
   ],
   "return_type" : "_ZTIv",
   "source_file" : "external/libyuv/include/libyuv/row.h"
  },
  {
   "function_name" : "libyuv::MergeRGBRow_C",
   "linker_set_key" : "MergeRGBRow_C",
   "parameters" :
   [
    {
     "referenced_type" : "_ZTIPKh"
    },
    {
     "referenced_type" : "_ZTIPKh"
    },
    {
     "referenced_type" : "_ZTIPKh"
    },
    {
     "referenced_type" : "_ZTIPh"
    },
    {
     "referenced_type" : "_ZTIi"
    }
   ],
   "return_type" : "_ZTIv",
   "source_file" : "external/libyuv/include/libyuv/row.h"
  },
  {
   "function_name" : "libyuv::MergeRGBRow_SSSE3",
   "linker_set_key" : "MergeRGBRow_SSSE3",
   "parameters" :
   [
    {
     "referenced_type" : "_ZTIPKh"
    },
    {
     "referenced_type" : "_ZTIPKh"
    },
    {
     "referenced_type" : "_ZTIPKh"
    },
    {
     "referenced_type" : "_ZTIPh"
    },
    {
     "referenced_type" : "_ZTIi"
    }
   ],
   "return_type" : "_ZTIv",
   "source_file" : "external/libyuv/include/libyuv/row.h"
  },
  {
   "function_name" : "libyuv::MergeUVPlane",
   "linker_set_key" : "MergeUVPlane",
   "parameters" :
   [
    {
     "referenced_type" : "_ZTIPKh"
    },
    {
     "referenced_type" : "_ZTIi"
    },
    {
     "referenced_type" : "_ZTIPKh"
    },
    {
     "referenced_type" : "_ZTIi"
    },
    {
     "referenced_type" : "_ZTIPh"
    },
    {
     "referenced_type" : "_ZTIi"
    },
    {
     "referenced_type" : "_ZTIi"
    },
    {
     "referenced_type" : "_ZTIi"
    }
   ],
   "return_type" : "_ZTIv",
   "source_file" : "external/libyuv/include/libyuv/planar_functions.h"
  },
  {
   "function_name" : "libyuv::MergeUVPlane_16",
   "linker_set_key" : "MergeUVPlane_16",
   "parameters" :
   [
    {
     "referenced_type" : "_ZTIPKt"
    },
    {
     "referenced_type" : "_ZTIi"
    },
    {
     "referenced_type" : "_ZTIPKt"
    },
    {
     "referenced_type" : "_ZTIi"
    },
    {
     "referenced_type" : "_ZTIPt"
    },
    {
     "referenced_type" : "_ZTIi"
    },
    {
     "referenced_type" : "_ZTIi"
    },
    {
     "referenced_type" : "_ZTIi"
    },
    {
     "referenced_type" : "_ZTIi"
    }
   ],
   "return_type" : "_ZTIv",
   "source_file" : "external/libyuv/include/libyuv/planar_functions.h"
  },
  {
   "function_name" : "libyuv::MergeUVRow_16_AVX2",
   "linker_set_key" : "MergeUVRow_16_AVX2",
   "parameters" :
   [
    {
     "referenced_type" : "_ZTIPKt"
    },
    {
     "referenced_type" : "_ZTIPKt"
    },
    {
     "referenced_type" : "_ZTIPt"
    },
    {
     "referenced_type" : "_ZTIi"
    },
    {
     "referenced_type" : "_ZTIi"
    }
   ],
   "return_type" : "_ZTIv",
   "source_file" : "external/libyuv/include/libyuv/row.h"
  },
  {
   "function_name" : "libyuv::MergeUVRow_16_Any_AVX2",
   "linker_set_key" : "MergeUVRow_16_Any_AVX2",
   "parameters" :
   [
    {
     "referenced_type" : "_ZTIPKt"
    },
    {
     "referenced_type" : "_ZTIPKt"
    },
    {
     "referenced_type" : "_ZTIPt"
    },
    {
     "referenced_type" : "_ZTIi"
    },
    {
     "referenced_type" : "_ZTIi"
    }
   ],
   "return_type" : "_ZTIv",
   "source_file" : "external/libyuv/include/libyuv/row.h"
  },
  {
   "function_name" : "libyuv::MergeUVRow_16_C",
   "linker_set_key" : "MergeUVRow_16_C",
   "parameters" :
   [
    {
     "referenced_type" : "_ZTIPKt"
    },
    {
     "referenced_type" : "_ZTIPKt"
    },
    {
     "referenced_type" : "_ZTIPt"
    },
    {
     "referenced_type" : "_ZTIi"
    },
    {
     "referenced_type" : "_ZTIi"
    }
   ],
   "return_type" : "_ZTIv",
   "source_file" : "external/libyuv/include/libyuv/row.h"
  },
  {
   "function_name" : "libyuv::MergeUVRow_AVX2",
   "linker_set_key" : "MergeUVRow_AVX2",
   "parameters" :
   [
    {
     "referenced_type" : "_ZTIPKh"
    },
    {
     "referenced_type" : "_ZTIPKh"
    },
    {
     "referenced_type" : "_ZTIPh"
    },
    {
     "referenced_type" : "_ZTIi"
    }
   ],
   "return_type" : "_ZTIv",
   "source_file" : "external/libyuv/include/libyuv/row.h"
  },
  {
   "function_name" : "libyuv::MergeUVRow_AVX512BW",
   "linker_set_key" : "MergeUVRow_AVX512BW",
   "parameters" :
   [
    {
     "referenced_type" : "_ZTIPKh"
    },
    {
     "referenced_type" : "_ZTIPKh"
    },
    {
     "referenced_type" : "_ZTIPh"
    },
    {
     "referenced_type" : "_ZTIi"
    }
   ],
   "return_type" : "_ZTIv",
   "source_file" : "external/libyuv/include/libyuv/row.h"
  },
  {
   "function_name" : "libyuv::MergeUVRow_Any_AVX2",
   "linker_set_key" : "MergeUVRow_Any_AVX2",
   "parameters" :
   [
    {
     "referenced_type" : "_ZTIPKh"
    },
    {
     "referenced_type" : "_ZTIPKh"
    },
    {
     "referenced_type" : "_ZTIPh"
    },
    {
     "referenced_type" : "_ZTIi"
    }
   ],
   "return_type" : "_ZTIv",
   "source_file" : "external/libyuv/include/libyuv/row.h"
  },
  {
   "function_name" : "libyuv::MergeUVRow_Any_AVX512BW",
   "linker_set_key" : "MergeUVRow_Any_AVX512BW",
   "parameters" :
   [
    {
     "referenced_type" : "_ZTIPKh"
    },
    {
     "referenced_type" : "_ZTIPKh"
    },
    {
     "referenced_type" : "_ZTIPh"
    },
    {
     "referenced_type" : "_ZTIi"
    }
   ],
   "return_type" : "_ZTIv",
   "source_file" : "external/libyuv/include/libyuv/row.h"
  },
  {
   "function_name" : "libyuv::MergeUVRow_Any_SSE2",
   "linker_set_key" : "MergeUVRow_Any_SSE2",
   "parameters" :
   [
    {
     "referenced_type" : "_ZTIPKh"
    },
    {
     "referenced_type" : "_ZTIPKh"
    },
    {
     "referenced_type" : "_ZTIPh"
    },
    {
     "referenced_type" : "_ZTIi"
    }
   ],
   "return_type" : "_ZTIv",
   "source_file" : "external/libyuv/include/libyuv/row.h"
  },
  {
   "function_name" : "libyuv::MergeUVRow_C",
   "linker_set_key" : "MergeUVRow_C",
   "parameters" :
   [
    {
     "referenced_type" : "_ZTIPKh"
    },
    {
     "referenced_type" : "_ZTIPKh"
    },
    {
     "referenced_type" : "_ZTIPh"
    },
    {
     "referenced_type" : "_ZTIi"
    }
   ],
   "return_type" : "_ZTIv",
   "source_file" : "external/libyuv/include/libyuv/row.h"
  },
  {
   "function_name" : "libyuv::MergeUVRow_SSE2",
   "linker_set_key" : "MergeUVRow_SSE2",
   "parameters" :
   [
    {
     "referenced_type" : "_ZTIPKh"
    },
    {
     "referenced_type" : "_ZTIPKh"
    },
    {
     "referenced_type" : "_ZTIPh"
    },
    {
     "referenced_type" : "_ZTIi"
    }
   ],
   "return_type" : "_ZTIv",
   "source_file" : "external/libyuv/include/libyuv/row.h"
  },
  {
   "function_name" : "libyuv::MergeXR30Plane",
   "linker_set_key" : "MergeXR30Plane",
   "parameters" :
   [
    {
     "referenced_type" : "_ZTIPKt"
    },
    {
     "referenced_type" : "_ZTIi"
    },
    {
     "referenced_type" : "_ZTIPKt"
    },
    {
     "referenced_type" : "_ZTIi"
    },
    {
     "referenced_type" : "_ZTIPKt"
    },
    {
     "referenced_type" : "_ZTIi"
    },
    {
     "referenced_type" : "_ZTIPh"
    },
    {
     "referenced_type" : "_ZTIi"
    },
    {
     "referenced_type" : "_ZTIi"
    },
    {
     "referenced_type" : "_ZTIi"
    },
    {
     "referenced_type" : "_ZTIi"
    }
   ],
   "return_type" : "_ZTIv",
   "source_file" : "external/libyuv/include/libyuv/planar_functions.h"
  },
  {
   "function_name" : "libyuv::MergeXR30Row_AVX2",
   "linker_set_key" : "MergeXR30Row_AVX2",
   "parameters" :
   [
    {
     "referenced_type" : "_ZTIPKt"
    },
    {
     "referenced_type" : "_ZTIPKt"
    },
    {
     "referenced_type" : "_ZTIPKt"
    },
    {
     "referenced_type" : "_ZTIPh"
    },
    {
     "referenced_type" : "_ZTIi"
    },
    {
     "referenced_type" : "_ZTIi"
    }
   ],
   "return_type" : "_ZTIv",
   "source_file" : "external/libyuv/include/libyuv/row.h"
  },
  {
   "function_name" : "libyuv::MergeXR30Row_Any_AVX2",
   "linker_set_key" : "MergeXR30Row_Any_AVX2",
   "parameters" :
   [
    {
     "referenced_type" : "_ZTIPKt"
    },
    {
     "referenced_type" : "_ZTIPKt"
    },
    {
     "referenced_type" : "_ZTIPKt"
    },
    {
     "referenced_type" : "_ZTIPh"
    },
    {
     "referenced_type" : "_ZTIi"
    },
    {
     "referenced_type" : "_ZTIi"
    }
   ],
   "return_type" : "_ZTIv",
   "source_file" : "external/libyuv/include/libyuv/row.h"
  },
  {
   "function_name" : "libyuv::MergeXR30Row_C",
   "linker_set_key" : "MergeXR30Row_C",
   "parameters" :
   [
    {
     "referenced_type" : "_ZTIPKt"
    },
    {
     "referenced_type" : "_ZTIPKt"
    },
    {
     "referenced_type" : "_ZTIPKt"
    },
    {
     "referenced_type" : "_ZTIPh"
    },
    {
     "referenced_type" : "_ZTIi"
    },
    {
     "referenced_type" : "_ZTIi"
    }
   ],
   "return_type" : "_ZTIv",
   "source_file" : "external/libyuv/include/libyuv/row.h"
  },
  {
   "function_name" : "libyuv::MergeXR64Row_AVX2",
   "linker_set_key" : "MergeXR64Row_AVX2",
   "parameters" :
   [
    {
     "referenced_type" : "_ZTIPKt"
    },
    {
     "referenced_type" : "_ZTIPKt"
    },
    {
     "referenced_type" : "_ZTIPKt"
    },
    {
     "referenced_type" : "_ZTIPt"
    },
    {
     "referenced_type" : "_ZTIi"
    },
    {
     "referenced_type" : "_ZTIi"
    }
   ],
   "return_type" : "_ZTIv",
   "source_file" : "external/libyuv/include/libyuv/row.h"
  },
  {
   "function_name" : "libyuv::MergeXR64Row_Any_AVX2",
   "linker_set_key" : "MergeXR64Row_Any_AVX2",
   "parameters" :
   [
    {
     "referenced_type" : "_ZTIPKt"
    },
    {
     "referenced_type" : "_ZTIPKt"
    },
    {
     "referenced_type" : "_ZTIPKt"
    },
    {
     "referenced_type" : "_ZTIPt"
    },
    {
     "referenced_type" : "_ZTIi"
    },
    {
     "referenced_type" : "_ZTIi"
    }
   ],
   "return_type" : "_ZTIv",
   "source_file" : "external/libyuv/include/libyuv/row.h"
  },
  {
   "function_name" : "libyuv::MergeXR64Row_C",
   "linker_set_key" : "MergeXR64Row_C",
   "parameters" :
   [
    {
     "referenced_type" : "_ZTIPKt"
    },
    {
     "referenced_type" : "_ZTIPKt"
    },
    {
     "referenced_type" : "_ZTIPKt"
    },
    {
     "referenced_type" : "_ZTIPt"
    },
    {
     "referenced_type" : "_ZTIi"
    },
    {
     "referenced_type" : "_ZTIi"
    }
   ],
   "return_type" : "_ZTIv",
   "source_file" : "external/libyuv/include/libyuv/row.h"
  },
  {
   "function_name" : "libyuv::MergeXRGB16To8Row_AVX2",
   "linker_set_key" : "MergeXRGB16To8Row_AVX2",
   "parameters" :
   [
    {
     "referenced_type" : "_ZTIPKt"
    },
    {
     "referenced_type" : "_ZTIPKt"
    },
    {
     "referenced_type" : "_ZTIPKt"
    },
    {
     "referenced_type" : "_ZTIPh"
    },
    {
     "referenced_type" : "_ZTIi"
    },
    {
     "referenced_type" : "_ZTIi"
    }
   ],
   "return_type" : "_ZTIv",
   "source_file" : "external/libyuv/include/libyuv/row.h"
  },
  {
   "function_name" : "libyuv::MergeXRGB16To8Row_Any_AVX2",
   "linker_set_key" : "MergeXRGB16To8Row_Any_AVX2",
   "parameters" :
   [
    {
     "referenced_type" : "_ZTIPKt"
    },
    {
     "referenced_type" : "_ZTIPKt"
    },
    {
     "referenced_type" : "_ZTIPKt"
    },
    {
     "referenced_type" : "_ZTIPh"
    },
    {
     "referenced_type" : "_ZTIi"
    },
    {
     "referenced_type" : "_ZTIi"
    }
   ],
   "return_type" : "_ZTIv",
   "source_file" : "external/libyuv/include/libyuv/row.h"
  },
  {
   "function_name" : "libyuv::MergeXRGB16To8Row_C",
   "linker_set_key" : "MergeXRGB16To8Row_C",
   "parameters" :
   [
    {
     "referenced_type" : "_ZTIPKt"
    },
    {
     "referenced_type" : "_ZTIPKt"
    },
    {
     "referenced_type" : "_ZTIPKt"
    },
    {
     "referenced_type" : "_ZTIPh"
    },
    {
     "referenced_type" : "_ZTIi"
    },
    {
     "referenced_type" : "_ZTIi"
    }
   ],
   "return_type" : "_ZTIv",
   "source_file" : "external/libyuv/include/libyuv/row.h"
  },
  {
   "function_name" : "libyuv::MergeXRGBRow_AVX2",
   "linker_set_key" : "MergeXRGBRow_AVX2",
   "parameters" :
   [
    {
     "referenced_type" : "_ZTIPKh"
    },
    {
     "referenced_type" : "_ZTIPKh"
    },
    {
     "referenced_type" : "_ZTIPKh"
    },
    {
     "referenced_type" : "_ZTIPh"
    },
    {
     "referenced_type" : "_ZTIi"
    }
   ],
   "return_type" : "_ZTIv",
   "source_file" : "external/libyuv/include/libyuv/row.h"
  },
  {
   "function_name" : "libyuv::MergeXRGBRow_Any_AVX2",
   "linker_set_key" : "MergeXRGBRow_Any_AVX2",
   "parameters" :
   [
    {
     "referenced_type" : "_ZTIPKh"
    },
    {
     "referenced_type" : "_ZTIPKh"
    },
    {
     "referenced_type" : "_ZTIPKh"
    },
    {
     "referenced_type" : "_ZTIPh"
    },
    {
     "referenced_type" : "_ZTIi"
    }
   ],
   "return_type" : "_ZTIv",
   "source_file" : "external/libyuv/include/libyuv/row.h"
  },
  {
   "function_name" : "libyuv::MergeXRGBRow_Any_SSE2",
   "linker_set_key" : "MergeXRGBRow_Any_SSE2",
   "parameters" :
   [
    {
     "referenced_type" : "_ZTIPKh"
    },
    {
     "referenced_type" : "_ZTIPKh"
    },
    {
     "referenced_type" : "_ZTIPKh"
    },
    {
     "referenced_type" : "_ZTIPh"
    },
    {
     "referenced_type" : "_ZTIi"
    }
   ],
   "return_type" : "_ZTIv",
   "source_file" : "external/libyuv/include/libyuv/row.h"
  },
  {
   "function_name" : "libyuv::MergeXRGBRow_C",
   "linker_set_key" : "MergeXRGBRow_C",
   "parameters" :
   [
    {
     "referenced_type" : "_ZTIPKh"
    },
    {
     "referenced_type" : "_ZTIPKh"
    },
    {
     "referenced_type" : "_ZTIPKh"
    },
    {
     "referenced_type" : "_ZTIPh"
    },
    {
     "referenced_type" : "_ZTIi"
    }
   ],
   "return_type" : "_ZTIv",
   "source_file" : "external/libyuv/include/libyuv/row.h"
  },
  {
   "function_name" : "libyuv::MergeXRGBRow_SSE2",
   "linker_set_key" : "MergeXRGBRow_SSE2",
   "parameters" :
   [
    {
     "referenced_type" : "_ZTIPKh"
    },
    {
     "referenced_type" : "_ZTIPKh"
    },
    {
     "referenced_type" : "_ZTIPKh"
    },
    {
     "referenced_type" : "_ZTIPh"
    },
    {
     "referenced_type" : "_ZTIi"
    }
   ],
   "return_type" : "_ZTIv",
   "source_file" : "external/libyuv/include/libyuv/row.h"
  },
  {
   "function_name" : "libyuv::MipsCpuCaps",
   "linker_set_key" : "MipsCpuCaps",
   "parameters" :
   [
    {
     "referenced_type" : "_ZTIPKc"
    }
   ],
   "return_type" : "_ZTIi",
   "source_file" : "external/libyuv/include/libyuv/cpu_id.h"
  },
  {
   "function_name" : "libyuv::MirrorPlane",
   "linker_set_key" : "MirrorPlane",
   "parameters" :
   [
    {
     "referenced_type" : "_ZTIPKh"
    },
    {
     "referenced_type" : "_ZTIi"
    },
    {
     "referenced_type" : "_ZTIPh"
    },
    {
     "referenced_type" : "_ZTIi"
    },
    {
     "referenced_type" : "_ZTIi"
    },
    {
     "referenced_type" : "_ZTIi"
    }
   ],
   "return_type" : "_ZTIv",
   "source_file" : "external/libyuv/include/libyuv/planar_functions.h"
  },
  {
   "function_name" : "libyuv::MirrorRow_16_C",
   "linker_set_key" : "MirrorRow_16_C",
   "parameters" :
   [
    {
     "referenced_type" : "_ZTIPKt"
    },
    {
     "referenced_type" : "_ZTIPt"
    },
    {
     "referenced_type" : "_ZTIi"
    }
   ],
   "return_type" : "_ZTIv",
   "source_file" : "external/libyuv/include/libyuv/row.h"
  },
  {
   "function_name" : "libyuv::MirrorRow_AVX2",
   "linker_set_key" : "MirrorRow_AVX2",
   "parameters" :
   [
    {
     "referenced_type" : "_ZTIPKh"
    },
    {
     "referenced_type" : "_ZTIPh"
    },
    {
     "referenced_type" : "_ZTIi"
    }
   ],
   "return_type" : "_ZTIv",
   "source_file" : "external/libyuv/include/libyuv/row.h"
  },
  {
   "function_name" : "libyuv::MirrorRow_Any_AVX2",
   "linker_set_key" : "MirrorRow_Any_AVX2",
   "parameters" :
   [
    {
     "referenced_type" : "_ZTIPKh"
    },
    {
     "referenced_type" : "_ZTIPh"
    },
    {
     "referenced_type" : "_ZTIi"
    }
   ],
   "return_type" : "_ZTIv",
   "source_file" : "external/libyuv/include/libyuv/row.h"
  },
  {
   "function_name" : "libyuv::MirrorRow_Any_SSSE3",
   "linker_set_key" : "MirrorRow_Any_SSSE3",
   "parameters" :
   [
    {
     "referenced_type" : "_ZTIPKh"
    },
    {
     "referenced_type" : "_ZTIPh"
    },
    {
     "referenced_type" : "_ZTIi"
    }
   ],
   "return_type" : "_ZTIv",
   "source_file" : "external/libyuv/include/libyuv/row.h"
  },
  {
   "function_name" : "libyuv::MirrorRow_C",
   "linker_set_key" : "MirrorRow_C",
   "parameters" :
   [
    {
     "referenced_type" : "_ZTIPKh"
    },
    {
     "referenced_type" : "_ZTIPh"
    },
    {
     "referenced_type" : "_ZTIi"
    }
   ],
   "return_type" : "_ZTIv",
   "source_file" : "external/libyuv/include/libyuv/row.h"
  },
  {
   "function_name" : "libyuv::MirrorRow_SSSE3",
   "linker_set_key" : "MirrorRow_SSSE3",
   "parameters" :
   [
    {
     "referenced_type" : "_ZTIPKh"
    },
    {
     "referenced_type" : "_ZTIPh"
    },
    {
     "referenced_type" : "_ZTIi"
    }
   ],
   "return_type" : "_ZTIv",
   "source_file" : "external/libyuv/include/libyuv/row.h"
  },
  {
   "function_name" : "libyuv::MirrorSplitUVRow_C",
   "linker_set_key" : "MirrorSplitUVRow_C",
   "parameters" :
   [
    {
     "referenced_type" : "_ZTIPKh"
    },
    {
     "referenced_type" : "_ZTIPh"
    },
    {
     "referenced_type" : "_ZTIPh"
    },
    {
     "referenced_type" : "_ZTIi"
    }
   ],
   "return_type" : "_ZTIv",
   "source_file" : "external/libyuv/include/libyuv/row.h"
  },
  {
   "function_name" : "libyuv::MirrorSplitUVRow_SSSE3",
   "linker_set_key" : "MirrorSplitUVRow_SSSE3",
   "parameters" :
   [
    {
     "referenced_type" : "_ZTIPKh"
    },
    {
     "referenced_type" : "_ZTIPh"
    },
    {
     "referenced_type" : "_ZTIPh"
    },
    {
     "referenced_type" : "_ZTIi"
    }
   ],
   "return_type" : "_ZTIv",
   "source_file" : "external/libyuv/include/libyuv/row.h"
  },
  {
   "function_name" : "libyuv::MirrorUVPlane",
   "linker_set_key" : "MirrorUVPlane",
   "parameters" :
   [
    {
     "referenced_type" : "_ZTIPKh"
    },
    {
     "referenced_type" : "_ZTIi"
    },
    {
     "referenced_type" : "_ZTIPh"
    },
    {
     "referenced_type" : "_ZTIi"
    },
    {
     "referenced_type" : "_ZTIi"
    },
    {
     "referenced_type" : "_ZTIi"
    }
   ],
   "return_type" : "_ZTIv",
   "source_file" : "external/libyuv/include/libyuv/planar_functions.h"
  },
  {
   "function_name" : "libyuv::MirrorUVRow_AVX2",
   "linker_set_key" : "MirrorUVRow_AVX2",
   "parameters" :
   [
    {
     "referenced_type" : "_ZTIPKh"
    },
    {
     "referenced_type" : "_ZTIPh"
    },
    {
     "referenced_type" : "_ZTIi"
    }
   ],
   "return_type" : "_ZTIv",
   "source_file" : "external/libyuv/include/libyuv/row.h"
  },
  {
   "function_name" : "libyuv::MirrorUVRow_Any_AVX2",
   "linker_set_key" : "MirrorUVRow_Any_AVX2",
   "parameters" :
   [
    {
     "referenced_type" : "_ZTIPKh"
    },
    {
     "referenced_type" : "_ZTIPh"
    },
    {
     "referenced_type" : "_ZTIi"
    }
   ],
   "return_type" : "_ZTIv",
   "source_file" : "external/libyuv/include/libyuv/row.h"
  },
  {
   "function_name" : "libyuv::MirrorUVRow_Any_SSSE3",
   "linker_set_key" : "MirrorUVRow_Any_SSSE3",
   "parameters" :
   [
    {
     "referenced_type" : "_ZTIPKh"
    },
    {
     "referenced_type" : "_ZTIPh"
    },
    {
     "referenced_type" : "_ZTIi"
    }
   ],
   "return_type" : "_ZTIv",
   "source_file" : "external/libyuv/include/libyuv/row.h"
  },
  {
   "function_name" : "libyuv::MirrorUVRow_C",
   "linker_set_key" : "MirrorUVRow_C",
   "parameters" :
   [
    {
     "referenced_type" : "_ZTIPKh"
    },
    {
     "referenced_type" : "_ZTIPh"
    },
    {
     "referenced_type" : "_ZTIi"
    }
   ],
   "return_type" : "_ZTIv",
   "source_file" : "external/libyuv/include/libyuv/row.h"
  },
  {
   "function_name" : "libyuv::MirrorUVRow_SSSE3",
   "linker_set_key" : "MirrorUVRow_SSSE3",
   "parameters" :
   [
    {
     "referenced_type" : "_ZTIPKh"
    },
    {
     "referenced_type" : "_ZTIPh"
    },
    {
     "referenced_type" : "_ZTIi"
    }
   ],
   "return_type" : "_ZTIv",
   "source_file" : "external/libyuv/include/libyuv/row.h"
  },
  {
   "function_name" : "libyuv::MultiplyRow_16_AVX2",
   "linker_set_key" : "MultiplyRow_16_AVX2",
   "parameters" :
   [
    {
     "referenced_type" : "_ZTIPKt"
    },
    {
     "referenced_type" : "_ZTIPt"
    },
    {
     "referenced_type" : "_ZTIi"
    },
    {
     "referenced_type" : "_ZTIi"
    }
   ],
   "return_type" : "_ZTIv",
   "source_file" : "external/libyuv/include/libyuv/row.h"
  },
  {
   "function_name" : "libyuv::MultiplyRow_16_Any_AVX2",
   "linker_set_key" : "MultiplyRow_16_Any_AVX2",
   "parameters" :
   [
    {
     "referenced_type" : "_ZTIPKt"
    },
    {
     "referenced_type" : "_ZTIPt"
    },
    {
     "referenced_type" : "_ZTIi"
    },
    {
     "referenced_type" : "_ZTIi"
    }
   ],
   "return_type" : "_ZTIv",
   "source_file" : "external/libyuv/include/libyuv/row.h"
  },
  {
   "function_name" : "libyuv::MultiplyRow_16_C",
   "linker_set_key" : "MultiplyRow_16_C",
   "parameters" :
   [
    {
     "referenced_type" : "_ZTIPKt"
    },
    {
     "referenced_type" : "_ZTIPt"
    },
    {
     "referenced_type" : "_ZTIi"
    },
    {
     "referenced_type" : "_ZTIi"
    }
   ],
   "return_type" : "_ZTIv",
   "source_file" : "external/libyuv/include/libyuv/row.h"
  },
  {
   "function_name" : "libyuv::NV12Copy",
   "linker_set_key" : "NV12Copy",
   "parameters" :
   [
    {
     "referenced_type" : "_ZTIPKh"
    },
    {
     "referenced_type" : "_ZTIi"
    },
    {
     "referenced_type" : "_ZTIPKh"
    },
    {
     "referenced_type" : "_ZTIi"
    },
    {
     "referenced_type" : "_ZTIPh"
    },
    {
     "referenced_type" : "_ZTIi"
    },
    {
     "referenced_type" : "_ZTIPh"
    },
    {
     "referenced_type" : "_ZTIi"
    },
    {
     "referenced_type" : "_ZTIi"
    },
    {
     "referenced_type" : "_ZTIi"
    }
   ],
   "return_type" : "_ZTIi",
   "source_file" : "external/libyuv/include/libyuv/planar_functions.h"
  },
  {
   "function_name" : "libyuv::NV12Mirror",
   "linker_set_key" : "NV12Mirror",
   "parameters" :
   [
    {
     "referenced_type" : "_ZTIPKh"
    },
    {
     "referenced_type" : "_ZTIi"
    },
    {
     "referenced_type" : "_ZTIPKh"
    },
    {
     "referenced_type" : "_ZTIi"
    },
    {
     "referenced_type" : "_ZTIPh"
    },
    {
     "referenced_type" : "_ZTIi"
    },
    {
     "referenced_type" : "_ZTIPh"
    },
    {
     "referenced_type" : "_ZTIi"
    },
    {
     "referenced_type" : "_ZTIi"
    },
    {
     "referenced_type" : "_ZTIi"
    }
   ],
   "return_type" : "_ZTIi",
   "source_file" : "external/libyuv/include/libyuv/planar_functions.h"
  },
  {
   "function_name" : "libyuv::NV12Scale",
   "linker_set_key" : "NV12Scale",
   "parameters" :
   [
    {
     "referenced_type" : "_ZTIPKh"
    },
    {
     "referenced_type" : "_ZTIi"
    },
    {
     "referenced_type" : "_ZTIPKh"
    },
    {
     "referenced_type" : "_ZTIi"
    },
    {
     "referenced_type" : "_ZTIi"
    },
    {
     "referenced_type" : "_ZTIi"
    },
    {
     "referenced_type" : "_ZTIPh"
    },
    {
     "referenced_type" : "_ZTIi"
    },
    {
     "referenced_type" : "_ZTIPh"
    },
    {
     "referenced_type" : "_ZTIi"
    },
    {
     "referenced_type" : "_ZTIi"
    },
    {
     "referenced_type" : "_ZTIi"
    },
    {
     "referenced_type" : "_ZTIN6libyuv10FilterModeE"
    }
   ],
   "return_type" : "_ZTIi",
   "source_file" : "external/libyuv/include/libyuv/scale.h"
  },
  {
   "function_name" : "libyuv::NV12ToABGR",
   "linker_set_key" : "NV12ToABGR",
   "parameters" :
   [
    {
     "referenced_type" : "_ZTIPKh"
    },
    {
     "referenced_type" : "_ZTIi"
    },
    {
     "referenced_type" : "_ZTIPKh"
    },
    {
     "referenced_type" : "_ZTIi"
    },
    {
     "referenced_type" : "_ZTIPh"
    },
    {
     "referenced_type" : "_ZTIi"
    },
    {
     "referenced_type" : "_ZTIi"
    },
    {
     "referenced_type" : "_ZTIi"
    }
   ],
   "return_type" : "_ZTIi",
   "source_file" : "external/libyuv/include/libyuv/convert_argb.h"
  },
  {
   "function_name" : "libyuv::NV12ToARGB",
   "linker_set_key" : "NV12ToARGB",
   "parameters" :
   [
    {
     "referenced_type" : "_ZTIPKh"
    },
    {
     "referenced_type" : "_ZTIi"
    },
    {
     "referenced_type" : "_ZTIPKh"
    },
    {
     "referenced_type" : "_ZTIi"
    },
    {
     "referenced_type" : "_ZTIPh"
    },
    {
     "referenced_type" : "_ZTIi"
    },
    {
     "referenced_type" : "_ZTIi"
    },
    {
     "referenced_type" : "_ZTIi"
    }
   ],
   "return_type" : "_ZTIi",
   "source_file" : "external/libyuv/include/libyuv/convert_argb.h"
  },
  {
   "function_name" : "libyuv::NV12ToARGBMatrix",
   "linker_set_key" : "NV12ToARGBMatrix",
   "parameters" :
   [
    {
     "referenced_type" : "_ZTIPKh"
    },
    {
     "referenced_type" : "_ZTIi"
    },
    {
     "referenced_type" : "_ZTIPKh"
    },
    {
     "referenced_type" : "_ZTIi"
    },
    {
     "referenced_type" : "_ZTIPh"
    },
    {
     "referenced_type" : "_ZTIi"
    },
    {
     "referenced_type" : "_ZTIPKN6libyuv12YuvConstantsE"
    },
    {
     "referenced_type" : "_ZTIi"
    },
    {
     "referenced_type" : "_ZTIi"
    }
   ],
   "return_type" : "_ZTIi",
   "source_file" : "external/libyuv/include/libyuv/convert_argb.h"
  },
  {
   "function_name" : "libyuv::NV12ToARGBRow_AVX2",
   "linker_set_key" : "NV12ToARGBRow_AVX2",
   "parameters" :
   [
    {
     "referenced_type" : "_ZTIPKh"
    },
    {
     "referenced_type" : "_ZTIPKh"
    },
    {
     "referenced_type" : "_ZTIPh"
    },
    {
     "referenced_type" : "_ZTIPKN6libyuv12YuvConstantsE"
    },
    {
     "referenced_type" : "_ZTIi"
    }
   ],
   "return_type" : "_ZTIv",
   "source_file" : "external/libyuv/include/libyuv/row.h"
  },
  {
   "function_name" : "libyuv::NV12ToARGBRow_Any_AVX2",
   "linker_set_key" : "NV12ToARGBRow_Any_AVX2",
   "parameters" :
   [
    {
     "referenced_type" : "_ZTIPKh"
    },
    {
     "referenced_type" : "_ZTIPKh"
    },
    {
     "referenced_type" : "_ZTIPh"
    },
    {
     "referenced_type" : "_ZTIPKN6libyuv12YuvConstantsE"
    },
    {
     "referenced_type" : "_ZTIi"
    }
   ],
   "return_type" : "_ZTIv",
   "source_file" : "external/libyuv/include/libyuv/row.h"
  },
  {
   "function_name" : "libyuv::NV12ToARGBRow_Any_SSSE3",
   "linker_set_key" : "NV12ToARGBRow_Any_SSSE3",
   "parameters" :
   [
    {
     "referenced_type" : "_ZTIPKh"
    },
    {
     "referenced_type" : "_ZTIPKh"
    },
    {
     "referenced_type" : "_ZTIPh"
    },
    {
     "referenced_type" : "_ZTIPKN6libyuv12YuvConstantsE"
    },
    {
     "referenced_type" : "_ZTIi"
    }
   ],
   "return_type" : "_ZTIv",
   "source_file" : "external/libyuv/include/libyuv/row.h"
  },
  {
   "function_name" : "libyuv::NV12ToARGBRow_C",
   "linker_set_key" : "NV12ToARGBRow_C",
   "parameters" :
   [
    {
     "referenced_type" : "_ZTIPKh"
    },
    {
     "referenced_type" : "_ZTIPKh"
    },
    {
     "referenced_type" : "_ZTIPh"
    },
    {
     "referenced_type" : "_ZTIPKN6libyuv12YuvConstantsE"
    },
    {
     "referenced_type" : "_ZTIi"
    }
   ],
   "return_type" : "_ZTIv",
   "source_file" : "external/libyuv/include/libyuv/row.h"
  },
  {
   "function_name" : "libyuv::NV12ToARGBRow_SSSE3",
   "linker_set_key" : "NV12ToARGBRow_SSSE3",
   "parameters" :
   [
    {
     "referenced_type" : "_ZTIPKh"
    },
    {
     "referenced_type" : "_ZTIPKh"
    },
    {
     "referenced_type" : "_ZTIPh"
    },
    {
     "referenced_type" : "_ZTIPKN6libyuv12YuvConstantsE"
    },
    {
     "referenced_type" : "_ZTIi"
    }
   ],
   "return_type" : "_ZTIv",
   "source_file" : "external/libyuv/include/libyuv/row.h"
  },
  {
   "function_name" : "libyuv::NV12ToI420",
   "linker_set_key" : "NV12ToI420",
   "parameters" :
   [
    {
     "referenced_type" : "_ZTIPKh"
    },
    {
     "referenced_type" : "_ZTIi"
    },
    {
     "referenced_type" : "_ZTIPKh"
    },
    {
     "referenced_type" : "_ZTIi"
    },
    {
     "referenced_type" : "_ZTIPh"
    },
    {
     "referenced_type" : "_ZTIi"
    },
    {
     "referenced_type" : "_ZTIPh"
    },
    {
     "referenced_type" : "_ZTIi"
    },
    {
     "referenced_type" : "_ZTIPh"
    },
    {
     "referenced_type" : "_ZTIi"
    },
    {
     "referenced_type" : "_ZTIi"
    },
    {
     "referenced_type" : "_ZTIi"
    }
   ],
   "return_type" : "_ZTIi",
   "source_file" : "external/libyuv/include/libyuv/convert.h"
  },
  {
   "function_name" : "libyuv::NV12ToI420Rotate",
   "linker_set_key" : "NV12ToI420Rotate",
   "parameters" :
   [
    {
     "referenced_type" : "_ZTIPKh"
    },
    {
     "referenced_type" : "_ZTIi"
    },
    {
     "referenced_type" : "_ZTIPKh"
    },
    {
     "referenced_type" : "_ZTIi"
    },
    {
     "referenced_type" : "_ZTIPh"
    },
    {
     "referenced_type" : "_ZTIi"
    },
    {
     "referenced_type" : "_ZTIPh"
    },
    {
     "referenced_type" : "_ZTIi"
    },
    {
     "referenced_type" : "_ZTIPh"
    },
    {
     "referenced_type" : "_ZTIi"
    },
    {
     "referenced_type" : "_ZTIi"
    },
    {
     "referenced_type" : "_ZTIi"
    },
    {
     "referenced_type" : "_ZTIN6libyuv12RotationModeE"
    }
   ],
   "return_type" : "_ZTIi",
   "source_file" : "external/libyuv/include/libyuv/rotate.h"
  },
  {
   "function_name" : "libyuv::NV12ToNV24",
   "linker_set_key" : "NV12ToNV24",
   "parameters" :
   [
    {
     "referenced_type" : "_ZTIPKh"
    },
    {
     "referenced_type" : "_ZTIi"
    },
    {
     "referenced_type" : "_ZTIPKh"
    },
    {
     "referenced_type" : "_ZTIi"
    },
    {
     "referenced_type" : "_ZTIPh"
    },
    {
     "referenced_type" : "_ZTIi"
    },
    {
     "referenced_type" : "_ZTIPh"
    },
    {
     "referenced_type" : "_ZTIi"
    },
    {
     "referenced_type" : "_ZTIi"
    },
    {
     "referenced_type" : "_ZTIi"
    }
   ],
   "return_type" : "_ZTIi",
   "source_file" : "external/libyuv/include/libyuv/convert.h"
  },
  {
   "function_name" : "libyuv::NV12ToRAW",
   "linker_set_key" : "NV12ToRAW",
   "parameters" :
   [
    {
     "referenced_type" : "_ZTIPKh"
    },
    {
     "referenced_type" : "_ZTIi"
    },
    {
     "referenced_type" : "_ZTIPKh"
    },
    {
     "referenced_type" : "_ZTIi"
    },
    {
     "referenced_type" : "_ZTIPh"
    },
    {
     "referenced_type" : "_ZTIi"
    },
    {
     "referenced_type" : "_ZTIi"
    },
    {
     "referenced_type" : "_ZTIi"
    }
   ],
   "return_type" : "_ZTIi",
   "source_file" : "external/libyuv/include/libyuv/convert_argb.h"
  },
  {
   "function_name" : "libyuv::NV12ToRGB24",
   "linker_set_key" : "NV12ToRGB24",
   "parameters" :
   [
    {
     "referenced_type" : "_ZTIPKh"
    },
    {
     "referenced_type" : "_ZTIi"
    },
    {
     "referenced_type" : "_ZTIPKh"
    },
    {
     "referenced_type" : "_ZTIi"
    },
    {
     "referenced_type" : "_ZTIPh"
    },
    {
     "referenced_type" : "_ZTIi"
    },
    {
     "referenced_type" : "_ZTIi"
    },
    {
     "referenced_type" : "_ZTIi"
    }
   ],
   "return_type" : "_ZTIi",
   "source_file" : "external/libyuv/include/libyuv/convert_argb.h"
  },
  {
   "function_name" : "libyuv::NV12ToRGB24Matrix",
   "linker_set_key" : "NV12ToRGB24Matrix",
   "parameters" :
   [
    {
     "referenced_type" : "_ZTIPKh"
    },
    {
     "referenced_type" : "_ZTIi"
    },
    {
     "referenced_type" : "_ZTIPKh"
    },
    {
     "referenced_type" : "_ZTIi"
    },
    {
     "referenced_type" : "_ZTIPh"
    },
    {
     "referenced_type" : "_ZTIi"
    },
    {
     "referenced_type" : "_ZTIPKN6libyuv12YuvConstantsE"
    },
    {
     "referenced_type" : "_ZTIi"
    },
    {
     "referenced_type" : "_ZTIi"
    }
   ],
   "return_type" : "_ZTIi",
   "source_file" : "external/libyuv/include/libyuv/convert_argb.h"
  },
  {
   "function_name" : "libyuv::NV12ToRGB24Row_AVX2",
   "linker_set_key" : "NV12ToRGB24Row_AVX2",
   "parameters" :
   [
    {
     "referenced_type" : "_ZTIPKh"
    },
    {
     "referenced_type" : "_ZTIPKh"
    },
    {
     "referenced_type" : "_ZTIPh"
    },
    {
     "referenced_type" : "_ZTIPKN6libyuv12YuvConstantsE"
    },
    {
     "referenced_type" : "_ZTIi"
    }
   ],
   "return_type" : "_ZTIv",
   "source_file" : "external/libyuv/include/libyuv/row.h"
  },
  {
   "function_name" : "libyuv::NV12ToRGB24Row_Any_AVX2",
   "linker_set_key" : "NV12ToRGB24Row_Any_AVX2",
   "parameters" :
   [
    {
     "referenced_type" : "_ZTIPKh"
    },
    {
     "referenced_type" : "_ZTIPKh"
    },
    {
     "referenced_type" : "_ZTIPh"
    },
    {
     "referenced_type" : "_ZTIPKN6libyuv12YuvConstantsE"
    },
    {
     "referenced_type" : "_ZTIi"
    }
   ],
   "return_type" : "_ZTIv",
   "source_file" : "external/libyuv/include/libyuv/row.h"
  },
  {
   "function_name" : "libyuv::NV12ToRGB24Row_Any_SSSE3",
   "linker_set_key" : "NV12ToRGB24Row_Any_SSSE3",
   "parameters" :
   [
    {
     "referenced_type" : "_ZTIPKh"
    },
    {
     "referenced_type" : "_ZTIPKh"
    },
    {
     "referenced_type" : "_ZTIPh"
    },
    {
     "referenced_type" : "_ZTIPKN6libyuv12YuvConstantsE"
    },
    {
     "referenced_type" : "_ZTIi"
    }
   ],
   "return_type" : "_ZTIv",
   "source_file" : "external/libyuv/include/libyuv/row.h"
  },
  {
   "function_name" : "libyuv::NV12ToRGB24Row_C",
   "linker_set_key" : "NV12ToRGB24Row_C",
   "parameters" :
   [
    {
     "referenced_type" : "_ZTIPKh"
    },
    {
     "referenced_type" : "_ZTIPKh"
    },
    {
     "referenced_type" : "_ZTIPh"
    },
    {
     "referenced_type" : "_ZTIPKN6libyuv12YuvConstantsE"
    },
    {
     "referenced_type" : "_ZTIi"
    }
   ],
   "return_type" : "_ZTIv",
   "source_file" : "external/libyuv/include/libyuv/row.h"
  },
  {
   "function_name" : "libyuv::NV12ToRGB24Row_SSSE3",
   "linker_set_key" : "NV12ToRGB24Row_SSSE3",
   "parameters" :
   [
    {
     "referenced_type" : "_ZTIPKh"
    },
    {
     "referenced_type" : "_ZTIPKh"
    },
    {
     "referenced_type" : "_ZTIPh"
    },
    {
     "referenced_type" : "_ZTIPKN6libyuv12YuvConstantsE"
    },
    {
     "referenced_type" : "_ZTIi"
    }
   ],
   "return_type" : "_ZTIv",
   "source_file" : "external/libyuv/include/libyuv/row.h"
  },
  {
   "function_name" : "libyuv::NV12ToRGB565",
   "linker_set_key" : "NV12ToRGB565",
   "parameters" :
   [
    {
     "referenced_type" : "_ZTIPKh"
    },
    {
     "referenced_type" : "_ZTIi"
    },
    {
     "referenced_type" : "_ZTIPKh"
    },
    {
     "referenced_type" : "_ZTIi"
    },
    {
     "referenced_type" : "_ZTIPh"
    },
    {
     "referenced_type" : "_ZTIi"
    },
    {
     "referenced_type" : "_ZTIi"
    },
    {
     "referenced_type" : "_ZTIi"
    }
   ],
   "return_type" : "_ZTIi",
   "source_file" : "external/libyuv/include/libyuv/convert_argb.h"
  },
  {
   "function_name" : "libyuv::NV12ToRGB565Matrix",
   "linker_set_key" : "NV12ToRGB565Matrix",
   "parameters" :
   [
    {
     "referenced_type" : "_ZTIPKh"
    },
    {
     "referenced_type" : "_ZTIi"
    },
    {
     "referenced_type" : "_ZTIPKh"
    },
    {
     "referenced_type" : "_ZTIi"
    },
    {
     "referenced_type" : "_ZTIPh"
    },
    {
     "referenced_type" : "_ZTIi"
    },
    {
     "referenced_type" : "_ZTIPKN6libyuv12YuvConstantsE"
    },
    {
     "referenced_type" : "_ZTIi"
    },
    {
     "referenced_type" : "_ZTIi"
    }
   ],
   "return_type" : "_ZTIi",
   "source_file" : "external/libyuv/include/libyuv/convert_argb.h"
  },
  {
   "function_name" : "libyuv::NV12ToRGB565Row_AVX2",
   "linker_set_key" : "NV12ToRGB565Row_AVX2",
   "parameters" :
   [
    {
     "referenced_type" : "_ZTIPKh"
    },
    {
     "referenced_type" : "_ZTIPKh"
    },
    {
     "referenced_type" : "_ZTIPh"
    },
    {
     "referenced_type" : "_ZTIPKN6libyuv12YuvConstantsE"
    },
    {
     "referenced_type" : "_ZTIi"
    }
   ],
   "return_type" : "_ZTIv",
   "source_file" : "external/libyuv/include/libyuv/row.h"
  },
  {
   "function_name" : "libyuv::NV12ToRGB565Row_Any_AVX2",
   "linker_set_key" : "NV12ToRGB565Row_Any_AVX2",
   "parameters" :
   [
    {
     "referenced_type" : "_ZTIPKh"
    },
    {
     "referenced_type" : "_ZTIPKh"
    },
    {
     "referenced_type" : "_ZTIPh"
    },
    {
     "referenced_type" : "_ZTIPKN6libyuv12YuvConstantsE"
    },
    {
     "referenced_type" : "_ZTIi"
    }
   ],
   "return_type" : "_ZTIv",
   "source_file" : "external/libyuv/include/libyuv/row.h"
  },
  {
   "function_name" : "libyuv::NV12ToRGB565Row_Any_SSSE3",
   "linker_set_key" : "NV12ToRGB565Row_Any_SSSE3",
   "parameters" :
   [
    {
     "referenced_type" : "_ZTIPKh"
    },
    {
     "referenced_type" : "_ZTIPKh"
    },
    {
     "referenced_type" : "_ZTIPh"
    },
    {
     "referenced_type" : "_ZTIPKN6libyuv12YuvConstantsE"
    },
    {
     "referenced_type" : "_ZTIi"
    }
   ],
   "return_type" : "_ZTIv",
   "source_file" : "external/libyuv/include/libyuv/row.h"
  },
  {
   "function_name" : "libyuv::NV12ToRGB565Row_C",
   "linker_set_key" : "NV12ToRGB565Row_C",
   "parameters" :
   [
    {
     "referenced_type" : "_ZTIPKh"
    },
    {
     "referenced_type" : "_ZTIPKh"
    },
    {
     "referenced_type" : "_ZTIPh"
    },
    {
     "referenced_type" : "_ZTIPKN6libyuv12YuvConstantsE"
    },
    {
     "referenced_type" : "_ZTIi"
    }
   ],
   "return_type" : "_ZTIv",
   "source_file" : "external/libyuv/include/libyuv/row.h"
  },
  {
   "function_name" : "libyuv::NV12ToRGB565Row_SSSE3",
   "linker_set_key" : "NV12ToRGB565Row_SSSE3",
   "parameters" :
   [
    {
     "referenced_type" : "_ZTIPKh"
    },
    {
     "referenced_type" : "_ZTIPKh"
    },
    {
     "referenced_type" : "_ZTIPh"
    },
    {
     "referenced_type" : "_ZTIPKN6libyuv12YuvConstantsE"
    },
    {
     "referenced_type" : "_ZTIi"
    }
   ],
   "return_type" : "_ZTIv",
   "source_file" : "external/libyuv/include/libyuv/row.h"
  },
  {
   "function_name" : "libyuv::NV16ToNV24",
   "linker_set_key" : "NV16ToNV24",
   "parameters" :
   [
    {
     "referenced_type" : "_ZTIPKh"
    },
    {
     "referenced_type" : "_ZTIi"
    },
    {
     "referenced_type" : "_ZTIPKh"
    },
    {
     "referenced_type" : "_ZTIi"
    },
    {
     "referenced_type" : "_ZTIPh"
    },
    {
     "referenced_type" : "_ZTIi"
    },
    {
     "referenced_type" : "_ZTIPh"
    },
    {
     "referenced_type" : "_ZTIi"
    },
    {
     "referenced_type" : "_ZTIi"
    },
    {
     "referenced_type" : "_ZTIi"
    }
   ],
   "return_type" : "_ZTIi",
   "source_file" : "external/libyuv/include/libyuv/convert.h"
  },
  {
   "function_name" : "libyuv::NV21Copy",
   "linker_set_key" : "NV21Copy",
   "parameters" :
   [
    {
     "referenced_type" : "_ZTIPKh"
    },
    {
     "referenced_type" : "_ZTIi"
    },
    {
     "referenced_type" : "_ZTIPKh"
    },
    {
     "referenced_type" : "_ZTIi"
    },
    {
     "referenced_type" : "_ZTIPh"
    },
    {
     "referenced_type" : "_ZTIi"
    },
    {
     "referenced_type" : "_ZTIPh"
    },
    {
     "referenced_type" : "_ZTIi"
    },
    {
     "referenced_type" : "_ZTIi"
    },
    {
     "referenced_type" : "_ZTIi"
    }
   ],
   "return_type" : "_ZTIi",
   "source_file" : "external/libyuv/include/libyuv/planar_functions.h"
  },
  {
   "function_name" : "libyuv::NV21ToABGR",
   "linker_set_key" : "NV21ToABGR",
   "parameters" :
   [
    {
     "referenced_type" : "_ZTIPKh"
    },
    {
     "referenced_type" : "_ZTIi"
    },
    {
     "referenced_type" : "_ZTIPKh"
    },
    {
     "referenced_type" : "_ZTIi"
    },
    {
     "referenced_type" : "_ZTIPh"
    },
    {
     "referenced_type" : "_ZTIi"
    },
    {
     "referenced_type" : "_ZTIi"
    },
    {
     "referenced_type" : "_ZTIi"
    }
   ],
   "return_type" : "_ZTIi",
   "source_file" : "external/libyuv/include/libyuv/convert_argb.h"
  },
  {
   "function_name" : "libyuv::NV21ToARGB",
   "linker_set_key" : "NV21ToARGB",
   "parameters" :
   [
    {
     "referenced_type" : "_ZTIPKh"
    },
    {
     "referenced_type" : "_ZTIi"
    },
    {
     "referenced_type" : "_ZTIPKh"
    },
    {
     "referenced_type" : "_ZTIi"
    },
    {
     "referenced_type" : "_ZTIPh"
    },
    {
     "referenced_type" : "_ZTIi"
    },
    {
     "referenced_type" : "_ZTIi"
    },
    {
     "referenced_type" : "_ZTIi"
    }
   ],
   "return_type" : "_ZTIi",
   "source_file" : "external/libyuv/include/libyuv/convert_argb.h"
  },
  {
   "function_name" : "libyuv::NV21ToARGBMatrix",
   "linker_set_key" : "NV21ToARGBMatrix",
   "parameters" :
   [
    {
     "referenced_type" : "_ZTIPKh"
    },
    {
     "referenced_type" : "_ZTIi"
    },
    {
     "referenced_type" : "_ZTIPKh"
    },
    {
     "referenced_type" : "_ZTIi"
    },
    {
     "referenced_type" : "_ZTIPh"
    },
    {
     "referenced_type" : "_ZTIi"
    },
    {
     "referenced_type" : "_ZTIPKN6libyuv12YuvConstantsE"
    },
    {
     "referenced_type" : "_ZTIi"
    },
    {
     "referenced_type" : "_ZTIi"
    }
   ],
   "return_type" : "_ZTIi",
   "source_file" : "external/libyuv/include/libyuv/convert_argb.h"
  },
  {
   "function_name" : "libyuv::NV21ToARGBRow_AVX2",
   "linker_set_key" : "NV21ToARGBRow_AVX2",
   "parameters" :
   [
    {
     "referenced_type" : "_ZTIPKh"
    },
    {
     "referenced_type" : "_ZTIPKh"
    },
    {
     "referenced_type" : "_ZTIPh"
    },
    {
     "referenced_type" : "_ZTIPKN6libyuv12YuvConstantsE"
    },
    {
     "referenced_type" : "_ZTIi"
    }
   ],
   "return_type" : "_ZTIv",
   "source_file" : "external/libyuv/include/libyuv/row.h"
  },
  {
   "function_name" : "libyuv::NV21ToARGBRow_Any_AVX2",
   "linker_set_key" : "NV21ToARGBRow_Any_AVX2",
   "parameters" :
   [
    {
     "referenced_type" : "_ZTIPKh"
    },
    {
     "referenced_type" : "_ZTIPKh"
    },
    {
     "referenced_type" : "_ZTIPh"
    },
    {
     "referenced_type" : "_ZTIPKN6libyuv12YuvConstantsE"
    },
    {
     "referenced_type" : "_ZTIi"
    }
   ],
   "return_type" : "_ZTIv",
   "source_file" : "external/libyuv/include/libyuv/row.h"
  },
  {
   "function_name" : "libyuv::NV21ToARGBRow_Any_SSSE3",
   "linker_set_key" : "NV21ToARGBRow_Any_SSSE3",
   "parameters" :
   [
    {
     "referenced_type" : "_ZTIPKh"
    },
    {
     "referenced_type" : "_ZTIPKh"
    },
    {
     "referenced_type" : "_ZTIPh"
    },
    {
     "referenced_type" : "_ZTIPKN6libyuv12YuvConstantsE"
    },
    {
     "referenced_type" : "_ZTIi"
    }
   ],
   "return_type" : "_ZTIv",
   "source_file" : "external/libyuv/include/libyuv/row.h"
  },
  {
   "function_name" : "libyuv::NV21ToARGBRow_C",
   "linker_set_key" : "NV21ToARGBRow_C",
   "parameters" :
   [
    {
     "referenced_type" : "_ZTIPKh"
    },
    {
     "referenced_type" : "_ZTIPKh"
    },
    {
     "referenced_type" : "_ZTIPh"
    },
    {
     "referenced_type" : "_ZTIPKN6libyuv12YuvConstantsE"
    },
    {
     "referenced_type" : "_ZTIi"
    }
   ],
   "return_type" : "_ZTIv",
   "source_file" : "external/libyuv/include/libyuv/row.h"
  },
  {
   "function_name" : "libyuv::NV21ToARGBRow_SSSE3",
   "linker_set_key" : "NV21ToARGBRow_SSSE3",
   "parameters" :
   [
    {
     "referenced_type" : "_ZTIPKh"
    },
    {
     "referenced_type" : "_ZTIPKh"
    },
    {
     "referenced_type" : "_ZTIPh"
    },
    {
     "referenced_type" : "_ZTIPKN6libyuv12YuvConstantsE"
    },
    {
     "referenced_type" : "_ZTIi"
    }
   ],
   "return_type" : "_ZTIv",
   "source_file" : "external/libyuv/include/libyuv/row.h"
  },
  {
   "function_name" : "libyuv::NV21ToI420",
   "linker_set_key" : "NV21ToI420",
   "parameters" :
   [
    {
     "referenced_type" : "_ZTIPKh"
    },
    {
     "referenced_type" : "_ZTIi"
    },
    {
     "referenced_type" : "_ZTIPKh"
    },
    {
     "referenced_type" : "_ZTIi"
    },
    {
     "referenced_type" : "_ZTIPh"
    },
    {
     "referenced_type" : "_ZTIi"
    },
    {
     "referenced_type" : "_ZTIPh"
    },
    {
     "referenced_type" : "_ZTIi"
    },
    {
     "referenced_type" : "_ZTIPh"
    },
    {
     "referenced_type" : "_ZTIi"
    },
    {
     "referenced_type" : "_ZTIi"
    },
    {
     "referenced_type" : "_ZTIi"
    }
   ],
   "return_type" : "_ZTIi",
   "source_file" : "external/libyuv/include/libyuv/convert.h"
  },
  {
   "function_name" : "libyuv::NV21ToNV12",
   "linker_set_key" : "NV21ToNV12",
   "parameters" :
   [
    {
     "referenced_type" : "_ZTIPKh"
    },
    {
     "referenced_type" : "_ZTIi"
    },
    {
     "referenced_type" : "_ZTIPKh"
    },
    {
     "referenced_type" : "_ZTIi"
    },
    {
     "referenced_type" : "_ZTIPh"
    },
    {
     "referenced_type" : "_ZTIi"
    },
    {
     "referenced_type" : "_ZTIPh"
    },
    {
     "referenced_type" : "_ZTIi"
    },
    {
     "referenced_type" : "_ZTIi"
    },
    {
     "referenced_type" : "_ZTIi"
    }
   ],
   "return_type" : "_ZTIi",
   "source_file" : "external/libyuv/include/libyuv/planar_functions.h"
  },
  {
   "function_name" : "libyuv::NV21ToRAW",
   "linker_set_key" : "NV21ToRAW",
   "parameters" :
   [
    {
     "referenced_type" : "_ZTIPKh"
    },
    {
     "referenced_type" : "_ZTIi"
    },
    {
     "referenced_type" : "_ZTIPKh"
    },
    {
     "referenced_type" : "_ZTIi"
    },
    {
     "referenced_type" : "_ZTIPh"
    },
    {
     "referenced_type" : "_ZTIi"
    },
    {
     "referenced_type" : "_ZTIi"
    },
    {
     "referenced_type" : "_ZTIi"
    }
   ],
   "return_type" : "_ZTIi",
   "source_file" : "external/libyuv/include/libyuv/convert_argb.h"
  },
  {
   "function_name" : "libyuv::NV21ToRGB24",
   "linker_set_key" : "NV21ToRGB24",
   "parameters" :
   [
    {
     "referenced_type" : "_ZTIPKh"
    },
    {
     "referenced_type" : "_ZTIi"
    },
    {
     "referenced_type" : "_ZTIPKh"
    },
    {
     "referenced_type" : "_ZTIi"
    },
    {
     "referenced_type" : "_ZTIPh"
    },
    {
     "referenced_type" : "_ZTIi"
    },
    {
     "referenced_type" : "_ZTIi"
    },
    {
     "referenced_type" : "_ZTIi"
    }
   ],
   "return_type" : "_ZTIi",
   "source_file" : "external/libyuv/include/libyuv/convert_argb.h"
  },
  {
   "function_name" : "libyuv::NV21ToRGB24Matrix",
   "linker_set_key" : "NV21ToRGB24Matrix",
   "parameters" :
   [
    {
     "referenced_type" : "_ZTIPKh"
    },
    {
     "referenced_type" : "_ZTIi"
    },
    {
     "referenced_type" : "_ZTIPKh"
    },
    {
     "referenced_type" : "_ZTIi"
    },
    {
     "referenced_type" : "_ZTIPh"
    },
    {
     "referenced_type" : "_ZTIi"
    },
    {
     "referenced_type" : "_ZTIPKN6libyuv12YuvConstantsE"
    },
    {
     "referenced_type" : "_ZTIi"
    },
    {
     "referenced_type" : "_ZTIi"
    }
   ],
   "return_type" : "_ZTIi",
   "source_file" : "external/libyuv/include/libyuv/convert_argb.h"
  },
  {
   "function_name" : "libyuv::NV21ToRGB24Row_AVX2",
   "linker_set_key" : "NV21ToRGB24Row_AVX2",
   "parameters" :
   [
    {
     "referenced_type" : "_ZTIPKh"
    },
    {
     "referenced_type" : "_ZTIPKh"
    },
    {
     "referenced_type" : "_ZTIPh"
    },
    {
     "referenced_type" : "_ZTIPKN6libyuv12YuvConstantsE"
    },
    {
     "referenced_type" : "_ZTIi"
    }
   ],
   "return_type" : "_ZTIv",
   "source_file" : "external/libyuv/include/libyuv/row.h"
  },
  {
   "function_name" : "libyuv::NV21ToRGB24Row_Any_AVX2",
   "linker_set_key" : "NV21ToRGB24Row_Any_AVX2",
   "parameters" :
   [
    {
     "referenced_type" : "_ZTIPKh"
    },
    {
     "referenced_type" : "_ZTIPKh"
    },
    {
     "referenced_type" : "_ZTIPh"
    },
    {
     "referenced_type" : "_ZTIPKN6libyuv12YuvConstantsE"
    },
    {
     "referenced_type" : "_ZTIi"
    }
   ],
   "return_type" : "_ZTIv",
   "source_file" : "external/libyuv/include/libyuv/row.h"
  },
  {
   "function_name" : "libyuv::NV21ToRGB24Row_Any_SSSE3",
   "linker_set_key" : "NV21ToRGB24Row_Any_SSSE3",
   "parameters" :
   [
    {
     "referenced_type" : "_ZTIPKh"
    },
    {
     "referenced_type" : "_ZTIPKh"
    },
    {
     "referenced_type" : "_ZTIPh"
    },
    {
     "referenced_type" : "_ZTIPKN6libyuv12YuvConstantsE"
    },
    {
     "referenced_type" : "_ZTIi"
    }
   ],
   "return_type" : "_ZTIv",
   "source_file" : "external/libyuv/include/libyuv/row.h"
  },
  {
   "function_name" : "libyuv::NV21ToRGB24Row_C",
   "linker_set_key" : "NV21ToRGB24Row_C",
   "parameters" :
   [
    {
     "referenced_type" : "_ZTIPKh"
    },
    {
     "referenced_type" : "_ZTIPKh"
    },
    {
     "referenced_type" : "_ZTIPh"
    },
    {
     "referenced_type" : "_ZTIPKN6libyuv12YuvConstantsE"
    },
    {
     "referenced_type" : "_ZTIi"
    }
   ],
   "return_type" : "_ZTIv",
   "source_file" : "external/libyuv/include/libyuv/row.h"
  },
  {
   "function_name" : "libyuv::NV21ToRGB24Row_SSSE3",
   "linker_set_key" : "NV21ToRGB24Row_SSSE3",
   "parameters" :
   [
    {
     "referenced_type" : "_ZTIPKh"
    },
    {
     "referenced_type" : "_ZTIPKh"
    },
    {
     "referenced_type" : "_ZTIPh"
    },
    {
     "referenced_type" : "_ZTIPKN6libyuv12YuvConstantsE"
    },
    {
     "referenced_type" : "_ZTIi"
    }
   ],
   "return_type" : "_ZTIv",
   "source_file" : "external/libyuv/include/libyuv/row.h"
  },
  {
   "function_name" : "libyuv::NV21ToYUV24",
   "linker_set_key" : "NV21ToYUV24",
   "parameters" :
   [
    {
     "referenced_type" : "_ZTIPKh"
    },
    {
     "referenced_type" : "_ZTIi"
    },
    {
     "referenced_type" : "_ZTIPKh"
    },
    {
     "referenced_type" : "_ZTIi"
    },
    {
     "referenced_type" : "_ZTIPh"
    },
    {
     "referenced_type" : "_ZTIi"
    },
    {
     "referenced_type" : "_ZTIi"
    },
    {
     "referenced_type" : "_ZTIi"
    }
   ],
   "return_type" : "_ZTIi",
   "source_file" : "external/libyuv/include/libyuv/convert_argb.h"
  },
  {
   "function_name" : "libyuv::NV21ToYUV24Row_AVX2",
   "linker_set_key" : "NV21ToYUV24Row_AVX2",
   "parameters" :
   [
    {
     "referenced_type" : "_ZTIPKh"
    },
    {
     "referenced_type" : "_ZTIPKh"
    },
    {
     "referenced_type" : "_ZTIPh"
    },
    {
     "referenced_type" : "_ZTIi"
    }
   ],
   "return_type" : "_ZTIv",
   "source_file" : "external/libyuv/include/libyuv/row.h"
  },
  {
   "function_name" : "libyuv::NV21ToYUV24Row_Any_AVX2",
   "linker_set_key" : "NV21ToYUV24Row_Any_AVX2",
   "parameters" :
   [
    {
     "referenced_type" : "_ZTIPKh"
    },
    {
     "referenced_type" : "_ZTIPKh"
    },
    {
     "referenced_type" : "_ZTIPh"
    },
    {
     "referenced_type" : "_ZTIi"
    }
   ],
   "return_type" : "_ZTIv",
   "source_file" : "external/libyuv/include/libyuv/row.h"
  },
  {
   "function_name" : "libyuv::NV21ToYUV24Row_Any_SSSE3",
   "linker_set_key" : "NV21ToYUV24Row_Any_SSSE3",
   "parameters" :
   [
    {
     "referenced_type" : "_ZTIPKh"
    },
    {
     "referenced_type" : "_ZTIPKh"
    },
    {
     "referenced_type" : "_ZTIPh"
    },
    {
     "referenced_type" : "_ZTIi"
    }
   ],
   "return_type" : "_ZTIv",
   "source_file" : "external/libyuv/include/libyuv/row.h"
  },
  {
   "function_name" : "libyuv::NV21ToYUV24Row_C",
   "linker_set_key" : "NV21ToYUV24Row_C",
   "parameters" :
   [
    {
     "referenced_type" : "_ZTIPKh"
    },
    {
     "referenced_type" : "_ZTIPKh"
    },
    {
     "referenced_type" : "_ZTIPh"
    },
    {
     "referenced_type" : "_ZTIi"
    }
   ],
   "return_type" : "_ZTIv",
   "source_file" : "external/libyuv/include/libyuv/row.h"
  },
  {
   "function_name" : "libyuv::NV21ToYUV24Row_SSSE3",
   "linker_set_key" : "NV21ToYUV24Row_SSSE3",
   "parameters" :
   [
    {
     "referenced_type" : "_ZTIPKh"
    },
    {
     "referenced_type" : "_ZTIPKh"
    },
    {
     "referenced_type" : "_ZTIPh"
    },
    {
     "referenced_type" : "_ZTIi"
    }
   ],
   "return_type" : "_ZTIv",
   "source_file" : "external/libyuv/include/libyuv/row.h"
  },
  {
   "function_name" : "libyuv::P010ToAR30Matrix",
   "linker_set_key" : "P010ToAR30Matrix",
   "parameters" :
   [
    {
     "referenced_type" : "_ZTIPKt"
    },
    {
     "referenced_type" : "_ZTIi"
    },
    {
     "referenced_type" : "_ZTIPKt"
    },
    {
     "referenced_type" : "_ZTIi"
    },
    {
     "referenced_type" : "_ZTIPh"
    },
    {
     "referenced_type" : "_ZTIi"
    },
    {
     "referenced_type" : "_ZTIPKN6libyuv12YuvConstantsE"
    },
    {
     "referenced_type" : "_ZTIi"
    },
    {
     "referenced_type" : "_ZTIi"
    }
   ],
